
cat:     file format elf32-i386


Disassembly of section .init:

08048df8 <.init>:
 8048df8:	55                   	push   %ebp
 8048df9:	89 e5                	mov    %esp,%ebp
 8048dfb:	53                   	push   %ebx
 8048dfc:	83 ec 04             	sub    $0x4,%esp
 8048dff:	e8 00 00 00 00       	call   8048e04 <getpagesize@plt-0x34>
 8048e04:	5b                   	pop    %ebx
 8048e05:	81 c3 f0 c1 00 00    	add    $0xc1f0,%ebx
 8048e0b:	8b 93 f8 ff ff ff    	mov    -0x8(%ebx),%edx
 8048e11:	85 d2                	test   %edx,%edx
 8048e13:	74 05                	je     8048e1a <getpagesize@plt-0x1e>
 8048e15:	e8 9e 00 00 00       	call   8048eb8 <__gmon_start__@plt>
 8048e1a:	e8 a1 04 00 00       	call   80492c0 <exit@plt+0xa8>
 8048e1f:	e8 bc 92 00 00       	call   80520e0 <exit@plt+0x8ec8>
 8048e24:	58                   	pop    %eax
 8048e25:	5b                   	pop    %ebx
 8048e26:	c9                   	leave  
 8048e27:	c3                   	ret    

Disassembly of section .plt:

08048e28 <getpagesize@plt-0x10>:
 8048e28:	ff 35 f8 4f 05 08    	pushl  0x8054ff8
 8048e2e:	ff 25 fc 4f 05 08    	jmp    *0x8054ffc
 8048e34:	00 00                	add    %al,(%eax)
	...

08048e38 <getpagesize@plt>:
 8048e38:	ff 25 00 50 05 08    	jmp    *0x8055000
 8048e3e:	68 00 00 00 00       	push   $0x0
 8048e43:	e9 e0 ff ff ff       	jmp    8048e28 <getpagesize@plt-0x10>

08048e48 <abort@plt>:
 8048e48:	ff 25 04 50 05 08    	jmp    *0x8055004
 8048e4e:	68 08 00 00 00       	push   $0x8
 8048e53:	e9 d0 ff ff ff       	jmp    8048e28 <getpagesize@plt-0x10>

08048e58 <__errno_location@plt>:
 8048e58:	ff 25 08 50 05 08    	jmp    *0x8055008
 8048e5e:	68 10 00 00 00       	push   $0x10
 8048e63:	e9 c0 ff ff ff       	jmp    8048e28 <getpagesize@plt-0x10>

08048e68 <__cxa_atexit@plt>:
 8048e68:	ff 25 0c 50 05 08    	jmp    *0x805500c
 8048e6e:	68 18 00 00 00       	push   $0x18
 8048e73:	e9 b0 ff ff ff       	jmp    8048e28 <getpagesize@plt-0x10>

08048e78 <open64@plt>:
 8048e78:	ff 25 10 50 05 08    	jmp    *0x8055010
 8048e7e:	68 20 00 00 00       	push   $0x20
 8048e83:	e9 a0 ff ff ff       	jmp    8048e28 <getpagesize@plt-0x10>

08048e88 <fputs_unlocked@plt>:
 8048e88:	ff 25 14 50 05 08    	jmp    *0x8055014
 8048e8e:	68 28 00 00 00       	push   $0x28
 8048e93:	e9 90 ff ff ff       	jmp    8048e28 <getpagesize@plt-0x10>

08048e98 <__ctype_get_mb_cur_max@plt>:
 8048e98:	ff 25 18 50 05 08    	jmp    *0x8055018
 8048e9e:	68 30 00 00 00       	push   $0x30
 8048ea3:	e9 80 ff ff ff       	jmp    8048e28 <getpagesize@plt-0x10>

08048ea8 <__fprintf_chk@plt>:
 8048ea8:	ff 25 1c 50 05 08    	jmp    *0x805501c
 8048eae:	68 38 00 00 00       	push   $0x38
 8048eb3:	e9 70 ff ff ff       	jmp    8048e28 <getpagesize@plt-0x10>

08048eb8 <__gmon_start__@plt>:
 8048eb8:	ff 25 20 50 05 08    	jmp    *0x8055020
 8048ebe:	68 40 00 00 00       	push   $0x40
 8048ec3:	e9 60 ff ff ff       	jmp    8048e28 <getpagesize@plt-0x10>

08048ec8 <realloc@plt>:
 8048ec8:	ff 25 24 50 05 08    	jmp    *0x8055024
 8048ece:	68 48 00 00 00       	push   $0x48
 8048ed3:	e9 50 ff ff ff       	jmp    8048e28 <getpagesize@plt-0x10>

08048ed8 <iconv_open@plt>:
 8048ed8:	ff 25 28 50 05 08    	jmp    *0x8055028
 8048ede:	68 50 00 00 00       	push   $0x50
 8048ee3:	e9 40 ff ff ff       	jmp    8048e28 <getpagesize@plt-0x10>

08048ee8 <__printf_chk@plt>:
 8048ee8:	ff 25 2c 50 05 08    	jmp    *0x805502c
 8048eee:	68 58 00 00 00       	push   $0x58
 8048ef3:	e9 30 ff ff ff       	jmp    8048e28 <getpagesize@plt-0x10>

08048ef8 <strchr@plt>:
 8048ef8:	ff 25 30 50 05 08    	jmp    *0x8055030
 8048efe:	68 60 00 00 00       	push   $0x60
 8048f03:	e9 20 ff ff ff       	jmp    8048e28 <getpagesize@plt-0x10>

08048f08 <getenv@plt>:
 8048f08:	ff 25 34 50 05 08    	jmp    *0x8055034
 8048f0e:	68 68 00 00 00       	push   $0x68
 8048f13:	e9 10 ff ff ff       	jmp    8048e28 <getpagesize@plt-0x10>

08048f18 <calloc@plt>:
 8048f18:	ff 25 38 50 05 08    	jmp    *0x8055038
 8048f1e:	68 70 00 00 00       	push   $0x70
 8048f23:	e9 00 ff ff ff       	jmp    8048e28 <getpagesize@plt-0x10>

08048f28 <write@plt>:
 8048f28:	ff 25 3c 50 05 08    	jmp    *0x805503c
 8048f2e:	68 78 00 00 00       	push   $0x78
 8048f33:	e9 f0 fe ff ff       	jmp    8048e28 <getpagesize@plt-0x10>

08048f38 <__uflow@plt>:
 8048f38:	ff 25 40 50 05 08    	jmp    *0x8055040
 8048f3e:	68 80 00 00 00       	push   $0x80
 8048f43:	e9 e0 fe ff ff       	jmp    8048e28 <getpagesize@plt-0x10>

08048f48 <memset@plt>:
 8048f48:	ff 25 44 50 05 08    	jmp    *0x8055044
 8048f4e:	68 88 00 00 00       	push   $0x88
 8048f53:	e9 d0 fe ff ff       	jmp    8048e28 <getpagesize@plt-0x10>

08048f58 <fopen64@plt>:
 8048f58:	ff 25 48 50 05 08    	jmp    *0x8055048
 8048f5e:	68 90 00 00 00       	push   $0x90
 8048f63:	e9 c0 fe ff ff       	jmp    8048e28 <getpagesize@plt-0x10>

08048f68 <__libc_start_main@plt>:
 8048f68:	ff 25 4c 50 05 08    	jmp    *0x805504c
 8048f6e:	68 98 00 00 00       	push   $0x98
 8048f73:	e9 b0 fe ff ff       	jmp    8048e28 <getpagesize@plt-0x10>

08048f78 <stpcpy@plt>:
 8048f78:	ff 25 50 50 05 08    	jmp    *0x8055050
 8048f7e:	68 a0 00 00 00       	push   $0xa0
 8048f83:	e9 a0 fe ff ff       	jmp    8048e28 <getpagesize@plt-0x10>

08048f88 <_exit@plt>:
 8048f88:	ff 25 54 50 05 08    	jmp    *0x8055054
 8048f8e:	68 a8 00 00 00       	push   $0xa8
 8048f93:	e9 90 fe ff ff       	jmp    8048e28 <getpagesize@plt-0x10>

08048f98 <strrchr@plt>:
 8048f98:	ff 25 58 50 05 08    	jmp    *0x8055058
 8048f9e:	68 b0 00 00 00       	push   $0xb0
 8048fa3:	e9 80 fe ff ff       	jmp    8048e28 <getpagesize@plt-0x10>

08048fa8 <__assert_fail@plt>:
 8048fa8:	ff 25 5c 50 05 08    	jmp    *0x805505c
 8048fae:	68 b8 00 00 00       	push   $0xb8
 8048fb3:	e9 70 fe ff ff       	jmp    8048e28 <getpagesize@plt-0x10>

08048fb8 <bindtextdomain@plt>:
 8048fb8:	ff 25 60 50 05 08    	jmp    *0x8055060
 8048fbe:	68 c0 00 00 00       	push   $0xc0
 8048fc3:	e9 60 fe ff ff       	jmp    8048e28 <getpagesize@plt-0x10>

08048fc8 <mbrtowc@plt>:
 8048fc8:	ff 25 64 50 05 08    	jmp    *0x8055064
 8048fce:	68 c8 00 00 00       	push   $0xc8
 8048fd3:	e9 50 fe ff ff       	jmp    8048e28 <getpagesize@plt-0x10>

08048fd8 <read@plt>:
 8048fd8:	ff 25 68 50 05 08    	jmp    *0x8055068
 8048fde:	68 d0 00 00 00       	push   $0xd0
 8048fe3:	e9 40 fe ff ff       	jmp    8048e28 <getpagesize@plt-0x10>

08048fe8 <ungetc@plt>:
 8048fe8:	ff 25 6c 50 05 08    	jmp    *0x805506c
 8048fee:	68 d8 00 00 00       	push   $0xd8
 8048ff3:	e9 30 fe ff ff       	jmp    8048e28 <getpagesize@plt-0x10>

08048ff8 <free@plt>:
 8048ff8:	ff 25 70 50 05 08    	jmp    *0x8055070
 8048ffe:	68 e0 00 00 00       	push   $0xe0
 8049003:	e9 20 fe ff ff       	jmp    8048e28 <getpagesize@plt-0x10>

08049008 <dcgettext@plt>:
 8049008:	ff 25 74 50 05 08    	jmp    *0x8055074
 804900e:	68 e8 00 00 00       	push   $0xe8
 8049013:	e9 10 fe ff ff       	jmp    8048e28 <getpagesize@plt-0x10>

08049018 <getopt_long@plt>:
 8049018:	ff 25 78 50 05 08    	jmp    *0x8055078
 804901e:	68 f0 00 00 00       	push   $0xf0
 8049023:	e9 00 fe ff ff       	jmp    8048e28 <getpagesize@plt-0x10>

08049028 <ioctl@plt>:
 8049028:	ff 25 7c 50 05 08    	jmp    *0x805507c
 804902e:	68 f8 00 00 00       	push   $0xf8
 8049033:	e9 f0 fd ff ff       	jmp    8048e28 <getpagesize@plt-0x10>

08049038 <__ctype_b_loc@plt>:
 8049038:	ff 25 80 50 05 08    	jmp    *0x8055080
 804903e:	68 00 01 00 00       	push   $0x100
 8049043:	e9 e0 fd ff ff       	jmp    8048e28 <getpagesize@plt-0x10>

08049048 <fclose@plt>:
 8049048:	ff 25 84 50 05 08    	jmp    *0x8055084
 804904e:	68 08 01 00 00       	push   $0x108
 8049053:	e9 d0 fd ff ff       	jmp    8048e28 <getpagesize@plt-0x10>

08049058 <mbsinit@plt>:
 8049058:	ff 25 88 50 05 08    	jmp    *0x8055088
 804905e:	68 10 01 00 00       	push   $0x110
 8049063:	e9 c0 fd ff ff       	jmp    8048e28 <getpagesize@plt-0x10>

08049068 <memcpy@plt>:
 8049068:	ff 25 8c 50 05 08    	jmp    *0x805508c
 804906e:	68 18 01 00 00       	push   $0x118
 8049073:	e9 b0 fd ff ff       	jmp    8048e28 <getpagesize@plt-0x10>

08049078 <strlen@plt>:
 8049078:	ff 25 90 50 05 08    	jmp    *0x8055090
 804907e:	68 20 01 00 00       	push   $0x120
 8049083:	e9 a0 fd ff ff       	jmp    8048e28 <getpagesize@plt-0x10>

08049088 <iconv@plt>:
 8049088:	ff 25 94 50 05 08    	jmp    *0x8055094
 804908e:	68 28 01 00 00       	push   $0x128
 8049093:	e9 90 fd ff ff       	jmp    8048e28 <getpagesize@plt-0x10>

08049098 <setlocale@plt>:
 8049098:	ff 25 98 50 05 08    	jmp    *0x8055098
 804909e:	68 30 01 00 00       	push   $0x130
 80490a3:	e9 80 fd ff ff       	jmp    8048e28 <getpagesize@plt-0x10>

080490a8 <strcpy@plt>:
 80490a8:	ff 25 9c 50 05 08    	jmp    *0x805509c
 80490ae:	68 38 01 00 00       	push   $0x138
 80490b3:	e9 70 fd ff ff       	jmp    8048e28 <getpagesize@plt-0x10>

080490b8 <iswspace@plt>:
 80490b8:	ff 25 a0 50 05 08    	jmp    *0x80550a0
 80490be:	68 40 01 00 00       	push   $0x140
 80490c3:	e9 60 fd ff ff       	jmp    8048e28 <getpagesize@plt-0x10>

080490c8 <close@plt>:
 80490c8:	ff 25 a4 50 05 08    	jmp    *0x80550a4
 80490ce:	68 48 01 00 00       	push   $0x148
 80490d3:	e9 50 fd ff ff       	jmp    8048e28 <getpagesize@plt-0x10>

080490d8 <fwrite@plt>:
 80490d8:	ff 25 a8 50 05 08    	jmp    *0x80550a8
 80490de:	68 50 01 00 00       	push   $0x150
 80490e3:	e9 40 fd ff ff       	jmp    8048e28 <getpagesize@plt-0x10>

080490e8 <nl_langinfo@plt>:
 80490e8:	ff 25 ac 50 05 08    	jmp    *0x80550ac
 80490ee:	68 58 01 00 00       	push   $0x158
 80490f3:	e9 30 fd ff ff       	jmp    8048e28 <getpagesize@plt-0x10>

080490f8 <malloc@plt>:
 80490f8:	ff 25 b0 50 05 08    	jmp    *0x80550b0
 80490fe:	68 60 01 00 00       	push   $0x160
 8049103:	e9 20 fd ff ff       	jmp    8048e28 <getpagesize@plt-0x10>

08049108 <iswalnum@plt>:
 8049108:	ff 25 b4 50 05 08    	jmp    *0x80550b4
 804910e:	68 68 01 00 00       	push   $0x168
 8049113:	e9 10 fd ff ff       	jmp    8048e28 <getpagesize@plt-0x10>

08049118 <__stack_chk_fail@plt>:
 8049118:	ff 25 b8 50 05 08    	jmp    *0x80550b8
 804911e:	68 70 01 00 00       	push   $0x170
 8049123:	e9 00 fd ff ff       	jmp    8048e28 <getpagesize@plt-0x10>

08049128 <iconv_close@plt>:
 8049128:	ff 25 bc 50 05 08    	jmp    *0x80550bc
 804912e:	68 78 01 00 00       	push   $0x178
 8049133:	e9 f0 fc ff ff       	jmp    8048e28 <getpagesize@plt-0x10>

08049138 <__fpending@plt>:
 8049138:	ff 25 c0 50 05 08    	jmp    *0x80550c0
 804913e:	68 80 01 00 00       	push   $0x180
 8049143:	e9 e0 fc ff ff       	jmp    8048e28 <getpagesize@plt-0x10>

08049148 <error@plt>:
 8049148:	ff 25 c4 50 05 08    	jmp    *0x80550c4
 804914e:	68 88 01 00 00       	push   $0x188
 8049153:	e9 d0 fc ff ff       	jmp    8048e28 <getpagesize@plt-0x10>

08049158 <strnlen@plt>:
 8049158:	ff 25 c8 50 05 08    	jmp    *0x80550c8
 804915e:	68 90 01 00 00       	push   $0x190
 8049163:	e9 c0 fc ff ff       	jmp    8048e28 <getpagesize@plt-0x10>

08049168 <memmove@plt>:
 8049168:	ff 25 cc 50 05 08    	jmp    *0x80550cc
 804916e:	68 98 01 00 00       	push   $0x198
 8049173:	e9 b0 fc ff ff       	jmp    8048e28 <getpagesize@plt-0x10>

08049178 <__strndup@plt>:
 8049178:	ff 25 d0 50 05 08    	jmp    *0x80550d0
 804917e:	68 a0 01 00 00       	push   $0x1a0
 8049183:	e9 a0 fc ff ff       	jmp    8048e28 <getpagesize@plt-0x10>

08049188 <textdomain@plt>:
 8049188:	ff 25 d4 50 05 08    	jmp    *0x80550d4
 804918e:	68 a8 01 00 00       	push   $0x1a8
 8049193:	e9 90 fc ff ff       	jmp    8048e28 <getpagesize@plt-0x10>

08049198 <__fxstat64@plt>:
 8049198:	ff 25 d8 50 05 08    	jmp    *0x80550d8
 804919e:	68 b0 01 00 00       	push   $0x1b0
 80491a3:	e9 80 fc ff ff       	jmp    8048e28 <getpagesize@plt-0x10>

080491a8 <fscanf@plt>:
 80491a8:	ff 25 dc 50 05 08    	jmp    *0x80550dc
 80491ae:	68 b8 01 00 00       	push   $0x1b8
 80491b3:	e9 70 fc ff ff       	jmp    8048e28 <getpagesize@plt-0x10>

080491b8 <__sprintf_chk@plt>:
 80491b8:	ff 25 e0 50 05 08    	jmp    *0x80550e0
 80491be:	68 c0 01 00 00       	push   $0x1c0
 80491c3:	e9 60 fc ff ff       	jmp    8048e28 <getpagesize@plt-0x10>

080491c8 <memchr@plt>:
 80491c8:	ff 25 e4 50 05 08    	jmp    *0x80550e4
 80491ce:	68 c8 01 00 00       	push   $0x1c8
 80491d3:	e9 50 fc ff ff       	jmp    8048e28 <getpagesize@plt-0x10>

080491d8 <__snprintf_chk@plt>:
 80491d8:	ff 25 e8 50 05 08    	jmp    *0x80550e8
 80491de:	68 d0 01 00 00       	push   $0x1d0
 80491e3:	e9 40 fc ff ff       	jmp    8048e28 <getpagesize@plt-0x10>

080491e8 <iswprint@plt>:
 80491e8:	ff 25 ec 50 05 08    	jmp    *0x80550ec
 80491ee:	68 d8 01 00 00       	push   $0x1d8
 80491f3:	e9 30 fc ff ff       	jmp    8048e28 <getpagesize@plt-0x10>

080491f8 <strcmp@plt>:
 80491f8:	ff 25 f0 50 05 08    	jmp    *0x80550f0
 80491fe:	68 e0 01 00 00       	push   $0x1e0
 8049203:	e9 20 fc ff ff       	jmp    8048e28 <getpagesize@plt-0x10>

08049208 <__strdup@plt>:
 8049208:	ff 25 f4 50 05 08    	jmp    *0x80550f4
 804920e:	68 e8 01 00 00       	push   $0x1e8
 8049213:	e9 10 fc ff ff       	jmp    8048e28 <getpagesize@plt-0x10>

08049218 <exit@plt>:
 8049218:	ff 25 f8 50 05 08    	jmp    *0x80550f8
 804921e:	68 f0 01 00 00       	push   $0x1f0
 8049223:	e9 00 fc ff ff       	jmp    8048e28 <getpagesize@plt-0x10>

Disassembly of section .text:

08049230 <.text>:
 8049230:	31 ed                	xor    %ebp,%ebp
 8049232:	5e                   	pop    %esi
 8049233:	89 e1                	mov    %esp,%ecx
 8049235:	83 e4 f0             	and    $0xfffffff0,%esp
 8049238:	50                   	push   %eax
 8049239:	54                   	push   %esp
 804923a:	52                   	push   %edx
 804923b:	68 30 20 05 08       	push   $0x8052030
 8049240:	68 40 20 05 08       	push   $0x8052040
 8049245:	51                   	push   %ecx
 8049246:	56                   	push   %esi
 8049247:	68 b0 95 04 08       	push   $0x80495b0
 804924c:	e8 17 fd ff ff       	call   8048f68 <__libc_start_main@plt>
 8049251:	f4                   	hlt    
 8049252:	90                   	nop
 8049253:	90                   	nop
 8049254:	90                   	nop
 8049255:	90                   	nop
 8049256:	90                   	nop
 8049257:	90                   	nop
 8049258:	90                   	nop
 8049259:	90                   	nop
 804925a:	90                   	nop
 804925b:	90                   	nop
 804925c:	90                   	nop
 804925d:	90                   	nop
 804925e:	90                   	nop
 804925f:	90                   	nop
 8049260:	55                   	push   %ebp
 8049261:	89 e5                	mov    %esp,%ebp
 8049263:	53                   	push   %ebx
 8049264:	83 ec 04             	sub    $0x4,%esp
 8049267:	80 3d 64 51 05 08 00 	cmpb   $0x0,0x8055164
 804926e:	75 3f                	jne    80492af <exit@plt+0x97>
 8049270:	a1 68 51 05 08       	mov    0x8055168,%eax
 8049275:	bb 14 4f 05 08       	mov    $0x8054f14,%ebx
 804927a:	81 eb 10 4f 05 08    	sub    $0x8054f10,%ebx
 8049280:	c1 fb 02             	sar    $0x2,%ebx
 8049283:	83 eb 01             	sub    $0x1,%ebx
 8049286:	39 d8                	cmp    %ebx,%eax
 8049288:	73 1e                	jae    80492a8 <exit@plt+0x90>
 804928a:	8d b6 00 00 00 00    	lea    0x0(%esi),%esi
 8049290:	83 c0 01             	add    $0x1,%eax
 8049293:	a3 68 51 05 08       	mov    %eax,0x8055168
 8049298:	ff 14 85 10 4f 05 08 	call   *0x8054f10(,%eax,4)
 804929f:	a1 68 51 05 08       	mov    0x8055168,%eax
 80492a4:	39 d8                	cmp    %ebx,%eax
 80492a6:	72 e8                	jb     8049290 <exit@plt+0x78>
 80492a8:	c6 05 64 51 05 08 01 	movb   $0x1,0x8055164
 80492af:	83 c4 04             	add    $0x4,%esp
 80492b2:	5b                   	pop    %ebx
 80492b3:	5d                   	pop    %ebp
 80492b4:	c3                   	ret    
 80492b5:	8d 74 26 00          	lea    0x0(%esi,%eiz,1),%esi
 80492b9:	8d bc 27 00 00 00 00 	lea    0x0(%edi,%eiz,1),%edi
 80492c0:	55                   	push   %ebp
 80492c1:	89 e5                	mov    %esp,%ebp
 80492c3:	83 ec 18             	sub    $0x18,%esp
 80492c6:	a1 18 4f 05 08       	mov    0x8054f18,%eax
 80492cb:	85 c0                	test   %eax,%eax
 80492cd:	74 12                	je     80492e1 <exit@plt+0xc9>
 80492cf:	b8 00 00 00 00       	mov    $0x0,%eax
 80492d4:	85 c0                	test   %eax,%eax
 80492d6:	74 09                	je     80492e1 <exit@plt+0xc9>
 80492d8:	c7 04 24 18 4f 05 08 	movl   $0x8054f18,(%esp)
 80492df:	ff d0                	call   *%eax
 80492e1:	c9                   	leave  
 80492e2:	c3                   	ret    
 80492e3:	90                   	nop
 80492e4:	90                   	nop
 80492e5:	90                   	nop
 80492e6:	90                   	nop
 80492e7:	90                   	nop
 80492e8:	90                   	nop
 80492e9:	90                   	nop
 80492ea:	90                   	nop
 80492eb:	90                   	nop
 80492ec:	90                   	nop
 80492ed:	90                   	nop
 80492ee:	90                   	nop
 80492ef:	90                   	nop
 80492f0:	55                   	push   %ebp
 80492f1:	89 e5                	mov    %esp,%ebp
 80492f3:	56                   	push   %esi
 80492f4:	53                   	push   %ebx
 80492f5:	83 ec 10             	sub    $0x10,%esp
 80492f8:	8b 5d 08             	mov    0x8(%ebp),%ebx
 80492fb:	85 db                	test   %ebx,%ebx
 80492fd:	74 49                	je     8049348 <exit@plt+0x130>
 80492ff:	8b 35 78 51 05 08    	mov    0x8055178,%esi
 8049305:	c7 44 24 08 05 00 00 	movl   $0x5,0x8(%esp)
 804930c:	00 
 804930d:	c7 44 24 04 48 21 05 	movl   $0x8052148,0x4(%esp)
 8049314:	08 
 8049315:	c7 04 24 00 00 00 00 	movl   $0x0,(%esp)
 804931c:	e8 e7 fc ff ff       	call   8049008 <dcgettext@plt>
 8049321:	89 74 24 0c          	mov    %esi,0xc(%esp)
 8049325:	c7 44 24 04 01 00 00 	movl   $0x1,0x4(%esp)
 804932c:	00 
 804932d:	89 44 24 08          	mov    %eax,0x8(%esp)
 8049331:	a1 44 51 05 08       	mov    0x8055144,%eax
 8049336:	89 04 24             	mov    %eax,(%esp)
 8049339:	e8 6a fb ff ff       	call   8048ea8 <__fprintf_chk@plt>
 804933e:	89 1c 24             	mov    %ebx,(%esp)
 8049341:	e8 d2 fe ff ff       	call   8049218 <exit@plt>
 8049346:	66 90                	xchg   %ax,%ax
 8049348:	8b 35 78 51 05 08    	mov    0x8055178,%esi
 804934e:	c7 44 24 08 05 00 00 	movl   $0x5,0x8(%esp)
 8049355:	00 
 8049356:	c7 44 24 04 70 21 05 	movl   $0x8052170,0x4(%esp)
 804935d:	08 
 804935e:	c7 04 24 00 00 00 00 	movl   $0x0,(%esp)
 8049365:	e8 9e fc ff ff       	call   8049008 <dcgettext@plt>
 804936a:	89 74 24 08          	mov    %esi,0x8(%esp)
 804936e:	c7 04 24 01 00 00 00 	movl   $0x1,(%esp)
 8049375:	89 44 24 04          	mov    %eax,0x4(%esp)
 8049379:	e8 6a fb ff ff       	call   8048ee8 <__printf_chk@plt>
 804937e:	8b 35 60 51 05 08    	mov    0x8055160,%esi
 8049384:	c7 44 24 08 05 00 00 	movl   $0x5,0x8(%esp)
 804938b:	00 
 804938c:	c7 44 24 04 94 21 05 	movl   $0x8052194,0x4(%esp)
 8049393:	08 
 8049394:	c7 04 24 00 00 00 00 	movl   $0x0,(%esp)
 804939b:	e8 68 fc ff ff       	call   8049008 <dcgettext@plt>
 80493a0:	89 74 24 04          	mov    %esi,0x4(%esp)
 80493a4:	89 04 24             	mov    %eax,(%esp)
 80493a7:	e8 dc fa ff ff       	call   8048e88 <fputs_unlocked@plt>
 80493ac:	8b 35 60 51 05 08    	mov    0x8055160,%esi
 80493b2:	c7 44 24 08 05 00 00 	movl   $0x5,0x8(%esp)
 80493b9:	00 
 80493ba:	c7 44 24 04 14 23 05 	movl   $0x8052314,0x4(%esp)
 80493c1:	08 
 80493c2:	c7 04 24 00 00 00 00 	movl   $0x0,(%esp)
 80493c9:	e8 3a fc ff ff       	call   8049008 <dcgettext@plt>
 80493ce:	89 74 24 04          	mov    %esi,0x4(%esp)
 80493d2:	89 04 24             	mov    %eax,(%esp)
 80493d5:	e8 ae fa ff ff       	call   8048e88 <fputs_unlocked@plt>
 80493da:	8b 35 60 51 05 08    	mov    0x8055160,%esi
 80493e0:	c7 44 24 08 05 00 00 	movl   $0x5,0x8(%esp)
 80493e7:	00 
 80493e8:	c7 44 24 04 e8 23 05 	movl   $0x80523e8,0x4(%esp)
 80493ef:	08 
 80493f0:	c7 04 24 00 00 00 00 	movl   $0x0,(%esp)
 80493f7:	e8 0c fc ff ff       	call   8049008 <dcgettext@plt>
 80493fc:	89 74 24 04          	mov    %esi,0x4(%esp)
 8049400:	89 04 24             	mov    %eax,(%esp)
 8049403:	e8 80 fa ff ff       	call   8048e88 <fputs_unlocked@plt>
 8049408:	8b 35 60 51 05 08    	mov    0x8055160,%esi
 804940e:	c7 44 24 08 05 00 00 	movl   $0x5,0x8(%esp)
 8049415:	00 
 8049416:	c7 44 24 04 18 24 05 	movl   $0x8052418,0x4(%esp)
 804941d:	08 
 804941e:	c7 04 24 00 00 00 00 	movl   $0x0,(%esp)
 8049425:	e8 de fb ff ff       	call   8049008 <dcgettext@plt>
 804942a:	89 74 24 04          	mov    %esi,0x4(%esp)
 804942e:	89 04 24             	mov    %eax,(%esp)
 8049431:	e8 52 fa ff ff       	call   8048e88 <fputs_unlocked@plt>
 8049436:	8b 35 60 51 05 08    	mov    0x8055160,%esi
 804943c:	c7 44 24 08 05 00 00 	movl   $0x5,0x8(%esp)
 8049443:	00 
 8049444:	c7 44 24 04 50 24 05 	movl   $0x8052450,0x4(%esp)
 804944b:	08 
 804944c:	c7 04 24 00 00 00 00 	movl   $0x0,(%esp)
 8049453:	e8 b0 fb ff ff       	call   8049008 <dcgettext@plt>
 8049458:	89 74 24 04          	mov    %esi,0x4(%esp)
 804945c:	89 04 24             	mov    %eax,(%esp)
 804945f:	e8 24 fa ff ff       	call   8048e88 <fputs_unlocked@plt>
 8049464:	8b 35 78 51 05 08    	mov    0x8055178,%esi
 804946a:	c7 44 24 08 05 00 00 	movl   $0x5,0x8(%esp)
 8049471:	00 
 8049472:	c7 44 24 04 88 24 05 	movl   $0x8052488,0x4(%esp)
 8049479:	08 
 804947a:	c7 04 24 00 00 00 00 	movl   $0x0,(%esp)
 8049481:	e8 82 fb ff ff       	call   8049008 <dcgettext@plt>
 8049486:	89 74 24 0c          	mov    %esi,0xc(%esp)
 804948a:	89 74 24 08          	mov    %esi,0x8(%esp)
 804948e:	c7 04 24 01 00 00 00 	movl   $0x1,(%esp)
 8049495:	89 44 24 04          	mov    %eax,0x4(%esp)
 8049499:	e8 4a fa ff ff       	call   8048ee8 <__printf_chk@plt>
 804949e:	a1 78 51 05 08       	mov    0x8055178,%eax
 80494a3:	89 04 24             	mov    %eax,(%esp)
 80494a6:	e8 a5 25 00 00       	call   804ba50 <exit@plt+0x2838>
 80494ab:	c7 44 24 08 05 00 00 	movl   $0x5,0x8(%esp)
 80494b2:	00 
 80494b3:	c7 44 24 04 cd 25 05 	movl   $0x80525cd,0x4(%esp)
 80494ba:	08 
 80494bb:	c7 04 24 00 00 00 00 	movl   $0x0,(%esp)
 80494c2:	89 c6                	mov    %eax,%esi
 80494c4:	e8 3f fb ff ff       	call   8049008 <dcgettext@plt>
 80494c9:	89 74 24 08          	mov    %esi,0x8(%esp)
 80494cd:	c7 44 24 0c e4 25 05 	movl   $0x80525e4,0xc(%esp)
 80494d4:	08 
 80494d5:	c7 04 24 01 00 00 00 	movl   $0x1,(%esp)
 80494dc:	89 44 24 04          	mov    %eax,0x4(%esp)
 80494e0:	e8 03 fa ff ff       	call   8048ee8 <__printf_chk@plt>
 80494e5:	c7 44 24 08 05 00 00 	movl   $0x5,0x8(%esp)
 80494ec:	00 
 80494ed:	c7 44 24 04 14 25 05 	movl   $0x8052514,0x4(%esp)
 80494f4:	08 
 80494f5:	c7 04 24 00 00 00 00 	movl   $0x0,(%esp)
 80494fc:	e8 07 fb ff ff       	call   8049008 <dcgettext@plt>
 8049501:	c7 44 24 0c fe 25 05 	movl   $0x80525fe,0xc(%esp)
 8049508:	08 
 8049509:	c7 44 24 08 fa 25 05 	movl   $0x80525fa,0x8(%esp)
 8049510:	08 
 8049511:	c7 04 24 01 00 00 00 	movl   $0x1,(%esp)
 8049518:	89 44 24 04          	mov    %eax,0x4(%esp)
 804951c:	e8 c7 f9 ff ff       	call   8048ee8 <__printf_chk@plt>
 8049521:	8b 35 60 51 05 08    	mov    0x8055160,%esi
 8049527:	c7 44 24 08 05 00 00 	movl   $0x5,0x8(%esp)
 804952e:	00 
 804952f:	c7 44 24 04 48 25 05 	movl   $0x8052548,0x4(%esp)
 8049536:	08 
 8049537:	c7 04 24 00 00 00 00 	movl   $0x0,(%esp)
 804953e:	e8 c5 fa ff ff       	call   8049008 <dcgettext@plt>
 8049543:	89 74 24 04          	mov    %esi,0x4(%esp)
 8049547:	89 04 24             	mov    %eax,(%esp)
 804954a:	e8 39 f9 ff ff       	call   8048e88 <fputs_unlocked@plt>
 804954f:	c7 04 24 05 00 00 00 	movl   $0x5,(%esp)
 8049556:	e8 45 27 00 00       	call   804bca0 <exit@plt+0x2a88>
 804955b:	84 c0                	test   %al,%al
 804955d:	0f 84 db fd ff ff    	je     804933e <exit@plt+0x126>
 8049563:	a1 78 51 05 08       	mov    0x8055178,%eax
 8049568:	89 04 24             	mov    %eax,(%esp)
 804956b:	e8 e0 24 00 00       	call   804ba50 <exit@plt+0x2838>
 8049570:	c7 44 24 08 05 00 00 	movl   $0x5,0x8(%esp)
 8049577:	00 
 8049578:	c7 44 24 04 88 25 05 	movl   $0x8052588,0x4(%esp)
 804957f:	08 
 8049580:	c7 04 24 00 00 00 00 	movl   $0x0,(%esp)
 8049587:	89 c6                	mov    %eax,%esi
 8049589:	e8 7a fa ff ff       	call   8049008 <dcgettext@plt>
 804958e:	89 74 24 08          	mov    %esi,0x8(%esp)
 8049592:	c7 04 24 01 00 00 00 	movl   $0x1,(%esp)
 8049599:	89 44 24 04          	mov    %eax,0x4(%esp)
 804959d:	e8 46 f9 ff ff       	call   8048ee8 <__printf_chk@plt>
 80495a2:	e9 97 fd ff ff       	jmp    804933e <exit@plt+0x126>
 80495a7:	89 f6                	mov    %esi,%esi
 80495a9:	8d bc 27 00 00 00 00 	lea    0x0(%edi,%eiz,1),%edi
 80495b0:	55                   	push   %ebp
 80495b1:	89 e5                	mov    %esp,%ebp
 80495b3:	83 e4 f0             	and    $0xfffffff0,%esp
 80495b6:	57                   	push   %edi
 80495b7:	56                   	push   %esi
 80495b8:	53                   	push   %ebx
 80495b9:	81 ec 74 01 00 00    	sub    $0x174,%esp
 80495bf:	e8 74 f8 ff ff       	call   8048e38 <getpagesize@plt>
 80495c4:	8b 55 0c             	mov    0xc(%ebp),%edx
 80495c7:	89 44 24 64          	mov    %eax,0x64(%esp)
 80495cb:	8b 02                	mov    (%edx),%eax
 80495cd:	89 04 24             	mov    %eax,(%esp)
 80495d0:	e8 6b 0e 00 00       	call   804a440 <exit@plt+0x1228>
 80495d5:	c7 44 24 04 90 28 05 	movl   $0x8052890,0x4(%esp)
 80495dc:	08 
 80495dd:	c7 04 24 06 00 00 00 	movl   $0x6,(%esp)
 80495e4:	e8 af fa ff ff       	call   8049098 <setlocale@plt>
 80495e9:	c7 44 24 04 08 26 05 	movl   $0x8052608,0x4(%esp)
 80495f0:	08 
 80495f1:	c7 04 24 fe 25 05 08 	movl   $0x80525fe,(%esp)
 80495f8:	e8 bb f9 ff ff       	call   8048fb8 <bindtextdomain@plt>
 80495fd:	c7 04 24 fe 25 05 08 	movl   $0x80525fe,(%esp)
 8049604:	e8 7f fb ff ff       	call   8049188 <textdomain@plt>
 8049609:	c7 04 24 c0 bb 04 08 	movl   $0x804bbc0,(%esp)
 8049610:	e8 8b 8a 00 00       	call   80520a0 <exit@plt+0x8e88>
 8049615:	8b 5d 08             	mov    0x8(%ebp),%ebx
 8049618:	8b 75 0c             	mov    0xc(%ebp),%esi
 804961b:	c6 84 24 82 00 00 00 	movb   $0x0,0x82(%esp)
 8049622:	00 
 8049623:	c6 84 24 83 00 00 00 	movb   $0x0,0x83(%esp)
 804962a:	00 
 804962b:	c6 44 24 7a 00       	movb   $0x0,0x7a(%esp)
 8049630:	c6 44 24 6b 00       	movb   $0x0,0x6b(%esp)
 8049635:	c6 84 24 98 00 00 00 	movb   $0x0,0x98(%esp)
 804963c:	00 
 804963d:	c6 44 24 7b 00       	movb   $0x0,0x7b(%esp)
 8049642:	c7 44 24 10 00 00 00 	movl   $0x0,0x10(%esp)
 8049649:	00 
 804964a:	c7 44 24 0c 40 27 05 	movl   $0x8052740,0xc(%esp)
 8049651:	08 
 8049652:	c7 44 24 08 57 26 05 	movl   $0x8052657,0x8(%esp)
 8049659:	08 
 804965a:	89 74 24 04          	mov    %esi,0x4(%esp)
 804965e:	89 1c 24             	mov    %ebx,(%esp)
 8049661:	e8 b2 f9 ff ff       	call   8049018 <getopt_long@plt>
 8049666:	83 f8 ff             	cmp    $0xffffffff,%eax
 8049669:	0f 84 5d 01 00 00    	je     80497cc <exit@plt+0x5b4>
 804966f:	83 f8 62             	cmp    $0x62,%eax
 8049672:	0f 84 38 01 00 00    	je     80497b0 <exit@plt+0x598>
 8049678:	7f 3e                	jg     80496b8 <exit@plt+0x4a0>
 804967a:	83 f8 41             	cmp    $0x41,%eax
 804967d:	8d 76 00             	lea    0x0(%esi),%esi
 8049680:	74 5a                	je     80496dc <exit@plt+0x4c4>
 8049682:	8d b6 00 00 00 00    	lea    0x0(%esi),%esi
 8049688:	0f 8f 89 00 00 00    	jg     8049717 <exit@plt+0x4ff>
 804968e:	3d 7d ff ff ff       	cmp    $0xffffff7d,%eax
 8049693:	90                   	nop
 8049694:	8d 74 26 00          	lea    0x0(%esi,%eiz,1),%esi
 8049698:	0f 84 a4 00 00 00    	je     8049742 <exit@plt+0x52a>
 804969e:	3d 7e ff ff ff       	cmp    $0xffffff7e,%eax
 80496a3:	90                   	nop
 80496a4:	8d 74 26 00          	lea    0x0(%esi,%eiz,1),%esi
 80496a8:	75 77                	jne    8049721 <exit@plt+0x509>
 80496aa:	c7 04 24 00 00 00 00 	movl   $0x0,(%esp)
 80496b1:	e8 3a fc ff ff       	call   80492f0 <exit@plt+0xd8>
 80496b6:	66 90                	xchg   %ax,%ax
 80496b8:	83 f8 73             	cmp    $0x73,%eax
 80496bb:	0f 84 01 01 00 00    	je     80497c2 <exit@plt+0x5aa>
 80496c1:	7f 33                	jg     80496f6 <exit@plt+0x4de>
 80496c3:	83 f8 65             	cmp    $0x65,%eax
 80496c6:	66 90                	xchg   %ax,%ax
 80496c8:	74 1a                	je     80496e4 <exit@plt+0x4cc>
 80496ca:	83 f8 6e             	cmp    $0x6e,%eax
 80496cd:	8d 76 00             	lea    0x0(%esi),%esi
 80496d0:	75 4f                	jne    8049721 <exit@plt+0x509>
 80496d2:	c6 44 24 7b 01       	movb   $0x1,0x7b(%esp)
 80496d7:	e9 66 ff ff ff       	jmp    8049642 <exit@plt+0x42a>
 80496dc:	c6 84 24 82 00 00 00 	movb   $0x1,0x82(%esp)
 80496e3:	01 
 80496e4:	c6 84 24 83 00 00 00 	movb   $0x1,0x83(%esp)
 80496eb:	01 
 80496ec:	c6 44 24 7a 01       	movb   $0x1,0x7a(%esp)
 80496f1:	e9 4c ff ff ff       	jmp    8049642 <exit@plt+0x42a>
 80496f6:	83 f8 75             	cmp    $0x75,%eax
 80496f9:	0f 84 43 ff ff ff    	je     8049642 <exit@plt+0x42a>
 80496ff:	7c 2c                	jl     804972d <exit@plt+0x515>
 8049701:	83 f8 76             	cmp    $0x76,%eax
 8049704:	8d 74 26 00          	lea    0x0(%esi,%eiz,1),%esi
 8049708:	75 17                	jne    8049721 <exit@plt+0x509>
 804970a:	c6 84 24 83 00 00 00 	movb   $0x1,0x83(%esp)
 8049711:	01 
 8049712:	e9 2b ff ff ff       	jmp    8049642 <exit@plt+0x42a>
 8049717:	83 f8 45             	cmp    $0x45,%eax
 804971a:	74 d0                	je     80496ec <exit@plt+0x4d4>
 804971c:	83 f8 54             	cmp    $0x54,%eax
 804971f:	74 7b                	je     804979c <exit@plt+0x584>
 8049721:	c7 04 24 01 00 00 00 	movl   $0x1,(%esp)
 8049728:	e8 c3 fb ff ff       	call   80492f0 <exit@plt+0xd8>
 804972d:	c6 84 24 82 00 00 00 	movb   $0x1,0x82(%esp)
 8049734:	01 
 8049735:	c6 84 24 83 00 00 00 	movb   $0x1,0x83(%esp)
 804973c:	01 
 804973d:	e9 00 ff ff ff       	jmp    8049642 <exit@plt+0x42a>
 8049742:	c7 44 24 04 1a 26 05 	movl   $0x805261a,0x4(%esp)
 8049749:	08 
 804974a:	c7 04 24 2d 26 05 08 	movl   $0x805262d,(%esp)
 8049751:	e8 7a 16 00 00       	call   804add0 <exit@plt+0x1bb8>
 8049756:	c7 44 24 18 00 00 00 	movl   $0x0,0x18(%esp)
 804975d:	00 
 804975e:	c7 44 24 14 3f 26 05 	movl   $0x805263f,0x14(%esp)
 8049765:	08 
 8049766:	c7 44 24 08 fa 25 05 	movl   $0x80525fa,0x8(%esp)
 804976d:	08 
 804976e:	c7 44 24 04 53 26 05 	movl   $0x8052653,0x4(%esp)
 8049775:	08 
 8049776:	89 44 24 10          	mov    %eax,0x10(%esp)
 804977a:	a1 20 51 05 08       	mov    0x8055120,%eax
 804977f:	89 44 24 0c          	mov    %eax,0xc(%esp)
 8049783:	a1 60 51 05 08       	mov    0x8055160,%eax
 8049788:	89 04 24             	mov    %eax,(%esp)
 804978b:	e8 50 21 00 00       	call   804b8e0 <exit@plt+0x26c8>
 8049790:	c7 04 24 00 00 00 00 	movl   $0x0,(%esp)
 8049797:	e8 7c fa ff ff       	call   8049218 <exit@plt>
 804979c:	c6 84 24 82 00 00 00 	movb   $0x1,0x82(%esp)
 80497a3:	01 
 80497a4:	e9 99 fe ff ff       	jmp    8049642 <exit@plt+0x42a>
 80497a9:	8d b4 26 00 00 00 00 	lea    0x0(%esi,%eiz,1),%esi
 80497b0:	c6 84 24 98 00 00 00 	movb   $0x1,0x98(%esp)
 80497b7:	01 
 80497b8:	c6 44 24 7b 01       	movb   $0x1,0x7b(%esp)
 80497bd:	e9 80 fe ff ff       	jmp    8049642 <exit@plt+0x42a>
 80497c2:	c6 44 24 6b 01       	movb   $0x1,0x6b(%esp)
 80497c7:	e9 76 fe ff ff       	jmp    8049642 <exit@plt+0x42a>
 80497cc:	8d 8c 24 0c 01 00 00 	lea    0x10c(%esp),%ecx
 80497d3:	89 4c 24 28          	mov    %ecx,0x28(%esp)
 80497d7:	89 4c 24 08          	mov    %ecx,0x8(%esp)
 80497db:	c7 44 24 04 01 00 00 	movl   $0x1,0x4(%esp)
 80497e2:	00 
 80497e3:	c7 04 24 03 00 00 00 	movl   $0x3,(%esp)
 80497ea:	e8 a9 f9 ff ff       	call   8049198 <__fxstat64@plt>
 80497ef:	85 c0                	test   %eax,%eax
 80497f1:	0f 88 4b 0b 00 00    	js     804a342 <exit@plt+0x112a>
 80497f7:	8d 84 24 ac 00 00 00 	lea    0xac(%esp),%eax
 80497fe:	8b 74 24 28          	mov    0x28(%esp),%esi
 8049802:	b9 18 00 00 00       	mov    $0x18,%ecx
 8049807:	89 c7                	mov    %eax,%edi
 8049809:	f3 a5                	rep movsl %ds:(%esi),%es:(%edi)
 804980b:	89 44 24 2c          	mov    %eax,0x2c(%esp)
 804980f:	8b 9c 24 e0 00 00 00 	mov    0xe0(%esp),%ebx
 8049816:	8d 83 00 80 ff ff    	lea    -0x8000(%ebx),%eax
 804981c:	3d 00 80 ff 1f       	cmp    $0x1fff8000,%eax
 8049821:	0f 86 f4 08 00 00    	jbe    804a11b <exit@plt+0xf03>
 8049827:	bb 00 80 00 00       	mov    $0x8000,%ebx
 804982c:	8b 84 24 1c 01 00 00 	mov    0x11c(%esp),%eax
 8049833:	c6 44 24 4b 00       	movb   $0x0,0x4b(%esp)
 8049838:	25 00 f0 00 00       	and    $0xf000,%eax
 804983d:	3d 00 80 00 00       	cmp    $0x8000,%eax
 8049842:	0f 84 c4 0a 00 00    	je     804a30c <exit@plt+0x10f4>
 8049848:	8b 0d 40 51 05 08    	mov    0x8055140,%ecx
 804984e:	8b 45 0c             	mov    0xc(%ebp),%eax
 8049851:	0f b6 54 24 7b       	movzbl 0x7b(%esp),%edx
 8049856:	c7 05 70 51 05 08 f2 	movl   $0x80527f2,0x8055170
 804985d:	27 05 08 
 8049860:	89 4c 24 60          	mov    %ecx,0x60(%esp)
 8049864:	8d 04 88             	lea    (%eax,%ecx,4),%eax
 8049867:	89 44 24 58          	mov    %eax,0x58(%esp)
 804986b:	0f b6 84 24 98 00 00 	movzbl 0x98(%esp),%eax
 8049872:	00 
 8049873:	89 54 24 44          	mov    %edx,0x44(%esp)
 8049877:	c6 44 24 53 01       	movb   $0x1,0x53(%esp)
 804987c:	c6 44 24 4a 00       	movb   $0x0,0x4a(%esp)
 8049881:	83 f0 01             	xor    $0x1,%eax
 8049884:	21 c2                	and    %eax,%edx
 8049886:	89 54 24 5c          	mov    %edx,0x5c(%esp)
 804988a:	89 5c 24 74          	mov    %ebx,0x74(%esp)
 804988e:	8b 4d 08             	mov    0x8(%ebp),%ecx
 8049891:	39 4c 24 60          	cmp    %ecx,0x60(%esp)
 8049895:	0f 8c 5b 06 00 00    	jl     8049ef6 <exit@plt+0xcde>
 804989b:	a1 70 51 05 08       	mov    0x8055170,%eax
 80498a0:	0f b6 10             	movzbl (%eax),%edx
 80498a3:	3a 15 f2 27 05 08    	cmp    0x80527f2,%dl
 80498a9:	0f 84 21 06 00 00    	je     8049ed0 <exit@plt+0xcb8>
 80498af:	c7 44 24 04 00 00 00 	movl   $0x0,0x4(%esp)
 80498b6:	00 
 80498b7:	89 04 24             	mov    %eax,(%esp)
 80498ba:	e8 b9 f5 ff ff       	call   8048e78 <open64@plt>
 80498bf:	85 c0                	test   %eax,%eax
 80498c1:	a3 74 51 05 08       	mov    %eax,0x8055174
 80498c6:	0f 88 69 08 00 00    	js     804a135 <exit@plt+0xf1d>
 80498cc:	8d 8c 24 0c 01 00 00 	lea    0x10c(%esp),%ecx
 80498d3:	89 4c 24 08          	mov    %ecx,0x8(%esp)
 80498d7:	89 44 24 04          	mov    %eax,0x4(%esp)
 80498db:	c7 04 24 03 00 00 00 	movl   $0x3,(%esp)
 80498e2:	e8 b1 f8 ff ff       	call   8049198 <__fxstat64@plt>
 80498e7:	85 c0                	test   %eax,%eax
 80498e9:	0f 88 28 07 00 00    	js     804a017 <exit@plt+0xdff>
 80498ef:	8b 7c 24 2c          	mov    0x2c(%esp),%edi
 80498f3:	b9 18 00 00 00       	mov    $0x18,%ecx
 80498f8:	8b 74 24 28          	mov    0x28(%esp),%esi
 80498fc:	f3 a5                	rep movsl %ds:(%esi),%es:(%edi)
 80498fe:	8b 84 24 e0 00 00 00 	mov    0xe0(%esp),%eax
 8049905:	89 44 24 7c          	mov    %eax,0x7c(%esp)
 8049909:	2d 00 80 00 00       	sub    $0x8000,%eax
 804990e:	3d 00 80 ff 1f       	cmp    $0x1fff8000,%eax
 8049913:	0f 86 ed 05 00 00    	jbe    8049f06 <exit@plt+0xcee>
 8049919:	c7 44 24 7c 00 80 00 	movl   $0x8000,0x7c(%esp)
 8049920:	00 
 8049921:	80 7c 24 4b 00       	cmpb   $0x0,0x4b(%esp)
 8049926:	74 1e                	je     8049946 <exit@plt+0x72e>
 8049928:	8b 54 24 3c          	mov    0x3c(%esp),%edx
 804992c:	8b 44 24 40          	mov    0x40(%esp),%eax
 8049930:	33 94 24 10 01 00 00 	xor    0x110(%esp),%edx
 8049937:	33 84 24 0c 01 00 00 	xor    0x10c(%esp),%eax
 804993e:	09 c2                	or     %eax,%edx
 8049940:	0f 84 04 07 00 00    	je     804a04a <exit@plt+0xe32>
 8049946:	80 7c 24 7a 00       	cmpb   $0x0,0x7a(%esp)
 804994b:	75 20                	jne    804996d <exit@plt+0x755>
 804994d:	8b 74 24 44          	mov    0x44(%esp),%esi
 8049951:	85 f6                	test   %esi,%esi
 8049953:	75 18                	jne    804996d <exit@plt+0x755>
 8049955:	80 bc 24 83 00 00 00 	cmpb   $0x0,0x83(%esp)
 804995c:	00 
 804995d:	75 0e                	jne    804996d <exit@plt+0x755>
 804995f:	80 bc 24 82 00 00 00 	cmpb   $0x0,0x82(%esp)
 8049966:	00 
 8049967:	0f 84 5c 08 00 00    	je     804a1c9 <exit@plt+0xfb1>
 804996d:	8b 44 24 7c          	mov    0x7c(%esp),%eax
 8049971:	03 44 24 64          	add    0x64(%esp),%eax
 8049975:	89 04 24             	mov    %eax,(%esp)
 8049978:	e8 f3 36 00 00       	call   804d070 <exit@plt+0x3e58>
 804997d:	8b 4c 24 64          	mov    0x64(%esp),%ecx
 8049981:	8b 54 24 74          	mov    0x74(%esp),%edx
 8049985:	89 44 24 54          	mov    %eax,0x54(%esp)
 8049989:	8d 44 11 12          	lea    0x12(%ecx,%edx,1),%eax
 804998d:	8b 54 24 7c          	mov    0x7c(%esp),%edx
 8049991:	8d 04 90             	lea    (%eax,%edx,4),%eax
 8049994:	89 04 24             	mov    %eax,(%esp)
 8049997:	e8 d4 36 00 00       	call   804d070 <exit@plt+0x3e58>
 804999c:	8b 74 24 64          	mov    0x64(%esp),%esi
 80499a0:	31 d2                	xor    %edx,%edx
 80499a2:	c6 44 24 73 01       	movb   $0x1,0x73(%esp)
 80499a7:	83 ee 01             	sub    $0x1,%esi
 80499aa:	89 c1                	mov    %eax,%ecx
 80499ac:	01 f1                	add    %esi,%ecx
 80499ae:	89 44 24 4c          	mov    %eax,0x4c(%esp)
 80499b2:	89 c8                	mov    %ecx,%eax
 80499b4:	f7 74 24 64          	divl   0x64(%esp)
 80499b8:	03 74 24 54          	add    0x54(%esp),%esi
 80499bc:	89 f0                	mov    %esi,%eax
 80499be:	29 d1                	sub    %edx,%ecx
 80499c0:	31 d2                	xor    %edx,%edx
 80499c2:	f7 74 24 64          	divl   0x64(%esp)
 80499c6:	89 8c 24 90 00 00 00 	mov    %ecx,0x90(%esp)
 80499cd:	8b 0d 6c 51 05 08    	mov    0x805516c,%ecx
 80499d3:	89 8c 24 94 00 00 00 	mov    %ecx,0x94(%esp)
 80499da:	29 d6                	sub    %edx,%esi
 80499dc:	8b 94 24 90 00 00 00 	mov    0x90(%esp),%edx
 80499e3:	89 f0                	mov    %esi,%eax
 80499e5:	83 c0 01             	add    $0x1,%eax
 80499e8:	89 44 24 6c          	mov    %eax,0x6c(%esp)
 80499ec:	89 84 24 9c 00 00 00 	mov    %eax,0x9c(%esp)
 80499f3:	8b 44 24 74          	mov    0x74(%esp),%eax
 80499f7:	89 b4 24 84 00 00 00 	mov    %esi,0x84(%esp)
 80499fe:	8b 8c 24 84 00 00 00 	mov    0x84(%esp),%ecx
 8049a05:	03 54 24 74          	add    0x74(%esp),%edx
 8049a09:	8b b4 24 90 00 00 00 	mov    0x90(%esp),%esi
 8049a10:	f7 d8                	neg    %eax
 8049a12:	89 94 24 88 00 00 00 	mov    %edx,0x88(%esp)
 8049a19:	89 8c 24 8c 00 00 00 	mov    %ecx,0x8c(%esp)
 8049a20:	89 84 24 98 00 00 00 	mov    %eax,0x98(%esp)
 8049a27:	90                   	nop
 8049a28:	39 b4 24 88 00 00 00 	cmp    %esi,0x88(%esp)
 8049a2f:	0f 87 a4 00 00 00    	ja     8049ad9 <exit@plt+0x8c1>
 8049a35:	2b b4 24 88 00 00 00 	sub    0x88(%esp),%esi
 8049a3c:	8b 9c 24 90 00 00 00 	mov    0x90(%esp),%ebx
 8049a43:	8b 7c 24 74          	mov    0x74(%esp),%edi
 8049a47:	eb 09                	jmp    8049a52 <exit@plt+0x83a>
 8049a49:	8d b4 26 00 00 00 00 	lea    0x0(%esi,%eiz,1),%esi
 8049a50:	89 c6                	mov    %eax,%esi
 8049a52:	89 7c 24 08          	mov    %edi,0x8(%esp)
 8049a56:	89 5c 24 04          	mov    %ebx,0x4(%esp)
 8049a5a:	c7 04 24 01 00 00 00 	movl   $0x1,(%esp)
 8049a61:	e8 7a 09 00 00       	call   804a3e0 <exit@plt+0x11c8>
 8049a66:	39 c7                	cmp    %eax,%edi
 8049a68:	74 3f                	je     8049aa9 <exit@plt+0x891>
 8049a6a:	c7 44 24 08 05 00 00 	movl   $0x5,0x8(%esp)
 8049a71:	00 
 8049a72:	c7 44 24 04 90 26 05 	movl   $0x8052690,0x4(%esp)
 8049a79:	08 
 8049a7a:	c7 04 24 00 00 00 00 	movl   $0x0,(%esp)
 8049a81:	e8 82 f5 ff ff       	call   8049008 <dcgettext@plt>
 8049a86:	89 44 24 30          	mov    %eax,0x30(%esp)
 8049a8a:	e8 c9 f3 ff ff       	call   8048e58 <__errno_location@plt>
 8049a8f:	8b 54 24 30          	mov    0x30(%esp),%edx
 8049a93:	89 54 24 08          	mov    %edx,0x8(%esp)
 8049a97:	8b 00                	mov    (%eax),%eax
 8049a99:	c7 04 24 01 00 00 00 	movl   $0x1,(%esp)
 8049aa0:	89 44 24 04          	mov    %eax,0x4(%esp)
 8049aa4:	e8 9f f6 ff ff       	call   8049148 <error@plt>
 8049aa9:	8b 94 24 98 00 00 00 	mov    0x98(%esp),%edx
 8049ab0:	01 fb                	add    %edi,%ebx
 8049ab2:	8d 04 16             	lea    (%esi,%edx,1),%eax
 8049ab5:	89 c1                	mov    %eax,%ecx
 8049ab7:	01 f9                	add    %edi,%ecx
 8049ab9:	73 95                	jae    8049a50 <exit@plt+0x838>
 8049abb:	8b 84 24 90 00 00 00 	mov    0x90(%esp),%eax
 8049ac2:	89 74 24 08          	mov    %esi,0x8(%esp)
 8049ac6:	89 5c 24 04          	mov    %ebx,0x4(%esp)
 8049aca:	89 04 24             	mov    %eax,(%esp)
 8049acd:	e8 96 f6 ff ff       	call   8049168 <memmove@plt>
 8049ad2:	03 b4 24 90 00 00 00 	add    0x90(%esp),%esi
 8049ad9:	8b 94 24 8c 00 00 00 	mov    0x8c(%esp),%edx
 8049ae0:	39 94 24 9c 00 00 00 	cmp    %edx,0x9c(%esp)
 8049ae7:	0f 86 c3 01 00 00    	jbe    8049cb0 <exit@plt+0xa98>
 8049aed:	80 7c 24 73 00       	cmpb   $0x0,0x73(%esp)
 8049af2:	c7 84 24 6c 01 00 00 	movl   $0x0,0x16c(%esp)
 8049af9:	00 00 00 00 
 8049afd:	0f 85 d5 02 00 00    	jne    8049dd8 <exit@plt+0xbc0>
 8049b03:	89 f3                	mov    %esi,%ebx
 8049b05:	2b 9c 24 90 00 00 00 	sub    0x90(%esp),%ebx
 8049b0c:	0f 85 1e 03 00 00    	jne    8049e30 <exit@plt+0xc18>
 8049b12:	8b 84 24 84 00 00 00 	mov    0x84(%esp),%eax
 8049b19:	8b 4c 24 7c          	mov    0x7c(%esp),%ecx
 8049b1d:	89 44 24 04          	mov    %eax,0x4(%esp)
 8049b21:	a1 74 51 05 08       	mov    0x8055174,%eax
 8049b26:	89 4c 24 08          	mov    %ecx,0x8(%esp)
 8049b2a:	89 04 24             	mov    %eax,(%esp)
 8049b2d:	e8 de 32 00 00       	call   804ce10 <exit@plt+0x3bf8>
 8049b32:	83 f8 ff             	cmp    $0xffffffff,%eax
 8049b35:	0f 84 f4 03 00 00    	je     8049f2f <exit@plt+0xd17>
 8049b3b:	85 c0                	test   %eax,%eax
 8049b3d:	0f 84 b5 04 00 00    	je     8049ff8 <exit@plt+0xde0>
 8049b43:	03 84 24 84 00 00 00 	add    0x84(%esp),%eax
 8049b4a:	89 84 24 8c 00 00 00 	mov    %eax,0x8c(%esp)
 8049b51:	c6 00 0a             	movb   $0xa,(%eax)
 8049b54:	8b 8c 24 84 00 00 00 	mov    0x84(%esp),%ecx
 8049b5b:	8b 7c 24 6c          	mov    0x6c(%esp),%edi
 8049b5f:	89 8c 24 9c 00 00 00 	mov    %ecx,0x9c(%esp)
 8049b66:	8b 94 24 9c 00 00 00 	mov    0x9c(%esp),%edx
 8049b6d:	0f b6 1a             	movzbl (%edx),%ebx
 8049b70:	80 fb 0a             	cmp    $0xa,%bl
 8049b73:	0f 84 02 01 00 00    	je     8049c7b <exit@plt+0xa63>
 8049b79:	8b 84 24 94 00 00 00 	mov    0x94(%esp),%eax
 8049b80:	85 c0                	test   %eax,%eax
 8049b82:	78 68                	js     8049bec <exit@plt+0x9d4>
 8049b84:	80 7c 24 7b 00       	cmpb   $0x0,0x7b(%esp)
 8049b89:	74 61                	je     8049bec <exit@plt+0x9d4>
 8049b8b:	a1 e0 27 05 08       	mov    0x80527e0,%eax
 8049b90:	0f b6 10             	movzbl (%eax),%edx
 8049b93:	8d 4a 01             	lea    0x1(%edx),%ecx
 8049b96:	80 fa 38             	cmp    $0x38,%dl
 8049b99:	88 08                	mov    %cl,(%eax)
 8049b9b:	0f 8e 83 02 00 00    	jle    8049e24 <exit@plt+0xc0c>
 8049ba1:	c6 00 30             	movb   $0x30,(%eax)
 8049ba4:	8b 15 1c 51 05 08    	mov    0x805511c,%edx
 8049baa:	83 e8 01             	sub    $0x1,%eax
 8049bad:	39 d0                	cmp    %edx,%eax
 8049baf:	73 df                	jae    8049b90 <exit@plt+0x978>
 8049bb1:	81 fa 08 51 05 08    	cmp    $0x8055108,%edx
 8049bb7:	0f 86 5b 02 00 00    	jbe    8049e18 <exit@plt+0xc00>
 8049bbd:	8d 42 ff             	lea    -0x1(%edx),%eax
 8049bc0:	a3 1c 51 05 08       	mov    %eax,0x805511c
 8049bc5:	c6 42 ff 31          	movb   $0x31,-0x1(%edx)
 8049bc9:	a1 04 51 05 08       	mov    0x8055104,%eax
 8049bce:	39 05 1c 51 05 08    	cmp    %eax,0x805511c
 8049bd4:	73 08                	jae    8049bde <exit@plt+0x9c6>
 8049bd6:	83 e8 01             	sub    $0x1,%eax
 8049bd9:	a3 04 51 05 08       	mov    %eax,0x8055104
 8049bde:	89 34 24             	mov    %esi,(%esp)
 8049be1:	89 44 24 04          	mov    %eax,0x4(%esp)
 8049be5:	e8 8e f3 ff ff       	call   8048f78 <stpcpy@plt>
 8049bea:	89 c6                	mov    %eax,%esi
 8049bec:	80 bc 24 83 00 00 00 	cmpb   $0x0,0x83(%esp)
 8049bf3:	00 
 8049bf4:	0f 84 8e 01 00 00    	je     8049d88 <exit@plt+0xb70>
 8049bfa:	0f b6 94 24 82 00 00 	movzbl 0x82(%esp),%edx
 8049c01:	00 
 8049c02:	eb 14                	jmp    8049c18 <exit@plt+0xa00>
 8049c04:	8d 74 26 00          	lea    0x0(%esi,%eiz,1),%esi
 8049c08:	80 fb 7e             	cmp    $0x7e,%bl
 8049c0b:	77 2b                	ja     8049c38 <exit@plt+0xa20>
 8049c0d:	88 1e                	mov    %bl,(%esi)
 8049c0f:	83 c6 01             	add    $0x1,%esi
 8049c12:	0f b6 1f             	movzbl (%edi),%ebx
 8049c15:	83 c7 01             	add    $0x1,%edi
 8049c18:	80 fb 1f             	cmp    $0x1f,%bl
 8049c1b:	77 eb                	ja     8049c08 <exit@plt+0x9f0>
 8049c1d:	80 fb 09             	cmp    $0x9,%bl
 8049c20:	74 3e                	je     8049c60 <exit@plt+0xa48>
 8049c22:	80 fb 0a             	cmp    $0xa,%bl
 8049c25:	74 49                	je     8049c70 <exit@plt+0xa58>
 8049c27:	83 c3 40             	add    $0x40,%ebx
 8049c2a:	c6 06 5e             	movb   $0x5e,(%esi)
 8049c2d:	88 5e 01             	mov    %bl,0x1(%esi)
 8049c30:	83 c6 02             	add    $0x2,%esi
 8049c33:	eb dd                	jmp    8049c12 <exit@plt+0x9fa>
 8049c35:	8d 76 00             	lea    0x0(%esi),%esi
 8049c38:	80 fb 7f             	cmp    $0x7f,%bl
 8049c3b:	74 63                	je     8049ca0 <exit@plt+0xa88>
 8049c3d:	80 fb 9f             	cmp    $0x9f,%bl
 8049c40:	c6 06 4d             	movb   $0x4d,(%esi)
 8049c43:	8d 46 02             	lea    0x2(%esi),%eax
 8049c46:	c6 46 01 2d          	movb   $0x2d,0x1(%esi)
 8049c4a:	76 3c                	jbe    8049c88 <exit@plt+0xa70>
 8049c4c:	80 fb ff             	cmp    $0xff,%bl
 8049c4f:	0f 84 73 01 00 00    	je     8049dc8 <exit@plt+0xbb0>
 8049c55:	83 c3 80             	add    $0xffffff80,%ebx
 8049c58:	83 c6 03             	add    $0x3,%esi
 8049c5b:	88 18                	mov    %bl,(%eax)
 8049c5d:	eb b3                	jmp    8049c12 <exit@plt+0x9fa>
 8049c5f:	90                   	nop
 8049c60:	84 d2                	test   %dl,%dl
 8049c62:	75 c3                	jne    8049c27 <exit@plt+0xa0f>
 8049c64:	c6 06 09             	movb   $0x9,(%esi)
 8049c67:	83 c6 01             	add    $0x1,%esi
 8049c6a:	eb a6                	jmp    8049c12 <exit@plt+0x9fa>
 8049c6c:	8d 74 26 00          	lea    0x0(%esi,%eiz,1),%esi
 8049c70:	c7 84 24 94 00 00 00 	movl   $0xffffffff,0x94(%esp)
 8049c77:	ff ff ff ff 
 8049c7b:	89 bc 24 9c 00 00 00 	mov    %edi,0x9c(%esp)
 8049c82:	e9 a1 fd ff ff       	jmp    8049a28 <exit@plt+0x810>
 8049c87:	90                   	nop
 8049c88:	83 eb 40             	sub    $0x40,%ebx
 8049c8b:	c6 46 02 5e          	movb   $0x5e,0x2(%esi)
 8049c8f:	88 5e 03             	mov    %bl,0x3(%esi)
 8049c92:	83 c6 04             	add    $0x4,%esi
 8049c95:	e9 78 ff ff ff       	jmp    8049c12 <exit@plt+0x9fa>
 8049c9a:	8d b6 00 00 00 00    	lea    0x0(%esi),%esi
 8049ca0:	c6 06 5e             	movb   $0x5e,(%esi)
 8049ca3:	c6 46 01 3f          	movb   $0x3f,0x1(%esi)
 8049ca7:	83 c6 02             	add    $0x2,%esi
 8049caa:	e9 63 ff ff ff       	jmp    8049c12 <exit@plt+0x9fa>
 8049caf:	90                   	nop
 8049cb0:	83 84 24 94 00 00 00 	addl   $0x1,0x94(%esp)
 8049cb7:	01 
 8049cb8:	8b 8c 24 94 00 00 00 	mov    0x94(%esp),%ecx
 8049cbf:	85 c9                	test   %ecx,%ecx
 8049cc1:	0f 8e 9d 00 00 00    	jle    8049d64 <exit@plt+0xb4c>
 8049cc7:	83 bc 24 94 00 00 00 	cmpl   $0x1,0x94(%esp)
 8049cce:	01 
 8049ccf:	74 27                	je     8049cf8 <exit@plt+0xae0>
 8049cd1:	80 7c 24 6b 00       	cmpb   $0x0,0x6b(%esp)
 8049cd6:	c7 84 24 94 00 00 00 	movl   $0x2,0x94(%esp)
 8049cdd:	02 00 00 00 
 8049ce1:	74 15                	je     8049cf8 <exit@plt+0xae0>
 8049ce3:	8b 84 24 9c 00 00 00 	mov    0x9c(%esp),%eax
 8049cea:	89 c7                	mov    %eax,%edi
 8049cec:	0f b6 18             	movzbl (%eax),%ebx
 8049cef:	83 c7 01             	add    $0x1,%edi
 8049cf2:	e9 79 fe ff ff       	jmp    8049b70 <exit@plt+0x958>
 8049cf7:	90                   	nop
 8049cf8:	8b 54 24 5c          	mov    0x5c(%esp),%edx
 8049cfc:	85 d2                	test   %edx,%edx
 8049cfe:	74 64                	je     8049d64 <exit@plt+0xb4c>
 8049d00:	a1 e0 27 05 08       	mov    0x80527e0,%eax
 8049d05:	8d 76 00             	lea    0x0(%esi),%esi
 8049d08:	0f b6 10             	movzbl (%eax),%edx
 8049d0b:	8d 4a 01             	lea    0x1(%edx),%ecx
 8049d0e:	80 fa 38             	cmp    $0x38,%dl
 8049d11:	88 08                	mov    %cl,(%eax)
 8049d13:	0f 8e 0c 02 00 00    	jle    8049f25 <exit@plt+0xd0d>
 8049d19:	c6 00 30             	movb   $0x30,(%eax)
 8049d1c:	8b 15 1c 51 05 08    	mov    0x805511c,%edx
 8049d22:	83 e8 01             	sub    $0x1,%eax
 8049d25:	39 d0                	cmp    %edx,%eax
 8049d27:	73 df                	jae    8049d08 <exit@plt+0xaf0>
 8049d29:	81 fa 08 51 05 08    	cmp    $0x8055108,%edx
 8049d2f:	0f 86 5f 01 00 00    	jbe    8049e94 <exit@plt+0xc7c>
 8049d35:	8d 42 ff             	lea    -0x1(%edx),%eax
 8049d38:	a3 1c 51 05 08       	mov    %eax,0x805511c
 8049d3d:	c6 42 ff 31          	movb   $0x31,-0x1(%edx)
 8049d41:	a1 04 51 05 08       	mov    0x8055104,%eax
 8049d46:	39 05 1c 51 05 08    	cmp    %eax,0x805511c
 8049d4c:	73 08                	jae    8049d56 <exit@plt+0xb3e>
 8049d4e:	83 e8 01             	sub    $0x1,%eax
 8049d51:	a3 04 51 05 08       	mov    %eax,0x8055104
 8049d56:	89 34 24             	mov    %esi,(%esp)
 8049d59:	89 44 24 04          	mov    %eax,0x4(%esp)
 8049d5d:	e8 16 f2 ff ff       	call   8048f78 <stpcpy@plt>
 8049d62:	89 c6                	mov    %eax,%esi
 8049d64:	80 7c 24 7a 00       	cmpb   $0x0,0x7a(%esp)
 8049d69:	74 06                	je     8049d71 <exit@plt+0xb59>
 8049d6b:	c6 06 24             	movb   $0x24,(%esi)
 8049d6e:	83 c6 01             	add    $0x1,%esi
 8049d71:	c6 06 0a             	movb   $0xa,(%esi)
 8049d74:	8b bc 24 9c 00 00 00 	mov    0x9c(%esp),%edi
 8049d7b:	83 c6 01             	add    $0x1,%esi
 8049d7e:	83 c7 01             	add    $0x1,%edi
 8049d81:	e9 e0 fd ff ff       	jmp    8049b66 <exit@plt+0x94e>
 8049d86:	66 90                	xchg   %ax,%ax
 8049d88:	0f b6 84 24 82 00 00 	movzbl 0x82(%esp),%eax
 8049d8f:	00 
 8049d90:	eb 1a                	jmp    8049dac <exit@plt+0xb94>
 8049d92:	8d b6 00 00 00 00    	lea    0x0(%esi),%esi
 8049d98:	80 fb 0a             	cmp    $0xa,%bl
 8049d9b:	0f 84 cf fe ff ff    	je     8049c70 <exit@plt+0xa58>
 8049da1:	88 1e                	mov    %bl,(%esi)
 8049da3:	83 c6 01             	add    $0x1,%esi
 8049da6:	0f b6 1f             	movzbl (%edi),%ebx
 8049da9:	83 c7 01             	add    $0x1,%edi
 8049dac:	80 fb 09             	cmp    $0x9,%bl
 8049daf:	75 e7                	jne    8049d98 <exit@plt+0xb80>
 8049db1:	84 c0                	test   %al,%al
 8049db3:	74 ec                	je     8049da1 <exit@plt+0xb89>
 8049db5:	c6 06 5e             	movb   $0x5e,(%esi)
 8049db8:	c6 46 01 49          	movb   $0x49,0x1(%esi)
 8049dbc:	83 c6 02             	add    $0x2,%esi
 8049dbf:	eb e5                	jmp    8049da6 <exit@plt+0xb8e>
 8049dc1:	8d b4 26 00 00 00 00 	lea    0x0(%esi,%eiz,1),%esi
 8049dc8:	c6 00 5e             	movb   $0x5e,(%eax)
 8049dcb:	c6 46 03 3f          	movb   $0x3f,0x3(%esi)
 8049dcf:	83 c6 04             	add    $0x4,%esi
 8049dd2:	e9 3b fe ff ff       	jmp    8049c12 <exit@plt+0x9fa>
 8049dd7:	90                   	nop
 8049dd8:	a1 74 51 05 08       	mov    0x8055174,%eax
 8049ddd:	8d 8c 24 6c 01 00 00 	lea    0x16c(%esp),%ecx
 8049de4:	89 4c 24 08          	mov    %ecx,0x8(%esp)
 8049de8:	c7 44 24 04 1b 54 00 	movl   $0x541b,0x4(%esp)
 8049def:	00 
 8049df0:	89 04 24             	mov    %eax,(%esp)
 8049df3:	e8 30 f2 ff ff       	call   8049028 <ioctl@plt>
 8049df8:	85 c0                	test   %eax,%eax
 8049dfa:	0f 88 a0 00 00 00    	js     8049ea0 <exit@plt+0xc88>
 8049e00:	8b 9c 24 6c 01 00 00 	mov    0x16c(%esp),%ebx
 8049e07:	85 db                	test   %ebx,%ebx
 8049e09:	0f 85 03 fd ff ff    	jne    8049b12 <exit@plt+0x8fa>
 8049e0f:	e9 ef fc ff ff       	jmp    8049b03 <exit@plt+0x8eb>
 8049e14:	8d 74 26 00          	lea    0x0(%esi,%eiz,1),%esi
 8049e18:	c6 05 08 51 05 08 3e 	movb   $0x3e,0x8055108
 8049e1f:	e9 a5 fd ff ff       	jmp    8049bc9 <exit@plt+0x9b1>
 8049e24:	a1 04 51 05 08       	mov    0x8055104,%eax
 8049e29:	e9 b0 fd ff ff       	jmp    8049bde <exit@plt+0x9c6>
 8049e2e:	66 90                	xchg   %ax,%ax
 8049e30:	8b 94 24 90 00 00 00 	mov    0x90(%esp),%edx
 8049e37:	89 5c 24 08          	mov    %ebx,0x8(%esp)
 8049e3b:	c7 04 24 01 00 00 00 	movl   $0x1,(%esp)
 8049e42:	89 54 24 04          	mov    %edx,0x4(%esp)
 8049e46:	e8 95 05 00 00       	call   804a3e0 <exit@plt+0x11c8>
 8049e4b:	39 c3                	cmp    %eax,%ebx
 8049e4d:	74 39                	je     8049e88 <exit@plt+0xc70>
 8049e4f:	c7 44 24 08 05 00 00 	movl   $0x5,0x8(%esp)
 8049e56:	00 
 8049e57:	c7 44 24 04 90 26 05 	movl   $0x8052690,0x4(%esp)
 8049e5e:	08 
 8049e5f:	c7 04 24 00 00 00 00 	movl   $0x0,(%esp)
 8049e66:	e8 9d f1 ff ff       	call   8049008 <dcgettext@plt>
 8049e6b:	89 c3                	mov    %eax,%ebx
 8049e6d:	e8 e6 ef ff ff       	call   8048e58 <__errno_location@plt>
 8049e72:	89 5c 24 08          	mov    %ebx,0x8(%esp)
 8049e76:	8b 00                	mov    (%eax),%eax
 8049e78:	c7 04 24 01 00 00 00 	movl   $0x1,(%esp)
 8049e7f:	89 44 24 04          	mov    %eax,0x4(%esp)
 8049e83:	e8 c0 f2 ff ff       	call   8049148 <error@plt>
 8049e88:	8b b4 24 90 00 00 00 	mov    0x90(%esp),%esi
 8049e8f:	e9 7e fc ff ff       	jmp    8049b12 <exit@plt+0x8fa>
 8049e94:	c6 05 08 51 05 08 3e 	movb   $0x3e,0x8055108
 8049e9b:	e9 a1 fe ff ff       	jmp    8049d41 <exit@plt+0xb29>
 8049ea0:	e8 b3 ef ff ff       	call   8048e58 <__errno_location@plt>
 8049ea5:	8b 10                	mov    (%eax),%edx
 8049ea7:	83 fa 19             	cmp    $0x19,%edx
 8049eaa:	74 1a                	je     8049ec6 <exit@plt+0xcae>
 8049eac:	83 fa 5f             	cmp    $0x5f,%edx
 8049eaf:	90                   	nop
 8049eb0:	74 14                	je     8049ec6 <exit@plt+0xcae>
 8049eb2:	83 fa 16             	cmp    $0x16,%edx
 8049eb5:	74 0f                	je     8049ec6 <exit@plt+0xcae>
 8049eb7:	83 fa 13             	cmp    $0x13,%edx
 8049eba:	74 0a                	je     8049ec6 <exit@plt+0xcae>
 8049ebc:	83 fa 26             	cmp    $0x26,%edx
 8049ebf:	90                   	nop
 8049ec0:	0f 85 ba 04 00 00    	jne    804a380 <exit@plt+0x1168>
 8049ec6:	c6 44 24 73 00       	movb   $0x0,0x73(%esp)
 8049ecb:	e9 30 ff ff ff       	jmp    8049e00 <exit@plt+0xbe8>
 8049ed0:	0f b6 50 01          	movzbl 0x1(%eax),%edx
 8049ed4:	3a 15 f3 27 05 08    	cmp    0x80527f3,%dl
 8049eda:	0f 85 cf f9 ff ff    	jne    80498af <exit@plt+0x697>
 8049ee0:	c7 05 74 51 05 08 00 	movl   $0x0,0x8055174
 8049ee7:	00 00 00 
 8049eea:	31 c0                	xor    %eax,%eax
 8049eec:	c6 44 24 4a 01       	movb   $0x1,0x4a(%esp)
 8049ef1:	e9 d6 f9 ff ff       	jmp    80498cc <exit@plt+0x6b4>
 8049ef6:	8b 54 24 58          	mov    0x58(%esp),%edx
 8049efa:	8b 02                	mov    (%edx),%eax
 8049efc:	a3 70 51 05 08       	mov    %eax,0x8055170
 8049f01:	e9 9a f9 ff ff       	jmp    80498a0 <exit@plt+0x688>
 8049f06:	8b 44 24 7c          	mov    0x7c(%esp),%eax
 8049f0a:	83 e8 01             	sub    $0x1,%eax
 8049f0d:	3d ff ff ff 1f       	cmp    $0x1fffffff,%eax
 8049f12:	0f 86 09 fa ff ff    	jbe    8049921 <exit@plt+0x709>
 8049f18:	c7 44 24 7c 00 02 00 	movl   $0x200,0x7c(%esp)
 8049f1f:	00 
 8049f20:	e9 fc f9 ff ff       	jmp    8049921 <exit@plt+0x709>
 8049f25:	a1 04 51 05 08       	mov    0x8055104,%eax
 8049f2a:	e9 27 fe ff ff       	jmp    8049d56 <exit@plt+0xb3e>
 8049f2f:	e8 24 ef ff ff       	call   8048e58 <__errno_location@plt>
 8049f34:	c7 44 24 08 e4 2b 05 	movl   $0x8052be4,0x8(%esp)
 8049f3b:	08 
 8049f3c:	89 c7                	mov    %eax,%edi
 8049f3e:	a1 70 51 05 08       	mov    0x8055170,%eax
 8049f43:	89 44 24 0c          	mov    %eax,0xc(%esp)
 8049f47:	8b 07                	mov    (%edi),%eax
 8049f49:	c7 04 24 00 00 00 00 	movl   $0x0,(%esp)
 8049f50:	89 44 24 04          	mov    %eax,0x4(%esp)
 8049f54:	e8 ef f1 ff ff       	call   8049148 <error@plt>
 8049f59:	2b b4 24 90 00 00 00 	sub    0x90(%esp),%esi
 8049f60:	0f 85 5b 01 00 00    	jne    804a0c1 <exit@plt+0xea9>
 8049f66:	8b 8c 24 94 00 00 00 	mov    0x94(%esp),%ecx
 8049f6d:	c6 44 24 53 00       	movb   $0x0,0x53(%esp)
 8049f72:	89 0d 6c 51 05 08    	mov    %ecx,0x805516c
 8049f78:	8b 4c 24 4c          	mov    0x4c(%esp),%ecx
 8049f7c:	89 0c 24             	mov    %ecx,(%esp)
 8049f7f:	e8 74 f0 ff ff       	call   8048ff8 <free@plt>
 8049f84:	8b 44 24 54          	mov    0x54(%esp),%eax
 8049f88:	89 04 24             	mov    %eax,(%esp)
 8049f8b:	e8 68 f0 ff ff       	call   8048ff8 <free@plt>
 8049f90:	a1 70 51 05 08       	mov    0x8055170,%eax
 8049f95:	0f b6 10             	movzbl (%eax),%edx
 8049f98:	3a 15 f2 27 05 08    	cmp    0x80527f2,%dl
 8049f9e:	74 4a                	je     8049fea <exit@plt+0xdd2>
 8049fa0:	a1 74 51 05 08       	mov    0x8055174,%eax
 8049fa5:	89 04 24             	mov    %eax,(%esp)
 8049fa8:	e8 1b f1 ff ff       	call   80490c8 <close@plt>
 8049fad:	85 c0                	test   %eax,%eax
 8049faf:	0f 88 80 01 00 00    	js     804a135 <exit@plt+0xf1d>
 8049fb5:	83 44 24 60 01       	addl   $0x1,0x60(%esp)
 8049fba:	8b 54 24 60          	mov    0x60(%esp),%edx
 8049fbe:	83 44 24 58 04       	addl   $0x4,0x58(%esp)
 8049fc3:	39 55 08             	cmp    %edx,0x8(%ebp)
 8049fc6:	0f 8f c2 f8 ff ff    	jg     804988e <exit@plt+0x676>
 8049fcc:	80 7c 24 4a 00       	cmpb   $0x0,0x4a(%esp)
 8049fd1:	0f 85 e3 02 00 00    	jne    804a2ba <exit@plt+0x10a2>
 8049fd7:	0f b6 44 24 53       	movzbl 0x53(%esp),%eax
 8049fdc:	83 f0 01             	xor    $0x1,%eax
 8049fdf:	0f b6 c0             	movzbl %al,%eax
 8049fe2:	89 04 24             	mov    %eax,(%esp)
 8049fe5:	e8 2e f2 ff ff       	call   8049218 <exit@plt>
 8049fea:	0f b6 40 01          	movzbl 0x1(%eax),%eax
 8049fee:	3a 05 f3 27 05 08    	cmp    0x80527f3,%al
 8049ff4:	74 bf                	je     8049fb5 <exit@plt+0xd9d>
 8049ff6:	eb a8                	jmp    8049fa0 <exit@plt+0xd88>
 8049ff8:	2b b4 24 90 00 00 00 	sub    0x90(%esp),%esi
 8049fff:	0f 85 63 01 00 00    	jne    804a168 <exit@plt+0xf50>
 804a005:	8b 94 24 94 00 00 00 	mov    0x94(%esp),%edx
 804a00c:	89 15 6c 51 05 08    	mov    %edx,0x805516c
 804a012:	e9 61 ff ff ff       	jmp    8049f78 <exit@plt+0xd60>
 804a017:	e8 3c ee ff ff       	call   8048e58 <__errno_location@plt>
 804a01c:	8b 15 70 51 05 08    	mov    0x8055170,%edx
 804a022:	c7 44 24 08 e4 2b 05 	movl   $0x8052be4,0x8(%esp)
 804a029:	08 
 804a02a:	89 54 24 0c          	mov    %edx,0xc(%esp)
 804a02e:	8b 00                	mov    (%eax),%eax
 804a030:	c7 04 24 00 00 00 00 	movl   $0x0,(%esp)
 804a037:	89 44 24 04          	mov    %eax,0x4(%esp)
 804a03b:	e8 08 f1 ff ff       	call   8049148 <error@plt>
 804a040:	c6 44 24 53 00       	movb   $0x0,0x53(%esp)
 804a045:	e9 46 ff ff ff       	jmp    8049f90 <exit@plt+0xd78>
 804a04a:	8b 54 24 34          	mov    0x34(%esp),%edx
 804a04e:	39 94 24 68 01 00 00 	cmp    %edx,0x168(%esp)
 804a055:	0f 85 eb f8 ff ff    	jne    8049946 <exit@plt+0x72e>
 804a05b:	8b 4c 24 38          	mov    0x38(%esp),%ecx
 804a05f:	39 8c 24 64 01 00 00 	cmp    %ecx,0x164(%esp)
 804a066:	0f 85 da f8 ff ff    	jne    8049946 <exit@plt+0x72e>
 804a06c:	83 3d 74 51 05 08 00 	cmpl   $0x0,0x8055174
 804a073:	0f 84 cd f8 ff ff    	je     8049946 <exit@plt+0x72e>
 804a079:	8b 35 70 51 05 08    	mov    0x8055170,%esi
 804a07f:	c7 44 24 08 05 00 00 	movl   $0x5,0x8(%esp)
 804a086:	00 
 804a087:	c7 44 24 04 72 26 05 	movl   $0x8052672,0x4(%esp)
 804a08e:	08 
 804a08f:	c7 04 24 00 00 00 00 	movl   $0x0,(%esp)
 804a096:	e8 6d ef ff ff       	call   8049008 <dcgettext@plt>
 804a09b:	89 74 24 0c          	mov    %esi,0xc(%esp)
 804a09f:	c7 44 24 04 00 00 00 	movl   $0x0,0x4(%esp)
 804a0a6:	00 
 804a0a7:	c7 04 24 00 00 00 00 	movl   $0x0,(%esp)
 804a0ae:	89 44 24 08          	mov    %eax,0x8(%esp)
 804a0b2:	e8 91 f0 ff ff       	call   8049148 <error@plt>
 804a0b7:	c6 44 24 53 00       	movb   $0x0,0x53(%esp)
 804a0bc:	e9 cf fe ff ff       	jmp    8049f90 <exit@plt+0xd78>
 804a0c1:	8b 94 24 90 00 00 00 	mov    0x90(%esp),%edx
 804a0c8:	89 74 24 08          	mov    %esi,0x8(%esp)
 804a0cc:	c7 04 24 01 00 00 00 	movl   $0x1,(%esp)
 804a0d3:	89 54 24 04          	mov    %edx,0x4(%esp)
 804a0d7:	e8 04 03 00 00       	call   804a3e0 <exit@plt+0x11c8>
 804a0dc:	39 c6                	cmp    %eax,%esi
 804a0de:	0f 84 82 fe ff ff    	je     8049f66 <exit@plt+0xd4e>
 804a0e4:	c7 44 24 08 05 00 00 	movl   $0x5,0x8(%esp)
 804a0eb:	00 
 804a0ec:	c7 44 24 04 90 26 05 	movl   $0x8052690,0x4(%esp)
 804a0f3:	08 
 804a0f4:	c7 04 24 00 00 00 00 	movl   $0x0,(%esp)
 804a0fb:	e8 08 ef ff ff       	call   8049008 <dcgettext@plt>
 804a100:	89 44 24 08          	mov    %eax,0x8(%esp)
 804a104:	8b 07                	mov    (%edi),%eax
 804a106:	c7 04 24 01 00 00 00 	movl   $0x1,(%esp)
 804a10d:	89 44 24 04          	mov    %eax,0x4(%esp)
 804a111:	e8 32 f0 ff ff       	call   8049148 <error@plt>
 804a116:	e9 4b fe ff ff       	jmp    8049f66 <exit@plt+0xd4e>
 804a11b:	8d 43 ff             	lea    -0x1(%ebx),%eax
 804a11e:	3d ff ff ff 1f       	cmp    $0x1fffffff,%eax
 804a123:	0f 86 03 f7 ff ff    	jbe    804982c <exit@plt+0x614>
 804a129:	bb 00 02 00 00       	mov    $0x200,%ebx
 804a12e:	66 90                	xchg   %ax,%ax
 804a130:	e9 f7 f6 ff ff       	jmp    804982c <exit@plt+0x614>
 804a135:	e8 1e ed ff ff       	call   8048e58 <__errno_location@plt>
 804a13a:	8b 15 70 51 05 08    	mov    0x8055170,%edx
 804a140:	c7 44 24 08 e4 2b 05 	movl   $0x8052be4,0x8(%esp)
 804a147:	08 
 804a148:	89 54 24 0c          	mov    %edx,0xc(%esp)
 804a14c:	8b 00                	mov    (%eax),%eax
 804a14e:	c7 04 24 00 00 00 00 	movl   $0x0,(%esp)
 804a155:	89 44 24 04          	mov    %eax,0x4(%esp)
 804a159:	e8 ea ef ff ff       	call   8049148 <error@plt>
 804a15e:	c6 44 24 53 00       	movb   $0x0,0x53(%esp)
 804a163:	e9 4d fe ff ff       	jmp    8049fb5 <exit@plt+0xd9d>
 804a168:	8b 84 24 90 00 00 00 	mov    0x90(%esp),%eax
 804a16f:	89 74 24 08          	mov    %esi,0x8(%esp)
 804a173:	c7 04 24 01 00 00 00 	movl   $0x1,(%esp)
 804a17a:	89 44 24 04          	mov    %eax,0x4(%esp)
 804a17e:	e8 5d 02 00 00       	call   804a3e0 <exit@plt+0x11c8>
 804a183:	39 c6                	cmp    %eax,%esi
 804a185:	0f 84 7a fe ff ff    	je     804a005 <exit@plt+0xded>
 804a18b:	c7 44 24 08 05 00 00 	movl   $0x5,0x8(%esp)
 804a192:	00 
 804a193:	c7 44 24 04 90 26 05 	movl   $0x8052690,0x4(%esp)
 804a19a:	08 
 804a19b:	c7 04 24 00 00 00 00 	movl   $0x0,(%esp)
 804a1a2:	e8 61 ee ff ff       	call   8049008 <dcgettext@plt>
 804a1a7:	89 c6                	mov    %eax,%esi
 804a1a9:	e8 aa ec ff ff       	call   8048e58 <__errno_location@plt>
 804a1ae:	89 74 24 08          	mov    %esi,0x8(%esp)
 804a1b2:	8b 00                	mov    (%eax),%eax
 804a1b4:	c7 04 24 01 00 00 00 	movl   $0x1,(%esp)
 804a1bb:	89 44 24 04          	mov    %eax,0x4(%esp)
 804a1bf:	e8 84 ef ff ff       	call   8049148 <error@plt>
 804a1c4:	e9 3c fe ff ff       	jmp    804a005 <exit@plt+0xded>
 804a1c9:	80 7c 24 6b 00       	cmpb   $0x0,0x6b(%esp)
 804a1ce:	0f 85 99 f7 ff ff    	jne    804996d <exit@plt+0x755>
 804a1d4:	8b 74 24 7c          	mov    0x7c(%esp),%esi
 804a1d8:	3b 74 24 74          	cmp    0x74(%esp),%esi
 804a1dc:	73 04                	jae    804a1e2 <exit@plt+0xfca>
 804a1de:	8b 74 24 74          	mov    0x74(%esp),%esi
 804a1e2:	8b 7c 24 64          	mov    0x64(%esp),%edi
 804a1e6:	89 f3                	mov    %esi,%ebx
 804a1e8:	83 ef 01             	sub    $0x1,%edi
 804a1eb:	8d 04 37             	lea    (%edi,%esi,1),%eax
 804a1ee:	89 04 24             	mov    %eax,(%esp)
 804a1f1:	e8 7a 2e 00 00       	call   804d070 <exit@plt+0x3e58>
 804a1f6:	31 d2                	xor    %edx,%edx
 804a1f8:	01 c7                	add    %eax,%edi
 804a1fa:	89 44 24 54          	mov    %eax,0x54(%esp)
 804a1fe:	89 f8                	mov    %edi,%eax
 804a200:	f7 74 24 64          	divl   0x64(%esp)
 804a204:	29 d7                	sub    %edx,%edi
 804a206:	89 fe                	mov    %edi,%esi
 804a208:	a1 74 51 05 08       	mov    0x8055174,%eax
 804a20d:	89 5c 24 08          	mov    %ebx,0x8(%esp)
 804a211:	89 74 24 04          	mov    %esi,0x4(%esp)
 804a215:	89 04 24             	mov    %eax,(%esp)
 804a218:	e8 f3 2b 00 00       	call   804ce10 <exit@plt+0x3bf8>
 804a21d:	83 f8 ff             	cmp    $0xffffffff,%eax
 804a220:	89 c7                	mov    %eax,%edi
 804a222:	74 5b                	je     804a27f <exit@plt+0x1067>
 804a224:	85 c0                	test   %eax,%eax
 804a226:	0f 84 87 00 00 00    	je     804a2b3 <exit@plt+0x109b>
 804a22c:	89 44 24 08          	mov    %eax,0x8(%esp)
 804a230:	89 74 24 04          	mov    %esi,0x4(%esp)
 804a234:	c7 04 24 01 00 00 00 	movl   $0x1,(%esp)
 804a23b:	e8 a0 01 00 00       	call   804a3e0 <exit@plt+0x11c8>
 804a240:	39 c7                	cmp    %eax,%edi
 804a242:	74 c4                	je     804a208 <exit@plt+0xff0>
 804a244:	c7 44 24 08 05 00 00 	movl   $0x5,0x8(%esp)
 804a24b:	00 
 804a24c:	c7 44 24 04 90 26 05 	movl   $0x8052690,0x4(%esp)
 804a253:	08 
 804a254:	c7 04 24 00 00 00 00 	movl   $0x0,(%esp)
 804a25b:	e8 a8 ed ff ff       	call   8049008 <dcgettext@plt>
 804a260:	89 c7                	mov    %eax,%edi
 804a262:	e8 f1 eb ff ff       	call   8048e58 <__errno_location@plt>
 804a267:	89 7c 24 08          	mov    %edi,0x8(%esp)
 804a26b:	8b 00                	mov    (%eax),%eax
 804a26d:	c7 04 24 01 00 00 00 	movl   $0x1,(%esp)
 804a274:	89 44 24 04          	mov    %eax,0x4(%esp)
 804a278:	e8 cb ee ff ff       	call   8049148 <error@plt>
 804a27d:	eb 89                	jmp    804a208 <exit@plt+0xff0>
 804a27f:	e8 d4 eb ff ff       	call   8048e58 <__errno_location@plt>
 804a284:	8b 15 70 51 05 08    	mov    0x8055170,%edx
 804a28a:	c7 44 24 08 e4 2b 05 	movl   $0x8052be4,0x8(%esp)
 804a291:	08 
 804a292:	89 54 24 0c          	mov    %edx,0xc(%esp)
 804a296:	8b 00                	mov    (%eax),%eax
 804a298:	c7 04 24 00 00 00 00 	movl   $0x0,(%esp)
 804a29f:	89 44 24 04          	mov    %eax,0x4(%esp)
 804a2a3:	e8 a0 ee ff ff       	call   8049148 <error@plt>
 804a2a8:	31 c0                	xor    %eax,%eax
 804a2aa:	20 44 24 53          	and    %al,0x53(%esp)
 804a2ae:	e9 d1 fc ff ff       	jmp    8049f84 <exit@plt+0xd6c>
 804a2b3:	b8 01 00 00 00       	mov    $0x1,%eax
 804a2b8:	eb f0                	jmp    804a2aa <exit@plt+0x1092>
 804a2ba:	c7 04 24 00 00 00 00 	movl   $0x0,(%esp)
 804a2c1:	e8 02 ee ff ff       	call   80490c8 <close@plt>
 804a2c6:	85 c0                	test   %eax,%eax
 804a2c8:	0f 89 09 fd ff ff    	jns    8049fd7 <exit@plt+0xdbf>
 804a2ce:	c7 44 24 08 05 00 00 	movl   $0x5,0x8(%esp)
 804a2d5:	00 
 804a2d6:	c7 44 24 04 b2 26 05 	movl   $0x80526b2,0x4(%esp)
 804a2dd:	08 
 804a2de:	c7 04 24 00 00 00 00 	movl   $0x0,(%esp)
 804a2e5:	e8 1e ed ff ff       	call   8049008 <dcgettext@plt>
 804a2ea:	89 c3                	mov    %eax,%ebx
 804a2ec:	e8 67 eb ff ff       	call   8048e58 <__errno_location@plt>
 804a2f1:	89 5c 24 08          	mov    %ebx,0x8(%esp)
 804a2f5:	8b 00                	mov    (%eax),%eax
 804a2f7:	c7 04 24 01 00 00 00 	movl   $0x1,(%esp)
 804a2fe:	89 44 24 04          	mov    %eax,0x4(%esp)
 804a302:	e8 41 ee ff ff       	call   8049148 <error@plt>
 804a307:	e9 cb fc ff ff       	jmp    8049fd7 <exit@plt+0xdbf>
 804a30c:	8b 94 24 0c 01 00 00 	mov    0x10c(%esp),%edx
 804a313:	8b 8c 24 10 01 00 00 	mov    0x110(%esp),%ecx
 804a31a:	8b 84 24 64 01 00 00 	mov    0x164(%esp),%eax
 804a321:	c6 44 24 4b 01       	movb   $0x1,0x4b(%esp)
 804a326:	89 54 24 40          	mov    %edx,0x40(%esp)
 804a32a:	8b 94 24 68 01 00 00 	mov    0x168(%esp),%edx
 804a331:	89 4c 24 3c          	mov    %ecx,0x3c(%esp)
 804a335:	89 44 24 38          	mov    %eax,0x38(%esp)
 804a339:	89 54 24 34          	mov    %edx,0x34(%esp)
 804a33d:	e9 06 f5 ff ff       	jmp    8049848 <exit@plt+0x630>
 804a342:	c7 44 24 08 05 00 00 	movl   $0x5,0x8(%esp)
 804a349:	00 
 804a34a:	c7 44 24 04 62 26 05 	movl   $0x8052662,0x4(%esp)
 804a351:	08 
 804a352:	c7 04 24 00 00 00 00 	movl   $0x0,(%esp)
 804a359:	e8 aa ec ff ff       	call   8049008 <dcgettext@plt>
 804a35e:	89 c3                	mov    %eax,%ebx
 804a360:	e8 f3 ea ff ff       	call   8048e58 <__errno_location@plt>
 804a365:	89 5c 24 08          	mov    %ebx,0x8(%esp)
 804a369:	8b 00                	mov    (%eax),%eax
 804a36b:	c7 04 24 01 00 00 00 	movl   $0x1,(%esp)
 804a372:	89 44 24 04          	mov    %eax,0x4(%esp)
 804a376:	e8 cd ed ff ff       	call   8049148 <error@plt>
 804a37b:	e9 77 f4 ff ff       	jmp    80497f7 <exit@plt+0x5df>
 804a380:	89 c7                	mov    %eax,%edi
 804a382:	a1 70 51 05 08       	mov    0x8055170,%eax
 804a387:	89 04 24             	mov    %eax,(%esp)
 804a38a:	e8 b1 19 00 00       	call   804bd40 <exit@plt+0x2b28>
 804a38f:	c7 44 24 08 05 00 00 	movl   $0x5,0x8(%esp)
 804a396:	00 
 804a397:	c7 44 24 04 9c 26 05 	movl   $0x805269c,0x4(%esp)
 804a39e:	08 
 804a39f:	c7 04 24 00 00 00 00 	movl   $0x0,(%esp)
 804a3a6:	89 c6                	mov    %eax,%esi
 804a3a8:	e8 5b ec ff ff       	call   8049008 <dcgettext@plt>
 804a3ad:	89 74 24 0c          	mov    %esi,0xc(%esp)
 804a3b1:	89 44 24 08          	mov    %eax,0x8(%esp)
 804a3b5:	8b 07                	mov    (%edi),%eax
 804a3b7:	c7 04 24 00 00 00 00 	movl   $0x0,(%esp)
 804a3be:	89 44 24 04          	mov    %eax,0x4(%esp)
 804a3c2:	e8 81 ed ff ff       	call   8049148 <error@plt>
 804a3c7:	8b 84 24 94 00 00 00 	mov    0x94(%esp),%eax
 804a3ce:	c6 44 24 53 00       	movb   $0x0,0x53(%esp)
 804a3d3:	a3 6c 51 05 08       	mov    %eax,0x805516c
 804a3d8:	e9 9b fb ff ff       	jmp    8049f78 <exit@plt+0xd60>
 804a3dd:	90                   	nop
 804a3de:	90                   	nop
 804a3df:	90                   	nop
 804a3e0:	55                   	push   %ebp
 804a3e1:	89 e5                	mov    %esp,%ebp
 804a3e3:	57                   	push   %edi
 804a3e4:	31 ff                	xor    %edi,%edi
 804a3e6:	56                   	push   %esi
 804a3e7:	53                   	push   %ebx
 804a3e8:	83 ec 1c             	sub    $0x1c,%esp
 804a3eb:	8b 5d 10             	mov    0x10(%ebp),%ebx
 804a3ee:	85 db                	test   %ebx,%ebx
 804a3f0:	74 2a                	je     804a41c <exit@plt+0x1204>
 804a3f2:	8b 75 0c             	mov    0xc(%ebp),%esi
 804a3f5:	eb 0d                	jmp    804a404 <exit@plt+0x11ec>
 804a3f7:	90                   	nop
 804a3f8:	85 c0                	test   %eax,%eax
 804a3fa:	74 2c                	je     804a428 <exit@plt+0x1210>
 804a3fc:	01 c7                	add    %eax,%edi
 804a3fe:	29 c3                	sub    %eax,%ebx
 804a400:	74 1a                	je     804a41c <exit@plt+0x1204>
 804a402:	01 c6                	add    %eax,%esi
 804a404:	89 5c 24 08          	mov    %ebx,0x8(%esp)
 804a408:	89 74 24 04          	mov    %esi,0x4(%esp)
 804a40c:	8b 45 08             	mov    0x8(%ebp),%eax
 804a40f:	89 04 24             	mov    %eax,(%esp)
 804a412:	e8 59 2a 00 00       	call   804ce70 <exit@plt+0x3c58>
 804a417:	83 f8 ff             	cmp    $0xffffffff,%eax
 804a41a:	75 dc                	jne    804a3f8 <exit@plt+0x11e0>
 804a41c:	83 c4 1c             	add    $0x1c,%esp
 804a41f:	89 f8                	mov    %edi,%eax
 804a421:	5b                   	pop    %ebx
 804a422:	5e                   	pop    %esi
 804a423:	5f                   	pop    %edi
 804a424:	5d                   	pop    %ebp
 804a425:	c3                   	ret    
 804a426:	66 90                	xchg   %ax,%ax
 804a428:	e8 2b ea ff ff       	call   8048e58 <__errno_location@plt>
 804a42d:	c7 00 1c 00 00 00    	movl   $0x1c,(%eax)
 804a433:	83 c4 1c             	add    $0x1c,%esp
 804a436:	89 f8                	mov    %edi,%eax
 804a438:	5b                   	pop    %ebx
 804a439:	5e                   	pop    %esi
 804a43a:	5f                   	pop    %edi
 804a43b:	5d                   	pop    %ebp
 804a43c:	c3                   	ret    
 804a43d:	90                   	nop
 804a43e:	90                   	nop
 804a43f:	90                   	nop
 804a440:	55                   	push   %ebp
 804a441:	89 e5                	mov    %esp,%ebp
 804a443:	83 ec 38             	sub    $0x38,%esp
 804a446:	89 5d f4             	mov    %ebx,-0xc(%ebp)
 804a449:	8b 5d 08             	mov    0x8(%ebp),%ebx
 804a44c:	c7 44 24 04 2f 00 00 	movl   $0x2f,0x4(%esp)
 804a453:	00 
 804a454:	89 75 f8             	mov    %esi,-0x8(%ebp)
 804a457:	89 7d fc             	mov    %edi,-0x4(%ebp)
 804a45a:	89 1c 24             	mov    %ebx,(%esp)
 804a45d:	e8 36 eb ff ff       	call   8048f98 <strrchr@plt>
 804a462:	85 c0                	test   %eax,%eax
 804a464:	74 43                	je     804a4a9 <exit@plt+0x1291>
 804a466:	8d 50 01             	lea    0x1(%eax),%edx
 804a469:	89 d1                	mov    %edx,%ecx
 804a46b:	29 d9                	sub    %ebx,%ecx
 804a46d:	83 f9 06             	cmp    $0x6,%ecx
 804a470:	89 55 e4             	mov    %edx,-0x1c(%ebp)
 804a473:	7e 34                	jle    804a4a9 <exit@plt+0x1291>
 804a475:	8d 70 fa             	lea    -0x6(%eax),%esi
 804a478:	bf e8 27 05 08       	mov    $0x80527e8,%edi
 804a47d:	b9 07 00 00 00       	mov    $0x7,%ecx
 804a482:	f3 a6                	repz cmpsb %es:(%edi),%ds:(%esi)
 804a484:	75 23                	jne    804a4a9 <exit@plt+0x1291>
 804a486:	8b 75 e4             	mov    -0x1c(%ebp),%esi
 804a489:	b9 03 00 00 00       	mov    $0x3,%ecx
 804a48e:	bf f0 27 05 08       	mov    $0x80527f0,%edi
 804a493:	8b 5d e4             	mov    -0x1c(%ebp),%ebx
 804a496:	f3 a6                	repz cmpsb %es:(%edi),%ds:(%esi)
 804a498:	0f 97 c1             	seta   %cl
 804a49b:	89 ce                	mov    %ecx,%esi
 804a49d:	0f 92 c1             	setb   %cl
 804a4a0:	89 f2                	mov    %esi,%edx
 804a4a2:	38 ca                	cmp    %cl,%dl
 804a4a4:	75 03                	jne    804a4a9 <exit@plt+0x1291>
 804a4a6:	8d 58 04             	lea    0x4(%eax),%ebx
 804a4a9:	89 1d 78 51 05 08    	mov    %ebx,0x8055178
 804a4af:	8b 75 f8             	mov    -0x8(%ebp),%esi
 804a4b2:	8b 5d f4             	mov    -0xc(%ebp),%ebx
 804a4b5:	8b 7d fc             	mov    -0x4(%ebp),%edi
 804a4b8:	89 ec                	mov    %ebp,%esp
 804a4ba:	5d                   	pop    %ebp
 804a4bb:	c3                   	ret    
 804a4bc:	90                   	nop
 804a4bd:	90                   	nop
 804a4be:	90                   	nop
 804a4bf:	90                   	nop
 804a4c0:	55                   	push   %ebp
 804a4c1:	89 e5                	mov    %esp,%ebp
 804a4c3:	57                   	push   %edi
 804a4c4:	56                   	push   %esi
 804a4c5:	53                   	push   %ebx
 804a4c6:	89 c3                	mov    %eax,%ebx
 804a4c8:	81 ec dc 00 00 00    	sub    $0xdc,%esp
 804a4ce:	c7 44 24 04 02 00 00 	movl   $0x2,0x4(%esp)
 804a4d5:	00 
 804a4d6:	8d 75 88             	lea    -0x78(%ebp),%esi
 804a4d9:	65 a1 14 00 00 00    	mov    %gs:0x14,%eax
 804a4df:	89 45 e4             	mov    %eax,-0x1c(%ebp)
 804a4e2:	31 c0                	xor    %eax,%eax
 804a4e4:	89 14 24             	mov    %edx,(%esp)
 804a4e7:	e8 64 0c 00 00       	call   804b150 <exit@plt+0x1f38>
 804a4ec:	89 85 40 ff ff ff    	mov    %eax,-0xc0(%ebp)
 804a4f2:	8d b6 00 00 00 00    	lea    0x0(%esi),%esi
 804a4f8:	80 3b 00             	cmpb   $0x0,(%ebx)
 804a4fb:	0f 84 ff 03 00 00    	je     804a900 <exit@plt+0x16e8>
 804a501:	8b 95 40 ff ff ff    	mov    -0xc0(%ebp),%edx
 804a507:	89 1c 24             	mov    %ebx,(%esp)
 804a50a:	89 54 24 04          	mov    %edx,0x4(%esp)
 804a50e:	e8 bd 3c 00 00       	call   804e1d0 <exit@plt+0x4fb8>
 804a513:	85 c0                	test   %eax,%eax
 804a515:	89 c7                	mov    %eax,%edi
 804a517:	0f 84 e3 03 00 00    	je     804a900 <exit@plt+0x16e8>
 804a51d:	e8 76 e9 ff ff       	call   8048e98 <__ctype_get_mb_cur_max@plt>
 804a522:	83 f8 01             	cmp    $0x1,%eax
 804a525:	0f 86 dd 05 00 00    	jbe    804ab08 <exit@plt+0x18f0>
 804a52b:	39 df                	cmp    %ebx,%edi
 804a52d:	89 5d 94             	mov    %ebx,-0x6c(%ebp)
 804a530:	c6 45 84 00          	movb   $0x0,-0x7c(%ebp)
 804a534:	c7 06 00 00 00 00    	movl   $0x0,(%esi)
 804a53a:	c7 46 04 00 00 00 00 	movl   $0x0,0x4(%esi)
 804a541:	c6 45 90 00          	movb   $0x0,-0x70(%ebp)
 804a545:	0f 86 bc 00 00 00    	jbe    804a607 <exit@plt+0x13ef>
 804a54b:	89 bd 34 ff ff ff    	mov    %edi,-0xcc(%ebp)
 804a551:	80 7d 84 00          	cmpb   $0x0,-0x7c(%ebp)
 804a555:	0f 85 f1 04 00 00    	jne    804aa4c <exit@plt+0x1834>
 804a55b:	8b 55 94             	mov    -0x6c(%ebp),%edx
 804a55e:	0f b6 02             	movzbl (%edx),%eax
 804a561:	89 c1                	mov    %eax,%ecx
 804a563:	c0 e9 05             	shr    $0x5,%cl
 804a566:	0f b6 c9             	movzbl %cl,%ecx
 804a569:	8b 0c 8d a0 2f 05 08 	mov    0x8052fa0(,%ecx,4),%ecx
 804a570:	0f a3 c1             	bt     %eax,%ecx
 804a573:	0f 83 bf 04 00 00    	jae    804aa38 <exit@plt+0x1820>
 804a579:	c7 45 98 01 00 00 00 	movl   $0x1,-0x68(%ebp)
 804a580:	0f be 02             	movsbl (%edx),%eax
 804a583:	c6 45 9c 01          	movb   $0x1,-0x64(%ebp)
 804a587:	89 45 a0             	mov    %eax,-0x60(%ebp)
 804a58a:	80 7d 9c 00          	cmpb   $0x0,-0x64(%ebp)
 804a58e:	c6 45 90 01          	movb   $0x1,-0x70(%ebp)
 804a592:	0f 85 68 04 00 00    	jne    804aa00 <exit@plt+0x17e8>
 804a598:	8b 7d a4             	mov    -0x5c(%ebp),%edi
 804a59b:	8b 55 94             	mov    -0x6c(%ebp),%edx
 804a59e:	8b 45 98             	mov    -0x68(%ebp),%eax
 804a5a1:	8b 4d 9c             	mov    -0x64(%ebp),%ecx
 804a5a4:	89 7d cc             	mov    %edi,-0x34(%ebp)
 804a5a7:	8b 7d a8             	mov    -0x58(%ebp),%edi
 804a5aa:	8b 5d a0             	mov    -0x60(%ebp),%ebx
 804a5ad:	89 45 c0             	mov    %eax,-0x40(%ebp)
 804a5b0:	8d 04 02             	lea    (%edx,%eax,1),%eax
 804a5b3:	39 85 34 ff ff ff    	cmp    %eax,-0xcc(%ebp)
 804a5b9:	89 7d d0             	mov    %edi,-0x30(%ebp)
 804a5bc:	8b 7d ac             	mov    -0x54(%ebp),%edi
 804a5bf:	89 55 bc             	mov    %edx,-0x44(%ebp)
 804a5c2:	89 4d c4             	mov    %ecx,-0x3c(%ebp)
 804a5c5:	89 5d c8             	mov    %ebx,-0x38(%ebp)
 804a5c8:	89 7d d4             	mov    %edi,-0x2c(%ebp)
 804a5cb:	8b 7d b0             	mov    -0x50(%ebp),%edi
 804a5ce:	89 45 94             	mov    %eax,-0x6c(%ebp)
 804a5d1:	c6 45 90 00          	movb   $0x0,-0x70(%ebp)
 804a5d5:	89 7d d8             	mov    %edi,-0x28(%ebp)
 804a5d8:	8b 7d b4             	mov    -0x4c(%ebp),%edi
 804a5db:	89 7d dc             	mov    %edi,-0x24(%ebp)
 804a5de:	8b 7d b8             	mov    -0x48(%ebp),%edi
 804a5e1:	89 7d e0             	mov    %edi,-0x20(%ebp)
 804a5e4:	0f 87 67 ff ff ff    	ja     804a551 <exit@plt+0x1339>
 804a5ea:	84 c9                	test   %cl,%cl
 804a5ec:	8b bd 34 ff ff ff    	mov    -0xcc(%ebp),%edi
 804a5f2:	74 13                	je     804a607 <exit@plt+0x13ef>
 804a5f4:	89 1c 24             	mov    %ebx,(%esp)
 804a5f7:	e8 0c eb ff ff       	call   8049108 <iswalnum@plt>
 804a5fc:	c6 85 47 ff ff ff 00 	movb   $0x0,-0xb9(%ebp)
 804a603:	85 c0                	test   %eax,%eax
 804a605:	75 07                	jne    804a60e <exit@plt+0x13f6>
 804a607:	c6 85 47 ff ff ff 01 	movb   $0x1,-0xb9(%ebp)
 804a60e:	8b 85 40 ff ff ff    	mov    -0xc0(%ebp),%eax
 804a614:	8d 9d 50 ff ff ff    	lea    -0xb0(%ebp),%ebx
 804a61a:	c6 85 4c ff ff ff 00 	movb   $0x0,-0xb4(%ebp)
 804a621:	80 bd 4c ff ff ff 00 	cmpb   $0x0,-0xb4(%ebp)
 804a628:	89 7d 94             	mov    %edi,-0x6c(%ebp)
 804a62b:	c6 45 84 00          	movb   $0x0,-0x7c(%ebp)
 804a62f:	c7 06 00 00 00 00    	movl   $0x0,(%esi)
 804a635:	c7 46 04 00 00 00 00 	movl   $0x0,0x4(%esi)
 804a63c:	c6 45 90 00          	movb   $0x0,-0x70(%ebp)
 804a640:	89 85 5c ff ff ff    	mov    %eax,-0xa4(%ebp)
 804a646:	c7 85 50 ff ff ff 00 	movl   $0x0,-0xb0(%ebp)
 804a64d:	00 00 00 
 804a650:	c7 85 54 ff ff ff 00 	movl   $0x0,-0xac(%ebp)
 804a657:	00 00 00 
 804a65a:	c6 85 58 ff ff ff 00 	movb   $0x0,-0xa8(%ebp)
 804a661:	0f 85 c7 00 00 00    	jne    804a72e <exit@plt+0x1516>
 804a667:	90                   	nop
 804a668:	8b 95 5c ff ff ff    	mov    -0xa4(%ebp),%edx
 804a66e:	0f b6 02             	movzbl (%edx),%eax
 804a671:	89 c1                	mov    %eax,%ecx
 804a673:	c0 e9 05             	shr    $0x5,%cl
 804a676:	0f b6 c9             	movzbl %cl,%ecx
 804a679:	8b 0c 8d a0 2f 05 08 	mov    0x8052fa0(,%ecx,4),%ecx
 804a680:	0f a3 c1             	bt     %eax,%ecx
 804a683:	0f 83 4f 03 00 00    	jae    804a9d8 <exit@plt+0x17c0>
 804a689:	c7 85 60 ff ff ff 01 	movl   $0x1,-0xa0(%ebp)
 804a690:	00 00 00 
 804a693:	0f be 02             	movsbl (%edx),%eax
 804a696:	c6 85 64 ff ff ff 01 	movb   $0x1,-0x9c(%ebp)
 804a69d:	89 85 68 ff ff ff    	mov    %eax,-0x98(%ebp)
 804a6a3:	80 bd 64 ff ff ff 00 	cmpb   $0x0,-0x9c(%ebp)
 804a6aa:	c6 85 58 ff ff ff 01 	movb   $0x1,-0xa8(%ebp)
 804a6b1:	0f 85 29 01 00 00    	jne    804a7e0 <exit@plt+0x15c8>
 804a6b7:	80 7d 90 00          	cmpb   $0x0,-0x70(%ebp)
 804a6bb:	75 3d                	jne    804a6fa <exit@plt+0x14e2>
 804a6bd:	80 7d 84 00          	cmpb   $0x0,-0x7c(%ebp)
 804a6c1:	0f 85 8d 02 00 00    	jne    804a954 <exit@plt+0x173c>
 804a6c7:	8b 55 94             	mov    -0x6c(%ebp),%edx
 804a6ca:	0f b6 02             	movzbl (%edx),%eax
 804a6cd:	89 c1                	mov    %eax,%ecx
 804a6cf:	c0 e9 05             	shr    $0x5,%cl
 804a6d2:	0f b6 c9             	movzbl %cl,%ecx
 804a6d5:	8b 0c 8d a0 2f 05 08 	mov    0x8052fa0(,%ecx,4),%ecx
 804a6dc:	0f a3 c1             	bt     %eax,%ecx
 804a6df:	0f 83 5b 02 00 00    	jae    804a940 <exit@plt+0x1728>
 804a6e5:	c7 45 98 01 00 00 00 	movl   $0x1,-0x68(%ebp)
 804a6ec:	0f be 02             	movsbl (%edx),%eax
 804a6ef:	c6 45 9c 01          	movb   $0x1,-0x64(%ebp)
 804a6f3:	89 45 a0             	mov    %eax,-0x60(%ebp)
 804a6f6:	c6 45 90 01          	movb   $0x1,-0x70(%ebp)
 804a6fa:	80 7d 9c 00          	cmpb   $0x0,-0x64(%ebp)
 804a6fe:	0f 85 2c 02 00 00    	jne    804a930 <exit@plt+0x1718>
 804a704:	8b 45 98             	mov    -0x68(%ebp),%eax
 804a707:	01 45 94             	add    %eax,-0x6c(%ebp)
 804a70a:	8b 85 60 ff ff ff    	mov    -0xa0(%ebp),%eax
 804a710:	01 85 5c ff ff ff    	add    %eax,-0xa4(%ebp)
 804a716:	80 bd 4c ff ff ff 00 	cmpb   $0x0,-0xb4(%ebp)
 804a71d:	c6 45 90 00          	movb   $0x0,-0x70(%ebp)
 804a721:	c6 85 58 ff ff ff 00 	movb   $0x0,-0xa8(%ebp)
 804a728:	0f 84 3a ff ff ff    	je     804a668 <exit@plt+0x1450>
 804a72e:	e8 65 e7 ff ff       	call   8048e98 <__ctype_get_mb_cur_max@plt>
 804a733:	89 44 24 04          	mov    %eax,0x4(%esp)
 804a737:	8b 85 5c ff ff ff    	mov    -0xa4(%ebp),%eax
 804a73d:	89 04 24             	mov    %eax,(%esp)
 804a740:	e8 cb 09 00 00       	call   804b110 <exit@plt+0x1ef8>
 804a745:	89 5c 24 0c          	mov    %ebx,0xc(%esp)
 804a749:	89 44 24 08          	mov    %eax,0x8(%esp)
 804a74d:	8b 85 5c ff ff ff    	mov    -0xa4(%ebp),%eax
 804a753:	89 44 24 04          	mov    %eax,0x4(%esp)
 804a757:	8d 85 68 ff ff ff    	lea    -0x98(%ebp),%eax
 804a75d:	89 04 24             	mov    %eax,(%esp)
 804a760:	e8 63 e8 ff ff       	call   8048fc8 <mbrtowc@plt>
 804a765:	83 f8 ff             	cmp    $0xffffffff,%eax
 804a768:	89 85 60 ff ff ff    	mov    %eax,-0xa0(%ebp)
 804a76e:	0f 84 9c 02 00 00    	je     804aa10 <exit@plt+0x17f8>
 804a774:	83 f8 fe             	cmp    $0xfffffffe,%eax
 804a777:	0f 84 53 03 00 00    	je     804aad0 <exit@plt+0x18b8>
 804a77d:	85 c0                	test   %eax,%eax
 804a77f:	75 27                	jne    804a7a8 <exit@plt+0x1590>
 804a781:	8b 85 5c ff ff ff    	mov    -0xa4(%ebp),%eax
 804a787:	c7 85 60 ff ff ff 01 	movl   $0x1,-0xa0(%ebp)
 804a78e:	00 00 00 
 804a791:	80 38 00             	cmpb   $0x0,(%eax)
 804a794:	0f 85 04 06 00 00    	jne    804ad9e <exit@plt+0x1b86>
 804a79a:	8b 95 68 ff ff ff    	mov    -0x98(%ebp),%edx
 804a7a0:	85 d2                	test   %edx,%edx
 804a7a2:	0f 85 d2 05 00 00    	jne    804ad7a <exit@plt+0x1b62>
 804a7a8:	89 1c 24             	mov    %ebx,(%esp)
 804a7ab:	c6 85 64 ff ff ff 01 	movb   $0x1,-0x9c(%ebp)
 804a7b2:	e8 a1 e8 ff ff       	call   8049058 <mbsinit@plt>
 804a7b7:	85 c0                	test   %eax,%eax
 804a7b9:	0f 84 e4 fe ff ff    	je     804a6a3 <exit@plt+0x148b>
 804a7bf:	80 bd 64 ff ff ff 00 	cmpb   $0x0,-0x9c(%ebp)
 804a7c6:	c6 85 4c ff ff ff 00 	movb   $0x0,-0xb4(%ebp)
 804a7cd:	c6 85 58 ff ff ff 01 	movb   $0x1,-0xa8(%ebp)
 804a7d4:	0f 84 dd fe ff ff    	je     804a6b7 <exit@plt+0x149f>
 804a7da:	8d b6 00 00 00 00    	lea    0x0(%esi),%esi
 804a7e0:	8b 85 68 ff ff ff    	mov    -0x98(%ebp),%eax
 804a7e6:	85 c0                	test   %eax,%eax
 804a7e8:	0f 85 c9 fe ff ff    	jne    804a6b7 <exit@plt+0x149f>
 804a7ee:	80 7d 90 00          	cmpb   $0x0,-0x70(%ebp)
 804a7f2:	75 3d                	jne    804a831 <exit@plt+0x1619>
 804a7f4:	80 7d 84 00          	cmpb   $0x0,-0x7c(%ebp)
 804a7f8:	0f 85 ee 03 00 00    	jne    804abec <exit@plt+0x19d4>
 804a7fe:	8b 55 94             	mov    -0x6c(%ebp),%edx
 804a801:	0f b6 02             	movzbl (%edx),%eax
 804a804:	89 c1                	mov    %eax,%ecx
 804a806:	c0 e9 05             	shr    $0x5,%cl
 804a809:	0f b6 c9             	movzbl %cl,%ecx
 804a80c:	8b 0c 8d a0 2f 05 08 	mov    0x8052fa0(,%ecx,4),%ecx
 804a813:	0f a3 c1             	bt     %eax,%ecx
 804a816:	0f 83 bc 03 00 00    	jae    804abd8 <exit@plt+0x19c0>
 804a81c:	c7 45 98 01 00 00 00 	movl   $0x1,-0x68(%ebp)
 804a823:	0f be 02             	movsbl (%edx),%eax
 804a826:	c6 45 9c 01          	movb   $0x1,-0x64(%ebp)
 804a82a:	89 45 a0             	mov    %eax,-0x60(%ebp)
 804a82d:	c6 45 90 01          	movb   $0x1,-0x70(%ebp)
 804a831:	80 7d 9c 00          	cmpb   $0x0,-0x64(%ebp)
 804a835:	0f 85 5d 03 00 00    	jne    804ab98 <exit@plt+0x1980>
 804a83b:	8b 4d a4             	mov    -0x5c(%ebp),%ecx
 804a83e:	8b 45 94             	mov    -0x6c(%ebp),%eax
 804a841:	8b 55 9c             	mov    -0x64(%ebp),%edx
 804a844:	89 4d cc             	mov    %ecx,-0x34(%ebp)
 804a847:	8b 4d a8             	mov    -0x58(%ebp),%ecx
 804a84a:	89 45 bc             	mov    %eax,-0x44(%ebp)
 804a84d:	8b 45 98             	mov    -0x68(%ebp),%eax
 804a850:	84 d2                	test   %dl,%dl
 804a852:	89 55 c4             	mov    %edx,-0x3c(%ebp)
 804a855:	89 4d d0             	mov    %ecx,-0x30(%ebp)
 804a858:	8b 4d ac             	mov    -0x54(%ebp),%ecx
 804a85b:	89 45 c0             	mov    %eax,-0x40(%ebp)
 804a85e:	8b 45 a0             	mov    -0x60(%ebp),%eax
 804a861:	89 4d d4             	mov    %ecx,-0x2c(%ebp)
 804a864:	8b 4d b0             	mov    -0x50(%ebp),%ecx
 804a867:	89 45 c8             	mov    %eax,-0x38(%ebp)
 804a86a:	89 4d d8             	mov    %ecx,-0x28(%ebp)
 804a86d:	8b 4d b4             	mov    -0x4c(%ebp),%ecx
 804a870:	89 4d dc             	mov    %ecx,-0x24(%ebp)
 804a873:	8b 4d b8             	mov    -0x48(%ebp),%ecx
 804a876:	89 4d e0             	mov    %ecx,-0x20(%ebp)
 804a879:	74 0e                	je     804a889 <exit@plt+0x1671>
 804a87b:	89 04 24             	mov    %eax,(%esp)
 804a87e:	e8 85 e8 ff ff       	call   8049108 <iswalnum@plt>
 804a883:	31 d2                	xor    %edx,%edx
 804a885:	85 c0                	test   %eax,%eax
 804a887:	75 05                	jne    804a88e <exit@plt+0x1676>
 804a889:	ba 01 00 00 00       	mov    $0x1,%edx
 804a88e:	80 bd 47 ff ff ff 00 	cmpb   $0x0,-0xb9(%ebp)
 804a895:	74 08                	je     804a89f <exit@plt+0x1687>
 804a897:	84 d2                	test   %dl,%dl
 804a899:	0f 85 ad 04 00 00    	jne    804ad4c <exit@plt+0x1b34>
 804a89f:	89 7d 94             	mov    %edi,-0x6c(%ebp)
 804a8a2:	c6 45 84 00          	movb   $0x0,-0x7c(%ebp)
 804a8a6:	c7 06 00 00 00 00    	movl   $0x0,(%esi)
 804a8ac:	c7 46 04 00 00 00 00 	movl   $0x0,0x4(%esi)
 804a8b3:	c6 45 90 00          	movb   $0x0,-0x70(%ebp)
 804a8b7:	0f b6 07             	movzbl (%edi),%eax
 804a8ba:	89 c2                	mov    %eax,%edx
 804a8bc:	c0 ea 05             	shr    $0x5,%dl
 804a8bf:	0f b6 d2             	movzbl %dl,%edx
 804a8c2:	8b 14 95 a0 2f 05 08 	mov    0x8052fa0(,%edx,4),%edx
 804a8c9:	0f a3 c2             	bt     %eax,%edx
 804a8cc:	0f 83 9e 03 00 00    	jae    804ac70 <exit@plt+0x1a58>
 804a8d2:	c7 45 98 01 00 00 00 	movl   $0x1,-0x68(%ebp)
 804a8d9:	0f be 07             	movsbl (%edi),%eax
 804a8dc:	c6 45 9c 01          	movb   $0x1,-0x64(%ebp)
 804a8e0:	89 45 a0             	mov    %eax,-0x60(%ebp)
 804a8e3:	80 7d 9c 00          	cmpb   $0x0,-0x64(%ebp)
 804a8e7:	c6 45 90 01          	movb   $0x1,-0x70(%ebp)
 804a8eb:	0f 85 b7 02 00 00    	jne    804aba8 <exit@plt+0x1990>
 804a8f1:	8b 5d 98             	mov    -0x68(%ebp),%ebx
 804a8f4:	01 fb                	add    %edi,%ebx
 804a8f6:	80 3b 00             	cmpb   $0x0,(%ebx)
 804a8f9:	0f 85 02 fc ff ff    	jne    804a501 <exit@plt+0x12e9>
 804a8ff:	90                   	nop
 804a900:	31 db                	xor    %ebx,%ebx
 804a902:	8b bd 40 ff ff ff    	mov    -0xc0(%ebp),%edi
 804a908:	89 3c 24             	mov    %edi,(%esp)
 804a90b:	e8 e8 e6 ff ff       	call   8048ff8 <free@plt>
 804a910:	89 d8                	mov    %ebx,%eax
 804a912:	8b 55 e4             	mov    -0x1c(%ebp),%edx
 804a915:	65 33 15 14 00 00 00 	xor    %gs:0x14,%edx
 804a91c:	0f 85 a0 04 00 00    	jne    804adc2 <exit@plt+0x1baa>
 804a922:	81 c4 dc 00 00 00    	add    $0xdc,%esp
 804a928:	5b                   	pop    %ebx
 804a929:	5e                   	pop    %esi
 804a92a:	5f                   	pop    %edi
 804a92b:	5d                   	pop    %ebp
 804a92c:	c3                   	ret    
 804a92d:	8d 76 00             	lea    0x0(%esi),%esi
 804a930:	8b 4d a0             	mov    -0x60(%ebp),%ecx
 804a933:	85 c9                	test   %ecx,%ecx
 804a935:	0f 85 c9 fd ff ff    	jne    804a704 <exit@plt+0x14ec>
 804a93b:	e8 08 e5 ff ff       	call   8048e48 <abort@plt>
 804a940:	89 34 24             	mov    %esi,(%esp)
 804a943:	e8 10 e7 ff ff       	call   8049058 <mbsinit@plt>
 804a948:	85 c0                	test   %eax,%eax
 804a94a:	0f 84 06 04 00 00    	je     804ad56 <exit@plt+0x1b3e>
 804a950:	c6 45 84 01          	movb   $0x1,-0x7c(%ebp)
 804a954:	e8 3f e5 ff ff       	call   8048e98 <__ctype_get_mb_cur_max@plt>
 804a959:	89 44 24 04          	mov    %eax,0x4(%esp)
 804a95d:	8b 45 94             	mov    -0x6c(%ebp),%eax
 804a960:	89 04 24             	mov    %eax,(%esp)
 804a963:	e8 a8 07 00 00       	call   804b110 <exit@plt+0x1ef8>
 804a968:	8d 55 a0             	lea    -0x60(%ebp),%edx
 804a96b:	89 74 24 0c          	mov    %esi,0xc(%esp)
 804a96f:	89 14 24             	mov    %edx,(%esp)
 804a972:	89 44 24 08          	mov    %eax,0x8(%esp)
 804a976:	8b 45 94             	mov    -0x6c(%ebp),%eax
 804a979:	89 44 24 04          	mov    %eax,0x4(%esp)
 804a97d:	e8 46 e6 ff ff       	call   8048fc8 <mbrtowc@plt>
 804a982:	83 f8 ff             	cmp    $0xffffffff,%eax
 804a985:	89 45 98             	mov    %eax,-0x68(%ebp)
 804a988:	0f 84 9a 00 00 00    	je     804aa28 <exit@plt+0x1810>
 804a98e:	83 f8 fe             	cmp    $0xfffffffe,%eax
 804a991:	0f 84 59 01 00 00    	je     804aaf0 <exit@plt+0x18d8>
 804a997:	85 c0                	test   %eax,%eax
 804a999:	75 1e                	jne    804a9b9 <exit@plt+0x17a1>
 804a99b:	8b 45 94             	mov    -0x6c(%ebp),%eax
 804a99e:	c7 45 98 01 00 00 00 	movl   $0x1,-0x68(%ebp)
 804a9a5:	80 38 00             	cmpb   $0x0,(%eax)
 804a9a8:	0f 85 f0 03 00 00    	jne    804ad9e <exit@plt+0x1b86>
 804a9ae:	8b 45 a0             	mov    -0x60(%ebp),%eax
 804a9b1:	85 c0                	test   %eax,%eax
 804a9b3:	0f 85 c1 03 00 00    	jne    804ad7a <exit@plt+0x1b62>
 804a9b9:	89 34 24             	mov    %esi,(%esp)
 804a9bc:	c6 45 9c 01          	movb   $0x1,-0x64(%ebp)
 804a9c0:	e8 93 e6 ff ff       	call   8049058 <mbsinit@plt>
 804a9c5:	85 c0                	test   %eax,%eax
 804a9c7:	0f 84 29 fd ff ff    	je     804a6f6 <exit@plt+0x14de>
 804a9cd:	c6 45 84 00          	movb   $0x0,-0x7c(%ebp)
 804a9d1:	e9 20 fd ff ff       	jmp    804a6f6 <exit@plt+0x14de>
 804a9d6:	66 90                	xchg   %ax,%ax
 804a9d8:	89 1c 24             	mov    %ebx,(%esp)
 804a9db:	90                   	nop
 804a9dc:	8d 74 26 00          	lea    0x0(%esi,%eiz,1),%esi
 804a9e0:	e8 73 e6 ff ff       	call   8049058 <mbsinit@plt>
 804a9e5:	85 c0                	test   %eax,%eax
 804a9e7:	0f 84 69 03 00 00    	je     804ad56 <exit@plt+0x1b3e>
 804a9ed:	c6 85 4c ff ff ff 01 	movb   $0x1,-0xb4(%ebp)
 804a9f4:	e9 35 fd ff ff       	jmp    804a72e <exit@plt+0x1516>
 804a9f9:	8d b4 26 00 00 00 00 	lea    0x0(%esi,%eiz,1),%esi
 804aa00:	8b 55 a0             	mov    -0x60(%ebp),%edx
 804aa03:	85 d2                	test   %edx,%edx
 804aa05:	0f 84 30 ff ff ff    	je     804a93b <exit@plt+0x1723>
 804aa0b:	e9 88 fb ff ff       	jmp    804a598 <exit@plt+0x1380>
 804aa10:	c7 85 60 ff ff ff 01 	movl   $0x1,-0xa0(%ebp)
 804aa17:	00 00 00 
 804aa1a:	c6 85 64 ff ff ff 00 	movb   $0x0,-0x9c(%ebp)
 804aa21:	e9 7d fc ff ff       	jmp    804a6a3 <exit@plt+0x148b>
 804aa26:	66 90                	xchg   %ax,%ax
 804aa28:	c7 45 98 01 00 00 00 	movl   $0x1,-0x68(%ebp)
 804aa2f:	c6 45 9c 00          	movb   $0x0,-0x64(%ebp)
 804aa33:	e9 be fc ff ff       	jmp    804a6f6 <exit@plt+0x14de>
 804aa38:	89 34 24             	mov    %esi,(%esp)
 804aa3b:	e8 18 e6 ff ff       	call   8049058 <mbsinit@plt>
 804aa40:	85 c0                	test   %eax,%eax
 804aa42:	0f 84 0e 03 00 00    	je     804ad56 <exit@plt+0x1b3e>
 804aa48:	c6 45 84 01          	movb   $0x1,-0x7c(%ebp)
 804aa4c:	e8 47 e4 ff ff       	call   8048e98 <__ctype_get_mb_cur_max@plt>
 804aa51:	8d 7d a0             	lea    -0x60(%ebp),%edi
 804aa54:	89 44 24 04          	mov    %eax,0x4(%esp)
 804aa58:	8b 45 94             	mov    -0x6c(%ebp),%eax
 804aa5b:	89 04 24             	mov    %eax,(%esp)
 804aa5e:	e8 ad 06 00 00       	call   804b110 <exit@plt+0x1ef8>
 804aa63:	89 74 24 0c          	mov    %esi,0xc(%esp)
 804aa67:	89 3c 24             	mov    %edi,(%esp)
 804aa6a:	89 44 24 08          	mov    %eax,0x8(%esp)
 804aa6e:	8b 45 94             	mov    -0x6c(%ebp),%eax
 804aa71:	89 44 24 04          	mov    %eax,0x4(%esp)
 804aa75:	e8 4e e5 ff ff       	call   8048fc8 <mbrtowc@plt>
 804aa7a:	83 f8 ff             	cmp    $0xffffffff,%eax
 804aa7d:	89 45 98             	mov    %eax,-0x68(%ebp)
 804aa80:	0f 84 02 01 00 00    	je     804ab88 <exit@plt+0x1970>
 804aa86:	83 f8 fe             	cmp    $0xfffffffe,%eax
 804aa89:	0f 84 31 01 00 00    	je     804abc0 <exit@plt+0x19a8>
 804aa8f:	85 c0                	test   %eax,%eax
 804aa91:	75 1e                	jne    804aab1 <exit@plt+0x1899>
 804aa93:	8b 45 94             	mov    -0x6c(%ebp),%eax
 804aa96:	c7 45 98 01 00 00 00 	movl   $0x1,-0x68(%ebp)
 804aa9d:	80 38 00             	cmpb   $0x0,(%eax)
 804aaa0:	0f 85 f8 02 00 00    	jne    804ad9e <exit@plt+0x1b86>
 804aaa6:	8b 4d a0             	mov    -0x60(%ebp),%ecx
 804aaa9:	85 c9                	test   %ecx,%ecx
 804aaab:	0f 85 c9 02 00 00    	jne    804ad7a <exit@plt+0x1b62>
 804aab1:	89 34 24             	mov    %esi,(%esp)
 804aab4:	c6 45 9c 01          	movb   $0x1,-0x64(%ebp)
 804aab8:	e8 9b e5 ff ff       	call   8049058 <mbsinit@plt>
 804aabd:	85 c0                	test   %eax,%eax
 804aabf:	0f 84 c5 fa ff ff    	je     804a58a <exit@plt+0x1372>
 804aac5:	c6 45 84 00          	movb   $0x0,-0x7c(%ebp)
 804aac9:	e9 bc fa ff ff       	jmp    804a58a <exit@plt+0x1372>
 804aace:	66 90                	xchg   %ax,%ax
 804aad0:	8b 85 5c ff ff ff    	mov    -0xa4(%ebp),%eax
 804aad6:	89 04 24             	mov    %eax,(%esp)
 804aad9:	e8 9a e5 ff ff       	call   8049078 <strlen@plt>
 804aade:	c6 85 64 ff ff ff 00 	movb   $0x0,-0x9c(%ebp)
 804aae5:	89 85 60 ff ff ff    	mov    %eax,-0xa0(%ebp)
 804aaeb:	e9 b3 fb ff ff       	jmp    804a6a3 <exit@plt+0x148b>
 804aaf0:	8b 45 94             	mov    -0x6c(%ebp),%eax
 804aaf3:	89 04 24             	mov    %eax,(%esp)
 804aaf6:	e8 7d e5 ff ff       	call   8049078 <strlen@plt>
 804aafb:	c6 45 9c 00          	movb   $0x0,-0x64(%ebp)
 804aaff:	89 45 98             	mov    %eax,-0x68(%ebp)
 804ab02:	e9 ef fb ff ff       	jmp    804a6f6 <exit@plt+0x14de>
 804ab07:	90                   	nop
 804ab08:	39 fb                	cmp    %edi,%ebx
 804ab0a:	c6 85 47 ff ff ff 01 	movb   $0x1,-0xb9(%ebp)
 804ab11:	73 1e                	jae    804ab31 <exit@plt+0x1919>
 804ab13:	e8 20 e5 ff ff       	call   8049038 <__ctype_b_loc@plt>
 804ab18:	0f b6 57 ff          	movzbl -0x1(%edi),%edx
 804ab1c:	8b 00                	mov    (%eax),%eax
 804ab1e:	0f b7 04 50          	movzwl (%eax,%edx,2),%eax
 804ab22:	c1 e8 03             	shr    $0x3,%eax
 804ab25:	83 f0 01             	xor    $0x1,%eax
 804ab28:	83 e0 01             	and    $0x1,%eax
 804ab2b:	88 85 47 ff ff ff    	mov    %al,-0xb9(%ebp)
 804ab31:	8b 95 40 ff ff ff    	mov    -0xc0(%ebp),%edx
 804ab37:	89 14 24             	mov    %edx,(%esp)
 804ab3a:	e8 39 e5 ff ff       	call   8049078 <strlen@plt>
 804ab3f:	0f b6 1c 07          	movzbl (%edi,%eax,1),%ebx
 804ab43:	b8 01 00 00 00       	mov    $0x1,%eax
 804ab48:	84 db                	test   %bl,%bl
 804ab4a:	74 17                	je     804ab63 <exit@plt+0x194b>
 804ab4c:	e8 e7 e4 ff ff       	call   8049038 <__ctype_b_loc@plt>
 804ab51:	0f b6 db             	movzbl %bl,%ebx
 804ab54:	8b 00                	mov    (%eax),%eax
 804ab56:	0f b7 04 58          	movzwl (%eax,%ebx,2),%eax
 804ab5a:	c1 e8 03             	shr    $0x3,%eax
 804ab5d:	83 f0 01             	xor    $0x1,%eax
 804ab60:	83 e0 01             	and    $0x1,%eax
 804ab63:	80 bd 47 ff ff ff 00 	cmpb   $0x0,-0xb9(%ebp)
 804ab6a:	74 08                	je     804ab74 <exit@plt+0x195c>
 804ab6c:	84 c0                	test   %al,%al
 804ab6e:	0f 85 d8 01 00 00    	jne    804ad4c <exit@plt+0x1b34>
 804ab74:	80 3f 00             	cmpb   $0x0,(%edi)
 804ab77:	0f 84 83 fd ff ff    	je     804a900 <exit@plt+0x16e8>
 804ab7d:	8d 5f 01             	lea    0x1(%edi),%ebx
 804ab80:	e9 73 f9 ff ff       	jmp    804a4f8 <exit@plt+0x12e0>
 804ab85:	8d 76 00             	lea    0x0(%esi),%esi
 804ab88:	c7 45 98 01 00 00 00 	movl   $0x1,-0x68(%ebp)
 804ab8f:	c6 45 9c 00          	movb   $0x0,-0x64(%ebp)
 804ab93:	e9 f2 f9 ff ff       	jmp    804a58a <exit@plt+0x1372>
 804ab98:	8b 4d a0             	mov    -0x60(%ebp),%ecx
 804ab9b:	85 c9                	test   %ecx,%ecx
 804ab9d:	0f 84 e6 fc ff ff    	je     804a889 <exit@plt+0x1671>
 804aba3:	e9 93 fc ff ff       	jmp    804a83b <exit@plt+0x1623>
 804aba8:	8b 45 a0             	mov    -0x60(%ebp),%eax
 804abab:	85 c0                	test   %eax,%eax
 804abad:	8d 76 00             	lea    0x0(%esi),%esi
 804abb0:	0f 84 4a fd ff ff    	je     804a900 <exit@plt+0x16e8>
 804abb6:	66 90                	xchg   %ax,%ax
 804abb8:	e9 34 fd ff ff       	jmp    804a8f1 <exit@plt+0x16d9>
 804abbd:	8d 76 00             	lea    0x0(%esi),%esi
 804abc0:	8b 45 94             	mov    -0x6c(%ebp),%eax
 804abc3:	89 04 24             	mov    %eax,(%esp)
 804abc6:	e8 ad e4 ff ff       	call   8049078 <strlen@plt>
 804abcb:	c6 45 9c 00          	movb   $0x0,-0x64(%ebp)
 804abcf:	89 45 98             	mov    %eax,-0x68(%ebp)
 804abd2:	e9 b3 f9 ff ff       	jmp    804a58a <exit@plt+0x1372>
 804abd7:	90                   	nop
 804abd8:	89 34 24             	mov    %esi,(%esp)
 804abdb:	e8 78 e4 ff ff       	call   8049058 <mbsinit@plt>
 804abe0:	85 c0                	test   %eax,%eax
 804abe2:	0f 84 6e 01 00 00    	je     804ad56 <exit@plt+0x1b3e>
 804abe8:	c6 45 84 01          	movb   $0x1,-0x7c(%ebp)
 804abec:	e8 a7 e2 ff ff       	call   8048e98 <__ctype_get_mb_cur_max@plt>
 804abf1:	89 44 24 04          	mov    %eax,0x4(%esp)
 804abf5:	8b 45 94             	mov    -0x6c(%ebp),%eax
 804abf8:	89 04 24             	mov    %eax,(%esp)
 804abfb:	e8 10 05 00 00       	call   804b110 <exit@plt+0x1ef8>
 804ac00:	8d 55 a0             	lea    -0x60(%ebp),%edx
 804ac03:	89 74 24 0c          	mov    %esi,0xc(%esp)
 804ac07:	89 14 24             	mov    %edx,(%esp)
 804ac0a:	89 44 24 08          	mov    %eax,0x8(%esp)
 804ac0e:	8b 45 94             	mov    -0x6c(%ebp),%eax
 804ac11:	89 44 24 04          	mov    %eax,0x4(%esp)
 804ac15:	e8 ae e3 ff ff       	call   8048fc8 <mbrtowc@plt>
 804ac1a:	83 f8 ff             	cmp    $0xffffffff,%eax
 804ac1d:	89 45 98             	mov    %eax,-0x68(%ebp)
 804ac20:	0f 84 d8 00 00 00    	je     804acfe <exit@plt+0x1ae6>
 804ac26:	83 f8 fe             	cmp    $0xfffffffe,%eax
 804ac29:	0f 84 ef 00 00 00    	je     804ad1e <exit@plt+0x1b06>
 804ac2f:	85 c0                	test   %eax,%eax
 804ac31:	75 1e                	jne    804ac51 <exit@plt+0x1a39>
 804ac33:	8b 45 94             	mov    -0x6c(%ebp),%eax
 804ac36:	c7 45 98 01 00 00 00 	movl   $0x1,-0x68(%ebp)
 804ac3d:	80 38 00             	cmpb   $0x0,(%eax)
 804ac40:	0f 85 58 01 00 00    	jne    804ad9e <exit@plt+0x1b86>
 804ac46:	8b 5d a0             	mov    -0x60(%ebp),%ebx
 804ac49:	85 db                	test   %ebx,%ebx
 804ac4b:	0f 85 29 01 00 00    	jne    804ad7a <exit@plt+0x1b62>
 804ac51:	89 34 24             	mov    %esi,(%esp)
 804ac54:	c6 45 9c 01          	movb   $0x1,-0x64(%ebp)
 804ac58:	e8 fb e3 ff ff       	call   8049058 <mbsinit@plt>
 804ac5d:	85 c0                	test   %eax,%eax
 804ac5f:	0f 84 c8 fb ff ff    	je     804a82d <exit@plt+0x1615>
 804ac65:	c6 45 84 00          	movb   $0x0,-0x7c(%ebp)
 804ac69:	e9 bf fb ff ff       	jmp    804a82d <exit@plt+0x1615>
 804ac6e:	66 90                	xchg   %ax,%ax
 804ac70:	89 34 24             	mov    %esi,(%esp)
 804ac73:	e8 e0 e3 ff ff       	call   8049058 <mbsinit@plt>
 804ac78:	85 c0                	test   %eax,%eax
 804ac7a:	0f 84 d6 00 00 00    	je     804ad56 <exit@plt+0x1b3e>
 804ac80:	c6 45 84 01          	movb   $0x1,-0x7c(%ebp)
 804ac84:	e8 0f e2 ff ff       	call   8048e98 <__ctype_get_mb_cur_max@plt>
 804ac89:	89 44 24 04          	mov    %eax,0x4(%esp)
 804ac8d:	8b 45 94             	mov    -0x6c(%ebp),%eax
 804ac90:	89 04 24             	mov    %eax,(%esp)
 804ac93:	e8 78 04 00 00       	call   804b110 <exit@plt+0x1ef8>
 804ac98:	89 74 24 0c          	mov    %esi,0xc(%esp)
 804ac9c:	89 44 24 08          	mov    %eax,0x8(%esp)
 804aca0:	8b 45 94             	mov    -0x6c(%ebp),%eax
 804aca3:	89 44 24 04          	mov    %eax,0x4(%esp)
 804aca7:	8d 45 a0             	lea    -0x60(%ebp),%eax
 804acaa:	89 04 24             	mov    %eax,(%esp)
 804acad:	e8 16 e3 ff ff       	call   8048fc8 <mbrtowc@plt>
 804acb2:	83 f8 ff             	cmp    $0xffffffff,%eax
 804acb5:	89 45 98             	mov    %eax,-0x68(%ebp)
 804acb8:	74 54                	je     804ad0e <exit@plt+0x1af6>
 804acba:	83 f8 fe             	cmp    $0xfffffffe,%eax
 804acbd:	74 76                	je     804ad35 <exit@plt+0x1b1d>
 804acbf:	85 c0                	test   %eax,%eax
 804acc1:	75 1e                	jne    804ace1 <exit@plt+0x1ac9>
 804acc3:	8b 45 94             	mov    -0x6c(%ebp),%eax
 804acc6:	c7 45 98 01 00 00 00 	movl   $0x1,-0x68(%ebp)
 804accd:	80 38 00             	cmpb   $0x0,(%eax)
 804acd0:	0f 85 c8 00 00 00    	jne    804ad9e <exit@plt+0x1b86>
 804acd6:	8b 55 a0             	mov    -0x60(%ebp),%edx
 804acd9:	85 d2                	test   %edx,%edx
 804acdb:	0f 85 99 00 00 00    	jne    804ad7a <exit@plt+0x1b62>
 804ace1:	89 34 24             	mov    %esi,(%esp)
 804ace4:	c6 45 9c 01          	movb   $0x1,-0x64(%ebp)
 804ace8:	e8 6b e3 ff ff       	call   8049058 <mbsinit@plt>
 804aced:	85 c0                	test   %eax,%eax
 804acef:	0f 84 ee fb ff ff    	je     804a8e3 <exit@plt+0x16cb>
 804acf5:	c6 45 84 00          	movb   $0x0,-0x7c(%ebp)
 804acf9:	e9 e5 fb ff ff       	jmp    804a8e3 <exit@plt+0x16cb>
 804acfe:	c7 45 98 01 00 00 00 	movl   $0x1,-0x68(%ebp)
 804ad05:	c6 45 9c 00          	movb   $0x0,-0x64(%ebp)
 804ad09:	e9 1f fb ff ff       	jmp    804a82d <exit@plt+0x1615>
 804ad0e:	c7 45 98 01 00 00 00 	movl   $0x1,-0x68(%ebp)
 804ad15:	c6 45 9c 00          	movb   $0x0,-0x64(%ebp)
 804ad19:	e9 c5 fb ff ff       	jmp    804a8e3 <exit@plt+0x16cb>
 804ad1e:	8b 45 94             	mov    -0x6c(%ebp),%eax
 804ad21:	89 04 24             	mov    %eax,(%esp)
 804ad24:	e8 4f e3 ff ff       	call   8049078 <strlen@plt>
 804ad29:	c6 45 9c 00          	movb   $0x0,-0x64(%ebp)
 804ad2d:	89 45 98             	mov    %eax,-0x68(%ebp)
 804ad30:	e9 f8 fa ff ff       	jmp    804a82d <exit@plt+0x1615>
 804ad35:	8b 45 94             	mov    -0x6c(%ebp),%eax
 804ad38:	89 04 24             	mov    %eax,(%esp)
 804ad3b:	e8 38 e3 ff ff       	call   8049078 <strlen@plt>
 804ad40:	c6 45 9c 00          	movb   $0x0,-0x64(%ebp)
 804ad44:	89 45 98             	mov    %eax,-0x68(%ebp)
 804ad47:	e9 97 fb ff ff       	jmp    804a8e3 <exit@plt+0x16cb>
 804ad4c:	bb 01 00 00 00       	mov    $0x1,%ebx
 804ad51:	e9 ac fb ff ff       	jmp    804a902 <exit@plt+0x16ea>
 804ad56:	c7 44 24 0c 4c 28 05 	movl   $0x805284c,0xc(%esp)
 804ad5d:	08 
 804ad5e:	c7 44 24 08 8e 00 00 	movl   $0x8e,0x8(%esp)
 804ad65:	00 
 804ad66:	c7 44 24 04 f4 27 05 	movl   $0x80527f4,0x4(%esp)
 804ad6d:	08 
 804ad6e:	c7 04 24 fe 27 05 08 	movl   $0x80527fe,(%esp)
 804ad75:	e8 2e e2 ff ff       	call   8048fa8 <__assert_fail@plt>
 804ad7a:	c7 44 24 0c 4c 28 05 	movl   $0x805284c,0xc(%esp)
 804ad81:	08 
 804ad82:	c7 44 24 08 ab 00 00 	movl   $0xab,0x8(%esp)
 804ad89:	00 
 804ad8a:	c7 44 24 04 f4 27 05 	movl   $0x80527f4,0x4(%esp)
 804ad91:	08 
 804ad92:	c7 04 24 2c 28 05 08 	movl   $0x805282c,(%esp)
 804ad99:	e8 0a e2 ff ff       	call   8048fa8 <__assert_fail@plt>
 804ad9e:	c7 44 24 0c 4c 28 05 	movl   $0x805284c,0xc(%esp)
 804ada5:	08 
 804ada6:	c7 44 24 08 aa 00 00 	movl   $0xaa,0x8(%esp)
 804adad:	00 
 804adae:	c7 44 24 04 f4 27 05 	movl   $0x80527f4,0x4(%esp)
 804adb5:	08 
 804adb6:	c7 04 24 15 28 05 08 	movl   $0x8052815,(%esp)
 804adbd:	e8 e6 e1 ff ff       	call   8048fa8 <__assert_fail@plt>
 804adc2:	e8 51 e3 ff ff       	call   8049118 <__stack_chk_fail@plt>
 804adc7:	89 f6                	mov    %esi,%esi
 804adc9:	8d bc 27 00 00 00 00 	lea    0x0(%edi,%eiz,1),%edi
 804add0:	55                   	push   %ebp
 804add1:	89 e5                	mov    %esp,%ebp
 804add3:	57                   	push   %edi
 804add4:	56                   	push   %esi
 804add5:	53                   	push   %ebx
 804add6:	83 ec 3c             	sub    $0x3c,%esp
 804add9:	c7 44 24 08 05 00 00 	movl   $0x5,0x8(%esp)
 804ade0:	00 
 804ade1:	8b 45 08             	mov    0x8(%ebp),%eax
 804ade4:	c7 04 24 00 00 00 00 	movl   $0x0,(%esp)
 804adeb:	89 44 24 04          	mov    %eax,0x4(%esp)
 804adef:	e8 14 e2 ff ff       	call   8049008 <dcgettext@plt>
 804adf4:	89 c3                	mov    %eax,%ebx
 804adf6:	e8 a5 23 00 00       	call   804d1a0 <exit@plt+0x3f88>
 804adfb:	c7 44 24 04 3e 28 05 	movl   $0x805283e,0x4(%esp)
 804ae02:	08 
 804ae03:	89 c6                	mov    %eax,%esi
 804ae05:	89 04 24             	mov    %eax,(%esp)
 804ae08:	e8 23 23 00 00       	call   804d130 <exit@plt+0x3f18>
 804ae0d:	85 c0                	test   %eax,%eax
 804ae0f:	0f 85 e3 00 00 00    	jne    804aef8 <exit@plt+0x1ce0>
 804ae15:	8b 55 0c             	mov    0xc(%ebp),%edx
 804ae18:	c7 45 e0 00 00 00 00 	movl   $0x0,-0x20(%ebp)
 804ae1f:	c7 45 dc 00 00 00 00 	movl   $0x0,-0x24(%ebp)
 804ae26:	89 55 e4             	mov    %edx,-0x1c(%ebp)
 804ae29:	89 d6                	mov    %edx,%esi
 804ae2b:	85 f6                	test   %esi,%esi
 804ae2d:	89 f7                	mov    %esi,%edi
 804ae2f:	0f 84 81 01 00 00    	je     804afb6 <exit@plt+0x1d9e>
 804ae35:	8b 45 08             	mov    0x8(%ebp),%eax
 804ae38:	89 1c 24             	mov    %ebx,(%esp)
 804ae3b:	89 44 24 04          	mov    %eax,0x4(%esp)
 804ae3f:	e8 b4 e3 ff ff       	call   80491f8 <strcmp@plt>
 804ae44:	85 c0                	test   %eax,%eax
 804ae46:	75 38                	jne    804ae80 <exit@plt+0x1c68>
 804ae48:	3b 7d dc             	cmp    -0x24(%ebp),%edi
 804ae4b:	0f 85 7f 01 00 00    	jne    804afd0 <exit@plt+0x1db8>
 804ae51:	3b 7d e0             	cmp    -0x20(%ebp),%edi
 804ae54:	75 12                	jne    804ae68 <exit@plt+0x1c50>
 804ae56:	89 fb                	mov    %edi,%ebx
 804ae58:	83 c4 3c             	add    $0x3c,%esp
 804ae5b:	89 d8                	mov    %ebx,%eax
 804ae5d:	5b                   	pop    %ebx
 804ae5e:	5e                   	pop    %esi
 804ae5f:	5f                   	pop    %edi
 804ae60:	5d                   	pop    %ebp
 804ae61:	c3                   	ret    
 804ae62:	8d b6 00 00 00 00    	lea    0x0(%esi),%esi
 804ae68:	8b 5d e0             	mov    -0x20(%ebp),%ebx
 804ae6b:	85 db                	test   %ebx,%ebx
 804ae6d:	74 e7                	je     804ae56 <exit@plt+0x1c3e>
 804ae6f:	8b 45 e0             	mov    -0x20(%ebp),%eax
 804ae72:	89 04 24             	mov    %eax,(%esp)
 804ae75:	e8 7e e1 ff ff       	call   8048ff8 <free@plt>
 804ae7a:	eb da                	jmp    804ae56 <exit@plt+0x1c3e>
 804ae7c:	8d 74 26 00          	lea    0x0(%esi,%eiz,1),%esi
 804ae80:	8b 55 08             	mov    0x8(%ebp),%edx
 804ae83:	89 d8                	mov    %ebx,%eax
 804ae85:	e8 36 f6 ff ff       	call   804a4c0 <exit@plt+0x12a8>
 804ae8a:	84 c0                	test   %al,%al
 804ae8c:	75 32                	jne    804aec0 <exit@plt+0x1ca8>
 804ae8e:	85 f6                	test   %esi,%esi
 804ae90:	74 0d                	je     804ae9f <exit@plt+0x1c87>
 804ae92:	89 f2                	mov    %esi,%edx
 804ae94:	89 d8                	mov    %ebx,%eax
 804ae96:	e8 25 f6 ff ff       	call   804a4c0 <exit@plt+0x12a8>
 804ae9b:	84 c0                	test   %al,%al
 804ae9d:	75 21                	jne    804aec0 <exit@plt+0x1ca8>
 804ae9f:	8b 4d e4             	mov    -0x1c(%ebp),%ecx
 804aea2:	85 c9                	test   %ecx,%ecx
 804aea4:	0f 84 5e 01 00 00    	je     804b008 <exit@plt+0x1df0>
 804aeaa:	8b 55 e4             	mov    -0x1c(%ebp),%edx
 804aead:	89 d8                	mov    %ebx,%eax
 804aeaf:	e8 0c f6 ff ff       	call   804a4c0 <exit@plt+0x12a8>
 804aeb4:	84 c0                	test   %al,%al
 804aeb6:	0f 84 4c 01 00 00    	je     804b008 <exit@plt+0x1df0>
 804aebc:	8d 74 26 00          	lea    0x0(%esi,%eiz,1),%esi
 804aec0:	8b 55 dc             	mov    -0x24(%ebp),%edx
 804aec3:	85 d2                	test   %edx,%edx
 804aec5:	74 0b                	je     804aed2 <exit@plt+0x1cba>
 804aec7:	8b 55 dc             	mov    -0x24(%ebp),%edx
 804aeca:	89 14 24             	mov    %edx,(%esp)
 804aecd:	e8 26 e1 ff ff       	call   8048ff8 <free@plt>
 804aed2:	8b 7d e0             	mov    -0x20(%ebp),%edi
 804aed5:	85 ff                	test   %edi,%edi
 804aed7:	0f 84 7b ff ff ff    	je     804ae58 <exit@plt+0x1c40>
 804aedd:	8b 45 e0             	mov    -0x20(%ebp),%eax
 804aee0:	89 04 24             	mov    %eax,(%esp)
 804aee3:	e8 10 e1 ff ff       	call   8048ff8 <free@plt>
 804aee8:	83 c4 3c             	add    $0x3c,%esp
 804aeeb:	89 d8                	mov    %ebx,%eax
 804aeed:	5b                   	pop    %ebx
 804aeee:	5e                   	pop    %esi
 804aeef:	5f                   	pop    %edi
 804aef0:	5d                   	pop    %ebp
 804aef1:	c3                   	ret    
 804aef2:	8d b6 00 00 00 00    	lea    0x0(%esi),%esi
 804aef8:	89 74 24 08          	mov    %esi,0x8(%esp)
 804aefc:	c7 44 24 04 3e 28 05 	movl   $0x805283e,0x4(%esp)
 804af03:	08 
 804af04:	8b 45 0c             	mov    0xc(%ebp),%eax
 804af07:	89 04 24             	mov    %eax,(%esp)
 804af0a:	e8 51 0a 00 00       	call   804b960 <exit@plt+0x2748>
 804af0f:	89 45 dc             	mov    %eax,-0x24(%ebp)
 804af12:	89 34 24             	mov    %esi,(%esp)
 804af15:	e8 5e e1 ff ff       	call   8049078 <strlen@plt>
 804af1a:	89 45 e0             	mov    %eax,-0x20(%ebp)
 804af1d:	83 c0 0b             	add    $0xb,%eax
 804af20:	89 04 24             	mov    %eax,(%esp)
 804af23:	e8 48 21 00 00       	call   804d070 <exit@plt+0x3e58>
 804af28:	8b 55 e0             	mov    -0x20(%ebp),%edx
 804af2b:	89 74 24 04          	mov    %esi,0x4(%esp)
 804af2f:	89 54 24 08          	mov    %edx,0x8(%esp)
 804af33:	89 c7                	mov    %eax,%edi
 804af35:	89 04 24             	mov    %eax,(%esp)
 804af38:	e8 2b e1 ff ff       	call   8049068 <memcpy@plt>
 804af3d:	8b 55 e0             	mov    -0x20(%ebp),%edx
 804af40:	8d 04 17             	lea    (%edi,%edx,1),%eax
 804af43:	c7 00 2f 2f 54 52    	movl   $0x52542f2f,(%eax)
 804af49:	c7 40 04 41 4e 53 4c 	movl   $0x4c534e41,0x4(%eax)
 804af50:	66 c7 40 08 49 54    	movw   $0x5449,0x8(%eax)
 804af56:	c6 40 0a 00          	movb   $0x0,0xa(%eax)
 804af5a:	89 7c 24 08          	mov    %edi,0x8(%esp)
 804af5e:	c7 44 24 04 3e 28 05 	movl   $0x805283e,0x4(%esp)
 804af65:	08 
 804af66:	8b 45 0c             	mov    0xc(%ebp),%eax
 804af69:	89 04 24             	mov    %eax,(%esp)
 804af6c:	e8 ef 09 00 00       	call   804b960 <exit@plt+0x2748>
 804af71:	89 3c 24             	mov    %edi,(%esp)
 804af74:	89 c6                	mov    %eax,%esi
 804af76:	e8 7d e0 ff ff       	call   8048ff8 <free@plt>
 804af7b:	85 f6                	test   %esi,%esi
 804af7d:	74 1c                	je     804af9b <exit@plt+0x1d83>
 804af7f:	c7 44 24 04 3f 00 00 	movl   $0x3f,0x4(%esp)
 804af86:	00 
 804af87:	89 34 24             	mov    %esi,(%esp)
 804af8a:	e8 69 df ff ff       	call   8048ef8 <strchr@plt>
 804af8f:	85 c0                	test   %eax,%eax
 804af91:	74 5d                	je     804aff0 <exit@plt+0x1dd8>
 804af93:	89 34 24             	mov    %esi,(%esp)
 804af96:	e8 5d e0 ff ff       	call   8048ff8 <free@plt>
 804af9b:	8b 75 dc             	mov    -0x24(%ebp),%esi
 804af9e:	c7 45 e4 00 00 00 00 	movl   $0x0,-0x1c(%ebp)
 804afa5:	c7 45 e0 00 00 00 00 	movl   $0x0,-0x20(%ebp)
 804afac:	85 f6                	test   %esi,%esi
 804afae:	89 f7                	mov    %esi,%edi
 804afb0:	0f 85 7f fe ff ff    	jne    804ae35 <exit@plt+0x1c1d>
 804afb6:	8b 7d e4             	mov    -0x1c(%ebp),%edi
 804afb9:	85 ff                	test   %edi,%edi
 804afbb:	0f 85 74 fe ff ff    	jne    804ae35 <exit@plt+0x1c1d>
 804afc1:	8b 7d 08             	mov    0x8(%ebp),%edi
 804afc4:	e9 6c fe ff ff       	jmp    804ae35 <exit@plt+0x1c1d>
 804afc9:	8d b4 26 00 00 00 00 	lea    0x0(%esi,%eiz,1),%esi
 804afd0:	8b 75 dc             	mov    -0x24(%ebp),%esi
 804afd3:	85 f6                	test   %esi,%esi
 804afd5:	0f 84 76 fe ff ff    	je     804ae51 <exit@plt+0x1c39>
 804afdb:	8b 55 dc             	mov    -0x24(%ebp),%edx
 804afde:	89 14 24             	mov    %edx,(%esp)
 804afe1:	e8 12 e0 ff ff       	call   8048ff8 <free@plt>
 804afe6:	e9 66 fe ff ff       	jmp    804ae51 <exit@plt+0x1c39>
 804afeb:	90                   	nop
 804afec:	8d 74 26 00          	lea    0x0(%esi,%eiz,1),%esi
 804aff0:	89 75 e4             	mov    %esi,-0x1c(%ebp)
 804aff3:	8b 55 e4             	mov    -0x1c(%ebp),%edx
 804aff6:	8b 75 dc             	mov    -0x24(%ebp),%esi
 804aff9:	89 55 e0             	mov    %edx,-0x20(%ebp)
 804affc:	e9 2a fe ff ff       	jmp    804ae2b <exit@plt+0x1c13>
 804b001:	8d b4 26 00 00 00 00 	lea    0x0(%esi,%eiz,1),%esi
 804b008:	89 1c 24             	mov    %ebx,(%esp)
 804b00b:	e8 68 e0 ff ff       	call   8049078 <strlen@plt>
 804b010:	89 3c 24             	mov    %edi,(%esp)
 804b013:	89 c6                	mov    %eax,%esi
 804b015:	e8 5e e0 ff ff       	call   8049078 <strlen@plt>
 804b01a:	8d 44 06 04          	lea    0x4(%esi,%eax,1),%eax
 804b01e:	89 04 24             	mov    %eax,(%esp)
 804b021:	e8 4a 20 00 00       	call   804d070 <exit@plt+0x3e58>
 804b026:	89 7c 24 14          	mov    %edi,0x14(%esp)
 804b02a:	89 5c 24 10          	mov    %ebx,0x10(%esp)
 804b02e:	c7 44 24 0c 44 28 05 	movl   $0x8052844,0xc(%esp)
 804b035:	08 
 804b036:	c7 44 24 08 ff ff ff 	movl   $0xffffffff,0x8(%esp)
 804b03d:	ff 
 804b03e:	c7 44 24 04 01 00 00 	movl   $0x1,0x4(%esp)
 804b045:	00 
 804b046:	89 c6                	mov    %eax,%esi
 804b048:	89 04 24             	mov    %eax,(%esp)
 804b04b:	e8 68 e1 ff ff       	call   80491b8 <__sprintf_chk@plt>
 804b050:	8b 45 dc             	mov    -0x24(%ebp),%eax
 804b053:	85 c0                	test   %eax,%eax
 804b055:	74 0b                	je     804b062 <exit@plt+0x1e4a>
 804b057:	8b 55 dc             	mov    -0x24(%ebp),%edx
 804b05a:	89 14 24             	mov    %edx,(%esp)
 804b05d:	e8 96 df ff ff       	call   8048ff8 <free@plt>
 804b062:	89 f3                	mov    %esi,%ebx
 804b064:	e9 69 fe ff ff       	jmp    804aed2 <exit@plt+0x1cba>
 804b069:	8d b4 26 00 00 00 00 	lea    0x0(%esi,%eiz,1),%esi
 804b070:	55                   	push   %ebp
 804b071:	89 e5                	mov    %esp,%ebp
 804b073:	83 ec 38             	sub    $0x38,%esp
 804b076:	89 75 f8             	mov    %esi,-0x8(%ebp)
 804b079:	8b 75 08             	mov    0x8(%ebp),%esi
 804b07c:	89 5d f4             	mov    %ebx,-0xc(%ebp)
 804b07f:	89 7d fc             	mov    %edi,-0x4(%ebp)
 804b082:	c7 44 24 08 05 00 00 	movl   $0x5,0x8(%esp)
 804b089:	00 
 804b08a:	89 74 24 04          	mov    %esi,0x4(%esp)
 804b08e:	c7 04 24 00 00 00 00 	movl   $0x0,(%esp)
 804b095:	e8 6e df ff ff       	call   8049008 <dcgettext@plt>
 804b09a:	39 c6                	cmp    %eax,%esi
 804b09c:	89 c3                	mov    %eax,%ebx
 804b09e:	74 0b                	je     804b0ab <exit@plt+0x1e93>
 804b0a0:	89 f2                	mov    %esi,%edx
 804b0a2:	e8 19 f4 ff ff       	call   804a4c0 <exit@plt+0x12a8>
 804b0a7:	84 c0                	test   %al,%al
 804b0a9:	74 15                	je     804b0c0 <exit@plt+0x1ea8>
 804b0ab:	89 d8                	mov    %ebx,%eax
 804b0ad:	8b 75 f8             	mov    -0x8(%ebp),%esi
 804b0b0:	8b 5d f4             	mov    -0xc(%ebp),%ebx
 804b0b3:	8b 7d fc             	mov    -0x4(%ebp),%edi
 804b0b6:	89 ec                	mov    %ebp,%esp
 804b0b8:	5d                   	pop    %ebp
 804b0b9:	c3                   	ret    
 804b0ba:	8d b6 00 00 00 00    	lea    0x0(%esi),%esi
 804b0c0:	89 1c 24             	mov    %ebx,(%esp)
 804b0c3:	e8 b0 df ff ff       	call   8049078 <strlen@plt>
 804b0c8:	89 34 24             	mov    %esi,(%esp)
 804b0cb:	89 c7                	mov    %eax,%edi
 804b0cd:	e8 a6 df ff ff       	call   8049078 <strlen@plt>
 804b0d2:	8d 44 07 04          	lea    0x4(%edi,%eax,1),%eax
 804b0d6:	89 04 24             	mov    %eax,(%esp)
 804b0d9:	e8 92 1f 00 00       	call   804d070 <exit@plt+0x3e58>
 804b0de:	89 5c 24 10          	mov    %ebx,0x10(%esp)
 804b0e2:	89 74 24 14          	mov    %esi,0x14(%esp)
 804b0e6:	c7 44 24 0c 44 28 05 	movl   $0x8052844,0xc(%esp)
 804b0ed:	08 
 804b0ee:	c7 44 24 08 ff ff ff 	movl   $0xffffffff,0x8(%esp)
 804b0f5:	ff 
 804b0f6:	c7 44 24 04 01 00 00 	movl   $0x1,0x4(%esp)
 804b0fd:	00 
 804b0fe:	89 c7                	mov    %eax,%edi
 804b100:	89 04 24             	mov    %eax,(%esp)
 804b103:	89 fb                	mov    %edi,%ebx
 804b105:	e8 ae e0 ff ff       	call   80491b8 <__sprintf_chk@plt>
 804b10a:	eb 9f                	jmp    804b0ab <exit@plt+0x1e93>
 804b10c:	90                   	nop
 804b10d:	90                   	nop
 804b10e:	90                   	nop
 804b10f:	90                   	nop
 804b110:	55                   	push   %ebp
 804b111:	89 e5                	mov    %esp,%ebp
 804b113:	83 ec 18             	sub    $0x18,%esp
 804b116:	89 5d f8             	mov    %ebx,-0x8(%ebp)
 804b119:	8b 5d 0c             	mov    0xc(%ebp),%ebx
 804b11c:	89 75 fc             	mov    %esi,-0x4(%ebp)
 804b11f:	8b 75 08             	mov    0x8(%ebp),%esi
 804b122:	c7 44 24 04 00 00 00 	movl   $0x0,0x4(%esp)
 804b129:	00 
 804b12a:	89 5c 24 08          	mov    %ebx,0x8(%esp)
 804b12e:	89 34 24             	mov    %esi,(%esp)
 804b131:	e8 92 e0 ff ff       	call   80491c8 <memchr@plt>
 804b136:	85 c0                	test   %eax,%eax
 804b138:	74 05                	je     804b13f <exit@plt+0x1f27>
 804b13a:	29 f0                	sub    %esi,%eax
 804b13c:	8d 58 01             	lea    0x1(%eax),%ebx
 804b13f:	89 d8                	mov    %ebx,%eax
 804b141:	8b 75 fc             	mov    -0x4(%ebp),%esi
 804b144:	8b 5d f8             	mov    -0x8(%ebp),%ebx
 804b147:	89 ec                	mov    %ebp,%esp
 804b149:	5d                   	pop    %ebp
 804b14a:	c3                   	ret    
 804b14b:	90                   	nop
 804b14c:	90                   	nop
 804b14d:	90                   	nop
 804b14e:	90                   	nop
 804b14f:	90                   	nop
 804b150:	55                   	push   %ebp
 804b151:	89 e5                	mov    %esp,%ebp
 804b153:	57                   	push   %edi
 804b154:	56                   	push   %esi
 804b155:	53                   	push   %ebx
 804b156:	83 ec 6c             	sub    $0x6c,%esp
 804b159:	8b 7d 0c             	mov    0xc(%ebp),%edi
 804b15c:	65 a1 14 00 00 00    	mov    %gs:0x14,%eax
 804b162:	89 45 e4             	mov    %eax,-0x1c(%ebp)
 804b165:	31 c0                	xor    %eax,%eax
 804b167:	8b 45 08             	mov    0x8(%ebp),%eax
 804b16a:	89 04 24             	mov    %eax,(%esp)
 804b16d:	e8 96 e0 ff ff       	call   8049208 <__strdup@plt>
 804b172:	85 c0                	test   %eax,%eax
 804b174:	89 c6                	mov    %eax,%esi
 804b176:	0f 84 6d 04 00 00    	je     804b5e9 <exit@plt+0x23d1>
 804b17c:	e8 17 dd ff ff       	call   8048e98 <__ctype_get_mb_cur_max@plt>
 804b181:	83 f8 01             	cmp    $0x1,%eax
 804b184:	0f 86 16 02 00 00    	jbe    804b3a0 <exit@plt+0x2188>
 804b18a:	85 ff                	test   %edi,%edi
 804b18c:	8d 74 26 00          	lea    0x0(%esi,%eiz,1),%esi
 804b190:	0f 85 a2 02 00 00    	jne    804b438 <exit@plt+0x2220>
 804b196:	89 34 24             	mov    %esi,(%esp)
 804b199:	89 f7                	mov    %esi,%edi
 804b19b:	89 75 bc             	mov    %esi,-0x44(%ebp)
 804b19e:	e8 d5 de ff ff       	call   8049078 <strlen@plt>
 804b1a3:	c6 45 ac 00          	movb   $0x0,-0x54(%ebp)
 804b1a7:	c7 45 b0 00 00 00 00 	movl   $0x0,-0x50(%ebp)
 804b1ae:	c7 45 b4 00 00 00 00 	movl   $0x0,-0x4c(%ebp)
 804b1b5:	c6 45 b8 00          	movb   $0x0,-0x48(%ebp)
 804b1b9:	8d 04 06             	lea    (%esi,%eax,1),%eax
 804b1bc:	39 c6                	cmp    %eax,%esi
 804b1be:	89 45 a8             	mov    %eax,-0x58(%ebp)
 804b1c1:	0f 83 9a 00 00 00    	jae    804b261 <exit@plt+0x2049>
 804b1c7:	31 db                	xor    %ebx,%ebx
 804b1c9:	eb 2b                	jmp    804b1f6 <exit@plt+0x1fde>
 804b1cb:	90                   	nop
 804b1cc:	8d 74 26 00          	lea    0x0(%esi,%eiz,1),%esi
 804b1d0:	83 fb 01             	cmp    $0x1,%ebx
 804b1d3:	0f 84 1f 01 00 00    	je     804b2f8 <exit@plt+0x20e0>
 804b1d9:	83 fb 02             	cmp    $0x2,%ebx
 804b1dc:	8d 74 26 00          	lea    0x0(%esi,%eiz,1),%esi
 804b1e0:	74 51                	je     804b233 <exit@plt+0x201b>
 804b1e2:	bb 01 00 00 00       	mov    $0x1,%ebx
 804b1e7:	03 7d c0             	add    -0x40(%ebp),%edi
 804b1ea:	39 7d a8             	cmp    %edi,-0x58(%ebp)
 804b1ed:	c6 45 b8 00          	movb   $0x0,-0x48(%ebp)
 804b1f1:	89 7d bc             	mov    %edi,-0x44(%ebp)
 804b1f4:	76 62                	jbe    804b258 <exit@plt+0x2040>
 804b1f6:	80 7d ac 00          	cmpb   $0x0,-0x54(%ebp)
 804b1fa:	0f 85 97 00 00 00    	jne    804b297 <exit@plt+0x207f>
 804b200:	0f b6 07             	movzbl (%edi),%eax
 804b203:	89 c2                	mov    %eax,%edx
 804b205:	c0 ea 05             	shr    $0x5,%dl
 804b208:	0f b6 d2             	movzbl %dl,%edx
 804b20b:	8b 14 95 a0 2f 05 08 	mov    0x8052fa0(,%edx,4),%edx
 804b212:	0f a3 c2             	bt     %eax,%edx
 804b215:	73 69                	jae    804b280 <exit@plt+0x2068>
 804b217:	8b 7d bc             	mov    -0x44(%ebp),%edi
 804b21a:	c7 45 c0 01 00 00 00 	movl   $0x1,-0x40(%ebp)
 804b221:	0f be 07             	movsbl (%edi),%eax
 804b224:	c6 45 c4 01          	movb   $0x1,-0x3c(%ebp)
 804b228:	89 45 c8             	mov    %eax,-0x38(%ebp)
 804b22b:	85 db                	test   %ebx,%ebx
 804b22d:	c6 45 b8 01          	movb   $0x1,-0x48(%ebp)
 804b231:	75 9d                	jne    804b1d0 <exit@plt+0x1fb8>
 804b233:	80 7d c4 00          	cmpb   $0x0,-0x3c(%ebp)
 804b237:	74 a9                	je     804b1e2 <exit@plt+0x1fca>
 804b239:	8b 45 c8             	mov    -0x38(%ebp),%eax
 804b23c:	89 04 24             	mov    %eax,(%esp)
 804b23f:	e8 74 de ff ff       	call   80490b8 <iswspace@plt>
 804b244:	85 c0                	test   %eax,%eax
 804b246:	74 9a                	je     804b1e2 <exit@plt+0x1fca>
 804b248:	03 7d c0             	add    -0x40(%ebp),%edi
 804b24b:	39 7d a8             	cmp    %edi,-0x58(%ebp)
 804b24e:	c6 45 b8 00          	movb   $0x0,-0x48(%ebp)
 804b252:	89 7d bc             	mov    %edi,-0x44(%ebp)
 804b255:	77 9f                	ja     804b1f6 <exit@plt+0x1fde>
 804b257:	90                   	nop
 804b258:	83 fb 02             	cmp    $0x2,%ebx
 804b25b:	0f 84 5f 03 00 00    	je     804b5c0 <exit@plt+0x23a8>
 804b261:	8b 55 e4             	mov    -0x1c(%ebp),%edx
 804b264:	65 33 15 14 00 00 00 	xor    %gs:0x14,%edx
 804b26b:	89 f0                	mov    %esi,%eax
 804b26d:	0f 85 71 03 00 00    	jne    804b5e4 <exit@plt+0x23cc>
 804b273:	83 c4 6c             	add    $0x6c,%esp
 804b276:	5b                   	pop    %ebx
 804b277:	5e                   	pop    %esi
 804b278:	5f                   	pop    %edi
 804b279:	5d                   	pop    %ebp
 804b27a:	c3                   	ret    
 804b27b:	90                   	nop
 804b27c:	8d 74 26 00          	lea    0x0(%esi,%eiz,1),%esi
 804b280:	8d 55 b0             	lea    -0x50(%ebp),%edx
 804b283:	89 14 24             	mov    %edx,(%esp)
 804b286:	e8 cd dd ff ff       	call   8049058 <mbsinit@plt>
 804b28b:	85 c0                	test   %eax,%eax
 804b28d:	0f 84 5b 03 00 00    	je     804b5ee <exit@plt+0x23d6>
 804b293:	c6 45 ac 01          	movb   $0x1,-0x54(%ebp)
 804b297:	8d 45 b0             	lea    -0x50(%ebp),%eax
 804b29a:	8b 55 bc             	mov    -0x44(%ebp),%edx
 804b29d:	89 44 24 0c          	mov    %eax,0xc(%esp)
 804b2a1:	8b 45 a8             	mov    -0x58(%ebp),%eax
 804b2a4:	89 54 24 04          	mov    %edx,0x4(%esp)
 804b2a8:	29 d0                	sub    %edx,%eax
 804b2aa:	8d 55 c8             	lea    -0x38(%ebp),%edx
 804b2ad:	89 44 24 08          	mov    %eax,0x8(%esp)
 804b2b1:	89 14 24             	mov    %edx,(%esp)
 804b2b4:	e8 0f dd ff ff       	call   8048fc8 <mbrtowc@plt>
 804b2b9:	83 f8 ff             	cmp    $0xffffffff,%eax
 804b2bc:	89 45 c0             	mov    %eax,-0x40(%ebp)
 804b2bf:	74 67                	je     804b328 <exit@plt+0x2110>
 804b2c1:	83 f8 fe             	cmp    $0xfffffffe,%eax
 804b2c4:	0f 84 be 00 00 00    	je     804b388 <exit@plt+0x2170>
 804b2ca:	85 c0                	test   %eax,%eax
 804b2cc:	74 72                	je     804b340 <exit@plt+0x2128>
 804b2ce:	8b 7d bc             	mov    -0x44(%ebp),%edi
 804b2d1:	8d 45 b0             	lea    -0x50(%ebp),%eax
 804b2d4:	89 04 24             	mov    %eax,(%esp)
 804b2d7:	c6 45 c4 01          	movb   $0x1,-0x3c(%ebp)
 804b2db:	e8 78 dd ff ff       	call   8049058 <mbsinit@plt>
 804b2e0:	85 c0                	test   %eax,%eax
 804b2e2:	0f 84 43 ff ff ff    	je     804b22b <exit@plt+0x2013>
 804b2e8:	c6 45 ac 00          	movb   $0x0,-0x54(%ebp)
 804b2ec:	e9 3a ff ff ff       	jmp    804b22b <exit@plt+0x2013>
 804b2f1:	8d b4 26 00 00 00 00 	lea    0x0(%esi,%eiz,1),%esi
 804b2f8:	80 7d c4 00          	cmpb   $0x0,-0x3c(%ebp)
 804b2fc:	8d 74 26 00          	lea    0x0(%esi,%eiz,1),%esi
 804b300:	0f 84 e1 fe ff ff    	je     804b1e7 <exit@plt+0x1fcf>
 804b306:	8b 45 c8             	mov    -0x38(%ebp),%eax
 804b309:	89 04 24             	mov    %eax,(%esp)
 804b30c:	e8 a7 dd ff ff       	call   80490b8 <iswspace@plt>
 804b311:	85 c0                	test   %eax,%eax
 804b313:	0f 84 ce fe ff ff    	je     804b1e7 <exit@plt+0x1fcf>
 804b319:	89 7d a4             	mov    %edi,-0x5c(%ebp)
 804b31c:	b3 02                	mov    $0x2,%bl
 804b31e:	e9 c4 fe ff ff       	jmp    804b1e7 <exit@plt+0x1fcf>
 804b323:	90                   	nop
 804b324:	8d 74 26 00          	lea    0x0(%esi,%eiz,1),%esi
 804b328:	c7 45 c0 01 00 00 00 	movl   $0x1,-0x40(%ebp)
 804b32f:	8b 7d bc             	mov    -0x44(%ebp),%edi
 804b332:	c6 45 c4 00          	movb   $0x0,-0x3c(%ebp)
 804b336:	e9 f0 fe ff ff       	jmp    804b22b <exit@plt+0x2013>
 804b33b:	90                   	nop
 804b33c:	8d 74 26 00          	lea    0x0(%esi,%eiz,1),%esi
 804b340:	8b 7d bc             	mov    -0x44(%ebp),%edi
 804b343:	c7 45 c0 01 00 00 00 	movl   $0x1,-0x40(%ebp)
 804b34a:	80 3f 00             	cmpb   $0x0,(%edi)
 804b34d:	0f 85 bf 02 00 00    	jne    804b612 <exit@plt+0x23fa>
 804b353:	8b 45 c8             	mov    -0x38(%ebp),%eax
 804b356:	85 c0                	test   %eax,%eax
 804b358:	0f 84 73 ff ff ff    	je     804b2d1 <exit@plt+0x20b9>
 804b35e:	c7 44 24 0c 68 28 05 	movl   $0x8052868,0xc(%esp)
 804b365:	08 
 804b366:	c7 44 24 08 a2 00 00 	movl   $0xa2,0x8(%esp)
 804b36d:	00 
 804b36e:	c7 44 24 04 5f 28 05 	movl   $0x805285f,0x4(%esp)
 804b375:	08 
 804b376:	c7 04 24 2c 28 05 08 	movl   $0x805282c,(%esp)
 804b37d:	e8 26 dc ff ff       	call   8048fa8 <__assert_fail@plt>
 804b382:	8d b6 00 00 00 00    	lea    0x0(%esi),%esi
 804b388:	8b 7d bc             	mov    -0x44(%ebp),%edi
 804b38b:	8b 45 a8             	mov    -0x58(%ebp),%eax
 804b38e:	c6 45 c4 00          	movb   $0x0,-0x3c(%ebp)
 804b392:	29 f8                	sub    %edi,%eax
 804b394:	89 45 c0             	mov    %eax,-0x40(%ebp)
 804b397:	e9 8f fe ff ff       	jmp    804b22b <exit@plt+0x2013>
 804b39c:	8d 74 26 00          	lea    0x0(%esi,%eiz,1),%esi
 804b3a0:	85 ff                	test   %edi,%edi
 804b3a2:	74 54                	je     804b3f8 <exit@plt+0x21e0>
 804b3a4:	0f b6 16             	movzbl (%esi),%edx
 804b3a7:	89 f3                	mov    %esi,%ebx
 804b3a9:	84 d2                	test   %dl,%dl
 804b3ab:	74 27                	je     804b3d4 <exit@plt+0x21bc>
 804b3ad:	88 55 a0             	mov    %dl,-0x60(%ebp)
 804b3b0:	e8 83 dc ff ff       	call   8049038 <__ctype_b_loc@plt>
 804b3b5:	0f b6 55 a0          	movzbl -0x60(%ebp),%edx
 804b3b9:	8b 00                	mov    (%eax),%eax
 804b3bb:	eb 0d                	jmp    804b3ca <exit@plt+0x21b2>
 804b3bd:	8d 76 00             	lea    0x0(%esi),%esi
 804b3c0:	83 c3 01             	add    $0x1,%ebx
 804b3c3:	0f b6 13             	movzbl (%ebx),%edx
 804b3c6:	84 d2                	test   %dl,%dl
 804b3c8:	74 0a                	je     804b3d4 <exit@plt+0x21bc>
 804b3ca:	0f b6 d2             	movzbl %dl,%edx
 804b3cd:	f6 44 50 01 20       	testb  $0x20,0x1(%eax,%edx,2)
 804b3d2:	75 ec                	jne    804b3c0 <exit@plt+0x21a8>
 804b3d4:	89 1c 24             	mov    %ebx,(%esp)
 804b3d7:	e8 9c dc ff ff       	call   8049078 <strlen@plt>
 804b3dc:	89 5c 24 04          	mov    %ebx,0x4(%esp)
 804b3e0:	89 34 24             	mov    %esi,(%esp)
 804b3e3:	83 c0 01             	add    $0x1,%eax
 804b3e6:	89 44 24 08          	mov    %eax,0x8(%esp)
 804b3ea:	e8 79 dd ff ff       	call   8049168 <memmove@plt>
 804b3ef:	83 ff 01             	cmp    $0x1,%edi
 804b3f2:	0f 84 69 fe ff ff    	je     804b261 <exit@plt+0x2049>
 804b3f8:	89 34 24             	mov    %esi,(%esp)
 804b3fb:	e8 78 dc ff ff       	call   8049078 <strlen@plt>
 804b400:	8d 5c 06 ff          	lea    -0x1(%esi,%eax,1),%ebx
 804b404:	39 de                	cmp    %ebx,%esi
 804b406:	0f 87 55 fe ff ff    	ja     804b261 <exit@plt+0x2049>
 804b40c:	e8 27 dc ff ff       	call   8049038 <__ctype_b_loc@plt>
 804b411:	eb 13                	jmp    804b426 <exit@plt+0x220e>
 804b413:	90                   	nop
 804b414:	8d 74 26 00          	lea    0x0(%esi,%eiz,1),%esi
 804b418:	c6 03 00             	movb   $0x0,(%ebx)
 804b41b:	83 eb 01             	sub    $0x1,%ebx
 804b41e:	39 de                	cmp    %ebx,%esi
 804b420:	0f 87 3b fe ff ff    	ja     804b261 <exit@plt+0x2049>
 804b426:	0f b6 0b             	movzbl (%ebx),%ecx
 804b429:	8b 10                	mov    (%eax),%edx
 804b42b:	f6 44 4a 01 20       	testb  $0x20,0x1(%edx,%ecx,2)
 804b430:	75 e6                	jne    804b418 <exit@plt+0x2200>
 804b432:	e9 2a fe ff ff       	jmp    804b261 <exit@plt+0x2049>
 804b437:	90                   	nop
 804b438:	89 34 24             	mov    %esi,(%esp)
 804b43b:	89 f3                	mov    %esi,%ebx
 804b43d:	89 75 bc             	mov    %esi,-0x44(%ebp)
 804b440:	e8 33 dc ff ff       	call   8049078 <strlen@plt>
 804b445:	c6 45 ac 00          	movb   $0x0,-0x54(%ebp)
 804b449:	c7 45 b0 00 00 00 00 	movl   $0x0,-0x50(%ebp)
 804b450:	c7 45 b4 00 00 00 00 	movl   $0x0,-0x4c(%ebp)
 804b457:	c6 45 b8 00          	movb   $0x0,-0x48(%ebp)
 804b45b:	8d 04 06             	lea    (%esi,%eax,1),%eax
 804b45e:	39 c6                	cmp    %eax,%esi
 804b460:	89 45 a8             	mov    %eax,-0x58(%ebp)
 804b463:	72 6e                	jb     804b4d3 <exit@plt+0x22bb>
 804b465:	e9 26 01 00 00       	jmp    804b590 <exit@plt+0x2378>
 804b46a:	8d b6 00 00 00 00    	lea    0x0(%esi),%esi
 804b470:	0f b6 03             	movzbl (%ebx),%eax
 804b473:	89 c2                	mov    %eax,%edx
 804b475:	c0 ea 05             	shr    $0x5,%dl
 804b478:	0f b6 d2             	movzbl %dl,%edx
 804b47b:	8b 14 95 a0 2f 05 08 	mov    0x8052fa0(,%edx,4),%edx
 804b482:	0f a3 c2             	bt     %eax,%edx
 804b485:	0f 83 ad 00 00 00    	jae    804b538 <exit@plt+0x2320>
 804b48b:	8b 5d bc             	mov    -0x44(%ebp),%ebx
 804b48e:	c7 45 c0 01 00 00 00 	movl   $0x1,-0x40(%ebp)
 804b495:	0f be 03             	movsbl (%ebx),%eax
 804b498:	c6 45 c4 01          	movb   $0x1,-0x3c(%ebp)
 804b49c:	89 45 c8             	mov    %eax,-0x38(%ebp)
 804b49f:	80 7d c4 00          	cmpb   $0x0,-0x3c(%ebp)
 804b4a3:	c6 45 b8 01          	movb   $0x1,-0x48(%ebp)
 804b4a7:	0f 84 e3 00 00 00    	je     804b590 <exit@plt+0x2378>
 804b4ad:	8b 45 c8             	mov    -0x38(%ebp),%eax
 804b4b0:	89 04 24             	mov    %eax,(%esp)
 804b4b3:	e8 00 dc ff ff       	call   80490b8 <iswspace@plt>
 804b4b8:	85 c0                	test   %eax,%eax
 804b4ba:	0f 84 d0 00 00 00    	je     804b590 <exit@plt+0x2378>
 804b4c0:	03 5d c0             	add    -0x40(%ebp),%ebx
 804b4c3:	39 5d a8             	cmp    %ebx,-0x58(%ebp)
 804b4c6:	c6 45 b8 00          	movb   $0x0,-0x48(%ebp)
 804b4ca:	89 5d bc             	mov    %ebx,-0x44(%ebp)
 804b4cd:	0f 86 bd 00 00 00    	jbe    804b590 <exit@plt+0x2378>
 804b4d3:	80 7d ac 00          	cmpb   $0x0,-0x54(%ebp)
 804b4d7:	74 97                	je     804b470 <exit@plt+0x2258>
 804b4d9:	8d 45 b0             	lea    -0x50(%ebp),%eax
 804b4dc:	8b 55 bc             	mov    -0x44(%ebp),%edx
 804b4df:	89 44 24 0c          	mov    %eax,0xc(%esp)
 804b4e3:	8b 45 a8             	mov    -0x58(%ebp),%eax
 804b4e6:	89 54 24 04          	mov    %edx,0x4(%esp)
 804b4ea:	29 d0                	sub    %edx,%eax
 804b4ec:	8d 55 c8             	lea    -0x38(%ebp),%edx
 804b4ef:	89 44 24 08          	mov    %eax,0x8(%esp)
 804b4f3:	89 14 24             	mov    %edx,(%esp)
 804b4f6:	e8 cd da ff ff       	call   8048fc8 <mbrtowc@plt>
 804b4fb:	83 f8 ff             	cmp    $0xffffffff,%eax
 804b4fe:	89 45 c0             	mov    %eax,-0x40(%ebp)
 804b501:	74 55                	je     804b558 <exit@plt+0x2340>
 804b503:	83 f8 fe             	cmp    $0xfffffffe,%eax
 804b506:	0f 84 c4 00 00 00    	je     804b5d0 <exit@plt+0x23b8>
 804b50c:	85 c0                	test   %eax,%eax
 804b50e:	66 90                	xchg   %ax,%ax
 804b510:	74 5e                	je     804b570 <exit@plt+0x2358>
 804b512:	8b 5d bc             	mov    -0x44(%ebp),%ebx
 804b515:	8d 45 b0             	lea    -0x50(%ebp),%eax
 804b518:	89 04 24             	mov    %eax,(%esp)
 804b51b:	c6 45 c4 01          	movb   $0x1,-0x3c(%ebp)
 804b51f:	e8 34 db ff ff       	call   8049058 <mbsinit@plt>
 804b524:	85 c0                	test   %eax,%eax
 804b526:	0f 84 73 ff ff ff    	je     804b49f <exit@plt+0x2287>
 804b52c:	c6 45 ac 00          	movb   $0x0,-0x54(%ebp)
 804b530:	e9 6a ff ff ff       	jmp    804b49f <exit@plt+0x2287>
 804b535:	8d 76 00             	lea    0x0(%esi),%esi
 804b538:	8d 55 b0             	lea    -0x50(%ebp),%edx
 804b53b:	89 14 24             	mov    %edx,(%esp)
 804b53e:	e8 15 db ff ff       	call   8049058 <mbsinit@plt>
 804b543:	85 c0                	test   %eax,%eax
 804b545:	0f 84 a3 00 00 00    	je     804b5ee <exit@plt+0x23d6>
 804b54b:	c6 45 ac 01          	movb   $0x1,-0x54(%ebp)
 804b54f:	eb 88                	jmp    804b4d9 <exit@plt+0x22c1>
 804b551:	8d b4 26 00 00 00 00 	lea    0x0(%esi,%eiz,1),%esi
 804b558:	c7 45 c0 01 00 00 00 	movl   $0x1,-0x40(%ebp)
 804b55f:	8b 5d bc             	mov    -0x44(%ebp),%ebx
 804b562:	c6 45 c4 00          	movb   $0x0,-0x3c(%ebp)
 804b566:	e9 34 ff ff ff       	jmp    804b49f <exit@plt+0x2287>
 804b56b:	90                   	nop
 804b56c:	8d 74 26 00          	lea    0x0(%esi,%eiz,1),%esi
 804b570:	8b 5d bc             	mov    -0x44(%ebp),%ebx
 804b573:	c7 45 c0 01 00 00 00 	movl   $0x1,-0x40(%ebp)
 804b57a:	80 3b 00             	cmpb   $0x0,(%ebx)
 804b57d:	0f 85 8f 00 00 00    	jne    804b612 <exit@plt+0x23fa>
 804b583:	8b 55 c8             	mov    -0x38(%ebp),%edx
 804b586:	85 d2                	test   %edx,%edx
 804b588:	74 8b                	je     804b515 <exit@plt+0x22fd>
 804b58a:	e9 cf fd ff ff       	jmp    804b35e <exit@plt+0x2146>
 804b58f:	90                   	nop
 804b590:	89 1c 24             	mov    %ebx,(%esp)
 804b593:	e8 e0 da ff ff       	call   8049078 <strlen@plt>
 804b598:	89 5c 24 04          	mov    %ebx,0x4(%esp)
 804b59c:	89 34 24             	mov    %esi,(%esp)
 804b59f:	83 c0 01             	add    $0x1,%eax
 804b5a2:	89 44 24 08          	mov    %eax,0x8(%esp)
 804b5a6:	e8 bd db ff ff       	call   8049168 <memmove@plt>
 804b5ab:	83 ff 01             	cmp    $0x1,%edi
 804b5ae:	0f 84 ad fc ff ff    	je     804b261 <exit@plt+0x2049>
 804b5b4:	e9 dd fb ff ff       	jmp    804b196 <exit@plt+0x1f7e>
 804b5b9:	8d b4 26 00 00 00 00 	lea    0x0(%esi,%eiz,1),%esi
 804b5c0:	8b 55 a4             	mov    -0x5c(%ebp),%edx
 804b5c3:	c6 02 00             	movb   $0x0,(%edx)
 804b5c6:	e9 96 fc ff ff       	jmp    804b261 <exit@plt+0x2049>
 804b5cb:	90                   	nop
 804b5cc:	8d 74 26 00          	lea    0x0(%esi,%eiz,1),%esi
 804b5d0:	8b 5d bc             	mov    -0x44(%ebp),%ebx
 804b5d3:	8b 45 a8             	mov    -0x58(%ebp),%eax
 804b5d6:	c6 45 c4 00          	movb   $0x0,-0x3c(%ebp)
 804b5da:	29 d8                	sub    %ebx,%eax
 804b5dc:	89 45 c0             	mov    %eax,-0x40(%ebp)
 804b5df:	e9 bb fe ff ff       	jmp    804b49f <exit@plt+0x2287>
 804b5e4:	e8 2f db ff ff       	call   8049118 <__stack_chk_fail@plt>
 804b5e9:	e8 22 03 00 00       	call   804b910 <exit@plt+0x26f8>
 804b5ee:	c7 44 24 0c 68 28 05 	movl   $0x8052868,0xc(%esp)
 804b5f5:	08 
 804b5f6:	c7 44 24 08 86 00 00 	movl   $0x86,0x8(%esp)
 804b5fd:	00 
 804b5fe:	c7 44 24 04 5f 28 05 	movl   $0x805285f,0x4(%esp)
 804b605:	08 
 804b606:	c7 04 24 fe 27 05 08 	movl   $0x80527fe,(%esp)
 804b60d:	e8 96 d9 ff ff       	call   8048fa8 <__assert_fail@plt>
 804b612:	c7 44 24 0c 68 28 05 	movl   $0x8052868,0xc(%esp)
 804b619:	08 
 804b61a:	c7 44 24 08 a1 00 00 	movl   $0xa1,0x8(%esp)
 804b621:	00 
 804b622:	c7 44 24 04 5f 28 05 	movl   $0x805285f,0x4(%esp)
 804b629:	08 
 804b62a:	c7 04 24 15 28 05 08 	movl   $0x8052815,(%esp)
 804b631:	e8 72 d9 ff ff       	call   8048fa8 <__assert_fail@plt>
 804b636:	90                   	nop
 804b637:	90                   	nop
 804b638:	90                   	nop
 804b639:	90                   	nop
 804b63a:	90                   	nop
 804b63b:	90                   	nop
 804b63c:	90                   	nop
 804b63d:	90                   	nop
 804b63e:	90                   	nop
 804b63f:	90                   	nop
 804b640:	55                   	push   %ebp
 804b641:	89 e5                	mov    %esp,%ebp
 804b643:	53                   	push   %ebx
 804b644:	83 ec 14             	sub    $0x14,%esp
 804b647:	c7 44 24 08 05 00 00 	movl   $0x5,0x8(%esp)
 804b64e:	00 
 804b64f:	c7 44 24 04 7a 28 05 	movl   $0x805287a,0x4(%esp)
 804b656:	08 
 804b657:	c7 04 24 00 00 00 00 	movl   $0x0,(%esp)
 804b65e:	e8 a5 d9 ff ff       	call   8049008 <dcgettext@plt>
 804b663:	c7 44 24 08 e4 25 05 	movl   $0x80525e4,0x8(%esp)
 804b66a:	08 
 804b66b:	c7 04 24 01 00 00 00 	movl   $0x1,(%esp)
 804b672:	89 44 24 04          	mov    %eax,0x4(%esp)
 804b676:	e8 6d d8 ff ff       	call   8048ee8 <__printf_chk@plt>
 804b67b:	c7 44 24 08 05 00 00 	movl   $0x5,0x8(%esp)
 804b682:	00 
 804b683:	c7 44 24 04 ec 28 05 	movl   $0x80528ec,0x4(%esp)
 804b68a:	08 
 804b68b:	c7 04 24 00 00 00 00 	movl   $0x0,(%esp)
 804b692:	e8 71 d9 ff ff       	call   8049008 <dcgettext@plt>
 804b697:	c7 44 24 0c fe 25 05 	movl   $0x80525fe,0xc(%esp)
 804b69e:	08 
 804b69f:	c7 44 24 08 fa 25 05 	movl   $0x80525fa,0x8(%esp)
 804b6a6:	08 
 804b6a7:	c7 04 24 01 00 00 00 	movl   $0x1,(%esp)
 804b6ae:	89 44 24 04          	mov    %eax,0x4(%esp)
 804b6b2:	e8 31 d8 ff ff       	call   8048ee8 <__printf_chk@plt>
 804b6b7:	8b 1d 60 51 05 08    	mov    0x8055160,%ebx
 804b6bd:	c7 44 24 08 05 00 00 	movl   $0x5,0x8(%esp)
 804b6c4:	00 
 804b6c5:	c7 44 24 04 20 29 05 	movl   $0x8052920,0x4(%esp)
 804b6cc:	08 
 804b6cd:	c7 04 24 00 00 00 00 	movl   $0x0,(%esp)
 804b6d4:	e8 2f d9 ff ff       	call   8049008 <dcgettext@plt>
 804b6d9:	89 5c 24 04          	mov    %ebx,0x4(%esp)
 804b6dd:	89 04 24             	mov    %eax,(%esp)
 804b6e0:	e8 a3 d7 ff ff       	call   8048e88 <fputs_unlocked@plt>
 804b6e5:	83 c4 14             	add    $0x14,%esp
 804b6e8:	5b                   	pop    %ebx
 804b6e9:	5d                   	pop    %ebp
 804b6ea:	c3                   	ret    
 804b6eb:	90                   	nop
 804b6ec:	8d 74 26 00          	lea    0x0(%esi,%eiz,1),%esi
 804b6f0:	55                   	push   %ebp
 804b6f1:	89 e5                	mov    %esp,%ebp
 804b6f3:	57                   	push   %edi
 804b6f4:	56                   	push   %esi
 804b6f5:	53                   	push   %ebx
 804b6f6:	31 db                	xor    %ebx,%ebx
 804b6f8:	83 ec 2c             	sub    $0x2c,%esp
 804b6fb:	8b 75 18             	mov    0x18(%ebp),%esi
 804b6fe:	8b 7d 08             	mov    0x8(%ebp),%edi
 804b701:	8b 45 0c             	mov    0xc(%ebp),%eax
 804b704:	8b 55 10             	mov    0x10(%ebp),%edx
 804b707:	83 3e 00             	cmpl   $0x0,(%esi)
 804b70a:	8b 4d 14             	mov    0x14(%ebp),%ecx
 804b70d:	74 0a                	je     804b719 <exit@plt+0x2501>
 804b70f:	90                   	nop
 804b710:	83 c3 01             	add    $0x1,%ebx
 804b713:	83 3c 9e 00          	cmpl   $0x0,(%esi,%ebx,4)
 804b717:	75 f7                	jne    804b710 <exit@plt+0x24f8>
 804b719:	85 c0                	test   %eax,%eax
 804b71b:	0f 84 8f 01 00 00    	je     804b8b0 <exit@plt+0x2698>
 804b721:	89 4c 24 14          	mov    %ecx,0x14(%esp)
 804b725:	89 54 24 10          	mov    %edx,0x10(%esp)
 804b729:	89 44 24 0c          	mov    %eax,0xc(%esp)
 804b72d:	c7 44 24 08 91 28 05 	movl   $0x8052891,0x8(%esp)
 804b734:	08 
 804b735:	c7 44 24 04 01 00 00 	movl   $0x1,0x4(%esp)
 804b73c:	00 
 804b73d:	89 3c 24             	mov    %edi,(%esp)
 804b740:	e8 63 d7 ff ff       	call   8048ea8 <__fprintf_chk@plt>
 804b745:	c7 44 24 08 05 00 00 	movl   $0x5,0x8(%esp)
 804b74c:	00 
 804b74d:	c7 44 24 04 a4 28 05 	movl   $0x80528a4,0x4(%esp)
 804b754:	08 
 804b755:	c7 04 24 00 00 00 00 	movl   $0x0,(%esp)
 804b75c:	e8 a7 d8 ff ff       	call   8049008 <dcgettext@plt>
 804b761:	c7 44 24 10 d9 07 00 	movl   $0x7d9,0x10(%esp)
 804b768:	00 
 804b769:	c7 44 24 08 a0 2b 05 	movl   $0x8052ba0,0x8(%esp)
 804b770:	08 
 804b771:	c7 44 24 04 01 00 00 	movl   $0x1,0x4(%esp)
 804b778:	00 
 804b779:	89 3c 24             	mov    %edi,(%esp)
 804b77c:	89 44 24 0c          	mov    %eax,0xc(%esp)
 804b780:	e8 23 d7 ff ff       	call   8048ea8 <__fprintf_chk@plt>
 804b785:	c7 44 24 08 05 00 00 	movl   $0x5,0x8(%esp)
 804b78c:	00 
 804b78d:	c7 44 24 04 64 29 05 	movl   $0x8052964,0x4(%esp)
 804b794:	08 
 804b795:	c7 04 24 00 00 00 00 	movl   $0x0,(%esp)
 804b79c:	e8 67 d8 ff ff       	call   8049008 <dcgettext@plt>
 804b7a1:	89 7c 24 04          	mov    %edi,0x4(%esp)
 804b7a5:	89 04 24             	mov    %eax,(%esp)
 804b7a8:	e8 db d6 ff ff       	call   8048e88 <fputs_unlocked@plt>
 804b7ad:	83 fb 09             	cmp    $0x9,%ebx
 804b7b0:	76 3e                	jbe    804b7f0 <exit@plt+0x25d8>
 804b7b2:	c7 44 24 08 05 00 00 	movl   $0x5,0x8(%esp)
 804b7b9:	00 
 804b7ba:	c7 44 24 04 2c 2b 05 	movl   $0x8052b2c,0x4(%esp)
 804b7c1:	08 
 804b7c2:	8d b6 00 00 00 00    	lea    0x0(%esi),%esi
 804b7c8:	c7 04 24 00 00 00 00 	movl   $0x0,(%esp)
 804b7cf:	e8 34 d8 ff ff       	call   8049008 <dcgettext@plt>
 804b7d4:	89 75 10             	mov    %esi,0x10(%ebp)
 804b7d7:	89 7d 08             	mov    %edi,0x8(%ebp)
 804b7da:	89 45 0c             	mov    %eax,0xc(%ebp)
 804b7dd:	83 c4 2c             	add    $0x2c,%esp
 804b7e0:	5b                   	pop    %ebx
 804b7e1:	5e                   	pop    %esi
 804b7e2:	5f                   	pop    %edi
 804b7e3:	5d                   	pop    %ebp
 804b7e4:	e9 e7 16 00 00       	jmp    804ced0 <exit@plt+0x3cb8>
 804b7e9:	8d b4 26 00 00 00 00 	lea    0x0(%esi,%eiz,1),%esi
 804b7f0:	ff 24 9d 68 2b 05 08 	jmp    *0x8052b68(,%ebx,4)
 804b7f7:	c7 44 24 08 05 00 00 	movl   $0x5,0x8(%esp)
 804b7fe:	00 
 804b7ff:	c7 44 24 04 c8 2a 05 	movl   $0x8052ac8,0x4(%esp)
 804b806:	08 
 804b807:	eb bf                	jmp    804b7c8 <exit@plt+0x25b0>
 804b809:	c7 44 24 08 05 00 00 	movl   $0x5,0x8(%esp)
 804b810:	00 
 804b811:	c7 44 24 04 f8 2a 05 	movl   $0x8052af8,0x4(%esp)
 804b818:	08 
 804b819:	eb ad                	jmp    804b7c8 <exit@plt+0x25b0>
 804b81b:	e8 28 d6 ff ff       	call   8048e48 <abort@plt>
 804b820:	c7 44 24 08 05 00 00 	movl   $0x5,0x8(%esp)
 804b827:	00 
 804b828:	c7 44 24 04 a8 28 05 	movl   $0x80528a8,0x4(%esp)
 804b82f:	08 
 804b830:	eb 96                	jmp    804b7c8 <exit@plt+0x25b0>
 804b832:	c7 44 24 08 05 00 00 	movl   $0x5,0x8(%esp)
 804b839:	00 
 804b83a:	c7 44 24 04 b8 28 05 	movl   $0x80528b8,0x4(%esp)
 804b841:	08 
 804b842:	eb 84                	jmp    804b7c8 <exit@plt+0x25b0>
 804b844:	c7 44 24 08 05 00 00 	movl   $0x5,0x8(%esp)
 804b84b:	00 
 804b84c:	c7 44 24 04 cf 28 05 	movl   $0x80528cf,0x4(%esp)
 804b853:	08 
 804b854:	e9 6f ff ff ff       	jmp    804b7c8 <exit@plt+0x25b0>
 804b859:	c7 44 24 08 05 00 00 	movl   $0x5,0x8(%esp)
 804b860:	00 
 804b861:	c7 44 24 04 30 2a 05 	movl   $0x8052a30,0x4(%esp)
 804b868:	08 
 804b869:	e9 5a ff ff ff       	jmp    804b7c8 <exit@plt+0x25b0>
 804b86e:	c7 44 24 08 05 00 00 	movl   $0x5,0x8(%esp)
 804b875:	00 
 804b876:	c7 44 24 04 50 2a 05 	movl   $0x8052a50,0x4(%esp)
 804b87d:	08 
 804b87e:	e9 45 ff ff ff       	jmp    804b7c8 <exit@plt+0x25b0>
 804b883:	c7 44 24 08 05 00 00 	movl   $0x5,0x8(%esp)
 804b88a:	00 
 804b88b:	c7 44 24 04 74 2a 05 	movl   $0x8052a74,0x4(%esp)
 804b892:	08 
 804b893:	e9 30 ff ff ff       	jmp    804b7c8 <exit@plt+0x25b0>
 804b898:	c7 44 24 08 05 00 00 	movl   $0x5,0x8(%esp)
 804b89f:	00 
 804b8a0:	c7 44 24 04 9c 2a 05 	movl   $0x8052a9c,0x4(%esp)
 804b8a7:	08 
 804b8a8:	e9 1b ff ff ff       	jmp    804b7c8 <exit@plt+0x25b0>
 804b8ad:	8d 76 00             	lea    0x0(%esi),%esi
 804b8b0:	89 4c 24 10          	mov    %ecx,0x10(%esp)
 804b8b4:	89 54 24 0c          	mov    %edx,0xc(%esp)
 804b8b8:	c7 44 24 08 9d 28 05 	movl   $0x805289d,0x8(%esp)
 804b8bf:	08 
 804b8c0:	c7 44 24 04 01 00 00 	movl   $0x1,0x4(%esp)
 804b8c7:	00 
 804b8c8:	89 3c 24             	mov    %edi,(%esp)
 804b8cb:	e8 d8 d5 ff ff       	call   8048ea8 <__fprintf_chk@plt>
 804b8d0:	e9 70 fe ff ff       	jmp    804b745 <exit@plt+0x252d>
 804b8d5:	8d 74 26 00          	lea    0x0(%esi,%eiz,1),%esi
 804b8d9:	8d bc 27 00 00 00 00 	lea    0x0(%edi,%eiz,1),%edi
 804b8e0:	55                   	push   %ebp
 804b8e1:	89 e5                	mov    %esp,%ebp
 804b8e3:	83 ec 28             	sub    $0x28,%esp
 804b8e6:	8d 45 18             	lea    0x18(%ebp),%eax
 804b8e9:	89 44 24 10          	mov    %eax,0x10(%esp)
 804b8ed:	8b 45 14             	mov    0x14(%ebp),%eax
 804b8f0:	89 44 24 0c          	mov    %eax,0xc(%esp)
 804b8f4:	8b 45 10             	mov    0x10(%ebp),%eax
 804b8f7:	89 44 24 08          	mov    %eax,0x8(%esp)
 804b8fb:	8b 45 0c             	mov    0xc(%ebp),%eax
 804b8fe:	89 44 24 04          	mov    %eax,0x4(%esp)
 804b902:	8b 45 08             	mov    0x8(%ebp),%eax
 804b905:	89 04 24             	mov    %eax,(%esp)
 804b908:	e8 e3 fd ff ff       	call   804b6f0 <exit@plt+0x24d8>
 804b90d:	c9                   	leave  
 804b90e:	c3                   	ret    
 804b90f:	90                   	nop
 804b910:	55                   	push   %ebp
 804b911:	89 e5                	mov    %esp,%ebp
 804b913:	83 ec 18             	sub    $0x18,%esp
 804b916:	c7 44 24 08 05 00 00 	movl   $0x5,0x8(%esp)
 804b91d:	00 
 804b91e:	c7 44 24 04 cf 2b 05 	movl   $0x8052bcf,0x4(%esp)
 804b925:	08 
 804b926:	c7 04 24 00 00 00 00 	movl   $0x0,(%esp)
 804b92d:	e8 d6 d6 ff ff       	call   8049008 <dcgettext@plt>
 804b932:	8b 15 24 51 05 08    	mov    0x8055124,%edx
 804b938:	c7 44 24 08 e4 2b 05 	movl   $0x8052be4,0x8(%esp)
 804b93f:	08 
 804b940:	c7 44 24 04 00 00 00 	movl   $0x0,0x4(%esp)
 804b947:	00 
 804b948:	89 14 24             	mov    %edx,(%esp)
 804b94b:	89 44 24 0c          	mov    %eax,0xc(%esp)
 804b94f:	e8 f4 d7 ff ff       	call   8049148 <error@plt>
 804b954:	e8 ef d4 ff ff       	call   8048e48 <abort@plt>
 804b959:	90                   	nop
 804b95a:	90                   	nop
 804b95b:	90                   	nop
 804b95c:	90                   	nop
 804b95d:	90                   	nop
 804b95e:	90                   	nop
 804b95f:	90                   	nop
 804b960:	55                   	push   %ebp
 804b961:	89 e5                	mov    %esp,%ebp
 804b963:	53                   	push   %ebx
 804b964:	83 ec 14             	sub    $0x14,%esp
 804b967:	8b 45 10             	mov    0x10(%ebp),%eax
 804b96a:	89 44 24 08          	mov    %eax,0x8(%esp)
 804b96e:	8b 45 0c             	mov    0xc(%ebp),%eax
 804b971:	89 44 24 04          	mov    %eax,0x4(%esp)
 804b975:	8b 45 08             	mov    0x8(%ebp),%eax
 804b978:	89 04 24             	mov    %eax,(%esp)
 804b97b:	e8 c0 34 00 00       	call   804ee40 <exit@plt+0x5c28>
 804b980:	85 c0                	test   %eax,%eax
 804b982:	89 c3                	mov    %eax,%ebx
 804b984:	74 0a                	je     804b990 <exit@plt+0x2778>
 804b986:	89 d8                	mov    %ebx,%eax
 804b988:	83 c4 14             	add    $0x14,%esp
 804b98b:	5b                   	pop    %ebx
 804b98c:	5d                   	pop    %ebp
 804b98d:	c3                   	ret    
 804b98e:	66 90                	xchg   %ax,%ax
 804b990:	e8 c3 d4 ff ff       	call   8048e58 <__errno_location@plt>
 804b995:	83 38 0c             	cmpl   $0xc,(%eax)
 804b998:	75 ec                	jne    804b986 <exit@plt+0x276e>
 804b99a:	8d b6 00 00 00 00    	lea    0x0(%esi),%esi
 804b9a0:	e8 6b ff ff ff       	call   804b910 <exit@plt+0x26f8>
 804b9a5:	8d 74 26 00          	lea    0x0(%esi,%eiz,1),%esi
 804b9a9:	8d bc 27 00 00 00 00 	lea    0x0(%edi,%eiz,1),%edi
 804b9b0:	55                   	push   %ebp
 804b9b1:	89 e5                	mov    %esp,%ebp
 804b9b3:	53                   	push   %ebx
 804b9b4:	83 ec 14             	sub    $0x14,%esp
 804b9b7:	8b 45 0c             	mov    0xc(%ebp),%eax
 804b9ba:	89 44 24 04          	mov    %eax,0x4(%esp)
 804b9be:	8b 45 08             	mov    0x8(%ebp),%eax
 804b9c1:	89 04 24             	mov    %eax,(%esp)
 804b9c4:	e8 77 32 00 00       	call   804ec40 <exit@plt+0x5a28>
 804b9c9:	85 c0                	test   %eax,%eax
 804b9cb:	89 c3                	mov    %eax,%ebx
 804b9cd:	74 09                	je     804b9d8 <exit@plt+0x27c0>
 804b9cf:	89 d8                	mov    %ebx,%eax
 804b9d1:	83 c4 14             	add    $0x14,%esp
 804b9d4:	5b                   	pop    %ebx
 804b9d5:	5d                   	pop    %ebp
 804b9d6:	c3                   	ret    
 804b9d7:	90                   	nop
 804b9d8:	e8 7b d4 ff ff       	call   8048e58 <__errno_location@plt>
 804b9dd:	83 38 0c             	cmpl   $0xc,(%eax)
 804b9e0:	75 ed                	jne    804b9cf <exit@plt+0x27b7>
 804b9e2:	e8 29 ff ff ff       	call   804b910 <exit@plt+0x26f8>
 804b9e7:	89 f6                	mov    %esi,%esi
 804b9e9:	8d bc 27 00 00 00 00 	lea    0x0(%edi,%eiz,1),%edi
 804b9f0:	55                   	push   %ebp
 804b9f1:	89 e5                	mov    %esp,%ebp
 804b9f3:	53                   	push   %ebx
 804b9f4:	83 ec 24             	sub    $0x24,%esp
 804b9f7:	8b 45 18             	mov    0x18(%ebp),%eax
 804b9fa:	89 44 24 10          	mov    %eax,0x10(%esp)
 804b9fe:	8b 45 14             	mov    0x14(%ebp),%eax
 804ba01:	89 44 24 0c          	mov    %eax,0xc(%esp)
 804ba05:	8b 45 10             	mov    0x10(%ebp),%eax
 804ba08:	89 44 24 08          	mov    %eax,0x8(%esp)
 804ba0c:	8b 45 0c             	mov    0xc(%ebp),%eax
 804ba0f:	89 44 24 04          	mov    %eax,0x4(%esp)
 804ba13:	8b 45 08             	mov    0x8(%ebp),%eax
 804ba16:	89 04 24             	mov    %eax,(%esp)
 804ba19:	e8 f2 34 00 00       	call   804ef10 <exit@plt+0x5cf8>
 804ba1e:	85 c0                	test   %eax,%eax
 804ba20:	89 c3                	mov    %eax,%ebx
 804ba22:	78 0c                	js     804ba30 <exit@plt+0x2818>
 804ba24:	89 d8                	mov    %ebx,%eax
 804ba26:	83 c4 24             	add    $0x24,%esp
 804ba29:	5b                   	pop    %ebx
 804ba2a:	5d                   	pop    %ebp
 804ba2b:	c3                   	ret    
 804ba2c:	8d 74 26 00          	lea    0x0(%esi,%eiz,1),%esi
 804ba30:	e8 23 d4 ff ff       	call   8048e58 <__errno_location@plt>
 804ba35:	83 38 0c             	cmpl   $0xc,(%eax)
 804ba38:	75 ea                	jne    804ba24 <exit@plt+0x280c>
 804ba3a:	8d b6 00 00 00 00    	lea    0x0(%esi),%esi
 804ba40:	e8 cb fe ff ff       	call   804b910 <exit@plt+0x26f8>
 804ba45:	90                   	nop
 804ba46:	90                   	nop
 804ba47:	90                   	nop
 804ba48:	90                   	nop
 804ba49:	90                   	nop
 804ba4a:	90                   	nop
 804ba4b:	90                   	nop
 804ba4c:	90                   	nop
 804ba4d:	90                   	nop
 804ba4e:	90                   	nop
 804ba4f:	90                   	nop
 804ba50:	55                   	push   %ebp
 804ba51:	89 e5                	mov    %esp,%ebp
 804ba53:	8b 45 08             	mov    0x8(%ebp),%eax
 804ba56:	53                   	push   %ebx
 804ba57:	0f b6 10             	movzbl (%eax),%edx
 804ba5a:	89 c1                	mov    %eax,%ecx
 804ba5c:	80 fa 2f             	cmp    $0x2f,%dl
 804ba5f:	75 14                	jne    804ba75 <exit@plt+0x285d>
 804ba61:	8d b4 26 00 00 00 00 	lea    0x0(%esi,%eiz,1),%esi
 804ba68:	83 c0 01             	add    $0x1,%eax
 804ba6b:	0f b6 10             	movzbl (%eax),%edx
 804ba6e:	80 fa 2f             	cmp    $0x2f,%dl
 804ba71:	74 f5                	je     804ba68 <exit@plt+0x2850>
 804ba73:	89 c1                	mov    %eax,%ecx
 804ba75:	84 d2                	test   %dl,%dl
 804ba77:	74 2d                	je     804baa6 <exit@plt+0x288e>
 804ba79:	31 db                	xor    %ebx,%ebx
 804ba7b:	eb 15                	jmp    804ba92 <exit@plt+0x287a>
 804ba7d:	8d 76 00             	lea    0x0(%esi),%esi
 804ba80:	84 db                	test   %bl,%bl
 804ba82:	74 04                	je     804ba88 <exit@plt+0x2870>
 804ba84:	89 c8                	mov    %ecx,%eax
 804ba86:	31 db                	xor    %ebx,%ebx
 804ba88:	83 c1 01             	add    $0x1,%ecx
 804ba8b:	0f b6 11             	movzbl (%ecx),%edx
 804ba8e:	84 d2                	test   %dl,%dl
 804ba90:	74 14                	je     804baa6 <exit@plt+0x288e>
 804ba92:	80 fa 2f             	cmp    $0x2f,%dl
 804ba95:	75 e9                	jne    804ba80 <exit@plt+0x2868>
 804ba97:	83 c1 01             	add    $0x1,%ecx
 804ba9a:	bb 01 00 00 00       	mov    $0x1,%ebx
 804ba9f:	0f b6 11             	movzbl (%ecx),%edx
 804baa2:	84 d2                	test   %dl,%dl
 804baa4:	75 ec                	jne    804ba92 <exit@plt+0x287a>
 804baa6:	5b                   	pop    %ebx
 804baa7:	5d                   	pop    %ebp
 804baa8:	c3                   	ret    
 804baa9:	8d b4 26 00 00 00 00 	lea    0x0(%esi,%eiz,1),%esi
 804bab0:	55                   	push   %ebp
 804bab1:	89 e5                	mov    %esp,%ebp
 804bab3:	53                   	push   %ebx
 804bab4:	83 ec 14             	sub    $0x14,%esp
 804bab7:	8b 5d 08             	mov    0x8(%ebp),%ebx
 804baba:	89 1c 24             	mov    %ebx,(%esp)
 804babd:	e8 b6 d5 ff ff       	call   8049078 <strlen@plt>
 804bac2:	83 f8 01             	cmp    $0x1,%eax
 804bac5:	76 07                	jbe    804bace <exit@plt+0x28b6>
 804bac7:	80 7c 03 ff 2f       	cmpb   $0x2f,-0x1(%ebx,%eax,1)
 804bacc:	74 0a                	je     804bad8 <exit@plt+0x28c0>
 804bace:	83 c4 14             	add    $0x14,%esp
 804bad1:	5b                   	pop    %ebx
 804bad2:	5d                   	pop    %ebp
 804bad3:	c3                   	ret    
 804bad4:	8d 74 26 00          	lea    0x0(%esi,%eiz,1),%esi
 804bad8:	01 c3                	add    %eax,%ebx
 804bada:	83 e8 01             	sub    $0x1,%eax
 804badd:	83 f8 01             	cmp    $0x1,%eax
 804bae0:	76 ec                	jbe    804bace <exit@plt+0x28b6>
 804bae2:	0f b6 53 fe          	movzbl -0x2(%ebx),%edx
 804bae6:	83 eb 01             	sub    $0x1,%ebx
 804bae9:	80 fa 2f             	cmp    $0x2f,%dl
 804baec:	74 ec                	je     804bada <exit@plt+0x28c2>
 804baee:	83 c4 14             	add    $0x14,%esp
 804baf1:	5b                   	pop    %ebx
 804baf2:	5d                   	pop    %ebp
 804baf3:	c3                   	ret    
 804baf4:	8d b6 00 00 00 00    	lea    0x0(%esi),%esi
 804bafa:	8d bf 00 00 00 00    	lea    0x0(%edi),%edi
 804bb00:	55                   	push   %ebp
 804bb01:	89 e5                	mov    %esp,%ebp
 804bb03:	56                   	push   %esi
 804bb04:	53                   	push   %ebx
 804bb05:	83 ec 10             	sub    $0x10,%esp
 804bb08:	8b 75 08             	mov    0x8(%ebp),%esi
 804bb0b:	0f b6 06             	movzbl (%esi),%eax
 804bb0e:	89 f1                	mov    %esi,%ecx
 804bb10:	89 f2                	mov    %esi,%edx
 804bb12:	89 f3                	mov    %esi,%ebx
 804bb14:	3c 2f                	cmp    $0x2f,%al
 804bb16:	75 0e                	jne    804bb26 <exit@plt+0x290e>
 804bb18:	83 c1 01             	add    $0x1,%ecx
 804bb1b:	0f b6 01             	movzbl (%ecx),%eax
 804bb1e:	3c 2f                	cmp    $0x2f,%al
 804bb20:	74 f6                	je     804bb18 <exit@plt+0x2900>
 804bb22:	89 ca                	mov    %ecx,%edx
 804bb24:	89 cb                	mov    %ecx,%ebx
 804bb26:	84 c0                	test   %al,%al
 804bb28:	74 56                	je     804bb80 <exit@plt+0x2968>
 804bb2a:	31 c9                	xor    %ecx,%ecx
 804bb2c:	eb 14                	jmp    804bb42 <exit@plt+0x292a>
 804bb2e:	66 90                	xchg   %ax,%ax
 804bb30:	84 c9                	test   %cl,%cl
 804bb32:	74 04                	je     804bb38 <exit@plt+0x2920>
 804bb34:	89 d3                	mov    %edx,%ebx
 804bb36:	31 c9                	xor    %ecx,%ecx
 804bb38:	83 c2 01             	add    $0x1,%edx
 804bb3b:	0f b6 02             	movzbl (%edx),%eax
 804bb3e:	84 c0                	test   %al,%al
 804bb40:	74 13                	je     804bb55 <exit@plt+0x293d>
 804bb42:	3c 2f                	cmp    $0x2f,%al
 804bb44:	75 ea                	jne    804bb30 <exit@plt+0x2918>
 804bb46:	83 c2 01             	add    $0x1,%edx
 804bb49:	b9 01 00 00 00       	mov    $0x1,%ecx
 804bb4e:	0f b6 02             	movzbl (%edx),%eax
 804bb51:	84 c0                	test   %al,%al
 804bb53:	75 ed                	jne    804bb42 <exit@plt+0x292a>
 804bb55:	80 3b 00             	cmpb   $0x0,(%ebx)
 804bb58:	74 26                	je     804bb80 <exit@plt+0x2968>
 804bb5a:	89 1c 24             	mov    %ebx,(%esp)
 804bb5d:	e8 4e ff ff ff       	call   804bab0 <exit@plt+0x2898>
 804bb62:	31 d2                	xor    %edx,%edx
 804bb64:	80 3c 03 2f          	cmpb   $0x2f,(%ebx,%eax,1)
 804bb68:	89 1c 24             	mov    %ebx,(%esp)
 804bb6b:	0f 94 c2             	sete   %dl
 804bb6e:	01 d0                	add    %edx,%eax
 804bb70:	89 44 24 04          	mov    %eax,0x4(%esp)
 804bb74:	e8 17 37 00 00       	call   804f290 <exit@plt+0x6078>
 804bb79:	83 c4 10             	add    $0x10,%esp
 804bb7c:	5b                   	pop    %ebx
 804bb7d:	5e                   	pop    %esi
 804bb7e:	5d                   	pop    %ebp
 804bb7f:	c3                   	ret    
 804bb80:	89 34 24             	mov    %esi,(%esp)
 804bb83:	e8 28 ff ff ff       	call   804bab0 <exit@plt+0x2898>
 804bb88:	89 34 24             	mov    %esi,(%esp)
 804bb8b:	89 44 24 04          	mov    %eax,0x4(%esp)
 804bb8f:	e8 fc 36 00 00       	call   804f290 <exit@plt+0x6078>
 804bb94:	83 c4 10             	add    $0x10,%esp
 804bb97:	5b                   	pop    %ebx
 804bb98:	5e                   	pop    %esi
 804bb99:	5d                   	pop    %ebp
 804bb9a:	c3                   	ret    
 804bb9b:	90                   	nop
 804bb9c:	90                   	nop
 804bb9d:	90                   	nop
 804bb9e:	90                   	nop
 804bb9f:	90                   	nop
 804bba0:	55                   	push   %ebp
 804bba1:	89 e5                	mov    %esp,%ebp
 804bba3:	8b 45 08             	mov    0x8(%ebp),%eax
 804bba6:	5d                   	pop    %ebp
 804bba7:	a3 7c 51 05 08       	mov    %eax,0x805517c
 804bbac:	c3                   	ret    
 804bbad:	8d 76 00             	lea    0x0(%esi),%esi
 804bbb0:	55                   	push   %ebp
 804bbb1:	89 e5                	mov    %esp,%ebp
 804bbb3:	8b 45 08             	mov    0x8(%ebp),%eax
 804bbb6:	5d                   	pop    %ebp
 804bbb7:	a2 80 51 05 08       	mov    %al,0x8055180
 804bbbc:	c3                   	ret    
 804bbbd:	8d 76 00             	lea    0x0(%esi),%esi
 804bbc0:	55                   	push   %ebp
 804bbc1:	89 e5                	mov    %esp,%ebp
 804bbc3:	83 ec 28             	sub    $0x28,%esp
 804bbc6:	a1 60 51 05 08       	mov    0x8055160,%eax
 804bbcb:	89 5d f8             	mov    %ebx,-0x8(%ebp)
 804bbce:	89 75 fc             	mov    %esi,-0x4(%ebp)
 804bbd1:	89 04 24             	mov    %eax,(%esp)
 804bbd4:	e8 e7 36 00 00       	call   804f2c0 <exit@plt+0x60a8>
 804bbd9:	85 c0                	test   %eax,%eax
 804bbdb:	74 15                	je     804bbf2 <exit@plt+0x29da>
 804bbdd:	80 3d 80 51 05 08 00 	cmpb   $0x0,0x8055180
 804bbe4:	74 27                	je     804bc0d <exit@plt+0x29f5>
 804bbe6:	e8 6d d2 ff ff       	call   8048e58 <__errno_location@plt>
 804bbeb:	83 38 20             	cmpl   $0x20,(%eax)
 804bbee:	89 c3                	mov    %eax,%ebx
 804bbf0:	75 22                	jne    804bc14 <exit@plt+0x29fc>
 804bbf2:	a1 44 51 05 08       	mov    0x8055144,%eax
 804bbf7:	89 04 24             	mov    %eax,(%esp)
 804bbfa:	e8 c1 36 00 00       	call   804f2c0 <exit@plt+0x60a8>
 804bbff:	85 c0                	test   %eax,%eax
 804bc01:	75 62                	jne    804bc65 <exit@plt+0x2a4d>
 804bc03:	8b 5d f8             	mov    -0x8(%ebp),%ebx
 804bc06:	8b 75 fc             	mov    -0x4(%ebp),%esi
 804bc09:	89 ec                	mov    %ebp,%esp
 804bc0b:	5d                   	pop    %ebp
 804bc0c:	c3                   	ret    
 804bc0d:	e8 46 d2 ff ff       	call   8048e58 <__errno_location@plt>
 804bc12:	89 c3                	mov    %eax,%ebx
 804bc14:	c7 44 24 08 05 00 00 	movl   $0x5,0x8(%esp)
 804bc1b:	00 
 804bc1c:	c7 44 24 04 90 26 05 	movl   $0x8052690,0x4(%esp)
 804bc23:	08 
 804bc24:	c7 04 24 00 00 00 00 	movl   $0x0,(%esp)
 804bc2b:	e8 d8 d3 ff ff       	call   8049008 <dcgettext@plt>
 804bc30:	89 c6                	mov    %eax,%esi
 804bc32:	a1 7c 51 05 08       	mov    0x805517c,%eax
 804bc37:	85 c0                	test   %eax,%eax
 804bc39:	74 37                	je     804bc72 <exit@plt+0x2a5a>
 804bc3b:	89 04 24             	mov    %eax,(%esp)
 804bc3e:	e8 0d 0f 00 00       	call   804cb50 <exit@plt+0x3938>
 804bc43:	89 74 24 10          	mov    %esi,0x10(%esp)
 804bc47:	c7 44 24 08 e0 2b 05 	movl   $0x8052be0,0x8(%esp)
 804bc4e:	08 
 804bc4f:	89 44 24 0c          	mov    %eax,0xc(%esp)
 804bc53:	8b 03                	mov    (%ebx),%eax
 804bc55:	c7 04 24 00 00 00 00 	movl   $0x0,(%esp)
 804bc5c:	89 44 24 04          	mov    %eax,0x4(%esp)
 804bc60:	e8 e3 d4 ff ff       	call   8049148 <error@plt>
 804bc65:	a1 24 51 05 08       	mov    0x8055124,%eax
 804bc6a:	89 04 24             	mov    %eax,(%esp)
 804bc6d:	e8 16 d3 ff ff       	call   8048f88 <_exit@plt>
 804bc72:	89 74 24 0c          	mov    %esi,0xc(%esp)
 804bc76:	c7 44 24 08 e4 2b 05 	movl   $0x8052be4,0x8(%esp)
 804bc7d:	08 
 804bc7e:	8b 03                	mov    (%ebx),%eax
 804bc80:	c7 04 24 00 00 00 00 	movl   $0x0,(%esp)
 804bc87:	89 44 24 04          	mov    %eax,0x4(%esp)
 804bc8b:	e8 b8 d4 ff ff       	call   8049148 <error@plt>
 804bc90:	eb d3                	jmp    804bc65 <exit@plt+0x2a4d>
 804bc92:	90                   	nop
 804bc93:	90                   	nop
 804bc94:	90                   	nop
 804bc95:	90                   	nop
 804bc96:	90                   	nop
 804bc97:	90                   	nop
 804bc98:	90                   	nop
 804bc99:	90                   	nop
 804bc9a:	90                   	nop
 804bc9b:	90                   	nop
 804bc9c:	90                   	nop
 804bc9d:	90                   	nop
 804bc9e:	90                   	nop
 804bc9f:	90                   	nop
 804bca0:	55                   	push   %ebp
 804bca1:	89 e5                	mov    %esp,%ebp
 804bca3:	83 ec 18             	sub    $0x18,%esp
 804bca6:	89 75 f8             	mov    %esi,-0x8(%ebp)
 804bca9:	89 7d fc             	mov    %edi,-0x4(%ebp)
 804bcac:	c7 44 24 04 00 00 00 	movl   $0x0,0x4(%esp)
 804bcb3:	00 
 804bcb4:	8b 45 08             	mov    0x8(%ebp),%eax
 804bcb7:	89 04 24             	mov    %eax,(%esp)
 804bcba:	e8 d9 d3 ff ff       	call   8049098 <setlocale@plt>
 804bcbf:	89 c6                	mov    %eax,%esi
 804bcc1:	b8 01 00 00 00       	mov    $0x1,%eax
 804bcc6:	85 f6                	test   %esi,%esi
 804bcc8:	74 19                	je     804bce3 <exit@plt+0x2acb>
 804bcca:	0f b6 06             	movzbl (%esi),%eax
 804bccd:	3a 05 e7 2b 05 08    	cmp    0x8052be7,%al
 804bcd3:	75 1b                	jne    804bcf0 <exit@plt+0x2ad8>
 804bcd5:	0f b6 46 01          	movzbl 0x1(%esi),%eax
 804bcd9:	3a 05 e8 2b 05 08    	cmp    0x8052be8,%al
 804bcdf:	75 0f                	jne    804bcf0 <exit@plt+0x2ad8>
 804bce1:	31 c0                	xor    %eax,%eax
 804bce3:	8b 75 f8             	mov    -0x8(%ebp),%esi
 804bce6:	8b 7d fc             	mov    -0x4(%ebp),%edi
 804bce9:	89 ec                	mov    %ebp,%esp
 804bceb:	5d                   	pop    %ebp
 804bcec:	c3                   	ret    
 804bced:	8d 76 00             	lea    0x0(%esi),%esi
 804bcf0:	bf e9 2b 05 08       	mov    $0x8052be9,%edi
 804bcf5:	b9 06 00 00 00       	mov    $0x6,%ecx
 804bcfa:	f3 a6                	repz cmpsb %es:(%edi),%ds:(%esi)
 804bcfc:	8b 75 f8             	mov    -0x8(%ebp),%esi
 804bcff:	8b 7d fc             	mov    -0x4(%ebp),%edi
 804bd02:	0f 95 c0             	setne  %al
 804bd05:	89 ec                	mov    %ebp,%esp
 804bd07:	5d                   	pop    %ebp
 804bd08:	c3                   	ret    
 804bd09:	90                   	nop
 804bd0a:	90                   	nop
 804bd0b:	90                   	nop
 804bd0c:	90                   	nop
 804bd0d:	90                   	nop
 804bd0e:	90                   	nop
 804bd0f:	90                   	nop
 804bd10:	55                   	push   %ebp
 804bd11:	89 e5                	mov    %esp,%ebp
 804bd13:	83 ec 18             	sub    $0x18,%esp
 804bd16:	8b 45 0c             	mov    0xc(%ebp),%eax
 804bd19:	c7 44 24 04 06 00 00 	movl   $0x6,0x4(%esp)
 804bd20:	00 
 804bd21:	89 44 24 08          	mov    %eax,0x8(%esp)
 804bd25:	8b 45 08             	mov    0x8(%ebp),%eax
 804bd28:	89 04 24             	mov    %eax,(%esp)
 804bd2b:	e8 a0 0e 00 00       	call   804cbd0 <exit@plt+0x39b8>
 804bd30:	c9                   	leave  
 804bd31:	c3                   	ret    
 804bd32:	8d b4 26 00 00 00 00 	lea    0x0(%esi,%eiz,1),%esi
 804bd39:	8d bc 27 00 00 00 00 	lea    0x0(%edi,%eiz,1),%edi
 804bd40:	55                   	push   %ebp
 804bd41:	89 e5                	mov    %esp,%ebp
 804bd43:	83 ec 18             	sub    $0x18,%esp
 804bd46:	8b 45 08             	mov    0x8(%ebp),%eax
 804bd49:	c7 04 24 00 00 00 00 	movl   $0x0,(%esp)
 804bd50:	89 44 24 04          	mov    %eax,0x4(%esp)
 804bd54:	e8 b7 ff ff ff       	call   804bd10 <exit@plt+0x2af8>
 804bd59:	c9                   	leave  
 804bd5a:	c3                   	ret    
 804bd5b:	90                   	nop
 804bd5c:	90                   	nop
 804bd5d:	90                   	nop
 804bd5e:	90                   	nop
 804bd5f:	90                   	nop
 804bd60:	55                   	push   %ebp
 804bd61:	89 e5                	mov    %esp,%ebp
 804bd63:	8b 45 08             	mov    0x8(%ebp),%eax
 804bd66:	85 c0                	test   %eax,%eax
 804bd68:	74 06                	je     804bd70 <exit@plt+0x2b58>
 804bd6a:	8b 00                	mov    (%eax),%eax
 804bd6c:	5d                   	pop    %ebp
 804bd6d:	c3                   	ret    
 804bd6e:	66 90                	xchg   %ax,%ax
 804bd70:	b8 a0 51 05 08       	mov    $0x80551a0,%eax
 804bd75:	8b 00                	mov    (%eax),%eax
 804bd77:	5d                   	pop    %ebp
 804bd78:	c3                   	ret    
 804bd79:	8d b4 26 00 00 00 00 	lea    0x0(%esi,%eiz,1),%esi
 804bd80:	55                   	push   %ebp
 804bd81:	89 e5                	mov    %esp,%ebp
 804bd83:	8b 45 08             	mov    0x8(%ebp),%eax
 804bd86:	85 c0                	test   %eax,%eax
 804bd88:	74 0e                	je     804bd98 <exit@plt+0x2b80>
 804bd8a:	8b 55 0c             	mov    0xc(%ebp),%edx
 804bd8d:	89 10                	mov    %edx,(%eax)
 804bd8f:	5d                   	pop    %ebp
 804bd90:	c3                   	ret    
 804bd91:	8d b4 26 00 00 00 00 	lea    0x0(%esi,%eiz,1),%esi
 804bd98:	8b 55 0c             	mov    0xc(%ebp),%edx
 804bd9b:	b8 a0 51 05 08       	mov    $0x80551a0,%eax
 804bda0:	89 10                	mov    %edx,(%eax)
 804bda2:	5d                   	pop    %ebp
 804bda3:	c3                   	ret    
 804bda4:	8d b6 00 00 00 00    	lea    0x0(%esi),%esi
 804bdaa:	8d bf 00 00 00 00    	lea    0x0(%edi),%edi
 804bdb0:	55                   	push   %ebp
 804bdb1:	89 e5                	mov    %esp,%ebp
 804bdb3:	83 ec 0c             	sub    $0xc,%esp
 804bdb6:	89 1c 24             	mov    %ebx,(%esp)
 804bdb9:	8b 5d 08             	mov    0x8(%ebp),%ebx
 804bdbc:	89 74 24 04          	mov    %esi,0x4(%esp)
 804bdc0:	0f b6 4d 0c          	movzbl 0xc(%ebp),%ecx
 804bdc4:	89 7c 24 08          	mov    %edi,0x8(%esp)
 804bdc8:	85 db                	test   %ebx,%ebx
 804bdca:	74 3c                	je     804be08 <exit@plt+0x2bf0>
 804bdcc:	89 c8                	mov    %ecx,%eax
 804bdce:	8b 55 10             	mov    0x10(%ebp),%edx
 804bdd1:	83 e1 1f             	and    $0x1f,%ecx
 804bdd4:	c0 e8 05             	shr    $0x5,%al
 804bdd7:	0f b6 f0             	movzbl %al,%esi
 804bdda:	8b 7c b3 08          	mov    0x8(%ebx,%esi,4),%edi
 804bdde:	83 e2 01             	and    $0x1,%edx
 804bde1:	89 f8                	mov    %edi,%eax
 804bde3:	d3 e8                	shr    %cl,%eax
 804bde5:	83 e0 01             	and    $0x1,%eax
 804bde8:	31 c2                	xor    %eax,%edx
 804bdea:	d3 e2                	shl    %cl,%edx
 804bdec:	31 fa                	xor    %edi,%edx
 804bdee:	89 54 b3 08          	mov    %edx,0x8(%ebx,%esi,4)
 804bdf2:	8b 1c 24             	mov    (%esp),%ebx
 804bdf5:	8b 74 24 04          	mov    0x4(%esp),%esi
 804bdf9:	8b 7c 24 08          	mov    0x8(%esp),%edi
 804bdfd:	89 ec                	mov    %ebp,%esp
 804bdff:	5d                   	pop    %ebp
 804be00:	c3                   	ret    
 804be01:	8d b4 26 00 00 00 00 	lea    0x0(%esi,%eiz,1),%esi
 804be08:	bb a0 51 05 08       	mov    $0x80551a0,%ebx
 804be0d:	eb bd                	jmp    804bdcc <exit@plt+0x2bb4>
 804be0f:	90                   	nop
 804be10:	55                   	push   %ebp
 804be11:	89 e5                	mov    %esp,%ebp
 804be13:	8b 55 08             	mov    0x8(%ebp),%edx
 804be16:	85 d2                	test   %edx,%edx
 804be18:	74 0e                	je     804be28 <exit@plt+0x2c10>
 804be1a:	8b 4d 0c             	mov    0xc(%ebp),%ecx
 804be1d:	8b 42 04             	mov    0x4(%edx),%eax
 804be20:	89 4a 04             	mov    %ecx,0x4(%edx)
 804be23:	5d                   	pop    %ebp
 804be24:	c3                   	ret    
 804be25:	8d 76 00             	lea    0x0(%esi),%esi
 804be28:	8b 4d 0c             	mov    0xc(%ebp),%ecx
 804be2b:	ba a0 51 05 08       	mov    $0x80551a0,%edx
 804be30:	8b 42 04             	mov    0x4(%edx),%eax
 804be33:	89 4a 04             	mov    %ecx,0x4(%edx)
 804be36:	5d                   	pop    %ebp
 804be37:	c3                   	ret    
 804be38:	90                   	nop
 804be39:	8d b4 26 00 00 00 00 	lea    0x0(%esi,%eiz,1),%esi
 804be40:	55                   	push   %ebp
 804be41:	89 e5                	mov    %esp,%ebp
 804be43:	56                   	push   %esi
 804be44:	53                   	push   %ebx
 804be45:	83 ec 10             	sub    $0x10,%esp
 804be48:	8b 35 28 51 05 08    	mov    0x8055128,%esi
 804be4e:	83 3d 2c 51 05 08 01 	cmpl   $0x1,0x805512c
 804be55:	76 20                	jbe    804be77 <exit@plt+0x2c5f>
 804be57:	bb 01 00 00 00       	mov    $0x1,%ebx
 804be5c:	8d 74 26 00          	lea    0x0(%esi,%eiz,1),%esi
 804be60:	8b 44 de 04          	mov    0x4(%esi,%ebx,8),%eax
 804be64:	83 c3 01             	add    $0x1,%ebx
 804be67:	89 04 24             	mov    %eax,(%esp)
 804be6a:	e8 89 d1 ff ff       	call   8048ff8 <free@plt>
 804be6f:	39 1d 2c 51 05 08    	cmp    %ebx,0x805512c
 804be75:	77 e9                	ja     804be60 <exit@plt+0x2c48>
 804be77:	8b 46 04             	mov    0x4(%esi),%eax
 804be7a:	3d e0 51 05 08       	cmp    $0x80551e0,%eax
 804be7f:	74 1c                	je     804be9d <exit@plt+0x2c85>
 804be81:	89 04 24             	mov    %eax,(%esp)
 804be84:	e8 6f d1 ff ff       	call   8048ff8 <free@plt>
 804be89:	c7 05 30 51 05 08 00 	movl   $0x100,0x8055130
 804be90:	01 00 00 
 804be93:	c7 05 34 51 05 08 e0 	movl   $0x80551e0,0x8055134
 804be9a:	51 05 08 
 804be9d:	81 fe 30 51 05 08    	cmp    $0x8055130,%esi
 804bea3:	74 12                	je     804beb7 <exit@plt+0x2c9f>
 804bea5:	89 34 24             	mov    %esi,(%esp)
 804bea8:	e8 4b d1 ff ff       	call   8048ff8 <free@plt>
 804bead:	c7 05 28 51 05 08 30 	movl   $0x8055130,0x8055128
 804beb4:	51 05 08 
 804beb7:	c7 05 2c 51 05 08 01 	movl   $0x1,0x805512c
 804bebe:	00 00 00 
 804bec1:	83 c4 10             	add    $0x10,%esp
 804bec4:	5b                   	pop    %ebx
 804bec5:	5e                   	pop    %esi
 804bec6:	5d                   	pop    %ebp
 804bec7:	c3                   	ret    
 804bec8:	90                   	nop
 804bec9:	8d b4 26 00 00 00 00 	lea    0x0(%esi,%eiz,1),%esi
 804bed0:	55                   	push   %ebp
 804bed1:	89 e5                	mov    %esp,%ebp
 804bed3:	83 ec 28             	sub    $0x28,%esp
 804bed6:	89 5d f4             	mov    %ebx,-0xc(%ebp)
 804bed9:	8b 5d 08             	mov    0x8(%ebp),%ebx
 804bedc:	89 75 f8             	mov    %esi,-0x8(%ebp)
 804bedf:	89 7d fc             	mov    %edi,-0x4(%ebp)
 804bee2:	e8 71 cf ff ff       	call   8048e58 <__errno_location@plt>
 804bee7:	85 db                	test   %ebx,%ebx
 804bee9:	89 c6                	mov    %eax,%esi
 804beeb:	8b 38                	mov    (%eax),%edi
 804beed:	74 21                	je     804bf10 <exit@plt+0x2cf8>
 804beef:	89 1c 24             	mov    %ebx,(%esp)
 804bef2:	c7 44 24 04 28 00 00 	movl   $0x28,0x4(%esp)
 804bef9:	00 
 804befa:	e8 a1 11 00 00       	call   804d0a0 <exit@plt+0x3e88>
 804beff:	89 3e                	mov    %edi,(%esi)
 804bf01:	8b 5d f4             	mov    -0xc(%ebp),%ebx
 804bf04:	8b 75 f8             	mov    -0x8(%ebp),%esi
 804bf07:	8b 7d fc             	mov    -0x4(%ebp),%edi
 804bf0a:	89 ec                	mov    %ebp,%esp
 804bf0c:	5d                   	pop    %ebp
 804bf0d:	c3                   	ret    
 804bf0e:	66 90                	xchg   %ax,%ax
 804bf10:	bb a0 51 05 08       	mov    $0x80551a0,%ebx
 804bf15:	eb d8                	jmp    804beef <exit@plt+0x2cd7>
 804bf17:	89 f6                	mov    %esi,%esi
 804bf19:	8d bc 27 00 00 00 00 	lea    0x0(%edi,%eiz,1),%edi
 804bf20:	55                   	push   %ebp
 804bf21:	89 e5                	mov    %esp,%ebp
 804bf23:	83 ec 30             	sub    $0x30,%esp
 804bf26:	8d 4d e0             	lea    -0x20(%ebp),%ecx
 804bf29:	89 55 d8             	mov    %edx,-0x28(%ebp)
 804bf2c:	31 d2                	xor    %edx,%edx
 804bf2e:	c7 45 dc 00 00 00 00 	movl   $0x0,-0x24(%ebp)
 804bf35:	c7 04 11 00 00 00 00 	movl   $0x0,(%ecx,%edx,1)
 804bf3c:	83 c2 04             	add    $0x4,%edx
 804bf3f:	83 fa 20             	cmp    $0x20,%edx
 804bf42:	72 f1                	jb     804bf35 <exit@plt+0x2d1d>
 804bf44:	8b 55 d8             	mov    -0x28(%ebp),%edx
 804bf47:	89 10                	mov    %edx,(%eax)
 804bf49:	8b 55 dc             	mov    -0x24(%ebp),%edx
 804bf4c:	89 50 04             	mov    %edx,0x4(%eax)
 804bf4f:	8b 55 e0             	mov    -0x20(%ebp),%edx
 804bf52:	89 50 08             	mov    %edx,0x8(%eax)
 804bf55:	8b 55 e4             	mov    -0x1c(%ebp),%edx
 804bf58:	89 50 0c             	mov    %edx,0xc(%eax)
 804bf5b:	8b 55 e8             	mov    -0x18(%ebp),%edx
 804bf5e:	89 50 10             	mov    %edx,0x10(%eax)
 804bf61:	8b 55 ec             	mov    -0x14(%ebp),%edx
 804bf64:	89 50 14             	mov    %edx,0x14(%eax)
 804bf67:	8b 55 f0             	mov    -0x10(%ebp),%edx
 804bf6a:	89 50 18             	mov    %edx,0x18(%eax)
 804bf6d:	8b 55 f4             	mov    -0xc(%ebp),%edx
 804bf70:	89 50 1c             	mov    %edx,0x1c(%eax)
 804bf73:	8b 55 f8             	mov    -0x8(%ebp),%edx
 804bf76:	89 50 20             	mov    %edx,0x20(%eax)
 804bf79:	8b 55 fc             	mov    -0x4(%ebp),%edx
 804bf7c:	89 50 24             	mov    %edx,0x24(%eax)
 804bf7f:	c9                   	leave  
 804bf80:	c3                   	ret    
 804bf81:	eb 0d                	jmp    804bf90 <exit@plt+0x2d78>
 804bf83:	90                   	nop
 804bf84:	90                   	nop
 804bf85:	90                   	nop
 804bf86:	90                   	nop
 804bf87:	90                   	nop
 804bf88:	90                   	nop
 804bf89:	90                   	nop
 804bf8a:	90                   	nop
 804bf8b:	90                   	nop
 804bf8c:	90                   	nop
 804bf8d:	90                   	nop
 804bf8e:	90                   	nop
 804bf8f:	90                   	nop
 804bf90:	55                   	push   %ebp
 804bf91:	89 e5                	mov    %esp,%ebp
 804bf93:	57                   	push   %edi
 804bf94:	56                   	push   %esi
 804bf95:	53                   	push   %ebx
 804bf96:	83 ec 7c             	sub    $0x7c,%esp
 804bf99:	89 45 c0             	mov    %eax,-0x40(%ebp)
 804bf9c:	89 55 c8             	mov    %edx,-0x38(%ebp)
 804bf9f:	89 4d c4             	mov    %ecx,-0x3c(%ebp)
 804bfa2:	e8 f1 ce ff ff       	call   8048e98 <__ctype_get_mb_cur_max@plt>
 804bfa7:	89 45 ac             	mov    %eax,-0x54(%ebp)
 804bfaa:	8b 45 10             	mov    0x10(%ebp),%eax
 804bfad:	d1 e8                	shr    %eax
 804bfaf:	83 e0 01             	and    $0x1,%eax
 804bfb2:	83 7d 0c 07          	cmpl   $0x7,0xc(%ebp)
 804bfb6:	88 45 bf             	mov    %al,-0x41(%ebp)
 804bfb9:	76 05                	jbe    804bfc0 <exit@plt+0x2da8>
 804bfbb:	e8 88 ce ff ff       	call   8048e48 <abort@plt>
 804bfc0:	8b 45 0c             	mov    0xc(%ebp),%eax
 804bfc3:	ff 24 85 40 2c 05 08 	jmp    *0x8052c40(,%eax,4)
 804bfca:	c6 45 bf 00          	movb   $0x0,-0x41(%ebp)
 804bfce:	31 db                	xor    %ebx,%ebx
 804bfd0:	c6 45 cf 01          	movb   $0x1,-0x31(%ebp)
 804bfd4:	c7 45 b8 00 00 00 00 	movl   $0x0,-0x48(%ebp)
 804bfdb:	c7 45 b0 00 00 00 00 	movl   $0x0,-0x50(%ebp)
 804bfe2:	8d b6 00 00 00 00    	lea    0x0(%esi),%esi
 804bfe8:	8b 75 10             	mov    0x10(%ebp),%esi
 804bfeb:	8b 7d 10             	mov    0x10(%ebp),%edi
 804bfee:	c7 45 d4 00 00 00 00 	movl   $0x0,-0x2c(%ebp)
 804bff5:	83 e6 04             	and    $0x4,%esi
 804bff8:	83 e7 01             	and    $0x1,%edi
 804bffb:	89 75 a4             	mov    %esi,-0x5c(%ebp)
 804bffe:	89 7d a8             	mov    %edi,-0x58(%ebp)
 804c001:	83 7d 08 ff          	cmpl   $0xffffffff,0x8(%ebp)
 804c005:	0f 84 3d 01 00 00    	je     804c148 <exit@plt+0x2f30>
 804c00b:	90                   	nop
 804c00c:	8d 74 26 00          	lea    0x0(%esi,%eiz,1),%esi
 804c010:	8b 45 08             	mov    0x8(%ebp),%eax
 804c013:	39 45 d4             	cmp    %eax,-0x2c(%ebp)
 804c016:	0f 95 c0             	setne  %al
 804c019:	84 c0                	test   %al,%al
 804c01b:	0f 84 3c 01 00 00    	je     804c15d <exit@plt+0x2f45>
 804c021:	80 7d cf 00          	cmpb   $0x0,-0x31(%ebp)
 804c025:	0f 85 ad 03 00 00    	jne    804c3d8 <exit@plt+0x31c0>
 804c02b:	8b 45 c4             	mov    -0x3c(%ebp),%eax
 804c02e:	03 45 d4             	add    -0x2c(%ebp),%eax
 804c031:	89 45 d0             	mov    %eax,-0x30(%ebp)
 804c034:	8b 4d d0             	mov    -0x30(%ebp),%ecx
 804c037:	0f b6 11             	movzbl (%ecx),%edx
 804c03a:	80 fa 7e             	cmp    $0x7e,%dl
 804c03d:	0f 86 b8 03 00 00    	jbe    804c3fb <exit@plt+0x31e3>
 804c043:	83 7d ac 01          	cmpl   $0x1,-0x54(%ebp)
 804c047:	0f 85 ab 06 00 00    	jne    804c6f8 <exit@plt+0x34e0>
 804c04d:	88 55 98             	mov    %dl,-0x68(%ebp)
 804c050:	be 01 00 00 00       	mov    $0x1,%esi
 804c055:	e8 de cf ff ff       	call   8049038 <__ctype_b_loc@plt>
 804c05a:	0f b6 55 98          	movzbl -0x68(%ebp),%edx
 804c05e:	0f b6 ca             	movzbl %dl,%ecx
 804c061:	8b 00                	mov    (%eax),%eax
 804c063:	0f b7 04 48          	movzwl (%eax,%ecx,2),%eax
 804c067:	c1 e8 0e             	shr    $0xe,%eax
 804c06a:	83 e0 01             	and    $0x1,%eax
 804c06d:	88 45 b4             	mov    %al,-0x4c(%ebp)
 804c070:	80 7d cf 00          	cmpb   $0x0,-0x31(%ebp)
 804c074:	0f 84 f6 03 00 00    	je     804c470 <exit@plt+0x3258>
 804c07a:	80 7d b4 00          	cmpb   $0x0,-0x4c(%ebp)
 804c07e:	0f 85 0c 03 00 00    	jne    804c390 <exit@plt+0x3178>
 804c084:	8d 74 26 00          	lea    0x0(%esi,%eiz,1),%esi
 804c088:	8b 7d d4             	mov    -0x2c(%ebp),%edi
 804c08b:	8b 45 d0             	mov    -0x30(%ebp),%eax
 804c08e:	8d 0c 3e             	lea    (%esi,%edi,1),%ecx
 804c091:	89 fe                	mov    %edi,%esi
 804c093:	89 4d 94             	mov    %ecx,-0x6c(%ebp)
 804c096:	eb 15                	jmp    804c0ad <exit@plt+0x2e95>
 804c098:	3b 5d c8             	cmp    -0x38(%ebp),%ebx
 804c09b:	73 06                	jae    804c0a3 <exit@plt+0x2e8b>
 804c09d:	8b 7d c0             	mov    -0x40(%ebp),%edi
 804c0a0:	88 14 1f             	mov    %dl,(%edi,%ebx,1)
 804c0a3:	0f b6 50 01          	movzbl 0x1(%eax),%edx
 804c0a7:	83 c3 01             	add    $0x1,%ebx
 804c0aa:	83 c0 01             	add    $0x1,%eax
 804c0ad:	80 7d cf 00          	cmpb   $0x0,-0x31(%ebp)
 804c0b1:	74 67                	je     804c11a <exit@plt+0x2f02>
 804c0b3:	80 7d b4 00          	cmpb   $0x0,-0x4c(%ebp)
 804c0b7:	75 61                	jne    804c11a <exit@plt+0x2f02>
 804c0b9:	80 7d bf 00          	cmpb   $0x0,-0x41(%ebp)
 804c0bd:	0f 85 5d 03 00 00    	jne    804c420 <exit@plt+0x3208>
 804c0c3:	3b 5d c8             	cmp    -0x38(%ebp),%ebx
 804c0c6:	73 07                	jae    804c0cf <exit@plt+0x2eb7>
 804c0c8:	8b 4d c0             	mov    -0x40(%ebp),%ecx
 804c0cb:	c6 04 19 5c          	movb   $0x5c,(%ecx,%ebx,1)
 804c0cf:	8d 7b 01             	lea    0x1(%ebx),%edi
 804c0d2:	39 7d c8             	cmp    %edi,-0x38(%ebp)
 804c0d5:	89 7d d4             	mov    %edi,-0x2c(%ebp)
 804c0d8:	76 11                	jbe    804c0eb <exit@plt+0x2ed3>
 804c0da:	89 d1                	mov    %edx,%ecx
 804c0dc:	c0 e9 06             	shr    $0x6,%cl
 804c0df:	89 cf                	mov    %ecx,%edi
 804c0e1:	8d 4f 30             	lea    0x30(%edi),%ecx
 804c0e4:	8b 7d c0             	mov    -0x40(%ebp),%edi
 804c0e7:	88 4c 1f 01          	mov    %cl,0x1(%edi,%ebx,1)
 804c0eb:	8b 4d d4             	mov    -0x2c(%ebp),%ecx
 804c0ee:	83 c1 01             	add    $0x1,%ecx
 804c0f1:	39 4d c8             	cmp    %ecx,-0x38(%ebp)
 804c0f4:	89 4d a0             	mov    %ecx,-0x60(%ebp)
 804c0f7:	76 15                	jbe    804c10e <exit@plt+0x2ef6>
 804c0f9:	89 d3                	mov    %edx,%ebx
 804c0fb:	8b 4d c0             	mov    -0x40(%ebp),%ecx
 804c0fe:	8b 7d d4             	mov    -0x2c(%ebp),%edi
 804c101:	c0 eb 03             	shr    $0x3,%bl
 804c104:	83 e3 07             	and    $0x7,%ebx
 804c107:	83 c3 30             	add    $0x30,%ebx
 804c10a:	88 5c 39 01          	mov    %bl,0x1(%ecx,%edi,1)
 804c10e:	8b 5d a0             	mov    -0x60(%ebp),%ebx
 804c111:	83 e2 07             	and    $0x7,%edx
 804c114:	83 c2 30             	add    $0x30,%edx
 804c117:	83 c3 01             	add    $0x1,%ebx
 804c11a:	83 c6 01             	add    $0x1,%esi
 804c11d:	39 75 94             	cmp    %esi,-0x6c(%ebp)
 804c120:	0f 87 72 ff ff ff    	ja     804c098 <exit@plt+0x2e80>
 804c126:	89 75 d4             	mov    %esi,-0x2c(%ebp)
 804c129:	8d b4 26 00 00 00 00 	lea    0x0(%esi,%eiz,1),%esi
 804c130:	3b 5d c8             	cmp    -0x38(%ebp),%ebx
 804c133:	73 06                	jae    804c13b <exit@plt+0x2f23>
 804c135:	8b 4d c0             	mov    -0x40(%ebp),%ecx
 804c138:	88 14 19             	mov    %dl,(%ecx,%ebx,1)
 804c13b:	83 c3 01             	add    $0x1,%ebx
 804c13e:	83 7d 08 ff          	cmpl   $0xffffffff,0x8(%ebp)
 804c142:	0f 85 c8 fe ff ff    	jne    804c010 <exit@plt+0x2df8>
 804c148:	8b 7d c4             	mov    -0x3c(%ebp),%edi
 804c14b:	8b 75 d4             	mov    -0x2c(%ebp),%esi
 804c14e:	80 3c 37 00          	cmpb   $0x0,(%edi,%esi,1)
 804c152:	0f 95 c0             	setne  %al
 804c155:	84 c0                	test   %al,%al
 804c157:	0f 85 c4 fe ff ff    	jne    804c021 <exit@plt+0x2e09>
 804c15d:	85 db                	test   %ebx,%ebx
 804c15f:	75 15                	jne    804c176 <exit@plt+0x2f5e>
 804c161:	83 7d 0c 02          	cmpl   $0x2,0xc(%ebp)
 804c165:	75 0f                	jne    804c176 <exit@plt+0x2f5e>
 804c167:	80 7d bf 00          	cmpb   $0x0,-0x41(%ebp)
 804c16b:	90                   	nop
 804c16c:	8d 74 26 00          	lea    0x0(%esi,%eiz,1),%esi
 804c170:	0f 85 aa 02 00 00    	jne    804c420 <exit@plt+0x3208>
 804c176:	8b 45 b0             	mov    -0x50(%ebp),%eax
 804c179:	85 c0                	test   %eax,%eax
 804c17b:	74 31                	je     804c1ae <exit@plt+0x2f96>
 804c17d:	80 7d bf 00          	cmpb   $0x0,-0x41(%ebp)
 804c181:	75 2b                	jne    804c1ae <exit@plt+0x2f96>
 804c183:	8b 55 b0             	mov    -0x50(%ebp),%edx
 804c186:	0f b6 02             	movzbl (%edx),%eax
 804c189:	84 c0                	test   %al,%al
 804c18b:	74 21                	je     804c1ae <exit@plt+0x2f96>
 804c18d:	8b 55 c0             	mov    -0x40(%ebp),%edx
 804c190:	8b 4d b0             	mov    -0x50(%ebp),%ecx
 804c193:	8b 75 c8             	mov    -0x38(%ebp),%esi
 804c196:	01 da                	add    %ebx,%edx
 804c198:	39 de                	cmp    %ebx,%esi
 804c19a:	76 02                	jbe    804c19e <exit@plt+0x2f86>
 804c19c:	88 02                	mov    %al,(%edx)
 804c19e:	83 c1 01             	add    $0x1,%ecx
 804c1a1:	83 c3 01             	add    $0x1,%ebx
 804c1a4:	0f b6 01             	movzbl (%ecx),%eax
 804c1a7:	83 c2 01             	add    $0x1,%edx
 804c1aa:	84 c0                	test   %al,%al
 804c1ac:	75 ea                	jne    804c198 <exit@plt+0x2f80>
 804c1ae:	3b 5d c8             	cmp    -0x38(%ebp),%ebx
 804c1b1:	0f 83 98 02 00 00    	jae    804c44f <exit@plt+0x3237>
 804c1b7:	8b 4d c0             	mov    -0x40(%ebp),%ecx
 804c1ba:	89 d8                	mov    %ebx,%eax
 804c1bc:	c6 04 19 00          	movb   $0x0,(%ecx,%ebx,1)
 804c1c0:	83 c4 7c             	add    $0x7c,%esp
 804c1c3:	5b                   	pop    %ebx
 804c1c4:	5e                   	pop    %esi
 804c1c5:	5f                   	pop    %edi
 804c1c6:	5d                   	pop    %ebp
 804c1c7:	c3                   	ret    
 804c1c8:	c7 44 24 08 05 00 00 	movl   $0x5,0x8(%esp)
 804c1cf:	00 
 804c1d0:	c7 44 24 04 f1 2b 05 	movl   $0x8052bf1,0x4(%esp)
 804c1d7:	08 
 804c1d8:	c7 04 24 00 00 00 00 	movl   $0x0,(%esp)
 804c1df:	e8 24 ce ff ff       	call   8049008 <dcgettext@plt>
 804c1e4:	83 7d 0c 07          	cmpl   $0x7,0xc(%ebp)
 804c1e8:	0f 94 c3             	sete   %bl
 804c1eb:	3d f1 2b 05 08       	cmp    $0x8052bf1,%eax
 804c1f0:	89 c6                	mov    %eax,%esi
 804c1f2:	75 08                	jne    804c1fc <exit@plt+0x2fe4>
 804c1f4:	84 db                	test   %bl,%bl
 804c1f6:	0f 85 40 01 00 00    	jne    804c33c <exit@plt+0x3124>
 804c1fc:	c7 44 24 08 05 00 00 	movl   $0x5,0x8(%esp)
 804c203:	00 
 804c204:	c7 44 24 04 2a 28 05 	movl   $0x805282a,0x4(%esp)
 804c20b:	08 
 804c20c:	c7 04 24 00 00 00 00 	movl   $0x0,(%esp)
 804c213:	e8 f0 cd ff ff       	call   8049008 <dcgettext@plt>
 804c218:	3d 2a 28 05 08       	cmp    $0x805282a,%eax
 804c21d:	89 c7                	mov    %eax,%edi
 804c21f:	75 08                	jne    804c229 <exit@plt+0x3011>
 804c221:	84 db                	test   %bl,%bl
 804c223:	0f 85 1d 01 00 00    	jne    804c346 <exit@plt+0x312e>
 804c229:	80 7d bf 00          	cmpb   $0x0,-0x41(%ebp)
 804c22d:	0f 85 06 06 00 00    	jne    804c839 <exit@plt+0x3621>
 804c233:	0f b6 06             	movzbl (%esi),%eax
 804c236:	84 c0                	test   %al,%al
 804c238:	0f 84 fb 05 00 00    	je     804c839 <exit@plt+0x3621>
 804c23e:	8b 4d c0             	mov    -0x40(%ebp),%ecx
 804c241:	31 db                	xor    %ebx,%ebx
 804c243:	8b 55 c8             	mov    -0x38(%ebp),%edx
 804c246:	66 90                	xchg   %ax,%ax
 804c248:	39 da                	cmp    %ebx,%edx
 804c24a:	76 03                	jbe    804c24f <exit@plt+0x3037>
 804c24c:	88 04 19             	mov    %al,(%ecx,%ebx,1)
 804c24f:	83 c3 01             	add    $0x1,%ebx
 804c252:	0f b6 04 1e          	movzbl (%esi,%ebx,1),%eax
 804c256:	84 c0                	test   %al,%al
 804c258:	75 ee                	jne    804c248 <exit@plt+0x3030>
 804c25a:	89 3c 24             	mov    %edi,(%esp)
 804c25d:	e8 16 ce ff ff       	call   8049078 <strlen@plt>
 804c262:	89 7d b0             	mov    %edi,-0x50(%ebp)
 804c265:	c6 45 cf 01          	movb   $0x1,-0x31(%ebp)
 804c269:	89 45 b8             	mov    %eax,-0x48(%ebp)
 804c26c:	e9 77 fd ff ff       	jmp    804bfe8 <exit@plt+0x2dd0>
 804c271:	c6 45 bf 00          	movb   $0x0,-0x41(%ebp)
 804c275:	31 db                	xor    %ebx,%ebx
 804c277:	c6 45 cf 00          	movb   $0x0,-0x31(%ebp)
 804c27b:	c7 45 b8 00 00 00 00 	movl   $0x0,-0x48(%ebp)
 804c282:	c7 45 b0 00 00 00 00 	movl   $0x0,-0x50(%ebp)
 804c289:	e9 5a fd ff ff       	jmp    804bfe8 <exit@plt+0x2dd0>
 804c28e:	c6 45 bf 01          	movb   $0x1,-0x41(%ebp)
 804c292:	31 db                	xor    %ebx,%ebx
 804c294:	c6 45 cf 00          	movb   $0x0,-0x31(%ebp)
 804c298:	c7 45 b8 01 00 00 00 	movl   $0x1,-0x48(%ebp)
 804c29f:	c7 45 b0 2a 28 05 08 	movl   $0x805282a,-0x50(%ebp)
 804c2a6:	c7 45 0c 02 00 00 00 	movl   $0x2,0xc(%ebp)
 804c2ad:	e9 36 fd ff ff       	jmp    804bfe8 <exit@plt+0x2dd0>
 804c2b2:	80 7d bf 00          	cmpb   $0x0,-0x41(%ebp)
 804c2b6:	0f 85 fa 05 00 00    	jne    804c8b6 <exit@plt+0x369e>
 804c2bc:	8b 7d c8             	mov    -0x38(%ebp),%edi
 804c2bf:	85 ff                	test   %edi,%edi
 804c2c1:	74 06                	je     804c2c9 <exit@plt+0x30b1>
 804c2c3:	8b 4d c0             	mov    -0x40(%ebp),%ecx
 804c2c6:	c6 01 27             	movb   $0x27,(%ecx)
 804c2c9:	c6 45 cf 00          	movb   $0x0,-0x31(%ebp)
 804c2cd:	bb 01 00 00 00       	mov    $0x1,%ebx
 804c2d2:	c7 45 b8 01 00 00 00 	movl   $0x1,-0x48(%ebp)
 804c2d9:	c7 45 b0 2a 28 05 08 	movl   $0x805282a,-0x50(%ebp)
 804c2e0:	e9 03 fd ff ff       	jmp    804bfe8 <exit@plt+0x2dd0>
 804c2e5:	80 7d bf 00          	cmpb   $0x0,-0x41(%ebp)
 804c2e9:	0f 85 ae 05 00 00    	jne    804c89d <exit@plt+0x3685>
 804c2ef:	8b 45 c8             	mov    -0x38(%ebp),%eax
 804c2f2:	85 c0                	test   %eax,%eax
 804c2f4:	74 06                	je     804c2fc <exit@plt+0x30e4>
 804c2f6:	8b 55 c0             	mov    -0x40(%ebp),%edx
 804c2f9:	c6 02 22             	movb   $0x22,(%edx)
 804c2fc:	c6 45 cf 01          	movb   $0x1,-0x31(%ebp)
 804c300:	bb 01 00 00 00       	mov    $0x1,%ebx
 804c305:	c7 45 b8 01 00 00 00 	movl   $0x1,-0x48(%ebp)
 804c30c:	c7 45 b0 ef 2b 05 08 	movl   $0x8052bef,-0x50(%ebp)
 804c313:	e9 d0 fc ff ff       	jmp    804bfe8 <exit@plt+0x2dd0>
 804c318:	c6 45 bf 01          	movb   $0x1,-0x41(%ebp)
 804c31c:	31 db                	xor    %ebx,%ebx
 804c31e:	c6 45 cf 01          	movb   $0x1,-0x31(%ebp)
 804c322:	c7 45 b8 01 00 00 00 	movl   $0x1,-0x48(%ebp)
 804c329:	c7 45 b0 ef 2b 05 08 	movl   $0x8052bef,-0x50(%ebp)
 804c330:	c7 45 0c 03 00 00 00 	movl   $0x3,0xc(%ebp)
 804c337:	e9 ac fc ff ff       	jmp    804bfe8 <exit@plt+0x2dd0>
 804c33c:	be ef 2b 05 08       	mov    $0x8052bef,%esi
 804c341:	e9 b6 fe ff ff       	jmp    804c1fc <exit@plt+0x2fe4>
 804c346:	bf ef 2b 05 08       	mov    $0x8052bef,%edi
 804c34b:	e9 d9 fe ff ff       	jmp    804c229 <exit@plt+0x3011>
 804c350:	83 7d 08 ff          	cmpl   $0xffffffff,0x8(%ebp)
 804c354:	0f 84 7e 04 00 00    	je     804c7d8 <exit@plt+0x35c0>
 804c35a:	83 7d 08 01          	cmpl   $0x1,0x8(%ebp)
 804c35e:	0f 95 c0             	setne  %al
 804c361:	84 c0                	test   %al,%al
 804c363:	75 1b                	jne    804c380 <exit@plt+0x3168>
 804c365:	8b 75 d4             	mov    -0x2c(%ebp),%esi
 804c368:	85 f6                	test   %esi,%esi
 804c36a:	75 14                	jne    804c380 <exit@plt+0x3168>
 804c36c:	83 7d 0c 02          	cmpl   $0x2,0xc(%ebp)
 804c370:	75 0e                	jne    804c380 <exit@plt+0x3168>
 804c372:	80 7d bf 00          	cmpb   $0x0,-0x41(%ebp)
 804c376:	0f 85 a4 00 00 00    	jne    804c420 <exit@plt+0x3208>
 804c37c:	8d 74 26 00          	lea    0x0(%esi,%eiz,1),%esi
 804c380:	8b 45 d4             	mov    -0x2c(%ebp),%eax
 804c383:	80 7d cf 00          	cmpb   $0x0,-0x31(%ebp)
 804c387:	0f 84 e6 00 00 00    	je     804c473 <exit@plt+0x325b>
 804c38d:	89 45 d4             	mov    %eax,-0x2c(%ebp)
 804c390:	8b 4d 14             	mov    0x14(%ebp),%ecx
 804c393:	85 c9                	test   %ecx,%ecx
 804c395:	74 31                	je     804c3c8 <exit@plt+0x31b0>
 804c397:	8b 7d 14             	mov    0x14(%ebp),%edi
 804c39a:	89 d0                	mov    %edx,%eax
 804c39c:	89 d1                	mov    %edx,%ecx
 804c39e:	c0 e8 05             	shr    $0x5,%al
 804c3a1:	83 e1 1f             	and    $0x1f,%ecx
 804c3a4:	0f b6 c0             	movzbl %al,%eax
 804c3a7:	be 01 00 00 00       	mov    $0x1,%esi
 804c3ac:	d3 e6                	shl    %cl,%esi
 804c3ae:	85 34 87             	test   %esi,(%edi,%eax,4)
 804c3b1:	74 15                	je     804c3c8 <exit@plt+0x31b0>
 804c3b3:	80 7d bf 00          	cmpb   $0x0,-0x41(%ebp)
 804c3b7:	75 67                	jne    804c420 <exit@plt+0x3208>
 804c3b9:	3b 5d c8             	cmp    -0x38(%ebp),%ebx
 804c3bc:	73 07                	jae    804c3c5 <exit@plt+0x31ad>
 804c3be:	8b 45 c0             	mov    -0x40(%ebp),%eax
 804c3c1:	c6 04 18 5c          	movb   $0x5c,(%eax,%ebx,1)
 804c3c5:	83 c3 01             	add    $0x1,%ebx
 804c3c8:	83 45 d4 01          	addl   $0x1,-0x2c(%ebp)
 804c3cc:	e9 5f fd ff ff       	jmp    804c130 <exit@plt+0x2f18>
 804c3d1:	8d b4 26 00 00 00 00 	lea    0x0(%esi,%eiz,1),%esi
 804c3d8:	8b 75 b8             	mov    -0x48(%ebp),%esi
 804c3db:	85 f6                	test   %esi,%esi
 804c3dd:	0f 85 b5 02 00 00    	jne    804c698 <exit@plt+0x3480>
 804c3e3:	8b 55 c4             	mov    -0x3c(%ebp),%edx
 804c3e6:	03 55 d4             	add    -0x2c(%ebp),%edx
 804c3e9:	89 55 d0             	mov    %edx,-0x30(%ebp)
 804c3ec:	8b 4d d0             	mov    -0x30(%ebp),%ecx
 804c3ef:	0f b6 11             	movzbl (%ecx),%edx
 804c3f2:	80 fa 7e             	cmp    $0x7e,%dl
 804c3f5:	0f 87 48 fc ff ff    	ja     804c043 <exit@plt+0x2e2b>
 804c3fb:	0f b6 c2             	movzbl %dl,%eax
 804c3fe:	ff 24 85 60 2c 05 08 	jmp    *0x8052c60(,%eax,4)
 804c405:	8d 76 00             	lea    0x0(%esi),%esi
 804c408:	b8 66 00 00 00       	mov    $0x66,%eax
 804c40d:	8d 76 00             	lea    0x0(%esi),%esi
 804c410:	80 7d cf 00          	cmpb   $0x0,-0x31(%ebp)
 804c414:	74 5a                	je     804c470 <exit@plt+0x3258>
 804c416:	80 7d bf 00          	cmpb   $0x0,-0x41(%ebp)
 804c41a:	89 c2                	mov    %eax,%edx
 804c41c:	74 9b                	je     804c3b9 <exit@plt+0x31a1>
 804c41e:	66 90                	xchg   %ax,%ax
 804c420:	c7 44 24 0c 00 00 00 	movl   $0x0,0xc(%esp)
 804c427:	00 
 804c428:	8b 45 10             	mov    0x10(%ebp),%eax
 804c42b:	83 e0 fd             	and    $0xfffffffd,%eax
 804c42e:	89 44 24 08          	mov    %eax,0x8(%esp)
 804c432:	8b 5d 0c             	mov    0xc(%ebp),%ebx
 804c435:	89 5c 24 04          	mov    %ebx,0x4(%esp)
 804c439:	8b 75 08             	mov    0x8(%ebp),%esi
 804c43c:	89 34 24             	mov    %esi,(%esp)
 804c43f:	8b 4d c4             	mov    -0x3c(%ebp),%ecx
 804c442:	8b 55 c8             	mov    -0x38(%ebp),%edx
 804c445:	8b 45 c0             	mov    -0x40(%ebp),%eax
 804c448:	e8 43 fb ff ff       	call   804bf90 <exit@plt+0x2d78>
 804c44d:	89 c3                	mov    %eax,%ebx
 804c44f:	83 c4 7c             	add    $0x7c,%esp
 804c452:	89 d8                	mov    %ebx,%eax
 804c454:	5b                   	pop    %ebx
 804c455:	5e                   	pop    %esi
 804c456:	5f                   	pop    %edi
 804c457:	5d                   	pop    %ebp
 804c458:	c3                   	ret    
 804c459:	8d b4 26 00 00 00 00 	lea    0x0(%esi,%eiz,1),%esi
 804c460:	80 7d cf 00          	cmpb   $0x0,-0x31(%ebp)
 804c464:	b8 76 00 00 00       	mov    $0x76,%eax
 804c469:	75 ab                	jne    804c416 <exit@plt+0x31fe>
 804c46b:	90                   	nop
 804c46c:	8d 74 26 00          	lea    0x0(%esi,%eiz,1),%esi
 804c470:	8b 45 d4             	mov    -0x2c(%ebp),%eax
 804c473:	80 7d bf 00          	cmpb   $0x0,-0x41(%ebp)
 804c477:	0f 85 10 ff ff ff    	jne    804c38d <exit@plt+0x3175>
 804c47d:	83 c0 01             	add    $0x1,%eax
 804c480:	89 45 d4             	mov    %eax,-0x2c(%ebp)
 804c483:	e9 a8 fc ff ff       	jmp    804c130 <exit@plt+0x2f18>
 804c488:	b8 72 00 00 00       	mov    $0x72,%eax
 804c48d:	83 7d 0c 02          	cmpl   $0x2,0xc(%ebp)
 804c491:	0f 85 79 ff ff ff    	jne    804c410 <exit@plt+0x31f8>
 804c497:	80 7d bf 00          	cmpb   $0x0,-0x41(%ebp)
 804c49b:	0f 84 6f ff ff ff    	je     804c410 <exit@plt+0x31f8>
 804c4a1:	e9 7a ff ff ff       	jmp    804c420 <exit@plt+0x3208>
 804c4a6:	66 90                	xchg   %ax,%ax
 804c4a8:	b8 6e 00 00 00       	mov    $0x6e,%eax
 804c4ad:	8d 76 00             	lea    0x0(%esi),%esi
 804c4b0:	eb db                	jmp    804c48d <exit@plt+0x3275>
 804c4b2:	8d b6 00 00 00 00    	lea    0x0(%esi),%esi
 804c4b8:	b8 74 00 00 00       	mov    $0x74,%eax
 804c4bd:	8d 76 00             	lea    0x0(%esi),%esi
 804c4c0:	eb cb                	jmp    804c48d <exit@plt+0x3275>
 804c4c2:	8d b6 00 00 00 00    	lea    0x0(%esi),%esi
 804c4c8:	b8 62 00 00 00       	mov    $0x62,%eax
 804c4cd:	8d 76 00             	lea    0x0(%esi),%esi
 804c4d0:	e9 3b ff ff ff       	jmp    804c410 <exit@plt+0x31f8>
 804c4d5:	8d 76 00             	lea    0x0(%esi),%esi
 804c4d8:	b8 61 00 00 00       	mov    $0x61,%eax
 804c4dd:	8d 76 00             	lea    0x0(%esi),%esi
 804c4e0:	e9 2b ff ff ff       	jmp    804c410 <exit@plt+0x31f8>
 804c4e5:	8d 76 00             	lea    0x0(%esi),%esi
 804c4e8:	80 7d cf 00          	cmpb   $0x0,-0x31(%ebp)
 804c4ec:	8d 74 26 00          	lea    0x0(%esi,%eiz,1),%esi
 804c4f0:	0f 84 ba 02 00 00    	je     804c7b0 <exit@plt+0x3598>
 804c4f6:	80 7d bf 00          	cmpb   $0x0,-0x41(%ebp)
 804c4fa:	0f 85 20 ff ff ff    	jne    804c420 <exit@plt+0x3208>
 804c500:	3b 5d c8             	cmp    -0x38(%ebp),%ebx
 804c503:	73 07                	jae    804c50c <exit@plt+0x32f4>
 804c505:	8b 75 c0             	mov    -0x40(%ebp),%esi
 804c508:	c6 04 1e 5c          	movb   $0x5c,(%esi,%ebx,1)
 804c50c:	8b 45 d4             	mov    -0x2c(%ebp),%eax
 804c50f:	83 c3 01             	add    $0x1,%ebx
 804c512:	83 c0 01             	add    $0x1,%eax
 804c515:	39 45 08             	cmp    %eax,0x8(%ebp)
 804c518:	0f 86 aa 02 00 00    	jbe    804c7c8 <exit@plt+0x35b0>
 804c51e:	8b 55 c4             	mov    -0x3c(%ebp),%edx
 804c521:	8b 7d d4             	mov    -0x2c(%ebp),%edi
 804c524:	0f b6 44 3a 01       	movzbl 0x1(%edx,%edi,1),%eax
 804c529:	3c 2f                	cmp    $0x2f,%al
 804c52b:	0f 8e 97 02 00 00    	jle    804c7c8 <exit@plt+0x35b0>
 804c531:	3c 39                	cmp    $0x39,%al
 804c533:	0f 8f 8f 02 00 00    	jg     804c7c8 <exit@plt+0x35b0>
 804c539:	39 5d c8             	cmp    %ebx,-0x38(%ebp)
 804c53c:	76 07                	jbe    804c545 <exit@plt+0x332d>
 804c53e:	8b 4d c0             	mov    -0x40(%ebp),%ecx
 804c541:	c6 04 19 30          	movb   $0x30,(%ecx,%ebx,1)
 804c545:	8d 43 01             	lea    0x1(%ebx),%eax
 804c548:	39 45 c8             	cmp    %eax,-0x38(%ebp)
 804c54b:	76 08                	jbe    804c555 <exit@plt+0x333d>
 804c54d:	8b 75 c0             	mov    -0x40(%ebp),%esi
 804c550:	c6 44 1e 01 30       	movb   $0x30,0x1(%esi,%ebx,1)
 804c555:	8d 58 01             	lea    0x1(%eax),%ebx
 804c558:	ba 30 00 00 00       	mov    $0x30,%edx
 804c55d:	e9 2e fe ff ff       	jmp    804c390 <exit@plt+0x3178>
 804c562:	8d b6 00 00 00 00    	lea    0x0(%esi),%esi
 804c568:	80 7d cf 00          	cmpb   $0x0,-0x31(%ebp)
 804c56c:	74 12                	je     804c580 <exit@plt+0x3368>
 804c56e:	80 7d bf 00          	cmpb   $0x0,-0x41(%ebp)
 804c572:	74 0c                	je     804c580 <exit@plt+0x3368>
 804c574:	8b 7d b8             	mov    -0x48(%ebp),%edi
 804c577:	85 ff                	test   %edi,%edi
 804c579:	0f 85 49 fe ff ff    	jne    804c3c8 <exit@plt+0x31b0>
 804c57f:	90                   	nop
 804c580:	b8 5c 00 00 00       	mov    $0x5c,%eax
 804c585:	e9 03 ff ff ff       	jmp    804c48d <exit@plt+0x3275>
 804c58a:	8d b6 00 00 00 00    	lea    0x0(%esi),%esi
 804c590:	83 7d 0c 02          	cmpl   $0x2,0xc(%ebp)
 804c594:	0f 84 d8 fd ff ff    	je     804c372 <exit@plt+0x315a>
 804c59a:	83 7d 0c 03          	cmpl   $0x3,0xc(%ebp)
 804c59e:	66 90                	xchg   %ax,%ax
 804c5a0:	0f 85 da fd ff ff    	jne    804c380 <exit@plt+0x3168>
 804c5a6:	8b 45 a4             	mov    -0x5c(%ebp),%eax
 804c5a9:	85 c0                	test   %eax,%eax
 804c5ab:	0f 84 cf fd ff ff    	je     804c380 <exit@plt+0x3168>
 804c5b1:	8b 45 d4             	mov    -0x2c(%ebp),%eax
 804c5b4:	83 c0 02             	add    $0x2,%eax
 804c5b7:	39 45 08             	cmp    %eax,0x8(%ebp)
 804c5ba:	0f 86 c0 fd ff ff    	jbe    804c380 <exit@plt+0x3168>
 804c5c0:	8b 4d c4             	mov    -0x3c(%ebp),%ecx
 804c5c3:	8b 7d d4             	mov    -0x2c(%ebp),%edi
 804c5c6:	80 7c 39 01 3f       	cmpb   $0x3f,0x1(%ecx,%edi,1)
 804c5cb:	0f 85 af fd ff ff    	jne    804c380 <exit@plt+0x3168>
 804c5d1:	0f b6 34 01          	movzbl (%ecx,%eax,1),%esi
 804c5d5:	8d 4e df             	lea    -0x21(%esi),%ecx
 804c5d8:	80 f9 1d             	cmp    $0x1d,%cl
 804c5db:	0f 87 9f fd ff ff    	ja     804c380 <exit@plt+0x3168>
 804c5e1:	bf 01 00 00 00       	mov    $0x1,%edi
 804c5e6:	d3 e7                	shl    %cl,%edi
 804c5e8:	89 f9                	mov    %edi,%ecx
 804c5ea:	81 e1 c1 51 00 38    	and    $0x380051c1,%ecx
 804c5f0:	0f 84 8a fd ff ff    	je     804c380 <exit@plt+0x3168>
 804c5f6:	80 7d bf 00          	cmpb   $0x0,-0x41(%ebp)
 804c5fa:	0f 85 20 fe ff ff    	jne    804c420 <exit@plt+0x3208>
 804c600:	3b 5d c8             	cmp    -0x38(%ebp),%ebx
 804c603:	73 07                	jae    804c60c <exit@plt+0x33f4>
 804c605:	8b 55 c0             	mov    -0x40(%ebp),%edx
 804c608:	c6 04 1a 3f          	movb   $0x3f,(%edx,%ebx,1)
 804c60c:	8d 4b 01             	lea    0x1(%ebx),%ecx
 804c60f:	39 4d c8             	cmp    %ecx,-0x38(%ebp)
 804c612:	76 08                	jbe    804c61c <exit@plt+0x3404>
 804c614:	8b 7d c0             	mov    -0x40(%ebp),%edi
 804c617:	c6 44 1f 01 22       	movb   $0x22,0x1(%edi,%ebx,1)
 804c61c:	8d 51 01             	lea    0x1(%ecx),%edx
 804c61f:	39 55 c8             	cmp    %edx,-0x38(%ebp)
 804c622:	76 08                	jbe    804c62c <exit@plt+0x3414>
 804c624:	8b 5d c0             	mov    -0x40(%ebp),%ebx
 804c627:	c6 44 0b 01 22       	movb   $0x22,0x1(%ebx,%ecx,1)
 804c62c:	8d 5a 01             	lea    0x1(%edx),%ebx
 804c62f:	39 5d c8             	cmp    %ebx,-0x38(%ebp)
 804c632:	76 08                	jbe    804c63c <exit@plt+0x3424>
 804c634:	8b 7d c0             	mov    -0x40(%ebp),%edi
 804c637:	c6 44 17 01 3f       	movb   $0x3f,0x1(%edi,%edx,1)
 804c63c:	89 f2                	mov    %esi,%edx
 804c63e:	83 c3 01             	add    $0x1,%ebx
 804c641:	e9 3d fd ff ff       	jmp    804c383 <exit@plt+0x316b>
 804c646:	66 90                	xchg   %ax,%ax
 804c648:	83 7d 0c 02          	cmpl   $0x2,0xc(%ebp)
 804c64c:	0f 85 2e fd ff ff    	jne    804c380 <exit@plt+0x3168>
 804c652:	80 7d bf 00          	cmpb   $0x0,-0x41(%ebp)
 804c656:	0f 85 c4 fd ff ff    	jne    804c420 <exit@plt+0x3208>
 804c65c:	3b 5d c8             	cmp    -0x38(%ebp),%ebx
 804c65f:	90                   	nop
 804c660:	73 07                	jae    804c669 <exit@plt+0x3451>
 804c662:	8b 4d c0             	mov    -0x40(%ebp),%ecx
 804c665:	c6 04 19 27          	movb   $0x27,(%ecx,%ebx,1)
 804c669:	8d 43 01             	lea    0x1(%ebx),%eax
 804c66c:	39 45 c8             	cmp    %eax,-0x38(%ebp)
 804c66f:	76 08                	jbe    804c679 <exit@plt+0x3461>
 804c671:	8b 75 c0             	mov    -0x40(%ebp),%esi
 804c674:	c6 44 1e 01 5c       	movb   $0x5c,0x1(%esi,%ebx,1)
 804c679:	8d 58 01             	lea    0x1(%eax),%ebx
 804c67c:	39 5d c8             	cmp    %ebx,-0x38(%ebp)
 804c67f:	76 08                	jbe    804c689 <exit@plt+0x3471>
 804c681:	8b 7d c0             	mov    -0x40(%ebp),%edi
 804c684:	c6 44 07 01 27       	movb   $0x27,0x1(%edi,%eax,1)
 804c689:	83 c3 01             	add    $0x1,%ebx
 804c68c:	8b 45 d4             	mov    -0x2c(%ebp),%eax
 804c68f:	e9 ef fc ff ff       	jmp    804c383 <exit@plt+0x316b>
 804c694:	8d 74 26 00          	lea    0x0(%esi,%eiz,1),%esi
 804c698:	8b 45 d4             	mov    -0x2c(%ebp),%eax
 804c69b:	03 45 b8             	add    -0x48(%ebp),%eax
 804c69e:	39 45 08             	cmp    %eax,0x8(%ebp)
 804c6a1:	73 15                	jae    804c6b8 <exit@plt+0x34a0>
 804c6a3:	8b 4d c4             	mov    -0x3c(%ebp),%ecx
 804c6a6:	03 4d d4             	add    -0x2c(%ebp),%ecx
 804c6a9:	89 4d d0             	mov    %ecx,-0x30(%ebp)
 804c6ac:	e9 83 f9 ff ff       	jmp    804c034 <exit@plt+0x2e1c>
 804c6b1:	8d b4 26 00 00 00 00 	lea    0x0(%esi,%eiz,1),%esi
 804c6b8:	8b 7d b8             	mov    -0x48(%ebp),%edi
 804c6bb:	8b 75 c4             	mov    -0x3c(%ebp),%esi
 804c6be:	03 75 d4             	add    -0x2c(%ebp),%esi
 804c6c1:	8b 4d b8             	mov    -0x48(%ebp),%ecx
 804c6c4:	39 ff                	cmp    %edi,%edi
 804c6c6:	8b 7d b0             	mov    -0x50(%ebp),%edi
 804c6c9:	89 75 d0             	mov    %esi,-0x30(%ebp)
 804c6cc:	f3 a6                	repz cmpsb %es:(%edi),%ds:(%esi)
 804c6ce:	0f 85 60 f9 ff ff    	jne    804c034 <exit@plt+0x2e1c>
 804c6d4:	80 7d bf 00          	cmpb   $0x0,-0x41(%ebp)
 804c6d8:	0f 85 42 fd ff ff    	jne    804c420 <exit@plt+0x3208>
 804c6de:	3b 5d c8             	cmp    -0x38(%ebp),%ebx
 804c6e1:	73 07                	jae    804c6ea <exit@plt+0x34d2>
 804c6e3:	8b 45 c0             	mov    -0x40(%ebp),%eax
 804c6e6:	c6 04 18 5c          	movb   $0x5c,(%eax,%ebx,1)
 804c6ea:	83 c3 01             	add    $0x1,%ebx
 804c6ed:	e9 42 f9 ff ff       	jmp    804c034 <exit@plt+0x2e1c>
 804c6f2:	8d b6 00 00 00 00    	lea    0x0(%esi),%esi
 804c6f8:	83 7d 08 ff          	cmpl   $0xffffffff,0x8(%ebp)
 804c6fc:	c7 45 dc 00 00 00 00 	movl   $0x0,-0x24(%ebp)
 804c703:	c7 45 e0 00 00 00 00 	movl   $0x0,-0x20(%ebp)
 804c70a:	0f 84 0f 01 00 00    	je     804c81f <exit@plt+0x3607>
 804c710:	c6 45 b4 01          	movb   $0x1,-0x4c(%ebp)
 804c714:	31 f6                	xor    %esi,%esi
 804c716:	89 5d a0             	mov    %ebx,-0x60(%ebp)
 804c719:	88 55 9f             	mov    %dl,-0x61(%ebp)
 804c71c:	8b 55 d4             	mov    -0x2c(%ebp),%edx
 804c71f:	8d 5d dc             	lea    -0x24(%ebp),%ebx
 804c722:	8b 4d c4             	mov    -0x3c(%ebp),%ecx
 804c725:	89 5c 24 0c          	mov    %ebx,0xc(%esp)
 804c729:	8b 45 08             	mov    0x8(%ebp),%eax
 804c72c:	8d 3c 16             	lea    (%esi,%edx,1),%edi
 804c72f:	01 f9                	add    %edi,%ecx
 804c731:	29 f8                	sub    %edi,%eax
 804c733:	89 44 24 08          	mov    %eax,0x8(%esp)
 804c737:	8d 45 e4             	lea    -0x1c(%ebp),%eax
 804c73a:	89 4c 24 04          	mov    %ecx,0x4(%esp)
 804c73e:	89 04 24             	mov    %eax,(%esp)
 804c741:	89 4d 98             	mov    %ecx,-0x68(%ebp)
 804c744:	e8 7f c8 ff ff       	call   8048fc8 <mbrtowc@plt>
 804c749:	8b 4d 98             	mov    -0x68(%ebp),%ecx
 804c74c:	85 c0                	test   %eax,%eax
 804c74e:	89 c3                	mov    %eax,%ebx
 804c750:	74 46                	je     804c798 <exit@plt+0x3580>
 804c752:	83 f8 ff             	cmp    $0xffffffff,%eax
 804c755:	0f 84 e5 00 00 00    	je     804c840 <exit@plt+0x3628>
 804c75b:	83 f8 fe             	cmp    $0xfffffffe,%eax
 804c75e:	0f 84 ec 00 00 00    	je     804c850 <exit@plt+0x3638>
 804c764:	80 7d bf 00          	cmpb   $0x0,-0x41(%ebp)
 804c768:	74 08                	je     804c772 <exit@plt+0x355a>
 804c76a:	83 7d 0c 02          	cmpl   $0x2,0xc(%ebp)
 804c76e:	66 90                	xchg   %ax,%ax
 804c770:	74 76                	je     804c7e8 <exit@plt+0x35d0>
 804c772:	8b 45 e4             	mov    -0x1c(%ebp),%eax
 804c775:	89 04 24             	mov    %eax,(%esp)
 804c778:	e8 6b ca ff ff       	call   80491e8 <iswprint@plt>
 804c77d:	83 f8 01             	cmp    $0x1,%eax
 804c780:	19 c0                	sbb    %eax,%eax
 804c782:	01 de                	add    %ebx,%esi
 804c784:	f7 d0                	not    %eax
 804c786:	20 45 b4             	and    %al,-0x4c(%ebp)
 804c789:	8d 45 dc             	lea    -0x24(%ebp),%eax
 804c78c:	89 04 24             	mov    %eax,(%esp)
 804c78f:	e8 c4 c8 ff ff       	call   8049058 <mbsinit@plt>
 804c794:	85 c0                	test   %eax,%eax
 804c796:	74 84                	je     804c71c <exit@plt+0x3504>
 804c798:	8b 5d a0             	mov    -0x60(%ebp),%ebx
 804c79b:	0f b6 55 9f          	movzbl -0x61(%ebp),%edx
 804c79f:	83 fe 01             	cmp    $0x1,%esi
 804c7a2:	0f 87 e0 f8 ff ff    	ja     804c088 <exit@plt+0x2e70>
 804c7a8:	e9 c3 f8 ff ff       	jmp    804c070 <exit@plt+0x2e58>
 804c7ad:	8d 76 00             	lea    0x0(%esi),%esi
 804c7b0:	8b 4d a8             	mov    -0x58(%ebp),%ecx
 804c7b3:	85 c9                	test   %ecx,%ecx
 804c7b5:	0f 84 b5 fc ff ff    	je     804c470 <exit@plt+0x3258>
 804c7bb:	83 45 d4 01          	addl   $0x1,-0x2c(%ebp)
 804c7bf:	90                   	nop
 804c7c0:	e9 3c f8 ff ff       	jmp    804c001 <exit@plt+0x2de9>
 804c7c5:	8d 76 00             	lea    0x0(%esi),%esi
 804c7c8:	ba 30 00 00 00       	mov    $0x30,%edx
 804c7cd:	8d 76 00             	lea    0x0(%esi),%esi
 804c7d0:	e9 bb fb ff ff       	jmp    804c390 <exit@plt+0x3178>
 804c7d5:	8d 76 00             	lea    0x0(%esi),%esi
 804c7d8:	8b 45 c4             	mov    -0x3c(%ebp),%eax
 804c7db:	80 78 01 00          	cmpb   $0x0,0x1(%eax)
 804c7df:	0f 95 c0             	setne  %al
 804c7e2:	e9 7a fb ff ff       	jmp    804c361 <exit@plt+0x3149>
 804c7e7:	90                   	nop
 804c7e8:	83 f8 01             	cmp    $0x1,%eax
 804c7eb:	76 85                	jbe    804c772 <exit@plt+0x355a>
 804c7ed:	b8 01 00 00 00       	mov    $0x1,%eax
 804c7f2:	8d b6 00 00 00 00    	lea    0x0(%esi),%esi
 804c7f8:	0f b6 51 01          	movzbl 0x1(%ecx),%edx
 804c7fc:	83 ea 5b             	sub    $0x5b,%edx
 804c7ff:	80 fa 21             	cmp    $0x21,%dl
 804c802:	77 0c                	ja     804c810 <exit@plt+0x35f8>
 804c804:	0f b6 d2             	movzbl %dl,%edx
 804c807:	ff 24 95 5c 2e 05 08 	jmp    *0x8052e5c(,%edx,4)
 804c80e:	66 90                	xchg   %ax,%ax
 804c810:	83 c0 01             	add    $0x1,%eax
 804c813:	83 c1 01             	add    $0x1,%ecx
 804c816:	39 c3                	cmp    %eax,%ebx
 804c818:	77 de                	ja     804c7f8 <exit@plt+0x35e0>
 804c81a:	e9 53 ff ff ff       	jmp    804c772 <exit@plt+0x355a>
 804c81f:	8b 45 c4             	mov    -0x3c(%ebp),%eax
 804c822:	89 04 24             	mov    %eax,(%esp)
 804c825:	88 55 98             	mov    %dl,-0x68(%ebp)
 804c828:	e8 4b c8 ff ff       	call   8049078 <strlen@plt>
 804c82d:	0f b6 55 98          	movzbl -0x68(%ebp),%edx
 804c831:	89 45 08             	mov    %eax,0x8(%ebp)
 804c834:	e9 d7 fe ff ff       	jmp    804c710 <exit@plt+0x34f8>
 804c839:	31 db                	xor    %ebx,%ebx
 804c83b:	e9 1a fa ff ff       	jmp    804c25a <exit@plt+0x3042>
 804c840:	8b 5d a0             	mov    -0x60(%ebp),%ebx
 804c843:	0f b6 55 9f          	movzbl -0x61(%ebp),%edx
 804c847:	c6 45 b4 00          	movb   $0x0,-0x4c(%ebp)
 804c84b:	e9 4f ff ff ff       	jmp    804c79f <exit@plt+0x3587>
 804c850:	39 7d 08             	cmp    %edi,0x8(%ebp)
 804c853:	8b 5d a0             	mov    -0x60(%ebp),%ebx
 804c856:	0f b6 55 9f          	movzbl -0x61(%ebp),%edx
 804c85a:	76 eb                	jbe    804c847 <exit@plt+0x362f>
 804c85c:	80 39 00             	cmpb   $0x0,(%ecx)
 804c85f:	74 e6                	je     804c847 <exit@plt+0x362f>
 804c861:	8b 7d d4             	mov    -0x2c(%ebp),%edi
 804c864:	8b 45 c4             	mov    -0x3c(%ebp),%eax
 804c867:	89 5d b4             	mov    %ebx,-0x4c(%ebp)
 804c86a:	89 f3                	mov    %esi,%ebx
 804c86c:	8d 4c 37 01          	lea    0x1(%edi,%esi,1),%ecx
 804c870:	89 d7                	mov    %edx,%edi
 804c872:	8b 75 08             	mov    0x8(%ebp),%esi
 804c875:	01 c8                	add    %ecx,%eax
 804c877:	eb 14                	jmp    804c88d <exit@plt+0x3675>
 804c879:	8d b4 26 00 00 00 00 	lea    0x0(%esi,%eiz,1),%esi
 804c880:	0f b6 10             	movzbl (%eax),%edx
 804c883:	83 c1 01             	add    $0x1,%ecx
 804c886:	83 c0 01             	add    $0x1,%eax
 804c889:	84 d2                	test   %dl,%dl
 804c88b:	74 07                	je     804c894 <exit@plt+0x367c>
 804c88d:	83 c3 01             	add    $0x1,%ebx
 804c890:	39 f1                	cmp    %esi,%ecx
 804c892:	72 ec                	jb     804c880 <exit@plt+0x3668>
 804c894:	89 de                	mov    %ebx,%esi
 804c896:	89 fa                	mov    %edi,%edx
 804c898:	8b 5d b4             	mov    -0x4c(%ebp),%ebx
 804c89b:	eb aa                	jmp    804c847 <exit@plt+0x362f>
 804c89d:	c6 45 cf 01          	movb   $0x1,-0x31(%ebp)
 804c8a1:	31 db                	xor    %ebx,%ebx
 804c8a3:	c7 45 b8 01 00 00 00 	movl   $0x1,-0x48(%ebp)
 804c8aa:	c7 45 b0 ef 2b 05 08 	movl   $0x8052bef,-0x50(%ebp)
 804c8b1:	e9 32 f7 ff ff       	jmp    804bfe8 <exit@plt+0x2dd0>
 804c8b6:	c6 45 cf 00          	movb   $0x0,-0x31(%ebp)
 804c8ba:	31 db                	xor    %ebx,%ebx
 804c8bc:	c7 45 b8 01 00 00 00 	movl   $0x1,-0x48(%ebp)
 804c8c3:	c7 45 b0 2a 28 05 08 	movl   $0x805282a,-0x50(%ebp)
 804c8ca:	e9 19 f7 ff ff       	jmp    804bfe8 <exit@plt+0x2dd0>
 804c8cf:	90                   	nop
 804c8d0:	55                   	push   %ebp
 804c8d1:	89 e5                	mov    %esp,%ebp
 804c8d3:	57                   	push   %edi
 804c8d4:	56                   	push   %esi
 804c8d5:	53                   	push   %ebx
 804c8d6:	89 c3                	mov    %eax,%ebx
 804c8d8:	83 ec 3c             	sub    $0x3c,%esp
 804c8db:	8b 75 08             	mov    0x8(%ebp),%esi
 804c8de:	89 55 d8             	mov    %edx,-0x28(%ebp)
 804c8e1:	89 4d d4             	mov    %ecx,-0x2c(%ebp)
 804c8e4:	e8 6f c5 ff ff       	call   8048e58 <__errno_location@plt>
 804c8e9:	85 db                	test   %ebx,%ebx
 804c8eb:	8b 3d 28 51 05 08    	mov    0x8055128,%edi
 804c8f1:	89 45 e0             	mov    %eax,-0x20(%ebp)
 804c8f4:	8b 00                	mov    (%eax),%eax
 804c8f6:	89 45 cc             	mov    %eax,-0x34(%ebp)
 804c8f9:	0f 88 3d 01 00 00    	js     804ca3c <exit@plt+0x3824>
 804c8ff:	3b 1d 2c 51 05 08    	cmp    0x805512c,%ebx
 804c905:	72 64                	jb     804c96b <exit@plt+0x3753>
 804c907:	8d 53 01             	lea    0x1(%ebx),%edx
 804c90a:	81 fa ff ff ff 1f    	cmp    $0x1fffffff,%edx
 804c910:	89 55 e4             	mov    %edx,-0x1c(%ebp)
 804c913:	0f 87 28 01 00 00    	ja     804ca41 <exit@plt+0x3829>
 804c919:	8b 45 e4             	mov    -0x1c(%ebp),%eax
 804c91c:	c1 e0 03             	shl    $0x3,%eax
 804c91f:	81 ff 30 51 05 08    	cmp    $0x8055130,%edi
 804c925:	0f 84 e5 00 00 00    	je     804ca10 <exit@plt+0x37f8>
 804c92b:	89 3c 24             	mov    %edi,(%esp)
 804c92e:	89 44 24 04          	mov    %eax,0x4(%esp)
 804c932:	e8 b9 06 00 00       	call   804cff0 <exit@plt+0x3dd8>
 804c937:	89 c7                	mov    %eax,%edi
 804c939:	a3 28 51 05 08       	mov    %eax,0x8055128
 804c93e:	a1 2c 51 05 08       	mov    0x805512c,%eax
 804c943:	8b 4d e4             	mov    -0x1c(%ebp),%ecx
 804c946:	c7 44 24 04 00 00 00 	movl   $0x0,0x4(%esp)
 804c94d:	00 
 804c94e:	29 c1                	sub    %eax,%ecx
 804c950:	c1 e1 03             	shl    $0x3,%ecx
 804c953:	8d 04 c7             	lea    (%edi,%eax,8),%eax
 804c956:	89 4c 24 08          	mov    %ecx,0x8(%esp)
 804c95a:	89 04 24             	mov    %eax,(%esp)
 804c95d:	e8 e6 c5 ff ff       	call   8048f48 <memset@plt>
 804c962:	8b 55 e4             	mov    -0x1c(%ebp),%edx
 804c965:	89 15 2c 51 05 08    	mov    %edx,0x805512c
 804c96b:	8b 56 04             	mov    0x4(%esi),%edx
 804c96e:	8d 3c df             	lea    (%edi,%ebx,8),%edi
 804c971:	8b 07                	mov    (%edi),%eax
 804c973:	8b 5f 04             	mov    0x4(%edi),%ebx
 804c976:	8b 4d d8             	mov    -0x28(%ebp),%ecx
 804c979:	83 ca 01             	or     $0x1,%edx
 804c97c:	89 54 24 08          	mov    %edx,0x8(%esp)
 804c980:	89 55 e4             	mov    %edx,-0x1c(%ebp)
 804c983:	8b 55 d4             	mov    -0x2c(%ebp),%edx
 804c986:	89 45 dc             	mov    %eax,-0x24(%ebp)
 804c989:	8d 46 08             	lea    0x8(%esi),%eax
 804c98c:	89 45 d0             	mov    %eax,-0x30(%ebp)
 804c98f:	89 44 24 0c          	mov    %eax,0xc(%esp)
 804c993:	8b 06                	mov    (%esi),%eax
 804c995:	89 14 24             	mov    %edx,(%esp)
 804c998:	8b 55 dc             	mov    -0x24(%ebp),%edx
 804c99b:	89 44 24 04          	mov    %eax,0x4(%esp)
 804c99f:	89 d8                	mov    %ebx,%eax
 804c9a1:	e8 ea f5 ff ff       	call   804bf90 <exit@plt+0x2d78>
 804c9a6:	39 45 dc             	cmp    %eax,-0x24(%ebp)
 804c9a9:	77 52                	ja     804c9fd <exit@plt+0x37e5>
 804c9ab:	8d 50 01             	lea    0x1(%eax),%edx
 804c9ae:	81 fb e0 51 05 08    	cmp    $0x80551e0,%ebx
 804c9b4:	89 17                	mov    %edx,(%edi)
 804c9b6:	74 0e                	je     804c9c6 <exit@plt+0x37ae>
 804c9b8:	89 55 c8             	mov    %edx,-0x38(%ebp)
 804c9bb:	89 1c 24             	mov    %ebx,(%esp)
 804c9be:	e8 35 c6 ff ff       	call   8048ff8 <free@plt>
 804c9c3:	8b 55 c8             	mov    -0x38(%ebp),%edx
 804c9c6:	89 14 24             	mov    %edx,(%esp)
 804c9c9:	89 55 c8             	mov    %edx,-0x38(%ebp)
 804c9cc:	e8 9f 06 00 00       	call   804d070 <exit@plt+0x3e58>
 804c9d1:	8b 4d d8             	mov    -0x28(%ebp),%ecx
 804c9d4:	8b 55 c8             	mov    -0x38(%ebp),%edx
 804c9d7:	89 47 04             	mov    %eax,0x4(%edi)
 804c9da:	89 c3                	mov    %eax,%ebx
 804c9dc:	8b 45 d0             	mov    -0x30(%ebp),%eax
 804c9df:	89 44 24 0c          	mov    %eax,0xc(%esp)
 804c9e3:	8b 45 e4             	mov    -0x1c(%ebp),%eax
 804c9e6:	89 44 24 08          	mov    %eax,0x8(%esp)
 804c9ea:	8b 06                	mov    (%esi),%eax
 804c9ec:	89 44 24 04          	mov    %eax,0x4(%esp)
 804c9f0:	8b 45 d4             	mov    -0x2c(%ebp),%eax
 804c9f3:	89 04 24             	mov    %eax,(%esp)
 804c9f6:	89 d8                	mov    %ebx,%eax
 804c9f8:	e8 93 f5 ff ff       	call   804bf90 <exit@plt+0x2d78>
 804c9fd:	8b 45 cc             	mov    -0x34(%ebp),%eax
 804ca00:	8b 55 e0             	mov    -0x20(%ebp),%edx
 804ca03:	89 02                	mov    %eax,(%edx)
 804ca05:	83 c4 3c             	add    $0x3c,%esp
 804ca08:	89 d8                	mov    %ebx,%eax
 804ca0a:	5b                   	pop    %ebx
 804ca0b:	5e                   	pop    %esi
 804ca0c:	5f                   	pop    %edi
 804ca0d:	5d                   	pop    %ebp
 804ca0e:	c3                   	ret    
 804ca0f:	90                   	nop
 804ca10:	89 44 24 04          	mov    %eax,0x4(%esp)
 804ca14:	c7 04 24 00 00 00 00 	movl   $0x0,(%esp)
 804ca1b:	e8 d0 05 00 00       	call   804cff0 <exit@plt+0x3dd8>
 804ca20:	8b 15 34 51 05 08    	mov    0x8055134,%edx
 804ca26:	89 c7                	mov    %eax,%edi
 804ca28:	a3 28 51 05 08       	mov    %eax,0x8055128
 804ca2d:	a1 30 51 05 08       	mov    0x8055130,%eax
 804ca32:	89 57 04             	mov    %edx,0x4(%edi)
 804ca35:	89 07                	mov    %eax,(%edi)
 804ca37:	e9 02 ff ff ff       	jmp    804c93e <exit@plt+0x3726>
 804ca3c:	e8 07 c4 ff ff       	call   8048e48 <abort@plt>
 804ca41:	e8 ca ee ff ff       	call   804b910 <exit@plt+0x26f8>
 804ca46:	8d 76 00             	lea    0x0(%esi),%esi
 804ca49:	8d bc 27 00 00 00 00 	lea    0x0(%edi,%eiz,1),%edi
 804ca50:	55                   	push   %ebp
 804ca51:	89 e5                	mov    %esp,%ebp
 804ca53:	53                   	push   %ebx
 804ca54:	83 ec 44             	sub    $0x44,%esp
 804ca57:	8b 15 a0 51 05 08    	mov    0x80551a0,%edx
 804ca5d:	0f be 45 10          	movsbl 0x10(%ebp),%eax
 804ca61:	8d 5d d0             	lea    -0x30(%ebp),%ebx
 804ca64:	89 1c 24             	mov    %ebx,(%esp)
 804ca67:	c7 44 24 08 01 00 00 	movl   $0x1,0x8(%esp)
 804ca6e:	00 
 804ca6f:	89 55 d0             	mov    %edx,-0x30(%ebp)
 804ca72:	8b 15 a4 51 05 08    	mov    0x80551a4,%edx
 804ca78:	89 44 24 04          	mov    %eax,0x4(%esp)
 804ca7c:	89 55 d4             	mov    %edx,-0x2c(%ebp)
 804ca7f:	8b 15 a8 51 05 08    	mov    0x80551a8,%edx
 804ca85:	89 55 d8             	mov    %edx,-0x28(%ebp)
 804ca88:	8b 15 ac 51 05 08    	mov    0x80551ac,%edx
 804ca8e:	89 55 dc             	mov    %edx,-0x24(%ebp)
 804ca91:	8b 15 b0 51 05 08    	mov    0x80551b0,%edx
 804ca97:	89 55 e0             	mov    %edx,-0x20(%ebp)
 804ca9a:	8b 15 b4 51 05 08    	mov    0x80551b4,%edx
 804caa0:	89 55 e4             	mov    %edx,-0x1c(%ebp)
 804caa3:	8b 15 b8 51 05 08    	mov    0x80551b8,%edx
 804caa9:	89 55 e8             	mov    %edx,-0x18(%ebp)
 804caac:	8b 15 bc 51 05 08    	mov    0x80551bc,%edx
 804cab2:	89 55 ec             	mov    %edx,-0x14(%ebp)
 804cab5:	8b 15 c0 51 05 08    	mov    0x80551c0,%edx
 804cabb:	89 55 f0             	mov    %edx,-0x10(%ebp)
 804cabe:	8b 15 c4 51 05 08    	mov    0x80551c4,%edx
 804cac4:	89 55 f4             	mov    %edx,-0xc(%ebp)
 804cac7:	e8 e4 f2 ff ff       	call   804bdb0 <exit@plt+0x2b98>
 804cacc:	8b 4d 0c             	mov    0xc(%ebp),%ecx
 804cacf:	31 c0                	xor    %eax,%eax
 804cad1:	8b 55 08             	mov    0x8(%ebp),%edx
 804cad4:	89 1c 24             	mov    %ebx,(%esp)
 804cad7:	e8 f4 fd ff ff       	call   804c8d0 <exit@plt+0x36b8>
 804cadc:	83 c4 44             	add    $0x44,%esp
 804cadf:	5b                   	pop    %ebx
 804cae0:	5d                   	pop    %ebp
 804cae1:	c3                   	ret    
 804cae2:	8d b4 26 00 00 00 00 	lea    0x0(%esi,%eiz,1),%esi
 804cae9:	8d bc 27 00 00 00 00 	lea    0x0(%edi,%eiz,1),%edi
 804caf0:	55                   	push   %ebp
 804caf1:	89 e5                	mov    %esp,%ebp
 804caf3:	83 ec 18             	sub    $0x18,%esp
 804caf6:	8b 45 0c             	mov    0xc(%ebp),%eax
 804caf9:	c7 44 24 08 3a 00 00 	movl   $0x3a,0x8(%esp)
 804cb00:	00 
 804cb01:	89 44 24 04          	mov    %eax,0x4(%esp)
 804cb05:	8b 45 08             	mov    0x8(%ebp),%eax
 804cb08:	89 04 24             	mov    %eax,(%esp)
 804cb0b:	e8 40 ff ff ff       	call   804ca50 <exit@plt+0x3838>
 804cb10:	c9                   	leave  
 804cb11:	c3                   	ret    
 804cb12:	8d b4 26 00 00 00 00 	lea    0x0(%esi,%eiz,1),%esi
 804cb19:	8d bc 27 00 00 00 00 	lea    0x0(%edi,%eiz,1),%edi
 804cb20:	55                   	push   %ebp
 804cb21:	89 e5                	mov    %esp,%ebp
 804cb23:	83 ec 18             	sub    $0x18,%esp
 804cb26:	0f be 45 0c          	movsbl 0xc(%ebp),%eax
 804cb2a:	c7 44 24 04 ff ff ff 	movl   $0xffffffff,0x4(%esp)
 804cb31:	ff 
 804cb32:	89 44 24 08          	mov    %eax,0x8(%esp)
 804cb36:	8b 45 08             	mov    0x8(%ebp),%eax
 804cb39:	89 04 24             	mov    %eax,(%esp)
 804cb3c:	e8 0f ff ff ff       	call   804ca50 <exit@plt+0x3838>
 804cb41:	c9                   	leave  
 804cb42:	c3                   	ret    
 804cb43:	8d b6 00 00 00 00    	lea    0x0(%esi),%esi
 804cb49:	8d bc 27 00 00 00 00 	lea    0x0(%edi,%eiz,1),%edi
 804cb50:	55                   	push   %ebp
 804cb51:	89 e5                	mov    %esp,%ebp
 804cb53:	83 ec 18             	sub    $0x18,%esp
 804cb56:	8b 45 08             	mov    0x8(%ebp),%eax
 804cb59:	c7 44 24 04 3a 00 00 	movl   $0x3a,0x4(%esp)
 804cb60:	00 
 804cb61:	89 04 24             	mov    %eax,(%esp)
 804cb64:	e8 b7 ff ff ff       	call   804cb20 <exit@plt+0x3908>
 804cb69:	c9                   	leave  
 804cb6a:	c3                   	ret    
 804cb6b:	90                   	nop
 804cb6c:	8d 74 26 00          	lea    0x0(%esi,%eiz,1),%esi
 804cb70:	55                   	push   %ebp
 804cb71:	89 e5                	mov    %esp,%ebp
 804cb73:	53                   	push   %ebx
 804cb74:	83 ec 44             	sub    $0x44,%esp
 804cb77:	8b 55 0c             	mov    0xc(%ebp),%edx
 804cb7a:	8d 5d d0             	lea    -0x30(%ebp),%ebx
 804cb7d:	89 d8                	mov    %ebx,%eax
 804cb7f:	e8 9c f3 ff ff       	call   804bf20 <exit@plt+0x2d08>
 804cb84:	8b 4d 14             	mov    0x14(%ebp),%ecx
 804cb87:	8b 55 10             	mov    0x10(%ebp),%edx
 804cb8a:	8b 45 08             	mov    0x8(%ebp),%eax
 804cb8d:	89 1c 24             	mov    %ebx,(%esp)
 804cb90:	e8 3b fd ff ff       	call   804c8d0 <exit@plt+0x36b8>
 804cb95:	83 c4 44             	add    $0x44,%esp
 804cb98:	5b                   	pop    %ebx
 804cb99:	5d                   	pop    %ebp
 804cb9a:	c3                   	ret    
 804cb9b:	90                   	nop
 804cb9c:	8d 74 26 00          	lea    0x0(%esi,%eiz,1),%esi
 804cba0:	55                   	push   %ebp
 804cba1:	89 e5                	mov    %esp,%ebp
 804cba3:	83 ec 18             	sub    $0x18,%esp
 804cba6:	8b 45 10             	mov    0x10(%ebp),%eax
 804cba9:	c7 04 24 00 00 00 00 	movl   $0x0,(%esp)
 804cbb0:	89 44 24 0c          	mov    %eax,0xc(%esp)
 804cbb4:	8b 45 0c             	mov    0xc(%ebp),%eax
 804cbb7:	89 44 24 08          	mov    %eax,0x8(%esp)
 804cbbb:	8b 45 08             	mov    0x8(%ebp),%eax
 804cbbe:	89 44 24 04          	mov    %eax,0x4(%esp)
 804cbc2:	e8 a9 ff ff ff       	call   804cb70 <exit@plt+0x3958>
 804cbc7:	c9                   	leave  
 804cbc8:	c3                   	ret    
 804cbc9:	8d b4 26 00 00 00 00 	lea    0x0(%esi,%eiz,1),%esi
 804cbd0:	55                   	push   %ebp
 804cbd1:	89 e5                	mov    %esp,%ebp
 804cbd3:	53                   	push   %ebx
 804cbd4:	83 ec 44             	sub    $0x44,%esp
 804cbd7:	8b 55 0c             	mov    0xc(%ebp),%edx
 804cbda:	8d 5d d0             	lea    -0x30(%ebp),%ebx
 804cbdd:	89 d8                	mov    %ebx,%eax
 804cbdf:	e8 3c f3 ff ff       	call   804bf20 <exit@plt+0x2d08>
 804cbe4:	8b 55 10             	mov    0x10(%ebp),%edx
 804cbe7:	b9 ff ff ff ff       	mov    $0xffffffff,%ecx
 804cbec:	8b 45 08             	mov    0x8(%ebp),%eax
 804cbef:	89 1c 24             	mov    %ebx,(%esp)
 804cbf2:	e8 d9 fc ff ff       	call   804c8d0 <exit@plt+0x36b8>
 804cbf7:	83 c4 44             	add    $0x44,%esp
 804cbfa:	5b                   	pop    %ebx
 804cbfb:	5d                   	pop    %ebp
 804cbfc:	c3                   	ret    
 804cbfd:	8d 76 00             	lea    0x0(%esi),%esi
 804cc00:	55                   	push   %ebp
 804cc01:	89 e5                	mov    %esp,%ebp
 804cc03:	83 ec 18             	sub    $0x18,%esp
 804cc06:	8b 45 0c             	mov    0xc(%ebp),%eax
 804cc09:	c7 04 24 00 00 00 00 	movl   $0x0,(%esp)
 804cc10:	89 44 24 08          	mov    %eax,0x8(%esp)
 804cc14:	8b 45 08             	mov    0x8(%ebp),%eax
 804cc17:	89 44 24 04          	mov    %eax,0x4(%esp)
 804cc1b:	e8 b0 ff ff ff       	call   804cbd0 <exit@plt+0x39b8>
 804cc20:	c9                   	leave  
 804cc21:	c3                   	ret    
 804cc22:	8d b4 26 00 00 00 00 	lea    0x0(%esi,%eiz,1),%esi
 804cc29:	8d bc 27 00 00 00 00 	lea    0x0(%edi,%eiz,1),%edi
 804cc30:	55                   	push   %ebp
 804cc31:	89 e5                	mov    %esp,%ebp
 804cc33:	83 ec 08             	sub    $0x8,%esp
 804cc36:	8b 45 08             	mov    0x8(%ebp),%eax
 804cc39:	8b 4d 10             	mov    0x10(%ebp),%ecx
 804cc3c:	c7 45 08 a0 51 05 08 	movl   $0x80551a0,0x8(%ebp)
 804cc43:	8b 55 0c             	mov    0xc(%ebp),%edx
 804cc46:	c9                   	leave  
 804cc47:	e9 84 fc ff ff       	jmp    804c8d0 <exit@plt+0x36b8>
 804cc4c:	8d 74 26 00          	lea    0x0(%esi,%eiz,1),%esi
 804cc50:	55                   	push   %ebp
 804cc51:	89 e5                	mov    %esp,%ebp
 804cc53:	83 ec 18             	sub    $0x18,%esp
 804cc56:	8b 45 0c             	mov    0xc(%ebp),%eax
 804cc59:	c7 04 24 00 00 00 00 	movl   $0x0,(%esp)
 804cc60:	89 44 24 08          	mov    %eax,0x8(%esp)
 804cc64:	8b 45 08             	mov    0x8(%ebp),%eax
 804cc67:	89 44 24 04          	mov    %eax,0x4(%esp)
 804cc6b:	e8 c0 ff ff ff       	call   804cc30 <exit@plt+0x3a18>
 804cc70:	c9                   	leave  
 804cc71:	c3                   	ret    
 804cc72:	8d b4 26 00 00 00 00 	lea    0x0(%esi,%eiz,1),%esi
 804cc79:	8d bc 27 00 00 00 00 	lea    0x0(%edi,%eiz,1),%edi
 804cc80:	55                   	push   %ebp
 804cc81:	b9 ff ff ff ff       	mov    $0xffffffff,%ecx
 804cc86:	89 e5                	mov    %esp,%ebp
 804cc88:	83 ec 08             	sub    $0x8,%esp
 804cc8b:	8b 45 08             	mov    0x8(%ebp),%eax
 804cc8e:	8b 55 0c             	mov    0xc(%ebp),%edx
 804cc91:	c7 45 08 a0 51 05 08 	movl   $0x80551a0,0x8(%ebp)
 804cc98:	c9                   	leave  
 804cc99:	e9 32 fc ff ff       	jmp    804c8d0 <exit@plt+0x36b8>
 804cc9e:	66 90                	xchg   %ax,%ax
 804cca0:	55                   	push   %ebp
 804cca1:	89 e5                	mov    %esp,%ebp
 804cca3:	83 ec 18             	sub    $0x18,%esp
 804cca6:	8b 45 08             	mov    0x8(%ebp),%eax
 804cca9:	c7 04 24 00 00 00 00 	movl   $0x0,(%esp)
 804ccb0:	89 44 24 04          	mov    %eax,0x4(%esp)
 804ccb4:	e8 c7 ff ff ff       	call   804cc80 <exit@plt+0x3a68>
 804ccb9:	c9                   	leave  
 804ccba:	c3                   	ret    
 804ccbb:	90                   	nop
 804ccbc:	8d 74 26 00          	lea    0x0(%esi,%eiz,1),%esi
 804ccc0:	55                   	push   %ebp
 804ccc1:	89 e5                	mov    %esp,%ebp
 804ccc3:	57                   	push   %edi
 804ccc4:	56                   	push   %esi
 804ccc5:	53                   	push   %ebx
 804ccc6:	bb a0 51 05 08       	mov    $0x80551a0,%ebx
 804cccb:	83 ec 3c             	sub    $0x3c,%esp
 804ccce:	8b 45 14             	mov    0x14(%ebp),%eax
 804ccd1:	85 c0                	test   %eax,%eax
 804ccd3:	74 02                	je     804ccd7 <exit@plt+0x3abf>
 804ccd5:	89 c3                	mov    %eax,%ebx
 804ccd7:	e8 7c c1 ff ff       	call   8048e58 <__errno_location@plt>
 804ccdc:	8b 4d 10             	mov    0x10(%ebp),%ecx
 804ccdf:	8d 53 08             	lea    0x8(%ebx),%edx
 804cce2:	89 55 e4             	mov    %edx,-0x1c(%ebp)
 804cce5:	85 c9                	test   %ecx,%ecx
 804cce7:	8b 4d 08             	mov    0x8(%ebp),%ecx
 804ccea:	89 45 e0             	mov    %eax,-0x20(%ebp)
 804cced:	8b 00                	mov    (%eax),%eax
 804ccef:	89 45 d4             	mov    %eax,-0x2c(%ebp)
 804ccf2:	0f 94 c0             	sete   %al
 804ccf5:	0f b6 f0             	movzbl %al,%esi
 804ccf8:	0b 73 04             	or     0x4(%ebx),%esi
 804ccfb:	89 54 24 0c          	mov    %edx,0xc(%esp)
 804ccff:	31 d2                	xor    %edx,%edx
 804cd01:	89 74 24 08          	mov    %esi,0x8(%esp)
 804cd05:	8b 03                	mov    (%ebx),%eax
 804cd07:	89 44 24 04          	mov    %eax,0x4(%esp)
 804cd0b:	8b 45 0c             	mov    0xc(%ebp),%eax
 804cd0e:	89 04 24             	mov    %eax,(%esp)
 804cd11:	31 c0                	xor    %eax,%eax
 804cd13:	e8 78 f2 ff ff       	call   804bf90 <exit@plt+0x2d78>
 804cd18:	89 c7                	mov    %eax,%edi
 804cd1a:	83 c7 01             	add    $0x1,%edi
 804cd1d:	89 45 d8             	mov    %eax,-0x28(%ebp)
 804cd20:	89 3c 24             	mov    %edi,(%esp)
 804cd23:	e8 48 03 00 00       	call   804d070 <exit@plt+0x3e58>
 804cd28:	8b 55 e4             	mov    -0x1c(%ebp),%edx
 804cd2b:	89 74 24 08          	mov    %esi,0x8(%esp)
 804cd2f:	8b 4d 08             	mov    0x8(%ebp),%ecx
 804cd32:	89 54 24 0c          	mov    %edx,0xc(%esp)
 804cd36:	89 fa                	mov    %edi,%edx
 804cd38:	89 45 dc             	mov    %eax,-0x24(%ebp)
 804cd3b:	8b 03                	mov    (%ebx),%eax
 804cd3d:	89 44 24 04          	mov    %eax,0x4(%esp)
 804cd41:	8b 45 0c             	mov    0xc(%ebp),%eax
 804cd44:	89 04 24             	mov    %eax,(%esp)
 804cd47:	8b 45 dc             	mov    -0x24(%ebp),%eax
 804cd4a:	e8 41 f2 ff ff       	call   804bf90 <exit@plt+0x2d78>
 804cd4f:	8b 55 e0             	mov    -0x20(%ebp),%edx
 804cd52:	8b 45 d4             	mov    -0x2c(%ebp),%eax
 804cd55:	89 02                	mov    %eax,(%edx)
 804cd57:	8b 55 10             	mov    0x10(%ebp),%edx
 804cd5a:	85 d2                	test   %edx,%edx
 804cd5c:	74 08                	je     804cd66 <exit@plt+0x3b4e>
 804cd5e:	8b 45 d8             	mov    -0x28(%ebp),%eax
 804cd61:	8b 55 10             	mov    0x10(%ebp),%edx
 804cd64:	89 02                	mov    %eax,(%edx)
 804cd66:	8b 45 dc             	mov    -0x24(%ebp),%eax
 804cd69:	83 c4 3c             	add    $0x3c,%esp
 804cd6c:	5b                   	pop    %ebx
 804cd6d:	5e                   	pop    %esi
 804cd6e:	5f                   	pop    %edi
 804cd6f:	5d                   	pop    %ebp
 804cd70:	c3                   	ret    
 804cd71:	eb 0d                	jmp    804cd80 <exit@plt+0x3b68>
 804cd73:	90                   	nop
 804cd74:	90                   	nop
 804cd75:	90                   	nop
 804cd76:	90                   	nop
 804cd77:	90                   	nop
 804cd78:	90                   	nop
 804cd79:	90                   	nop
 804cd7a:	90                   	nop
 804cd7b:	90                   	nop
 804cd7c:	90                   	nop
 804cd7d:	90                   	nop
 804cd7e:	90                   	nop
 804cd7f:	90                   	nop
 804cd80:	55                   	push   %ebp
 804cd81:	89 e5                	mov    %esp,%ebp
 804cd83:	83 ec 18             	sub    $0x18,%esp
 804cd86:	8b 45 10             	mov    0x10(%ebp),%eax
 804cd89:	c7 44 24 08 00 00 00 	movl   $0x0,0x8(%esp)
 804cd90:	00 
 804cd91:	89 44 24 0c          	mov    %eax,0xc(%esp)
 804cd95:	8b 45 0c             	mov    0xc(%ebp),%eax
 804cd98:	89 44 24 04          	mov    %eax,0x4(%esp)
 804cd9c:	8b 45 08             	mov    0x8(%ebp),%eax
 804cd9f:	89 04 24             	mov    %eax,(%esp)
 804cda2:	e8 19 ff ff ff       	call   804ccc0 <exit@plt+0x3aa8>
 804cda7:	c9                   	leave  
 804cda8:	c3                   	ret    
 804cda9:	8d b4 26 00 00 00 00 	lea    0x0(%esi,%eiz,1),%esi
 804cdb0:	55                   	push   %ebp
 804cdb1:	89 e5                	mov    %esp,%ebp
 804cdb3:	83 ec 28             	sub    $0x28,%esp
 804cdb6:	8b 45 18             	mov    0x18(%ebp),%eax
 804cdb9:	89 7d fc             	mov    %edi,-0x4(%ebp)
 804cdbc:	bf a0 51 05 08       	mov    $0x80551a0,%edi
 804cdc1:	89 5d f4             	mov    %ebx,-0xc(%ebp)
 804cdc4:	89 75 f8             	mov    %esi,-0x8(%ebp)
 804cdc7:	85 c0                	test   %eax,%eax
 804cdc9:	74 02                	je     804cdcd <exit@plt+0x3bb5>
 804cdcb:	89 c7                	mov    %eax,%edi
 804cdcd:	e8 86 c0 ff ff       	call   8048e58 <__errno_location@plt>
 804cdd2:	8b 4d 10             	mov    0x10(%ebp),%ecx
 804cdd5:	8b 55 0c             	mov    0xc(%ebp),%edx
 804cdd8:	8b 30                	mov    (%eax),%esi
 804cdda:	89 c3                	mov    %eax,%ebx
 804cddc:	8d 47 08             	lea    0x8(%edi),%eax
 804cddf:	89 44 24 0c          	mov    %eax,0xc(%esp)
 804cde3:	8b 47 04             	mov    0x4(%edi),%eax
 804cde6:	89 44 24 08          	mov    %eax,0x8(%esp)
 804cdea:	8b 07                	mov    (%edi),%eax
 804cdec:	89 44 24 04          	mov    %eax,0x4(%esp)
 804cdf0:	8b 45 14             	mov    0x14(%ebp),%eax
 804cdf3:	89 04 24             	mov    %eax,(%esp)
 804cdf6:	8b 45 08             	mov    0x8(%ebp),%eax
 804cdf9:	e8 92 f1 ff ff       	call   804bf90 <exit@plt+0x2d78>
 804cdfe:	89 33                	mov    %esi,(%ebx)
 804ce00:	8b 5d f4             	mov    -0xc(%ebp),%ebx
 804ce03:	8b 75 f8             	mov    -0x8(%ebp),%esi
 804ce06:	8b 7d fc             	mov    -0x4(%ebp),%edi
 804ce09:	89 ec                	mov    %ebp,%esp
 804ce0b:	5d                   	pop    %ebp
 804ce0c:	c3                   	ret    
 804ce0d:	90                   	nop
 804ce0e:	90                   	nop
 804ce0f:	90                   	nop
 804ce10:	55                   	push   %ebp
 804ce11:	89 e5                	mov    %esp,%ebp
 804ce13:	57                   	push   %edi
 804ce14:	56                   	push   %esi
 804ce15:	53                   	push   %ebx
 804ce16:	83 ec 1c             	sub    $0x1c,%esp
 804ce19:	8b 7d 0c             	mov    0xc(%ebp),%edi
 804ce1c:	8b 5d 10             	mov    0x10(%ebp),%ebx
 804ce1f:	90                   	nop
 804ce20:	8b 45 08             	mov    0x8(%ebp),%eax
 804ce23:	89 5c 24 08          	mov    %ebx,0x8(%esp)
 804ce27:	89 7c 24 04          	mov    %edi,0x4(%esp)
 804ce2b:	89 04 24             	mov    %eax,(%esp)
 804ce2e:	e8 a5 c1 ff ff       	call   8048fd8 <read@plt>
 804ce33:	85 c0                	test   %eax,%eax
 804ce35:	89 c6                	mov    %eax,%esi
 804ce37:	79 27                	jns    804ce60 <exit@plt+0x3c48>
 804ce39:	e8 1a c0 ff ff       	call   8048e58 <__errno_location@plt>
 804ce3e:	8b 00                	mov    (%eax),%eax
 804ce40:	83 f8 04             	cmp    $0x4,%eax
 804ce43:	74 db                	je     804ce20 <exit@plt+0x3c08>
 804ce45:	83 f8 16             	cmp    $0x16,%eax
 804ce48:	75 16                	jne    804ce60 <exit@plt+0x3c48>
 804ce4a:	81 fb 00 e0 ff 7f    	cmp    $0x7fffe000,%ebx
 804ce50:	76 0e                	jbe    804ce60 <exit@plt+0x3c48>
 804ce52:	bb 00 e0 ff 7f       	mov    $0x7fffe000,%ebx
 804ce57:	eb c7                	jmp    804ce20 <exit@plt+0x3c08>
 804ce59:	8d b4 26 00 00 00 00 	lea    0x0(%esi,%eiz,1),%esi
 804ce60:	83 c4 1c             	add    $0x1c,%esp
 804ce63:	89 f0                	mov    %esi,%eax
 804ce65:	5b                   	pop    %ebx
 804ce66:	5e                   	pop    %esi
 804ce67:	5f                   	pop    %edi
 804ce68:	5d                   	pop    %ebp
 804ce69:	c3                   	ret    
 804ce6a:	90                   	nop
 804ce6b:	90                   	nop
 804ce6c:	90                   	nop
 804ce6d:	90                   	nop
 804ce6e:	90                   	nop
 804ce6f:	90                   	nop
 804ce70:	55                   	push   %ebp
 804ce71:	89 e5                	mov    %esp,%ebp
 804ce73:	57                   	push   %edi
 804ce74:	56                   	push   %esi
 804ce75:	53                   	push   %ebx
 804ce76:	83 ec 1c             	sub    $0x1c,%esp
 804ce79:	8b 7d 0c             	mov    0xc(%ebp),%edi
 804ce7c:	8b 5d 10             	mov    0x10(%ebp),%ebx
 804ce7f:	90                   	nop
 804ce80:	8b 45 08             	mov    0x8(%ebp),%eax
 804ce83:	89 5c 24 08          	mov    %ebx,0x8(%esp)
 804ce87:	89 7c 24 04          	mov    %edi,0x4(%esp)
 804ce8b:	89 04 24             	mov    %eax,(%esp)
 804ce8e:	e8 95 c0 ff ff       	call   8048f28 <write@plt>
 804ce93:	85 c0                	test   %eax,%eax
 804ce95:	89 c6                	mov    %eax,%esi
 804ce97:	79 27                	jns    804cec0 <exit@plt+0x3ca8>
 804ce99:	e8 ba bf ff ff       	call   8048e58 <__errno_location@plt>
 804ce9e:	8b 00                	mov    (%eax),%eax
 804cea0:	83 f8 04             	cmp    $0x4,%eax
 804cea3:	74 db                	je     804ce80 <exit@plt+0x3c68>
 804cea5:	83 f8 16             	cmp    $0x16,%eax
 804cea8:	75 16                	jne    804cec0 <exit@plt+0x3ca8>
 804ceaa:	81 fb 00 e0 ff 7f    	cmp    $0x7fffe000,%ebx
 804ceb0:	76 0e                	jbe    804cec0 <exit@plt+0x3ca8>
 804ceb2:	bb 00 e0 ff 7f       	mov    $0x7fffe000,%ebx
 804ceb7:	eb c7                	jmp    804ce80 <exit@plt+0x3c68>
 804ceb9:	8d b4 26 00 00 00 00 	lea    0x0(%esi,%eiz,1),%esi
 804cec0:	83 c4 1c             	add    $0x1c,%esp
 804cec3:	89 f0                	mov    %esi,%eax
 804cec5:	5b                   	pop    %ebx
 804cec6:	5e                   	pop    %esi
 804cec7:	5f                   	pop    %edi
 804cec8:	5d                   	pop    %ebp
 804cec9:	c3                   	ret    
 804ceca:	90                   	nop
 804cecb:	90                   	nop
 804cecc:	90                   	nop
 804cecd:	90                   	nop
 804cece:	90                   	nop
 804cecf:	90                   	nop
 804ced0:	55                   	push   %ebp
 804ced1:	89 e5                	mov    %esp,%ebp
 804ced3:	81 ec 18 08 00 00    	sub    $0x818,%esp
 804ced9:	8b 45 08             	mov    0x8(%ebp),%eax
 804cedc:	89 7d fc             	mov    %edi,-0x4(%ebp)
 804cedf:	8d bd 14 f8 ff ff    	lea    -0x7ec(%ebp),%edi
 804cee5:	89 5d f4             	mov    %ebx,-0xc(%ebp)
 804cee8:	89 75 f8             	mov    %esi,-0x8(%ebp)
 804ceeb:	89 85 04 f8 ff ff    	mov    %eax,-0x7fc(%ebp)
 804cef1:	8b 45 10             	mov    0x10(%ebp),%eax
 804cef4:	65 8b 15 14 00 00 00 	mov    %gs:0x14,%edx
 804cefb:	89 55 e4             	mov    %edx,-0x1c(%ebp)
 804cefe:	31 d2                	xor    %edx,%edx
 804cf00:	c7 85 10 f8 ff ff d0 	movl   $0x7d0,-0x7f0(%ebp)
 804cf07:	07 00 00 
 804cf0a:	89 3c 24             	mov    %edi,(%esp)
 804cf0d:	89 44 24 0c          	mov    %eax,0xc(%esp)
 804cf11:	8b 45 0c             	mov    0xc(%ebp),%eax
 804cf14:	89 44 24 08          	mov    %eax,0x8(%esp)
 804cf18:	8d 85 10 f8 ff ff    	lea    -0x7f0(%ebp),%eax
 804cf1e:	89 44 24 04          	mov    %eax,0x4(%esp)
 804cf22:	e8 29 24 00 00       	call   804f350 <exit@plt+0x6138>
 804cf27:	8b 9d 10 f8 ff ff    	mov    -0x7f0(%ebp),%ebx
 804cf2d:	85 c0                	test   %eax,%eax
 804cf2f:	89 c6                	mov    %eax,%esi
 804cf31:	74 73                	je     804cfa6 <exit@plt+0x3d8e>
 804cf33:	8b 95 04 f8 ff ff    	mov    -0x7fc(%ebp),%edx
 804cf39:	89 5c 24 08          	mov    %ebx,0x8(%esp)
 804cf3d:	c7 44 24 04 01 00 00 	movl   $0x1,0x4(%esp)
 804cf44:	00 
 804cf45:	89 04 24             	mov    %eax,(%esp)
 804cf48:	89 54 24 0c          	mov    %edx,0xc(%esp)
 804cf4c:	e8 87 c1 ff ff       	call   80490d8 <fwrite@plt>
 804cf51:	39 c3                	cmp    %eax,%ebx
 804cf53:	77 23                	ja     804cf78 <exit@plt+0x3d60>
 804cf55:	85 db                	test   %ebx,%ebx
 804cf57:	89 d8                	mov    %ebx,%eax
 804cf59:	78 40                	js     804cf9b <exit@plt+0x3d83>
 804cf5b:	8b 55 e4             	mov    -0x1c(%ebp),%edx
 804cf5e:	65 33 15 14 00 00 00 	xor    %gs:0x14,%edx
 804cf65:	75 54                	jne    804cfbb <exit@plt+0x3da3>
 804cf67:	8b 5d f4             	mov    -0xc(%ebp),%ebx
 804cf6a:	8b 75 f8             	mov    -0x8(%ebp),%esi
 804cf6d:	8b 7d fc             	mov    -0x4(%ebp),%edi
 804cf70:	89 ec                	mov    %ebp,%esp
 804cf72:	5d                   	pop    %ebp
 804cf73:	c3                   	ret    
 804cf74:	8d 74 26 00          	lea    0x0(%esi,%eiz,1),%esi
 804cf78:	39 fe                	cmp    %edi,%esi
 804cf7a:	b8 ff ff ff ff       	mov    $0xffffffff,%eax
 804cf7f:	74 da                	je     804cf5b <exit@plt+0x3d43>
 804cf81:	e8 d2 be ff ff       	call   8048e58 <__errno_location@plt>
 804cf86:	8b 38                	mov    (%eax),%edi
 804cf88:	89 c3                	mov    %eax,%ebx
 804cf8a:	89 34 24             	mov    %esi,(%esp)
 804cf8d:	e8 66 c0 ff ff       	call   8048ff8 <free@plt>
 804cf92:	b8 ff ff ff ff       	mov    $0xffffffff,%eax
 804cf97:	89 3b                	mov    %edi,(%ebx)
 804cf99:	eb c0                	jmp    804cf5b <exit@plt+0x3d43>
 804cf9b:	e8 b8 be ff ff       	call   8048e58 <__errno_location@plt>
 804cfa0:	c7 00 4b 00 00 00    	movl   $0x4b,(%eax)
 804cfa6:	8b 85 04 f8 ff ff    	mov    -0x7fc(%ebp),%eax
 804cfac:	89 04 24             	mov    %eax,(%esp)
 804cfaf:	e8 dc 01 00 00       	call   804d190 <exit@plt+0x3f78>
 804cfb4:	b8 ff ff ff ff       	mov    $0xffffffff,%eax
 804cfb9:	eb a0                	jmp    804cf5b <exit@plt+0x3d43>
 804cfbb:	e8 58 c1 ff ff       	call   8049118 <__stack_chk_fail@plt>
 804cfc0:	55                   	push   %ebp
 804cfc1:	89 e5                	mov    %esp,%ebp
 804cfc3:	83 ec 18             	sub    $0x18,%esp
 804cfc6:	8b 45 0c             	mov    0xc(%ebp),%eax
 804cfc9:	89 44 24 04          	mov    %eax,0x4(%esp)
 804cfcd:	8b 45 08             	mov    0x8(%ebp),%eax
 804cfd0:	89 04 24             	mov    %eax,(%esp)
 804cfd3:	e8 40 bf ff ff       	call   8048f18 <calloc@plt>
 804cfd8:	85 c0                	test   %eax,%eax
 804cfda:	74 02                	je     804cfde <exit@plt+0x3dc6>
 804cfdc:	c9                   	leave  
 804cfdd:	c3                   	ret    
 804cfde:	66 90                	xchg   %ax,%ax
 804cfe0:	e8 2b e9 ff ff       	call   804b910 <exit@plt+0x26f8>
 804cfe5:	8d 74 26 00          	lea    0x0(%esi,%eiz,1),%esi
 804cfe9:	8d bc 27 00 00 00 00 	lea    0x0(%edi,%eiz,1),%edi
 804cff0:	55                   	push   %ebp
 804cff1:	89 e5                	mov    %esp,%ebp
 804cff3:	53                   	push   %ebx
 804cff4:	83 ec 14             	sub    $0x14,%esp
 804cff7:	8b 5d 0c             	mov    0xc(%ebp),%ebx
 804cffa:	8b 45 08             	mov    0x8(%ebp),%eax
 804cffd:	89 5c 24 04          	mov    %ebx,0x4(%esp)
 804d001:	89 04 24             	mov    %eax,(%esp)
 804d004:	e8 bf be ff ff       	call   8048ec8 <realloc@plt>
 804d009:	85 c0                	test   %eax,%eax
 804d00b:	74 06                	je     804d013 <exit@plt+0x3dfb>
 804d00d:	83 c4 14             	add    $0x14,%esp
 804d010:	5b                   	pop    %ebx
 804d011:	5d                   	pop    %ebp
 804d012:	c3                   	ret    
 804d013:	85 db                	test   %ebx,%ebx
 804d015:	74 f6                	je     804d00d <exit@plt+0x3df5>
 804d017:	e8 f4 e8 ff ff       	call   804b910 <exit@plt+0x26f8>
 804d01c:	8d 74 26 00          	lea    0x0(%esi,%eiz,1),%esi
 804d020:	55                   	push   %ebp
 804d021:	89 e5                	mov    %esp,%ebp
 804d023:	53                   	push   %ebx
 804d024:	83 ec 04             	sub    $0x4,%esp
 804d027:	8b 4d 08             	mov    0x8(%ebp),%ecx
 804d02a:	8b 5d 0c             	mov    0xc(%ebp),%ebx
 804d02d:	85 c9                	test   %ecx,%ecx
 804d02f:	8b 03                	mov    (%ebx),%eax
 804d031:	74 25                	je     804d058 <exit@plt+0x3e40>
 804d033:	3d a9 aa aa aa       	cmp    $0xaaaaaaa9,%eax
 804d038:	77 26                	ja     804d060 <exit@plt+0x3e48>
 804d03a:	8d 50 01             	lea    0x1(%eax),%edx
 804d03d:	d1 ea                	shr    %edx
 804d03f:	01 d0                	add    %edx,%eax
 804d041:	89 03                	mov    %eax,(%ebx)
 804d043:	89 45 0c             	mov    %eax,0xc(%ebp)
 804d046:	89 4d 08             	mov    %ecx,0x8(%ebp)
 804d049:	83 c4 04             	add    $0x4,%esp
 804d04c:	5b                   	pop    %ebx
 804d04d:	5d                   	pop    %ebp
 804d04e:	e9 9d ff ff ff       	jmp    804cff0 <exit@plt+0x3dd8>
 804d053:	90                   	nop
 804d054:	8d 74 26 00          	lea    0x0(%esi,%eiz,1),%esi
 804d058:	85 c0                	test   %eax,%eax
 804d05a:	75 e5                	jne    804d041 <exit@plt+0x3e29>
 804d05c:	b0 40                	mov    $0x40,%al
 804d05e:	eb e1                	jmp    804d041 <exit@plt+0x3e29>
 804d060:	e8 ab e8 ff ff       	call   804b910 <exit@plt+0x26f8>
 804d065:	8d 74 26 00          	lea    0x0(%esi,%eiz,1),%esi
 804d069:	8d bc 27 00 00 00 00 	lea    0x0(%edi,%eiz,1),%edi
 804d070:	55                   	push   %ebp
 804d071:	89 e5                	mov    %esp,%ebp
 804d073:	53                   	push   %ebx
 804d074:	83 ec 14             	sub    $0x14,%esp
 804d077:	8b 5d 08             	mov    0x8(%ebp),%ebx
 804d07a:	89 1c 24             	mov    %ebx,(%esp)
 804d07d:	e8 76 c0 ff ff       	call   80490f8 <malloc@plt>
 804d082:	85 c0                	test   %eax,%eax
 804d084:	74 06                	je     804d08c <exit@plt+0x3e74>
 804d086:	83 c4 14             	add    $0x14,%esp
 804d089:	5b                   	pop    %ebx
 804d08a:	5d                   	pop    %ebp
 804d08b:	c3                   	ret    
 804d08c:	85 db                	test   %ebx,%ebx
 804d08e:	66 90                	xchg   %ax,%ax
 804d090:	74 f4                	je     804d086 <exit@plt+0x3e6e>
 804d092:	e8 79 e8 ff ff       	call   804b910 <exit@plt+0x26f8>
 804d097:	89 f6                	mov    %esi,%esi
 804d099:	8d bc 27 00 00 00 00 	lea    0x0(%edi,%eiz,1),%edi
 804d0a0:	55                   	push   %ebp
 804d0a1:	89 e5                	mov    %esp,%ebp
 804d0a3:	53                   	push   %ebx
 804d0a4:	83 ec 14             	sub    $0x14,%esp
 804d0a7:	8b 5d 0c             	mov    0xc(%ebp),%ebx
 804d0aa:	89 1c 24             	mov    %ebx,(%esp)
 804d0ad:	e8 be ff ff ff       	call   804d070 <exit@plt+0x3e58>
 804d0b2:	8b 55 08             	mov    0x8(%ebp),%edx
 804d0b5:	89 5c 24 08          	mov    %ebx,0x8(%esp)
 804d0b9:	89 54 24 04          	mov    %edx,0x4(%esp)
 804d0bd:	89 04 24             	mov    %eax,(%esp)
 804d0c0:	e8 a3 bf ff ff       	call   8049068 <memcpy@plt>
 804d0c5:	83 c4 14             	add    $0x14,%esp
 804d0c8:	5b                   	pop    %ebx
 804d0c9:	5d                   	pop    %ebp
 804d0ca:	c3                   	ret    
 804d0cb:	90                   	nop
 804d0cc:	8d 74 26 00          	lea    0x0(%esi,%eiz,1),%esi
 804d0d0:	55                   	push   %ebp
 804d0d1:	89 e5                	mov    %esp,%ebp
 804d0d3:	53                   	push   %ebx
 804d0d4:	83 ec 14             	sub    $0x14,%esp
 804d0d7:	8b 5d 08             	mov    0x8(%ebp),%ebx
 804d0da:	89 1c 24             	mov    %ebx,(%esp)
 804d0dd:	e8 96 bf ff ff       	call   8049078 <strlen@plt>
 804d0e2:	89 1c 24             	mov    %ebx,(%esp)
 804d0e5:	83 c0 01             	add    $0x1,%eax
 804d0e8:	89 44 24 04          	mov    %eax,0x4(%esp)
 804d0ec:	e8 af ff ff ff       	call   804d0a0 <exit@plt+0x3e88>
 804d0f1:	83 c4 14             	add    $0x14,%esp
 804d0f4:	5b                   	pop    %ebx
 804d0f5:	5d                   	pop    %ebp
 804d0f6:	c3                   	ret    
 804d0f7:	89 f6                	mov    %esi,%esi
 804d0f9:	8d bc 27 00 00 00 00 	lea    0x0(%edi,%eiz,1),%edi
 804d100:	55                   	push   %ebp
 804d101:	89 e5                	mov    %esp,%ebp
 804d103:	53                   	push   %ebx
 804d104:	83 ec 14             	sub    $0x14,%esp
 804d107:	8b 5d 08             	mov    0x8(%ebp),%ebx
 804d10a:	89 1c 24             	mov    %ebx,(%esp)
 804d10d:	e8 5e ff ff ff       	call   804d070 <exit@plt+0x3e58>
 804d112:	89 5c 24 08          	mov    %ebx,0x8(%esp)
 804d116:	c7 44 24 04 00 00 00 	movl   $0x0,0x4(%esp)
 804d11d:	00 
 804d11e:	89 04 24             	mov    %eax,(%esp)
 804d121:	e8 22 be ff ff       	call   8048f48 <memset@plt>
 804d126:	83 c4 14             	add    $0x14,%esp
 804d129:	5b                   	pop    %ebx
 804d12a:	5d                   	pop    %ebp
 804d12b:	c3                   	ret    
 804d12c:	90                   	nop
 804d12d:	90                   	nop
 804d12e:	90                   	nop
 804d12f:	90                   	nop
 804d130:	55                   	push   %ebp
 804d131:	31 d2                	xor    %edx,%edx
 804d133:	89 e5                	mov    %esp,%ebp
 804d135:	31 c0                	xor    %eax,%eax
 804d137:	57                   	push   %edi
 804d138:	56                   	push   %esi
 804d139:	8b 75 08             	mov    0x8(%ebp),%esi
 804d13c:	53                   	push   %ebx
 804d13d:	8b 5d 0c             	mov    0xc(%ebp),%ebx
 804d140:	39 de                	cmp    %ebx,%esi
 804d142:	74 35                	je     804d179 <exit@plt+0x3f61>
 804d144:	8d 74 26 00          	lea    0x0(%esi,%eiz,1),%esi
 804d148:	0f b6 04 16          	movzbl (%esi,%edx,1),%eax
 804d14c:	8d 48 bf             	lea    -0x41(%eax),%ecx
 804d14f:	83 f9 19             	cmp    $0x19,%ecx
 804d152:	77 03                	ja     804d157 <exit@plt+0x3f3f>
 804d154:	83 c0 20             	add    $0x20,%eax
 804d157:	0f b6 0c 13          	movzbl (%ebx,%edx,1),%ecx
 804d15b:	8d 79 bf             	lea    -0x41(%ecx),%edi
 804d15e:	83 ff 19             	cmp    $0x19,%edi
 804d161:	77 03                	ja     804d166 <exit@plt+0x3f4e>
 804d163:	83 c1 20             	add    $0x20,%ecx
 804d166:	84 c0                	test   %al,%al
 804d168:	74 16                	je     804d180 <exit@plt+0x3f68>
 804d16a:	83 c2 01             	add    $0x1,%edx
 804d16d:	38 c8                	cmp    %cl,%al
 804d16f:	74 d7                	je     804d148 <exit@plt+0x3f30>
 804d171:	0f b6 c0             	movzbl %al,%eax
 804d174:	0f b6 c9             	movzbl %cl,%ecx
 804d177:	29 c8                	sub    %ecx,%eax
 804d179:	5b                   	pop    %ebx
 804d17a:	5e                   	pop    %esi
 804d17b:	5f                   	pop    %edi
 804d17c:	5d                   	pop    %ebp
 804d17d:	c3                   	ret    
 804d17e:	66 90                	xchg   %ax,%ax
 804d180:	31 c0                	xor    %eax,%eax
 804d182:	eb f0                	jmp    804d174 <exit@plt+0x3f5c>
 804d184:	90                   	nop
 804d185:	90                   	nop
 804d186:	90                   	nop
 804d187:	90                   	nop
 804d188:	90                   	nop
 804d189:	90                   	nop
 804d18a:	90                   	nop
 804d18b:	90                   	nop
 804d18c:	90                   	nop
 804d18d:	90                   	nop
 804d18e:	90                   	nop
 804d18f:	90                   	nop
 804d190:	55                   	push   %ebp
 804d191:	89 e5                	mov    %esp,%ebp
 804d193:	8b 45 08             	mov    0x8(%ebp),%eax
 804d196:	83 08 20             	orl    $0x20,(%eax)
 804d199:	5d                   	pop    %ebp
 804d19a:	c3                   	ret    
 804d19b:	90                   	nop
 804d19c:	90                   	nop
 804d19d:	90                   	nop
 804d19e:	90                   	nop
 804d19f:	90                   	nop
 804d1a0:	55                   	push   %ebp
 804d1a1:	89 e5                	mov    %esp,%ebp
 804d1a3:	57                   	push   %edi
 804d1a4:	56                   	push   %esi
 804d1a5:	53                   	push   %ebx
 804d1a6:	81 ec ac 00 00 00    	sub    $0xac,%esp
 804d1ac:	c7 04 24 0e 00 00 00 	movl   $0xe,(%esp)
 804d1b3:	65 a1 14 00 00 00    	mov    %gs:0x14,%eax
 804d1b9:	89 45 e4             	mov    %eax,-0x1c(%ebp)
 804d1bc:	31 c0                	xor    %eax,%eax
 804d1be:	e8 25 bf ff ff       	call   80490e8 <nl_langinfo@plt>
 804d1c3:	85 c0                	test   %eax,%eax
 804d1c5:	89 c6                	mov    %eax,%esi
 804d1c7:	0f 84 93 00 00 00    	je     804d260 <exit@plt+0x4048>
 804d1cd:	8b 15 e0 52 05 08    	mov    0x80552e0,%edx
 804d1d3:	85 d2                	test   %edx,%edx
 804d1d5:	89 d3                	mov    %edx,%ebx
 804d1d7:	0f 84 98 00 00 00    	je     804d275 <exit@plt+0x405d>
 804d1dd:	0f b6 3b             	movzbl (%ebx),%edi
 804d1e0:	89 f8                	mov    %edi,%eax
 804d1e2:	84 c0                	test   %al,%al
 804d1e4:	75 23                	jne    804d209 <exit@plt+0x3ff1>
 804d1e6:	eb 4a                	jmp    804d232 <exit@plt+0x401a>
 804d1e8:	89 1c 24             	mov    %ebx,(%esp)
 804d1eb:	e8 88 be ff ff       	call   8049078 <strlen@plt>
 804d1f0:	8d 5c 03 01          	lea    0x1(%ebx,%eax,1),%ebx
 804d1f4:	89 1c 24             	mov    %ebx,(%esp)
 804d1f7:	e8 7c be ff ff       	call   8049078 <strlen@plt>
 804d1fc:	8d 5c 03 01          	lea    0x1(%ebx,%eax,1),%ebx
 804d200:	0f b6 3b             	movzbl (%ebx),%edi
 804d203:	89 f9                	mov    %edi,%ecx
 804d205:	84 c9                	test   %cl,%cl
 804d207:	74 29                	je     804d232 <exit@plt+0x401a>
 804d209:	89 5c 24 04          	mov    %ebx,0x4(%esp)
 804d20d:	89 34 24             	mov    %esi,(%esp)
 804d210:	e8 e3 bf ff ff       	call   80491f8 <strcmp@plt>
 804d215:	85 c0                	test   %eax,%eax
 804d217:	74 0d                	je     804d226 <exit@plt+0x400e>
 804d219:	89 fa                	mov    %edi,%edx
 804d21b:	80 fa 2a             	cmp    $0x2a,%dl
 804d21e:	75 c8                	jne    804d1e8 <exit@plt+0x3fd0>
 804d220:	80 7b 01 00          	cmpb   $0x0,0x1(%ebx)
 804d224:	75 c2                	jne    804d1e8 <exit@plt+0x3fd0>
 804d226:	89 1c 24             	mov    %ebx,(%esp)
 804d229:	e8 4a be ff ff       	call   8049078 <strlen@plt>
 804d22e:	8d 74 03 01          	lea    0x1(%ebx,%eax,1),%esi
 804d232:	80 3e 00             	cmpb   $0x0,(%esi)
 804d235:	75 05                	jne    804d23c <exit@plt+0x4024>
 804d237:	be 83 2f 05 08       	mov    $0x8052f83,%esi
 804d23c:	8b 5d e4             	mov    -0x1c(%ebp),%ebx
 804d23f:	65 33 1d 14 00 00 00 	xor    %gs:0x14,%ebx
 804d246:	89 f0                	mov    %esi,%eax
 804d248:	0f 85 6d 03 00 00    	jne    804d5bb <exit@plt+0x43a3>
 804d24e:	81 c4 ac 00 00 00    	add    $0xac,%esp
 804d254:	5b                   	pop    %ebx
 804d255:	5e                   	pop    %esi
 804d256:	5f                   	pop    %edi
 804d257:	5d                   	pop    %ebp
 804d258:	c3                   	ret    
 804d259:	8d b4 26 00 00 00 00 	lea    0x0(%esi,%eiz,1),%esi
 804d260:	8b 15 e0 52 05 08    	mov    0x80552e0,%edx
 804d266:	be 90 28 05 08       	mov    $0x8052890,%esi
 804d26b:	85 d2                	test   %edx,%edx
 804d26d:	89 d3                	mov    %edx,%ebx
 804d26f:	0f 85 68 ff ff ff    	jne    804d1dd <exit@plt+0x3fc5>
 804d275:	89 95 64 ff ff ff    	mov    %edx,-0x9c(%ebp)
 804d27b:	c7 04 24 60 2f 05 08 	movl   $0x8052f60,(%esp)
 804d282:	e8 81 bc ff ff       	call   8048f08 <getenv@plt>
 804d287:	8b 95 64 ff ff ff    	mov    -0x9c(%ebp),%edx
 804d28d:	85 c0                	test   %eax,%eax
 804d28f:	89 c7                	mov    %eax,%edi
 804d291:	74 09                	je     804d29c <exit@plt+0x4084>
 804d293:	80 38 00             	cmpb   $0x0,(%eax)
 804d296:	0f 85 bf 02 00 00    	jne    804d55b <exit@plt+0x4343>
 804d29c:	b9 07 00 00 00       	mov    $0x7,%ecx
 804d2a1:	bf 70 2f 05 08       	mov    $0x8052f70,%edi
 804d2a6:	c7 85 74 ff ff ff 08 	movl   $0x8,-0x8c(%ebp)
 804d2ad:	00 00 00 
 804d2b0:	c7 85 68 ff ff ff 01 	movl   $0x1,-0x98(%ebp)
 804d2b7:	00 00 00 
 804d2ba:	b8 01 00 00 00       	mov    $0x1,%eax
 804d2bf:	80 3c 0f 2f          	cmpb   $0x2f,(%edi,%ecx,1)
 804d2c3:	0f 84 39 02 00 00    	je     804d502 <exit@plt+0x42ea>
 804d2c9:	03 85 74 ff ff ff    	add    -0x8c(%ebp),%eax
 804d2cf:	bb 90 28 05 08       	mov    $0x8052890,%ebx
 804d2d4:	89 95 64 ff ff ff    	mov    %edx,-0x9c(%ebp)
 804d2da:	89 85 70 ff ff ff    	mov    %eax,-0x90(%ebp)
 804d2e0:	83 c0 0e             	add    $0xe,%eax
 804d2e3:	89 04 24             	mov    %eax,(%esp)
 804d2e6:	e8 0d be ff ff       	call   80490f8 <malloc@plt>
 804d2eb:	85 c0                	test   %eax,%eax
 804d2ed:	89 85 6c ff ff ff    	mov    %eax,-0x94(%ebp)
 804d2f3:	0f 84 fe 01 00 00    	je     804d4f7 <exit@plt+0x42df>
 804d2f9:	8b 8d 74 ff ff ff    	mov    -0x8c(%ebp),%ecx
 804d2ff:	89 7c 24 04          	mov    %edi,0x4(%esp)
 804d303:	89 04 24             	mov    %eax,(%esp)
 804d306:	89 4c 24 08          	mov    %ecx,0x8(%esp)
 804d30a:	e8 59 bd ff ff       	call   8049068 <memcpy@plt>
 804d30f:	8b 9d 68 ff ff ff    	mov    -0x98(%ebp),%ebx
 804d315:	8b 95 64 ff ff ff    	mov    -0x9c(%ebp),%edx
 804d31b:	85 db                	test   %ebx,%ebx
 804d31d:	0f 85 5d 02 00 00    	jne    804d580 <exit@plt+0x4368>
 804d323:	8b 85 6c ff ff ff    	mov    -0x94(%ebp),%eax
 804d329:	bb 90 28 05 08       	mov    $0x8052890,%ebx
 804d32e:	03 85 70 ff ff ff    	add    -0x90(%ebp),%eax
 804d334:	c7 00 63 68 61 72    	movl   $0x72616863,(%eax)
 804d33a:	c7 40 04 73 65 74 2e 	movl   $0x2e746573,0x4(%eax)
 804d341:	c7 40 08 61 6c 69 61 	movl   $0x61696c61,0x8(%eax)
 804d348:	66 c7 40 0c 73 00    	movw   $0x73,0xc(%eax)
 804d34e:	8b 8d 6c ff ff ff    	mov    -0x94(%ebp),%ecx
 804d354:	89 95 64 ff ff ff    	mov    %edx,-0x9c(%ebp)
 804d35a:	c7 44 24 04 de 26 05 	movl   $0x80526de,0x4(%esp)
 804d361:	08 
 804d362:	89 0c 24             	mov    %ecx,(%esp)
 804d365:	e8 ee bb ff ff       	call   8048f58 <fopen64@plt>
 804d36a:	8b 95 64 ff ff ff    	mov    -0x9c(%ebp),%edx
 804d370:	c7 85 74 ff ff ff 00 	movl   $0x0,-0x8c(%ebp)
 804d377:	00 00 00 
 804d37a:	85 c0                	test   %eax,%eax
 804d37c:	89 c7                	mov    %eax,%edi
 804d37e:	0f 84 65 01 00 00    	je     804d4e9 <exit@plt+0x42d1>
 804d384:	89 b5 68 ff ff ff    	mov    %esi,-0x98(%ebp)
 804d38a:	89 d6                	mov    %edx,%esi
 804d38c:	8d 74 26 00          	lea    0x0(%esi,%eiz,1),%esi
 804d390:	8b 57 04             	mov    0x4(%edi),%edx
 804d393:	3b 57 08             	cmp    0x8(%edi),%edx
 804d396:	0f 83 31 02 00 00    	jae    804d5cd <exit@plt+0x43b5>
 804d39c:	0f b6 02             	movzbl (%edx),%eax
 804d39f:	83 c2 01             	add    $0x1,%edx
 804d3a2:	89 57 04             	mov    %edx,0x4(%edi)
 804d3a5:	83 f8 20             	cmp    $0x20,%eax
 804d3a8:	0f 84 6a 01 00 00    	je     804d518 <exit@plt+0x4300>
 804d3ae:	83 f8 0a             	cmp    $0xa,%eax
 804d3b1:	0f 84 61 01 00 00    	je     804d518 <exit@plt+0x4300>
 804d3b7:	83 f8 09             	cmp    $0x9,%eax
 804d3ba:	0f 84 58 01 00 00    	je     804d518 <exit@plt+0x4300>
 804d3c0:	83 f8 23             	cmp    $0x23,%eax
 804d3c3:	0f 84 d7 00 00 00    	je     804d4a0 <exit@plt+0x4288>
 804d3c9:	89 7c 24 04          	mov    %edi,0x4(%esp)
 804d3cd:	8d 9d 7e ff ff ff    	lea    -0x82(%ebp),%ebx
 804d3d3:	89 04 24             	mov    %eax,(%esp)
 804d3d6:	e8 0d bc ff ff       	call   8048fe8 <ungetc@plt>
 804d3db:	8d 45 b1             	lea    -0x4f(%ebp),%eax
 804d3de:	89 5c 24 0c          	mov    %ebx,0xc(%esp)
 804d3e2:	89 44 24 08          	mov    %eax,0x8(%esp)
 804d3e6:	c7 44 24 04 79 2f 05 	movl   $0x8052f79,0x4(%esp)
 804d3ed:	08 
 804d3ee:	89 3c 24             	mov    %edi,(%esp)
 804d3f1:	e8 b2 bd ff ff       	call   80491a8 <fscanf@plt>
 804d3f6:	83 f8 01             	cmp    $0x1,%eax
 804d3f9:	0f 8e c0 00 00 00    	jle    804d4bf <exit@plt+0x42a7>
 804d3ff:	8d 55 b1             	lea    -0x4f(%ebp),%edx
 804d402:	89 14 24             	mov    %edx,(%esp)
 804d405:	e8 6e bc ff ff       	call   8049078 <strlen@plt>
 804d40a:	89 1c 24             	mov    %ebx,(%esp)
 804d40d:	89 85 70 ff ff ff    	mov    %eax,-0x90(%ebp)
 804d413:	e8 60 bc ff ff       	call   8049078 <strlen@plt>
 804d418:	8b 8d 74 ff ff ff    	mov    -0x8c(%ebp),%ecx
 804d41e:	85 c9                	test   %ecx,%ecx
 804d420:	89 c2                	mov    %eax,%edx
 804d422:	0f 85 f9 00 00 00    	jne    804d521 <exit@plt+0x4309>
 804d428:	8b 85 70 ff ff ff    	mov    -0x90(%ebp),%eax
 804d42e:	89 95 64 ff ff ff    	mov    %edx,-0x9c(%ebp)
 804d434:	01 d0                	add    %edx,%eax
 804d436:	8d 58 02             	lea    0x2(%eax),%ebx
 804d439:	83 c0 03             	add    $0x3,%eax
 804d43c:	89 9d 74 ff ff ff    	mov    %ebx,-0x8c(%ebp)
 804d442:	89 04 24             	mov    %eax,(%esp)
 804d445:	e8 ae bc ff ff       	call   80490f8 <malloc@plt>
 804d44a:	8b 95 64 ff ff ff    	mov    -0x9c(%ebp),%edx
 804d450:	89 c3                	mov    %eax,%ebx
 804d452:	85 db                	test   %ebx,%ebx
 804d454:	0f 84 3b 01 00 00    	je     804d595 <exit@plt+0x437d>
 804d45a:	8b b5 74 ff ff ff    	mov    -0x8c(%ebp),%esi
 804d460:	8d 45 b1             	lea    -0x4f(%ebp),%eax
 804d463:	89 44 24 04          	mov    %eax,0x4(%esp)
 804d467:	29 d6                	sub    %edx,%esi
 804d469:	89 f0                	mov    %esi,%eax
 804d46b:	2b 85 70 ff ff ff    	sub    -0x90(%ebp),%eax
 804d471:	8d 44 03 fe          	lea    -0x2(%ebx,%eax,1),%eax
 804d475:	89 04 24             	mov    %eax,(%esp)
 804d478:	e8 2b bc ff ff       	call   80490a8 <strcpy@plt>
 804d47d:	8d 44 33 ff          	lea    -0x1(%ebx,%esi,1),%eax
 804d481:	89 de                	mov    %ebx,%esi
 804d483:	8d 95 7e ff ff ff    	lea    -0x82(%ebp),%edx
 804d489:	89 54 24 04          	mov    %edx,0x4(%esp)
 804d48d:	89 04 24             	mov    %eax,(%esp)
 804d490:	e8 13 bc ff ff       	call   80490a8 <strcpy@plt>
 804d495:	e9 f6 fe ff ff       	jmp    804d390 <exit@plt+0x4178>
 804d49a:	8d b6 00 00 00 00    	lea    0x0(%esi),%esi
 804d4a0:	8b 57 04             	mov    0x4(%edi),%edx
 804d4a3:	3b 57 08             	cmp    0x8(%edi),%edx
 804d4a6:	0f 83 14 01 00 00    	jae    804d5c0 <exit@plt+0x43a8>
 804d4ac:	0f b6 02             	movzbl (%edx),%eax
 804d4af:	83 c2 01             	add    $0x1,%edx
 804d4b2:	89 57 04             	mov    %edx,0x4(%edi)
 804d4b5:	83 f8 0a             	cmp    $0xa,%eax
 804d4b8:	74 5e                	je     804d518 <exit@plt+0x4300>
 804d4ba:	83 f8 ff             	cmp    $0xffffffff,%eax
 804d4bd:	75 e1                	jne    804d4a0 <exit@plt+0x4288>
 804d4bf:	89 f2                	mov    %esi,%edx
 804d4c1:	8b b5 68 ff ff ff    	mov    -0x98(%ebp),%esi
 804d4c7:	89 d3                	mov    %edx,%ebx
 804d4c9:	89 3c 24             	mov    %edi,(%esp)
 804d4cc:	e8 77 bb ff ff       	call   8049048 <fclose@plt>
 804d4d1:	8b 85 74 ff ff ff    	mov    -0x8c(%ebp),%eax
 804d4d7:	85 c0                	test   %eax,%eax
 804d4d9:	0f 84 d2 00 00 00    	je     804d5b1 <exit@plt+0x4399>
 804d4df:	8b 8d 74 ff ff ff    	mov    -0x8c(%ebp),%ecx
 804d4e5:	c6 04 0b 00          	movb   $0x0,(%ebx,%ecx,1)
 804d4e9:	8b 85 6c ff ff ff    	mov    -0x94(%ebp),%eax
 804d4ef:	89 04 24             	mov    %eax,(%esp)
 804d4f2:	e8 01 bb ff ff       	call   8048ff8 <free@plt>
 804d4f7:	89 1d e0 52 05 08    	mov    %ebx,0x80552e0
 804d4fd:	e9 db fc ff ff       	jmp    804d1dd <exit@plt+0x3fc5>
 804d502:	31 c0                	xor    %eax,%eax
 804d504:	c7 85 68 ff ff ff 00 	movl   $0x0,-0x98(%ebp)
 804d50b:	00 00 00 
 804d50e:	e9 b6 fd ff ff       	jmp    804d2c9 <exit@plt+0x40b1>
 804d513:	90                   	nop
 804d514:	8d 74 26 00          	lea    0x0(%esi,%eiz,1),%esi
 804d518:	89 f3                	mov    %esi,%ebx
 804d51a:	89 de                	mov    %ebx,%esi
 804d51c:	e9 6f fe ff ff       	jmp    804d390 <exit@plt+0x4178>
 804d521:	8b 9d 74 ff ff ff    	mov    -0x8c(%ebp),%ebx
 804d527:	8b 8d 70 ff ff ff    	mov    -0x90(%ebp),%ecx
 804d52d:	89 95 64 ff ff ff    	mov    %edx,-0x9c(%ebp)
 804d533:	89 34 24             	mov    %esi,(%esp)
 804d536:	8d 44 0b 02          	lea    0x2(%ebx,%ecx,1),%eax
 804d53a:	01 d0                	add    %edx,%eax
 804d53c:	89 85 74 ff ff ff    	mov    %eax,-0x8c(%ebp)
 804d542:	83 c0 01             	add    $0x1,%eax
 804d545:	89 44 24 04          	mov    %eax,0x4(%esp)
 804d549:	e8 7a b9 ff ff       	call   8048ec8 <realloc@plt>
 804d54e:	8b 95 64 ff ff ff    	mov    -0x9c(%ebp),%edx
 804d554:	89 c3                	mov    %eax,%ebx
 804d556:	e9 f7 fe ff ff       	jmp    804d452 <exit@plt+0x423a>
 804d55b:	89 04 24             	mov    %eax,(%esp)
 804d55e:	e8 15 bb ff ff       	call   8049078 <strlen@plt>
 804d563:	8b 95 64 ff ff ff    	mov    -0x9c(%ebp),%edx
 804d569:	85 c0                	test   %eax,%eax
 804d56b:	89 85 74 ff ff ff    	mov    %eax,-0x8c(%ebp)
 804d571:	74 8f                	je     804d502 <exit@plt+0x42ea>
 804d573:	89 c1                	mov    %eax,%ecx
 804d575:	83 e9 01             	sub    $0x1,%ecx
 804d578:	e9 33 fd ff ff       	jmp    804d2b0 <exit@plt+0x4098>
 804d57d:	8d 76 00             	lea    0x0(%esi),%esi
 804d580:	8b 85 6c ff ff ff    	mov    -0x94(%ebp),%eax
 804d586:	8b 9d 74 ff ff ff    	mov    -0x8c(%ebp),%ebx
 804d58c:	c6 04 18 2f          	movb   $0x2f,(%eax,%ebx,1)
 804d590:	e9 8e fd ff ff       	jmp    804d323 <exit@plt+0x410b>
 804d595:	89 f2                	mov    %esi,%edx
 804d597:	8b b5 68 ff ff ff    	mov    -0x98(%ebp),%esi
 804d59d:	85 d2                	test   %edx,%edx
 804d59f:	74 08                	je     804d5a9 <exit@plt+0x4391>
 804d5a1:	89 14 24             	mov    %edx,(%esp)
 804d5a4:	e8 4f ba ff ff       	call   8048ff8 <free@plt>
 804d5a9:	89 3c 24             	mov    %edi,(%esp)
 804d5ac:	e8 97 ba ff ff       	call   8049048 <fclose@plt>
 804d5b1:	bb 90 28 05 08       	mov    $0x8052890,%ebx
 804d5b6:	e9 2e ff ff ff       	jmp    804d4e9 <exit@plt+0x42d1>
 804d5bb:	e8 58 bb ff ff       	call   8049118 <__stack_chk_fail@plt>
 804d5c0:	89 3c 24             	mov    %edi,(%esp)
 804d5c3:	e8 70 b9 ff ff       	call   8048f38 <__uflow@plt>
 804d5c8:	e9 e8 fe ff ff       	jmp    804d4b5 <exit@plt+0x429d>
 804d5cd:	89 3c 24             	mov    %edi,(%esp)
 804d5d0:	e8 63 b9 ff ff       	call   8048f38 <__uflow@plt>
 804d5d5:	83 f8 ff             	cmp    $0xffffffff,%eax
 804d5d8:	0f 84 e1 fe ff ff    	je     804d4bf <exit@plt+0x42a7>
 804d5de:	66 90                	xchg   %ax,%ax
 804d5e0:	e9 c0 fd ff ff       	jmp    804d3a5 <exit@plt+0x418d>
 804d5e5:	90                   	nop
 804d5e6:	90                   	nop
 804d5e7:	90                   	nop
 804d5e8:	90                   	nop
 804d5e9:	90                   	nop
 804d5ea:	90                   	nop
 804d5eb:	90                   	nop
 804d5ec:	90                   	nop
 804d5ed:	90                   	nop
 804d5ee:	90                   	nop
 804d5ef:	90                   	nop
 804d5f0:	55                   	push   %ebp
 804d5f1:	89 e5                	mov    %esp,%ebp
 804d5f3:	56                   	push   %esi
 804d5f4:	53                   	push   %ebx
 804d5f5:	89 c3                	mov    %eax,%ebx
 804d5f7:	83 ec 10             	sub    $0x10,%esp
 804d5fa:	80 78 0c 00          	cmpb   $0x0,0xc(%eax)
 804d5fe:	75 37                	jne    804d637 <exit@plt+0x441f>
 804d600:	80 38 00             	cmpb   $0x0,(%eax)
 804d603:	8d 70 04             	lea    0x4(%eax),%esi
 804d606:	75 4e                	jne    804d656 <exit@plt+0x443e>
 804d608:	8b 50 10             	mov    0x10(%eax),%edx
 804d60b:	0f b6 02             	movzbl (%edx),%eax
 804d60e:	89 c1                	mov    %eax,%ecx
 804d610:	c0 e9 05             	shr    $0x5,%cl
 804d613:	0f b6 c9             	movzbl %cl,%ecx
 804d616:	8b 0c 8d a0 2f 05 08 	mov    0x8052fa0(,%ecx,4),%ecx
 804d61d:	0f a3 c1             	bt     %eax,%ecx
 804d620:	73 1e                	jae    804d640 <exit@plt+0x4428>
 804d622:	c7 43 14 01 00 00 00 	movl   $0x1,0x14(%ebx)
 804d629:	0f be 02             	movsbl (%edx),%eax
 804d62c:	c6 43 18 01          	movb   $0x1,0x18(%ebx)
 804d630:	89 43 1c             	mov    %eax,0x1c(%ebx)
 804d633:	c6 43 0c 01          	movb   $0x1,0xc(%ebx)
 804d637:	83 c4 10             	add    $0x10,%esp
 804d63a:	5b                   	pop    %ebx
 804d63b:	5e                   	pop    %esi
 804d63c:	5d                   	pop    %ebp
 804d63d:	c3                   	ret    
 804d63e:	66 90                	xchg   %ax,%ax
 804d640:	8d 73 04             	lea    0x4(%ebx),%esi
 804d643:	89 34 24             	mov    %esi,(%esp)
 804d646:	e8 0d ba ff ff       	call   8049058 <mbsinit@plt>
 804d64b:	85 c0                	test   %eax,%eax
 804d64d:	0f 84 a4 00 00 00    	je     804d6f7 <exit@plt+0x44df>
 804d653:	c6 03 01             	movb   $0x1,(%ebx)
 804d656:	e8 3d b8 ff ff       	call   8048e98 <__ctype_get_mb_cur_max@plt>
 804d65b:	89 44 24 04          	mov    %eax,0x4(%esp)
 804d65f:	8b 43 10             	mov    0x10(%ebx),%eax
 804d662:	89 04 24             	mov    %eax,(%esp)
 804d665:	e8 a6 da ff ff       	call   804b110 <exit@plt+0x1ef8>
 804d66a:	89 74 24 0c          	mov    %esi,0xc(%esp)
 804d66e:	89 44 24 08          	mov    %eax,0x8(%esp)
 804d672:	8b 43 10             	mov    0x10(%ebx),%eax
 804d675:	89 44 24 04          	mov    %eax,0x4(%esp)
 804d679:	8d 43 1c             	lea    0x1c(%ebx),%eax
 804d67c:	89 04 24             	mov    %eax,(%esp)
 804d67f:	e8 44 b9 ff ff       	call   8048fc8 <mbrtowc@plt>
 804d684:	83 f8 ff             	cmp    $0xffffffff,%eax
 804d687:	89 43 14             	mov    %eax,0x14(%ebx)
 804d68a:	74 44                	je     804d6d0 <exit@plt+0x44b8>
 804d68c:	83 f8 fe             	cmp    $0xfffffffe,%eax
 804d68f:	74 4f                	je     804d6e0 <exit@plt+0x44c8>
 804d691:	85 c0                	test   %eax,%eax
 804d693:	75 1a                	jne    804d6af <exit@plt+0x4497>
 804d695:	8b 43 10             	mov    0x10(%ebx),%eax
 804d698:	c7 43 14 01 00 00 00 	movl   $0x1,0x14(%ebx)
 804d69f:	80 38 00             	cmpb   $0x0,(%eax)
 804d6a2:	0f 85 97 00 00 00    	jne    804d73f <exit@plt+0x4527>
 804d6a8:	8b 43 1c             	mov    0x1c(%ebx),%eax
 804d6ab:	85 c0                	test   %eax,%eax
 804d6ad:	75 6c                	jne    804d71b <exit@plt+0x4503>
 804d6af:	c6 43 18 01          	movb   $0x1,0x18(%ebx)
 804d6b3:	89 34 24             	mov    %esi,(%esp)
 804d6b6:	e8 9d b9 ff ff       	call   8049058 <mbsinit@plt>
 804d6bb:	85 c0                	test   %eax,%eax
 804d6bd:	0f 84 70 ff ff ff    	je     804d633 <exit@plt+0x441b>
 804d6c3:	c6 03 00             	movb   $0x0,(%ebx)
 804d6c6:	e9 68 ff ff ff       	jmp    804d633 <exit@plt+0x441b>
 804d6cb:	90                   	nop
 804d6cc:	8d 74 26 00          	lea    0x0(%esi,%eiz,1),%esi
 804d6d0:	c7 43 14 01 00 00 00 	movl   $0x1,0x14(%ebx)
 804d6d7:	c6 43 18 00          	movb   $0x0,0x18(%ebx)
 804d6db:	e9 53 ff ff ff       	jmp    804d633 <exit@plt+0x441b>
 804d6e0:	8b 43 10             	mov    0x10(%ebx),%eax
 804d6e3:	89 04 24             	mov    %eax,(%esp)
 804d6e6:	e8 8d b9 ff ff       	call   8049078 <strlen@plt>
 804d6eb:	c6 43 18 00          	movb   $0x0,0x18(%ebx)
 804d6ef:	89 43 14             	mov    %eax,0x14(%ebx)
 804d6f2:	e9 3c ff ff ff       	jmp    804d633 <exit@plt+0x441b>
 804d6f7:	c7 44 24 0c c0 2f 05 	movl   $0x8052fc0,0xc(%esp)
 804d6fe:	08 
 804d6ff:	c7 44 24 08 8e 00 00 	movl   $0x8e,0x8(%esp)
 804d706:	00 
 804d707:	c7 44 24 04 f4 27 05 	movl   $0x80527f4,0x4(%esp)
 804d70e:	08 
 804d70f:	c7 04 24 fe 27 05 08 	movl   $0x80527fe,(%esp)
 804d716:	e8 8d b8 ff ff       	call   8048fa8 <__assert_fail@plt>
 804d71b:	c7 44 24 0c c0 2f 05 	movl   $0x8052fc0,0xc(%esp)
 804d722:	08 
 804d723:	c7 44 24 08 ab 00 00 	movl   $0xab,0x8(%esp)
 804d72a:	00 
 804d72b:	c7 44 24 04 f4 27 05 	movl   $0x80527f4,0x4(%esp)
 804d732:	08 
 804d733:	c7 04 24 2c 28 05 08 	movl   $0x805282c,(%esp)
 804d73a:	e8 69 b8 ff ff       	call   8048fa8 <__assert_fail@plt>
 804d73f:	c7 44 24 0c c0 2f 05 	movl   $0x8052fc0,0xc(%esp)
 804d746:	08 
 804d747:	c7 44 24 08 aa 00 00 	movl   $0xaa,0x8(%esp)
 804d74e:	00 
 804d74f:	c7 44 24 04 f4 27 05 	movl   $0x80527f4,0x4(%esp)
 804d756:	08 
 804d757:	c7 04 24 15 28 05 08 	movl   $0x8052815,(%esp)
 804d75e:	e8 45 b8 ff ff       	call   8048fa8 <__assert_fail@plt>
 804d763:	8d b6 00 00 00 00    	lea    0x0(%esi),%esi
 804d769:	8d bc 27 00 00 00 00 	lea    0x0(%edi,%eiz,1),%edi
 804d770:	55                   	push   %ebp
 804d771:	89 e5                	mov    %esp,%ebp
 804d773:	57                   	push   %edi
 804d774:	89 c7                	mov    %eax,%edi
 804d776:	56                   	push   %esi
 804d777:	53                   	push   %ebx
 804d778:	89 d3                	mov    %edx,%ebx
 804d77a:	83 ec 4c             	sub    $0x4c,%esp
 804d77d:	89 14 24             	mov    %edx,(%esp)
 804d780:	65 a1 14 00 00 00    	mov    %gs:0x14,%eax
 804d786:	89 45 e4             	mov    %eax,-0x1c(%ebp)
 804d789:	31 c0                	xor    %eax,%eax
 804d78b:	89 4d cc             	mov    %ecx,-0x34(%ebp)
 804d78e:	e8 e5 b8 ff ff       	call   8049078 <strlen@plt>
 804d793:	3d ff ff ff 3f       	cmp    $0x3fffffff,%eax
 804d798:	89 45 d0             	mov    %eax,-0x30(%ebp)
 804d79b:	0f 87 19 01 00 00    	ja     804d8ba <exit@plt+0x46a2>
 804d7a1:	c1 e0 02             	shl    $0x2,%eax
 804d7a4:	3d b7 0f 00 00       	cmp    $0xfb7,%eax
 804d7a9:	0f 86 b8 00 00 00    	jbe    804d867 <exit@plt+0x464f>
 804d7af:	89 04 24             	mov    %eax,(%esp)
 804d7b2:	e8 f9 39 00 00       	call   80511b0 <exit@plt+0x7f98>
 804d7b7:	85 c0                	test   %eax,%eax
 804d7b9:	0f 84 fb 00 00 00    	je     804d8ba <exit@plt+0x46a2>
 804d7bf:	83 7d d0 02          	cmpl   $0x2,-0x30(%ebp)
 804d7c3:	c7 40 04 01 00 00 00 	movl   $0x1,0x4(%eax)
 804d7ca:	76 45                	jbe    804d811 <exit@plt+0x45f9>
 804d7cc:	89 7d d4             	mov    %edi,-0x2c(%ebp)
 804d7cf:	8b 7d d0             	mov    -0x30(%ebp),%edi
 804d7d2:	31 d2                	xor    %edx,%edx
 804d7d4:	be 02 00 00 00       	mov    $0x2,%esi
 804d7d9:	8d b4 26 00 00 00 00 	lea    0x0(%esi,%eiz,1),%esi
 804d7e0:	0f b6 4c 33 ff       	movzbl -0x1(%ebx,%esi,1),%ecx
 804d7e5:	3a 0c 13             	cmp    (%ebx,%edx,1),%cl
 804d7e8:	75 12                	jne    804d7fc <exit@plt+0x45e4>
 804d7ea:	e9 a9 00 00 00       	jmp    804d898 <exit@plt+0x4680>
 804d7ef:	90                   	nop
 804d7f0:	2b 14 90             	sub    (%eax,%edx,4),%edx
 804d7f3:	3a 0c 13             	cmp    (%ebx,%edx,1),%cl
 804d7f6:	0f 84 9c 00 00 00    	je     804d898 <exit@plt+0x4680>
 804d7fc:	85 d2                	test   %edx,%edx
 804d7fe:	66 90                	xchg   %ax,%ax
 804d800:	75 ee                	jne    804d7f0 <exit@plt+0x45d8>
 804d802:	89 34 b0             	mov    %esi,(%eax,%esi,4)
 804d805:	31 d2                	xor    %edx,%edx
 804d807:	83 c6 01             	add    $0x1,%esi
 804d80a:	39 fe                	cmp    %edi,%esi
 804d80c:	75 d2                	jne    804d7e0 <exit@plt+0x45c8>
 804d80e:	8b 7d d4             	mov    -0x2c(%ebp),%edi
 804d811:	8b 55 cc             	mov    -0x34(%ebp),%edx
 804d814:	89 fe                	mov    %edi,%esi
 804d816:	c7 02 00 00 00 00    	movl   $0x0,(%edx)
 804d81c:	31 d2                	xor    %edx,%edx
 804d81e:	0f b6 0f             	movzbl (%edi),%ecx
 804d821:	89 45 d4             	mov    %eax,-0x2c(%ebp)
 804d824:	8d 74 26 00          	lea    0x0(%esi,%eiz,1),%esi
 804d828:	84 c9                	test   %cl,%cl
 804d82a:	74 17                	je     804d843 <exit@plt+0x462b>
 804d82c:	38 0c 13             	cmp    %cl,(%ebx,%edx,1)
 804d82f:	74 77                	je     804d8a8 <exit@plt+0x4690>
 804d831:	85 d2                	test   %edx,%edx
 804d833:	74 53                	je     804d888 <exit@plt+0x4670>
 804d835:	8b 45 d4             	mov    -0x2c(%ebp),%eax
 804d838:	8b 04 90             	mov    (%eax,%edx,4),%eax
 804d83b:	01 c7                	add    %eax,%edi
 804d83d:	29 c2                	sub    %eax,%edx
 804d83f:	84 c9                	test   %cl,%cl
 804d841:	75 e9                	jne    804d82c <exit@plt+0x4614>
 804d843:	8b 45 d4             	mov    -0x2c(%ebp),%eax
 804d846:	89 04 24             	mov    %eax,(%esp)
 804d849:	e8 f2 38 00 00       	call   8051140 <exit@plt+0x7f28>
 804d84e:	b8 01 00 00 00       	mov    $0x1,%eax
 804d853:	8b 55 e4             	mov    -0x1c(%ebp),%edx
 804d856:	65 33 15 14 00 00 00 	xor    %gs:0x14,%edx
 804d85d:	75 5f                	jne    804d8be <exit@plt+0x46a6>
 804d85f:	8d 65 f4             	lea    -0xc(%ebp),%esp
 804d862:	5b                   	pop    %ebx
 804d863:	5e                   	pop    %esi
 804d864:	5f                   	pop    %edi
 804d865:	5d                   	pop    %ebp
 804d866:	c3                   	ret    
 804d867:	8b 55 d0             	mov    -0x30(%ebp),%edx
 804d86a:	8d 04 95 26 00 00 00 	lea    0x26(,%edx,4),%eax
 804d871:	83 e0 f0             	and    $0xfffffff0,%eax
 804d874:	29 c4                	sub    %eax,%esp
 804d876:	8d 44 24 13          	lea    0x13(%esp),%eax
 804d87a:	83 e0 f0             	and    $0xfffffff0,%eax
 804d87d:	83 c0 08             	add    $0x8,%eax
 804d880:	e9 32 ff ff ff       	jmp    804d7b7 <exit@plt+0x459f>
 804d885:	8d 76 00             	lea    0x0(%esi),%esi
 804d888:	83 c7 01             	add    $0x1,%edi
 804d88b:	83 c6 01             	add    $0x1,%esi
 804d88e:	0f b6 0e             	movzbl (%esi),%ecx
 804d891:	eb 95                	jmp    804d828 <exit@plt+0x4610>
 804d893:	90                   	nop
 804d894:	8d 74 26 00          	lea    0x0(%esi,%eiz,1),%esi
 804d898:	83 c2 01             	add    $0x1,%edx
 804d89b:	89 f1                	mov    %esi,%ecx
 804d89d:	29 d1                	sub    %edx,%ecx
 804d89f:	89 0c b0             	mov    %ecx,(%eax,%esi,4)
 804d8a2:	e9 60 ff ff ff       	jmp    804d807 <exit@plt+0x45ef>
 804d8a7:	90                   	nop
 804d8a8:	83 c2 01             	add    $0x1,%edx
 804d8ab:	3b 55 d0             	cmp    -0x30(%ebp),%edx
 804d8ae:	75 db                	jne    804d88b <exit@plt+0x4673>
 804d8b0:	8b 55 cc             	mov    -0x34(%ebp),%edx
 804d8b3:	8b 45 d4             	mov    -0x2c(%ebp),%eax
 804d8b6:	89 3a                	mov    %edi,(%edx)
 804d8b8:	eb 8c                	jmp    804d846 <exit@plt+0x462e>
 804d8ba:	31 c0                	xor    %eax,%eax
 804d8bc:	eb 95                	jmp    804d853 <exit@plt+0x463b>
 804d8be:	e8 55 b8 ff ff       	call   8049118 <__stack_chk_fail@plt>
 804d8c3:	8d b6 00 00 00 00    	lea    0x0(%esi),%esi
 804d8c9:	8d bc 27 00 00 00 00 	lea    0x0(%edi,%eiz,1),%edi
 804d8d0:	55                   	push   %ebp
 804d8d1:	89 e5                	mov    %esp,%ebp
 804d8d3:	57                   	push   %edi
 804d8d4:	56                   	push   %esi
 804d8d5:	53                   	push   %ebx
 804d8d6:	89 d3                	mov    %edx,%ebx
 804d8d8:	81 ec fc 00 00 00    	sub    $0xfc,%esp
 804d8de:	89 14 24             	mov    %edx,(%esp)
 804d8e1:	89 85 20 ff ff ff    	mov    %eax,-0xe0(%ebp)
 804d8e7:	89 8d 1c ff ff ff    	mov    %ecx,-0xe4(%ebp)
 804d8ed:	65 a1 14 00 00 00    	mov    %gs:0x14,%eax
 804d8f3:	89 45 e4             	mov    %eax,-0x1c(%ebp)
 804d8f6:	31 c0                	xor    %eax,%eax
 804d8f8:	e8 13 39 00 00       	call   8051210 <exit@plt+0x7ff8>
 804d8fd:	3d 5d 74 d1 05       	cmp    $0x5d1745d,%eax
 804d902:	89 85 28 ff ff ff    	mov    %eax,-0xd8(%ebp)
 804d908:	76 1a                	jbe    804d924 <exit@plt+0x470c>
 804d90a:	31 c0                	xor    %eax,%eax
 804d90c:	8b 55 e4             	mov    -0x1c(%ebp),%edx
 804d90f:	65 33 15 14 00 00 00 	xor    %gs:0x14,%edx
 804d916:	0f 85 64 08 00 00    	jne    804e180 <exit@plt+0x4f68>
 804d91c:	8d 65 f4             	lea    -0xc(%ebp),%esp
 804d91f:	5b                   	pop    %ebx
 804d920:	5e                   	pop    %esi
 804d921:	5f                   	pop    %edi
 804d922:	5d                   	pop    %ebp
 804d923:	c3                   	ret    
 804d924:	6b c0 2c             	imul   $0x2c,%eax,%eax
 804d927:	3d b7 0f 00 00       	cmp    $0xfb7,%eax
 804d92c:	0f 86 11 03 00 00    	jbe    804dc43 <exit@plt+0x4a2b>
 804d932:	89 04 24             	mov    %eax,(%esp)
 804d935:	e8 76 38 00 00       	call   80511b0 <exit@plt+0x7f98>
 804d93a:	89 85 24 ff ff ff    	mov    %eax,-0xdc(%ebp)
 804d940:	8b 8d 24 ff ff ff    	mov    -0xdc(%ebp),%ecx
 804d946:	85 c9                	test   %ecx,%ecx
 804d948:	74 c0                	je     804d90a <exit@plt+0x46f2>
 804d94a:	89 5d bc             	mov    %ebx,-0x44(%ebp)
 804d94d:	8b 9d 24 ff ff ff    	mov    -0xdc(%ebp),%ebx
 804d953:	8d 55 cc             	lea    -0x34(%ebp),%edx
 804d956:	c6 45 ac 00          	movb   $0x0,-0x54(%ebp)
 804d95a:	8d 7d b0             	lea    -0x50(%ebp),%edi
 804d95d:	c7 45 b0 00 00 00 00 	movl   $0x0,-0x50(%ebp)
 804d964:	c7 45 b4 00 00 00 00 	movl   $0x0,-0x4c(%ebp)
 804d96b:	c6 45 b8 00          	movb   $0x0,-0x48(%ebp)
 804d96f:	89 de                	mov    %ebx,%esi
 804d971:	89 95 14 ff ff ff    	mov    %edx,-0xec(%ebp)
 804d977:	eb 3c                	jmp    804d9b5 <exit@plt+0x479d>
 804d979:	8d b4 26 00 00 00 00 	lea    0x0(%esi,%eiz,1),%esi
 804d980:	8b 45 bc             	mov    -0x44(%ebp),%eax
 804d983:	3b 85 14 ff ff ff    	cmp    -0xec(%ebp),%eax
 804d989:	0f 84 6a 07 00 00    	je     804e0f9 <exit@plt+0x4ee1>
 804d98f:	89 06                	mov    %eax,(%esi)
 804d991:	8b 45 c0             	mov    -0x40(%ebp),%eax
 804d994:	89 46 04             	mov    %eax,0x4(%esi)
 804d997:	0f b6 45 c4          	movzbl -0x3c(%ebp),%eax
 804d99b:	84 c0                	test   %al,%al
 804d99d:	88 46 08             	mov    %al,0x8(%esi)
 804d9a0:	74 06                	je     804d9a8 <exit@plt+0x4790>
 804d9a2:	8b 45 c8             	mov    -0x38(%ebp),%eax
 804d9a5:	89 46 0c             	mov    %eax,0xc(%esi)
 804d9a8:	8b 45 c0             	mov    -0x40(%ebp),%eax
 804d9ab:	83 c6 28             	add    $0x28,%esi
 804d9ae:	01 45 bc             	add    %eax,-0x44(%ebp)
 804d9b1:	c6 45 b8 00          	movb   $0x0,-0x48(%ebp)
 804d9b5:	80 7d ac 00          	cmpb   $0x0,-0x54(%ebp)
 804d9b9:	0f 85 3d 05 00 00    	jne    804defc <exit@plt+0x4ce4>
 804d9bf:	8b 55 bc             	mov    -0x44(%ebp),%edx
 804d9c2:	0f b6 02             	movzbl (%edx),%eax
 804d9c5:	89 c1                	mov    %eax,%ecx
 804d9c7:	c0 e9 05             	shr    $0x5,%cl
 804d9ca:	0f b6 c9             	movzbl %cl,%ecx
 804d9cd:	8b 0c 8d a0 2f 05 08 	mov    0x8052fa0(,%ecx,4),%ecx
 804d9d4:	0f a3 c1             	bt     %eax,%ecx
 804d9d7:	0f 83 0b 05 00 00    	jae    804dee8 <exit@plt+0x4cd0>
 804d9dd:	c7 45 c0 01 00 00 00 	movl   $0x1,-0x40(%ebp)
 804d9e4:	0f be 02             	movsbl (%edx),%eax
 804d9e7:	c6 45 c4 01          	movb   $0x1,-0x3c(%ebp)
 804d9eb:	89 45 c8             	mov    %eax,-0x38(%ebp)
 804d9ee:	80 7d c4 00          	cmpb   $0x0,-0x3c(%ebp)
 804d9f2:	c6 45 b8 01          	movb   $0x1,-0x48(%ebp)
 804d9f6:	74 88                	je     804d980 <exit@plt+0x4768>
 804d9f8:	8b 45 c8             	mov    -0x38(%ebp),%eax
 804d9fb:	85 c0                	test   %eax,%eax
 804d9fd:	75 81                	jne    804d980 <exit@plt+0x4768>
 804d9ff:	8b 8d 28 ff ff ff    	mov    -0xd8(%ebp),%ecx
 804da05:	8b b5 24 ff ff ff    	mov    -0xdc(%ebp),%esi
 804da0b:	c7 85 2c ff ff ff 02 	movl   $0x2,-0xd4(%ebp)
 804da12:	00 00 00 
 804da15:	8d 04 89             	lea    (%ecx,%ecx,4),%eax
 804da18:	8d 04 c6             	lea    (%esi,%eax,8),%eax
 804da1b:	89 85 30 ff ff ff    	mov    %eax,-0xd0(%ebp)
 804da21:	c7 40 04 01 00 00 00 	movl   $0x1,0x4(%eax)
 804da28:	31 c0                	xor    %eax,%eax
 804da2a:	83 f9 02             	cmp    $0x2,%ecx
 804da2d:	0f 86 ac 00 00 00    	jbe    804dadf <exit@plt+0x48c7>
 804da33:	8b 95 24 ff ff ff    	mov    -0xdc(%ebp),%edx
 804da39:	0f b6 4b 30          	movzbl 0x30(%ebx),%ecx
 804da3d:	89 95 24 ff ff ff    	mov    %edx,-0xdc(%ebp)
 804da43:	88 8d 34 ff ff ff    	mov    %cl,-0xcc(%ebp)
 804da49:	eb 29                	jmp    804da74 <exit@plt+0x485c>
 804da4b:	90                   	nop
 804da4c:	8d 74 26 00          	lea    0x0(%esi,%eiz,1),%esi
 804da50:	80 7e 08 00          	cmpb   $0x0,0x8(%esi)
 804da54:	74 33                	je     804da89 <exit@plt+0x4871>
 804da56:	8b 4b 34             	mov    0x34(%ebx),%ecx
 804da59:	3b 4e 0c             	cmp    0xc(%esi),%ecx
 804da5c:	0f 94 c1             	sete   %cl
 804da5f:	84 c9                	test   %cl,%cl
 804da61:	75 40                	jne    804daa3 <exit@plt+0x488b>
 804da63:	85 c0                	test   %eax,%eax
 804da65:	0f 84 5d 04 00 00    	je     804dec8 <exit@plt+0x4cb0>
 804da6b:	8b b5 30 ff ff ff    	mov    -0xd0(%ebp),%esi
 804da71:	2b 04 86             	sub    (%esi,%eax,4),%eax
 804da74:	8b bd 24 ff ff ff    	mov    -0xdc(%ebp),%edi
 804da7a:	8d 0c 80             	lea    (%eax,%eax,4),%ecx
 804da7d:	80 bd 34 ff ff ff 00 	cmpb   $0x0,-0xcc(%ebp)
 804da84:	8d 34 cf             	lea    (%edi,%ecx,8),%esi
 804da87:	75 c7                	jne    804da50 <exit@plt+0x4838>
 804da89:	8b 4b 2c             	mov    0x2c(%ebx),%ecx
 804da8c:	3b 4e 04             	cmp    0x4(%esi),%ecx
 804da8f:	75 d2                	jne    804da63 <exit@plt+0x484b>
 804da91:	8b 53 28             	mov    0x28(%ebx),%edx
 804da94:	39 c9                	cmp    %ecx,%ecx
 804da96:	8b 3e                	mov    (%esi),%edi
 804da98:	89 d6                	mov    %edx,%esi
 804da9a:	f3 a6                	repz cmpsb %es:(%edi),%ds:(%esi)
 804da9c:	0f 94 c1             	sete   %cl
 804da9f:	84 c9                	test   %cl,%cl
 804daa1:	74 c0                	je     804da63 <exit@plt+0x484b>
 804daa3:	8b 8d 2c ff ff ff    	mov    -0xd4(%ebp),%ecx
 804daa9:	83 c0 01             	add    $0x1,%eax
 804daac:	8b b5 2c ff ff ff    	mov    -0xd4(%ebp),%esi
 804dab2:	8b bd 30 ff ff ff    	mov    -0xd0(%ebp),%edi
 804dab8:	8b 95 24 ff ff ff    	mov    -0xdc(%ebp),%edx
 804dabe:	29 c1                	sub    %eax,%ecx
 804dac0:	89 0c b7             	mov    %ecx,(%edi,%esi,4)
 804dac3:	83 85 2c ff ff ff 01 	addl   $0x1,-0xd4(%ebp)
 804daca:	83 c3 28             	add    $0x28,%ebx
 804dacd:	8b bd 28 ff ff ff    	mov    -0xd8(%ebp),%edi
 804dad3:	39 bd 2c ff ff ff    	cmp    %edi,-0xd4(%ebp)
 804dad9:	0f 85 5a ff ff ff    	jne    804da39 <exit@plt+0x4821>
 804dadf:	8b 85 1c ff ff ff    	mov    -0xe4(%ebp),%eax
 804dae5:	8d 9d 78 ff ff ff    	lea    -0x88(%ebp),%ebx
 804daeb:	8b 95 20 ff ff ff    	mov    -0xe0(%ebp),%edx
 804daf1:	c6 85 74 ff ff ff 00 	movb   $0x0,-0x8c(%ebp)
 804daf8:	c6 45 80 00          	movb   $0x0,-0x80(%ebp)
 804dafc:	c7 00 00 00 00 00    	movl   $0x0,(%eax)
 804db02:	31 c0                	xor    %eax,%eax
 804db04:	89 55 84             	mov    %edx,-0x7c(%ebp)
 804db07:	c7 85 78 ff ff ff 00 	movl   $0x0,-0x88(%ebp)
 804db0e:	00 00 00 
 804db11:	c7 85 7c ff ff ff 00 	movl   $0x0,-0x84(%ebp)
 804db18:	00 00 00 
 804db1b:	89 95 4c ff ff ff    	mov    %edx,-0xb4(%ebp)
 804db21:	c6 85 3c ff ff ff 00 	movb   $0x0,-0xc4(%ebp)
 804db28:	c7 85 40 ff ff ff 00 	movl   $0x0,-0xc0(%ebp)
 804db2f:	00 00 00 
 804db32:	c7 85 44 ff ff ff 00 	movl   $0x0,-0xbc(%ebp)
 804db39:	00 00 00 
 804db3c:	c6 85 48 ff ff ff 00 	movb   $0x0,-0xb8(%ebp)
 804db43:	c7 85 34 ff ff ff 00 	movl   $0x0,-0xcc(%ebp)
 804db4a:	00 00 00 
 804db4d:	eb 6c                	jmp    804dbbb <exit@plt+0x49a3>
 804db4f:	90                   	nop
 804db50:	8b 8d 34 ff ff ff    	mov    -0xcc(%ebp),%ecx
 804db56:	8b b5 24 ff ff ff    	mov    -0xdc(%ebp),%esi
 804db5c:	8d 04 89             	lea    (%ecx,%ecx,4),%eax
 804db5f:	8d 04 c6             	lea    (%esi,%eax,8),%eax
 804db62:	80 78 08 00          	cmpb   $0x0,0x8(%eax)
 804db66:	0f 84 f4 00 00 00    	je     804dc60 <exit@plt+0x4a48>
 804db6c:	84 d2                	test   %dl,%dl
 804db6e:	0f 84 ec 00 00 00    	je     804dc60 <exit@plt+0x4a48>
 804db74:	8b 40 0c             	mov    0xc(%eax),%eax
 804db77:	3b 85 58 ff ff ff    	cmp    -0xa8(%ebp),%eax
 804db7d:	0f 94 c0             	sete   %al
 804db80:	84 c0                	test   %al,%al
 804db82:	0f 84 e7 00 00 00    	je     804dc6f <exit@plt+0x4a57>
 804db88:	83 85 34 ff ff ff 01 	addl   $0x1,-0xcc(%ebp)
 804db8f:	8b 85 50 ff ff ff    	mov    -0xb0(%ebp),%eax
 804db95:	8b 8d 34 ff ff ff    	mov    -0xcc(%ebp),%ecx
 804db9b:	01 85 4c ff ff ff    	add    %eax,-0xb4(%ebp)
 804dba1:	39 8d 28 ff ff ff    	cmp    %ecx,-0xd8(%ebp)
 804dba7:	c6 85 48 ff ff ff 00 	movb   $0x0,-0xb8(%ebp)
 804dbae:	0f 84 98 05 00 00    	je     804e14c <exit@plt+0x4f34>
 804dbb4:	0f b6 85 48 ff ff ff 	movzbl -0xb8(%ebp),%eax
 804dbbb:	84 c0                	test   %al,%al
 804dbbd:	75 4f                	jne    804dc0e <exit@plt+0x49f6>
 804dbbf:	80 bd 3c ff ff ff 00 	cmpb   $0x0,-0xc4(%ebp)
 804dbc6:	0f 85 39 02 00 00    	jne    804de05 <exit@plt+0x4bed>
 804dbcc:	8b 95 4c ff ff ff    	mov    -0xb4(%ebp),%edx
 804dbd2:	0f b6 02             	movzbl (%edx),%eax
 804dbd5:	89 c1                	mov    %eax,%ecx
 804dbd7:	c0 e9 05             	shr    $0x5,%cl
 804dbda:	0f b6 c9             	movzbl %cl,%ecx
 804dbdd:	8b 0c 8d a0 2f 05 08 	mov    0x8052fa0(,%ecx,4),%ecx
 804dbe4:	0f a3 c1             	bt     %eax,%ecx
 804dbe7:	0f 83 fb 01 00 00    	jae    804dde8 <exit@plt+0x4bd0>
 804dbed:	c7 85 50 ff ff ff 01 	movl   $0x1,-0xb0(%ebp)
 804dbf4:	00 00 00 
 804dbf7:	0f be 02             	movsbl (%edx),%eax
 804dbfa:	c6 85 54 ff ff ff 01 	movb   $0x1,-0xac(%ebp)
 804dc01:	89 85 58 ff ff ff    	mov    %eax,-0xa8(%ebp)
 804dc07:	c6 85 48 ff ff ff 01 	movb   $0x1,-0xb8(%ebp)
 804dc0e:	0f b6 95 54 ff ff ff 	movzbl -0xac(%ebp),%edx
 804dc15:	84 d2                	test   %dl,%dl
 804dc17:	0f 84 33 ff ff ff    	je     804db50 <exit@plt+0x4938>
 804dc1d:	8b 8d 58 ff ff ff    	mov    -0xa8(%ebp),%ecx
 804dc23:	85 c9                	test   %ecx,%ecx
 804dc25:	0f 85 25 ff ff ff    	jne    804db50 <exit@plt+0x4938>
 804dc2b:	8b bd 24 ff ff ff    	mov    -0xdc(%ebp),%edi
 804dc31:	89 3c 24             	mov    %edi,(%esp)
 804dc34:	e8 07 35 00 00       	call   8051140 <exit@plt+0x7f28>
 804dc39:	b8 01 00 00 00       	mov    $0x1,%eax
 804dc3e:	e9 c9 fc ff ff       	jmp    804d90c <exit@plt+0x46f4>
 804dc43:	83 c0 26             	add    $0x26,%eax
 804dc46:	83 e0 f0             	and    $0xfffffff0,%eax
 804dc49:	29 c4                	sub    %eax,%esp
 804dc4b:	8d 44 24 1f          	lea    0x1f(%esp),%eax
 804dc4f:	83 e0 f0             	and    $0xfffffff0,%eax
 804dc52:	83 c0 08             	add    $0x8,%eax
 804dc55:	89 85 24 ff ff ff    	mov    %eax,-0xdc(%ebp)
 804dc5b:	e9 e0 fc ff ff       	jmp    804d940 <exit@plt+0x4728>
 804dc60:	8b 48 04             	mov    0x4(%eax),%ecx
 804dc63:	3b 8d 50 ff ff ff    	cmp    -0xb0(%ebp),%ecx
 804dc69:	0f 84 41 02 00 00    	je     804deb0 <exit@plt+0x4c98>
 804dc6f:	8b b5 34 ff ff ff    	mov    -0xcc(%ebp),%esi
 804dc75:	85 f6                	test   %esi,%esi
 804dc77:	0f 84 03 03 00 00    	je     804df80 <exit@plt+0x4d68>
 804dc7d:	8b bd 34 ff ff ff    	mov    -0xcc(%ebp),%edi
 804dc83:	8b 85 30 ff ff ff    	mov    -0xd0(%ebp),%eax
 804dc89:	8b 34 b8             	mov    (%eax,%edi,4),%esi
 804dc8c:	29 f7                	sub    %esi,%edi
 804dc8e:	85 f6                	test   %esi,%esi
 804dc90:	89 bd 34 ff ff ff    	mov    %edi,-0xcc(%ebp)
 804dc96:	0f 84 18 ff ff ff    	je     804dbb4 <exit@plt+0x499c>
 804dc9c:	80 7d 80 00          	cmpb   $0x0,-0x80(%ebp)
 804dca0:	75 3c                	jne    804dcde <exit@plt+0x4ac6>
 804dca2:	80 bd 74 ff ff ff 00 	cmpb   $0x0,-0x8c(%ebp)
 804dca9:	75 5d                	jne    804dd08 <exit@plt+0x4af0>
 804dcab:	8b 55 84             	mov    -0x7c(%ebp),%edx
 804dcae:	0f b6 02             	movzbl (%edx),%eax
 804dcb1:	89 c1                	mov    %eax,%ecx
 804dcb3:	c0 e9 05             	shr    $0x5,%cl
 804dcb6:	0f b6 c9             	movzbl %cl,%ecx
 804dcb9:	8b 0c 8d a0 2f 05 08 	mov    0x8052fa0(,%ecx,4),%ecx
 804dcc0:	0f a3 c1             	bt     %eax,%ecx
 804dcc3:	0f 83 d7 00 00 00    	jae    804dda0 <exit@plt+0x4b88>
 804dcc9:	c7 45 88 01 00 00 00 	movl   $0x1,-0x78(%ebp)
 804dcd0:	0f be 02             	movsbl (%edx),%eax
 804dcd3:	c6 45 8c 01          	movb   $0x1,-0x74(%ebp)
 804dcd7:	89 45 90             	mov    %eax,-0x70(%ebp)
 804dcda:	c6 45 80 01          	movb   $0x1,-0x80(%ebp)
 804dcde:	80 7d 8c 00          	cmpb   $0x0,-0x74(%ebp)
 804dce2:	0f 85 a8 00 00 00    	jne    804dd90 <exit@plt+0x4b78>
 804dce8:	8b 45 88             	mov    -0x78(%ebp),%eax
 804dceb:	01 45 84             	add    %eax,-0x7c(%ebp)
 804dcee:	83 ee 01             	sub    $0x1,%esi
 804dcf1:	c6 45 80 00          	movb   $0x0,-0x80(%ebp)
 804dcf5:	0f 84 b9 fe ff ff    	je     804dbb4 <exit@plt+0x499c>
 804dcfb:	80 bd 74 ff ff ff 00 	cmpb   $0x0,-0x8c(%ebp)
 804dd02:	74 a7                	je     804dcab <exit@plt+0x4a93>
 804dd04:	8d 74 26 00          	lea    0x0(%esi,%eiz,1),%esi
 804dd08:	e8 8b b1 ff ff       	call   8048e98 <__ctype_get_mb_cur_max@plt>
 804dd0d:	89 44 24 04          	mov    %eax,0x4(%esp)
 804dd11:	8b 45 84             	mov    -0x7c(%ebp),%eax
 804dd14:	89 04 24             	mov    %eax,(%esp)
 804dd17:	e8 f4 d3 ff ff       	call   804b110 <exit@plt+0x1ef8>
 804dd1c:	8d 55 90             	lea    -0x70(%ebp),%edx
 804dd1f:	89 5c 24 0c          	mov    %ebx,0xc(%esp)
 804dd23:	89 14 24             	mov    %edx,(%esp)
 804dd26:	89 44 24 08          	mov    %eax,0x8(%esp)
 804dd2a:	8b 45 84             	mov    -0x7c(%ebp),%eax
 804dd2d:	89 44 24 04          	mov    %eax,0x4(%esp)
 804dd31:	e8 92 b2 ff ff       	call   8048fc8 <mbrtowc@plt>
 804dd36:	83 f8 ff             	cmp    $0xffffffff,%eax
 804dd39:	89 45 88             	mov    %eax,-0x78(%ebp)
 804dd3c:	0f 84 7e 00 00 00    	je     804ddc0 <exit@plt+0x4ba8>
 804dd42:	83 f8 fe             	cmp    $0xfffffffe,%eax
 804dd45:	0f 84 85 00 00 00    	je     804ddd0 <exit@plt+0x4bb8>
 804dd4b:	85 c0                	test   %eax,%eax
 804dd4d:	8d 76 00             	lea    0x0(%esi),%esi
 804dd50:	75 1e                	jne    804dd70 <exit@plt+0x4b58>
 804dd52:	8b 45 84             	mov    -0x7c(%ebp),%eax
 804dd55:	c7 45 88 01 00 00 00 	movl   $0x1,-0x78(%ebp)
 804dd5c:	80 38 00             	cmpb   $0x0,(%eax)
 804dd5f:	0f 85 20 04 00 00    	jne    804e185 <exit@plt+0x4f6d>
 804dd65:	8b 4d 90             	mov    -0x70(%ebp),%ecx
 804dd68:	85 c9                	test   %ecx,%ecx
 804dd6a:	0f 85 39 04 00 00    	jne    804e1a9 <exit@plt+0x4f91>
 804dd70:	89 1c 24             	mov    %ebx,(%esp)
 804dd73:	c6 45 8c 01          	movb   $0x1,-0x74(%ebp)
 804dd77:	e8 dc b2 ff ff       	call   8049058 <mbsinit@plt>
 804dd7c:	85 c0                	test   %eax,%eax
 804dd7e:	0f 84 56 ff ff ff    	je     804dcda <exit@plt+0x4ac2>
 804dd84:	c6 85 74 ff ff ff 00 	movb   $0x0,-0x8c(%ebp)
 804dd8b:	e9 4a ff ff ff       	jmp    804dcda <exit@plt+0x4ac2>
 804dd90:	8b 55 90             	mov    -0x70(%ebp),%edx
 804dd93:	85 d2                	test   %edx,%edx
 804dd95:	0f 85 4d ff ff ff    	jne    804dce8 <exit@plt+0x4ad0>
 804dd9b:	e8 a8 b0 ff ff       	call   8048e48 <abort@plt>
 804dda0:	89 1c 24             	mov    %ebx,(%esp)
 804dda3:	e8 b0 b2 ff ff       	call   8049058 <mbsinit@plt>
 804dda8:	85 c0                	test   %eax,%eax
 804ddaa:	0f 84 ac 03 00 00    	je     804e15c <exit@plt+0x4f44>
 804ddb0:	c6 85 74 ff ff ff 01 	movb   $0x1,-0x8c(%ebp)
 804ddb7:	e9 4c ff ff ff       	jmp    804dd08 <exit@plt+0x4af0>
 804ddbc:	8d 74 26 00          	lea    0x0(%esi,%eiz,1),%esi
 804ddc0:	c7 45 88 01 00 00 00 	movl   $0x1,-0x78(%ebp)
 804ddc7:	c6 45 8c 00          	movb   $0x0,-0x74(%ebp)
 804ddcb:	e9 0a ff ff ff       	jmp    804dcda <exit@plt+0x4ac2>
 804ddd0:	8b 45 84             	mov    -0x7c(%ebp),%eax
 804ddd3:	89 04 24             	mov    %eax,(%esp)
 804ddd6:	e8 9d b2 ff ff       	call   8049078 <strlen@plt>
 804dddb:	c6 45 8c 00          	movb   $0x0,-0x74(%ebp)
 804dddf:	89 45 88             	mov    %eax,-0x78(%ebp)
 804dde2:	e9 f3 fe ff ff       	jmp    804dcda <exit@plt+0x4ac2>
 804dde7:	90                   	nop
 804dde8:	8d b5 40 ff ff ff    	lea    -0xc0(%ebp),%esi
 804ddee:	89 34 24             	mov    %esi,(%esp)
 804ddf1:	e8 62 b2 ff ff       	call   8049058 <mbsinit@plt>
 804ddf6:	85 c0                	test   %eax,%eax
 804ddf8:	0f 84 5e 03 00 00    	je     804e15c <exit@plt+0x4f44>
 804ddfe:	c6 85 3c ff ff ff 01 	movb   $0x1,-0xc4(%ebp)
 804de05:	e8 8e b0 ff ff       	call   8048e98 <__ctype_get_mb_cur_max@plt>
 804de0a:	8d bd 40 ff ff ff    	lea    -0xc0(%ebp),%edi
 804de10:	89 44 24 04          	mov    %eax,0x4(%esp)
 804de14:	8b 85 4c ff ff ff    	mov    -0xb4(%ebp),%eax
 804de1a:	89 04 24             	mov    %eax,(%esp)
 804de1d:	e8 ee d2 ff ff       	call   804b110 <exit@plt+0x1ef8>
 804de22:	89 7c 24 0c          	mov    %edi,0xc(%esp)
 804de26:	89 44 24 08          	mov    %eax,0x8(%esp)
 804de2a:	8b 85 4c ff ff ff    	mov    -0xb4(%ebp),%eax
 804de30:	89 44 24 04          	mov    %eax,0x4(%esp)
 804de34:	8d 85 58 ff ff ff    	lea    -0xa8(%ebp),%eax
 804de3a:	89 04 24             	mov    %eax,(%esp)
 804de3d:	e8 86 b1 ff ff       	call   8048fc8 <mbrtowc@plt>
 804de42:	83 f8 ff             	cmp    $0xffffffff,%eax
 804de45:	89 85 50 ff ff ff    	mov    %eax,-0xb0(%ebp)
 804de4b:	0f 84 9f 01 00 00    	je     804dff0 <exit@plt+0x4dd8>
 804de51:	83 f8 fe             	cmp    $0xfffffffe,%eax
 804de54:	0f 84 ae 01 00 00    	je     804e008 <exit@plt+0x4df0>
 804de5a:	85 c0                	test   %eax,%eax
 804de5c:	75 27                	jne    804de85 <exit@plt+0x4c6d>
 804de5e:	8b 85 4c ff ff ff    	mov    -0xb4(%ebp),%eax
 804de64:	c7 85 50 ff ff ff 01 	movl   $0x1,-0xb0(%ebp)
 804de6b:	00 00 00 
 804de6e:	80 38 00             	cmpb   $0x0,(%eax)
 804de71:	0f 85 0e 03 00 00    	jne    804e185 <exit@plt+0x4f6d>
 804de77:	8b b5 58 ff ff ff    	mov    -0xa8(%ebp),%esi
 804de7d:	85 f6                	test   %esi,%esi
 804de7f:	0f 85 24 03 00 00    	jne    804e1a9 <exit@plt+0x4f91>
 804de85:	8d 95 40 ff ff ff    	lea    -0xc0(%ebp),%edx
 804de8b:	89 14 24             	mov    %edx,(%esp)
 804de8e:	c6 85 54 ff ff ff 01 	movb   $0x1,-0xac(%ebp)
 804de95:	e8 be b1 ff ff       	call   8049058 <mbsinit@plt>
 804de9a:	85 c0                	test   %eax,%eax
 804de9c:	0f 84 65 fd ff ff    	je     804dc07 <exit@plt+0x49ef>
 804dea2:	c6 85 3c ff ff ff 00 	movb   $0x0,-0xc4(%ebp)
 804dea9:	e9 59 fd ff ff       	jmp    804dc07 <exit@plt+0x49ef>
 804deae:	66 90                	xchg   %ax,%ax
 804deb0:	8b 30                	mov    (%eax),%esi
 804deb2:	39 c9                	cmp    %ecx,%ecx
 804deb4:	8b bd 4c ff ff ff    	mov    -0xb4(%ebp),%edi
 804deba:	f3 a6                	repz cmpsb %es:(%edi),%ds:(%esi)
 804debc:	0f 94 c0             	sete   %al
 804debf:	e9 bc fc ff ff       	jmp    804db80 <exit@plt+0x4968>
 804dec4:	8d 74 26 00          	lea    0x0(%esi,%eiz,1),%esi
 804dec8:	8b 8d 2c ff ff ff    	mov    -0xd4(%ebp),%ecx
 804dece:	8b b5 30 ff ff ff    	mov    -0xd0(%ebp),%esi
 804ded4:	8b 95 24 ff ff ff    	mov    -0xdc(%ebp),%edx
 804deda:	89 0c 8e             	mov    %ecx,(%esi,%ecx,4)
 804dedd:	e9 e1 fb ff ff       	jmp    804dac3 <exit@plt+0x48ab>
 804dee2:	8d b6 00 00 00 00    	lea    0x0(%esi),%esi
 804dee8:	89 3c 24             	mov    %edi,(%esp)
 804deeb:	e8 68 b1 ff ff       	call   8049058 <mbsinit@plt>
 804def0:	85 c0                	test   %eax,%eax
 804def2:	0f 84 64 02 00 00    	je     804e15c <exit@plt+0x4f44>
 804def8:	c6 45 ac 01          	movb   $0x1,-0x54(%ebp)
 804defc:	e8 97 af ff ff       	call   8048e98 <__ctype_get_mb_cur_max@plt>
 804df01:	89 44 24 04          	mov    %eax,0x4(%esp)
 804df05:	8b 45 bc             	mov    -0x44(%ebp),%eax
 804df08:	89 04 24             	mov    %eax,(%esp)
 804df0b:	e8 00 d2 ff ff       	call   804b110 <exit@plt+0x1ef8>
 804df10:	89 7c 24 0c          	mov    %edi,0xc(%esp)
 804df14:	89 44 24 08          	mov    %eax,0x8(%esp)
 804df18:	8b 45 bc             	mov    -0x44(%ebp),%eax
 804df1b:	89 44 24 04          	mov    %eax,0x4(%esp)
 804df1f:	8d 45 c8             	lea    -0x38(%ebp),%eax
 804df22:	89 04 24             	mov    %eax,(%esp)
 804df25:	e8 9e b0 ff ff       	call   8048fc8 <mbrtowc@plt>
 804df2a:	83 f8 ff             	cmp    $0xffffffff,%eax
 804df2d:	89 45 c0             	mov    %eax,-0x40(%ebp)
 804df30:	0f 84 9c 01 00 00    	je     804e0d2 <exit@plt+0x4eba>
 804df36:	83 f8 fe             	cmp    $0xfffffffe,%eax
 804df39:	0f 84 a3 01 00 00    	je     804e0e2 <exit@plt+0x4eca>
 804df3f:	85 c0                	test   %eax,%eax
 804df41:	75 1e                	jne    804df61 <exit@plt+0x4d49>
 804df43:	8b 45 bc             	mov    -0x44(%ebp),%eax
 804df46:	c7 45 c0 01 00 00 00 	movl   $0x1,-0x40(%ebp)
 804df4d:	80 38 00             	cmpb   $0x0,(%eax)
 804df50:	0f 85 2f 02 00 00    	jne    804e185 <exit@plt+0x4f6d>
 804df56:	8b 55 c8             	mov    -0x38(%ebp),%edx
 804df59:	85 d2                	test   %edx,%edx
 804df5b:	0f 85 48 02 00 00    	jne    804e1a9 <exit@plt+0x4f91>
 804df61:	89 3c 24             	mov    %edi,(%esp)
 804df64:	c6 45 c4 01          	movb   $0x1,-0x3c(%ebp)
 804df68:	e8 eb b0 ff ff       	call   8049058 <mbsinit@plt>
 804df6d:	85 c0                	test   %eax,%eax
 804df6f:	0f 84 79 fa ff ff    	je     804d9ee <exit@plt+0x47d6>
 804df75:	c6 45 ac 00          	movb   $0x0,-0x54(%ebp)
 804df79:	e9 70 fa ff ff       	jmp    804d9ee <exit@plt+0x47d6>
 804df7e:	66 90                	xchg   %ax,%ax
 804df80:	80 7d 80 00          	cmpb   $0x0,-0x80(%ebp)
 804df84:	75 40                	jne    804dfc6 <exit@plt+0x4dae>
 804df86:	80 bd 74 ff ff ff 00 	cmpb   $0x0,-0x8c(%ebp)
 804df8d:	0f 85 ba 00 00 00    	jne    804e04d <exit@plt+0x4e35>
 804df93:	8b 55 84             	mov    -0x7c(%ebp),%edx
 804df96:	0f b6 02             	movzbl (%edx),%eax
 804df99:	89 c1                	mov    %eax,%ecx
 804df9b:	c0 e9 05             	shr    $0x5,%cl
 804df9e:	0f b6 c9             	movzbl %cl,%ecx
 804dfa1:	8b 0c 8d a0 2f 05 08 	mov    0x8052fa0(,%ecx,4),%ecx
 804dfa8:	0f a3 c1             	bt     %eax,%ecx
 804dfab:	0f 83 84 00 00 00    	jae    804e035 <exit@plt+0x4e1d>
 804dfb1:	c7 45 88 01 00 00 00 	movl   $0x1,-0x78(%ebp)
 804dfb8:	0f be 02             	movsbl (%edx),%eax
 804dfbb:	c6 45 8c 01          	movb   $0x1,-0x74(%ebp)
 804dfbf:	89 45 90             	mov    %eax,-0x70(%ebp)
 804dfc2:	c6 45 80 01          	movb   $0x1,-0x80(%ebp)
 804dfc6:	80 7d 8c 00          	cmpb   $0x0,-0x74(%ebp)
 804dfca:	75 5c                	jne    804e028 <exit@plt+0x4e10>
 804dfcc:	8b 45 88             	mov    -0x78(%ebp),%eax
 804dfcf:	01 45 84             	add    %eax,-0x7c(%ebp)
 804dfd2:	8b 85 50 ff ff ff    	mov    -0xb0(%ebp),%eax
 804dfd8:	c6 45 80 00          	movb   $0x0,-0x80(%ebp)
 804dfdc:	01 85 4c ff ff ff    	add    %eax,-0xb4(%ebp)
 804dfe2:	c6 85 48 ff ff ff 00 	movb   $0x0,-0xb8(%ebp)
 804dfe9:	e9 c6 fb ff ff       	jmp    804dbb4 <exit@plt+0x499c>
 804dfee:	66 90                	xchg   %ax,%ax
 804dff0:	c7 85 50 ff ff ff 01 	movl   $0x1,-0xb0(%ebp)
 804dff7:	00 00 00 
 804dffa:	c6 85 54 ff ff ff 00 	movb   $0x0,-0xac(%ebp)
 804e001:	e9 01 fc ff ff       	jmp    804dc07 <exit@plt+0x49ef>
 804e006:	66 90                	xchg   %ax,%ax
 804e008:	8b 85 4c ff ff ff    	mov    -0xb4(%ebp),%eax
 804e00e:	89 04 24             	mov    %eax,(%esp)
 804e011:	e8 62 b0 ff ff       	call   8049078 <strlen@plt>
 804e016:	c6 85 54 ff ff ff 00 	movb   $0x0,-0xac(%ebp)
 804e01d:	89 85 50 ff ff ff    	mov    %eax,-0xb0(%ebp)
 804e023:	e9 df fb ff ff       	jmp    804dc07 <exit@plt+0x49ef>
 804e028:	8b 7d 90             	mov    -0x70(%ebp),%edi
 804e02b:	85 ff                	test   %edi,%edi
 804e02d:	0f 84 68 fd ff ff    	je     804dd9b <exit@plt+0x4b83>
 804e033:	eb 97                	jmp    804dfcc <exit@plt+0x4db4>
 804e035:	89 1c 24             	mov    %ebx,(%esp)
 804e038:	e8 1b b0 ff ff       	call   8049058 <mbsinit@plt>
 804e03d:	85 c0                	test   %eax,%eax
 804e03f:	90                   	nop
 804e040:	0f 84 16 01 00 00    	je     804e15c <exit@plt+0x4f44>
 804e046:	c6 85 74 ff ff ff 01 	movb   $0x1,-0x8c(%ebp)
 804e04d:	e8 46 ae ff ff       	call   8048e98 <__ctype_get_mb_cur_max@plt>
 804e052:	89 44 24 04          	mov    %eax,0x4(%esp)
 804e056:	8b 45 84             	mov    -0x7c(%ebp),%eax
 804e059:	89 04 24             	mov    %eax,(%esp)
 804e05c:	e8 af d0 ff ff       	call   804b110 <exit@plt+0x1ef8>
 804e061:	8d 4d 90             	lea    -0x70(%ebp),%ecx
 804e064:	89 5c 24 0c          	mov    %ebx,0xc(%esp)
 804e068:	89 0c 24             	mov    %ecx,(%esp)
 804e06b:	89 44 24 08          	mov    %eax,0x8(%esp)
 804e06f:	8b 45 84             	mov    -0x7c(%ebp),%eax
 804e072:	89 44 24 04          	mov    %eax,0x4(%esp)
 804e076:	e8 4d af ff ff       	call   8048fc8 <mbrtowc@plt>
 804e07b:	83 f8 ff             	cmp    $0xffffffff,%eax
 804e07e:	89 45 88             	mov    %eax,-0x78(%ebp)
 804e081:	0f 84 9e 00 00 00    	je     804e125 <exit@plt+0x4f0d>
 804e087:	83 f8 fe             	cmp    $0xfffffffe,%eax
 804e08a:	0f 84 a5 00 00 00    	je     804e135 <exit@plt+0x4f1d>
 804e090:	85 c0                	test   %eax,%eax
 804e092:	75 1e                	jne    804e0b2 <exit@plt+0x4e9a>
 804e094:	8b 45 84             	mov    -0x7c(%ebp),%eax
 804e097:	c7 45 88 01 00 00 00 	movl   $0x1,-0x78(%ebp)
 804e09e:	80 38 00             	cmpb   $0x0,(%eax)
 804e0a1:	0f 85 de 00 00 00    	jne    804e185 <exit@plt+0x4f6d>
 804e0a7:	8b 45 90             	mov    -0x70(%ebp),%eax
 804e0aa:	85 c0                	test   %eax,%eax
 804e0ac:	0f 85 f7 00 00 00    	jne    804e1a9 <exit@plt+0x4f91>
 804e0b2:	89 1c 24             	mov    %ebx,(%esp)
 804e0b5:	c6 45 8c 01          	movb   $0x1,-0x74(%ebp)
 804e0b9:	e8 9a af ff ff       	call   8049058 <mbsinit@plt>
 804e0be:	85 c0                	test   %eax,%eax
 804e0c0:	0f 84 fc fe ff ff    	je     804dfc2 <exit@plt+0x4daa>
 804e0c6:	c6 85 74 ff ff ff 00 	movb   $0x0,-0x8c(%ebp)
 804e0cd:	e9 f0 fe ff ff       	jmp    804dfc2 <exit@plt+0x4daa>
 804e0d2:	c7 45 c0 01 00 00 00 	movl   $0x1,-0x40(%ebp)
 804e0d9:	c6 45 c4 00          	movb   $0x0,-0x3c(%ebp)
 804e0dd:	e9 0c f9 ff ff       	jmp    804d9ee <exit@plt+0x47d6>
 804e0e2:	8b 45 bc             	mov    -0x44(%ebp),%eax
 804e0e5:	89 04 24             	mov    %eax,(%esp)
 804e0e8:	e8 8b af ff ff       	call   8049078 <strlen@plt>
 804e0ed:	c6 45 c4 00          	movb   $0x0,-0x3c(%ebp)
 804e0f1:	89 45 c0             	mov    %eax,-0x40(%ebp)
 804e0f4:	e9 f5 f8 ff ff       	jmp    804d9ee <exit@plt+0x47d6>
 804e0f9:	8b 45 c0             	mov    -0x40(%ebp),%eax
 804e0fc:	8d 56 10             	lea    0x10(%esi),%edx
 804e0ff:	8d 4d cc             	lea    -0x34(%ebp),%ecx
 804e102:	89 14 24             	mov    %edx,(%esp)
 804e105:	89 95 18 ff ff ff    	mov    %edx,-0xe8(%ebp)
 804e10b:	89 44 24 08          	mov    %eax,0x8(%esp)
 804e10f:	89 4c 24 04          	mov    %ecx,0x4(%esp)
 804e113:	e8 50 af ff ff       	call   8049068 <memcpy@plt>
 804e118:	8b 95 18 ff ff ff    	mov    -0xe8(%ebp),%edx
 804e11e:	89 16                	mov    %edx,(%esi)
 804e120:	e9 6c f8 ff ff       	jmp    804d991 <exit@plt+0x4779>
 804e125:	c7 45 88 01 00 00 00 	movl   $0x1,-0x78(%ebp)
 804e12c:	c6 45 8c 00          	movb   $0x0,-0x74(%ebp)
 804e130:	e9 8d fe ff ff       	jmp    804dfc2 <exit@plt+0x4daa>
 804e135:	8b 45 84             	mov    -0x7c(%ebp),%eax
 804e138:	89 04 24             	mov    %eax,(%esp)
 804e13b:	e8 38 af ff ff       	call   8049078 <strlen@plt>
 804e140:	c6 45 8c 00          	movb   $0x0,-0x74(%ebp)
 804e144:	89 45 88             	mov    %eax,-0x78(%ebp)
 804e147:	e9 76 fe ff ff       	jmp    804dfc2 <exit@plt+0x4daa>
 804e14c:	8b 45 84             	mov    -0x7c(%ebp),%eax
 804e14f:	8b b5 1c ff ff ff    	mov    -0xe4(%ebp),%esi
 804e155:	89 06                	mov    %eax,(%esi)
 804e157:	e9 cf fa ff ff       	jmp    804dc2b <exit@plt+0x4a13>
 804e15c:	c7 44 24 0c c0 2f 05 	movl   $0x8052fc0,0xc(%esp)
 804e163:	08 
 804e164:	c7 44 24 08 8e 00 00 	movl   $0x8e,0x8(%esp)
 804e16b:	00 
 804e16c:	c7 44 24 04 f4 27 05 	movl   $0x80527f4,0x4(%esp)
 804e173:	08 
 804e174:	c7 04 24 fe 27 05 08 	movl   $0x80527fe,(%esp)
 804e17b:	e8 28 ae ff ff       	call   8048fa8 <__assert_fail@plt>
 804e180:	e8 93 af ff ff       	call   8049118 <__stack_chk_fail@plt>
 804e185:	c7 44 24 0c c0 2f 05 	movl   $0x8052fc0,0xc(%esp)
 804e18c:	08 
 804e18d:	c7 44 24 08 aa 00 00 	movl   $0xaa,0x8(%esp)
 804e194:	00 
 804e195:	c7 44 24 04 f4 27 05 	movl   $0x80527f4,0x4(%esp)
 804e19c:	08 
 804e19d:	c7 04 24 15 28 05 08 	movl   $0x8052815,(%esp)
 804e1a4:	e8 ff ad ff ff       	call   8048fa8 <__assert_fail@plt>
 804e1a9:	c7 44 24 0c c0 2f 05 	movl   $0x8052fc0,0xc(%esp)
 804e1b0:	08 
 804e1b1:	c7 44 24 08 ab 00 00 	movl   $0xab,0x8(%esp)
 804e1b8:	00 
 804e1b9:	c7 44 24 04 f4 27 05 	movl   $0x80527f4,0x4(%esp)
 804e1c0:	08 
 804e1c1:	c7 04 24 2c 28 05 08 	movl   $0x805282c,(%esp)
 804e1c8:	e8 db ad ff ff       	call   8048fa8 <__assert_fail@plt>
 804e1cd:	8d 76 00             	lea    0x0(%esi),%esi
 804e1d0:	55                   	push   %ebp
 804e1d1:	89 e5                	mov    %esp,%ebp
 804e1d3:	57                   	push   %edi
 804e1d4:	56                   	push   %esi
 804e1d5:	53                   	push   %ebx
 804e1d6:	81 ec 7c 01 00 00    	sub    $0x17c,%esp
 804e1dc:	8b 45 08             	mov    0x8(%ebp),%eax
 804e1df:	65 8b 15 14 00 00 00 	mov    %gs:0x14,%edx
 804e1e6:	89 55 e4             	mov    %edx,-0x1c(%ebp)
 804e1e9:	31 d2                	xor    %edx,%edx
 804e1eb:	8b 5d 0c             	mov    0xc(%ebp),%ebx
 804e1ee:	89 85 c4 fe ff ff    	mov    %eax,-0x13c(%ebp)
 804e1f4:	e8 9f ac ff ff       	call   8048e98 <__ctype_get_mb_cur_max@plt>
 804e1f9:	83 f8 01             	cmp    $0x1,%eax
 804e1fc:	0f 86 86 04 00 00    	jbe    804e688 <exit@plt+0x5470>
 804e202:	89 5d bc             	mov    %ebx,-0x44(%ebp)
 804e205:	8d 75 b0             	lea    -0x50(%ebp),%esi
 804e208:	c6 45 ac 00          	movb   $0x0,-0x54(%ebp)
 804e20c:	c7 45 b0 00 00 00 00 	movl   $0x0,-0x50(%ebp)
 804e213:	c7 45 b4 00 00 00 00 	movl   $0x0,-0x4c(%ebp)
 804e21a:	c6 45 b8 00          	movb   $0x0,-0x48(%ebp)
 804e21e:	0f b6 03             	movzbl (%ebx),%eax
 804e221:	89 c2                	mov    %eax,%edx
 804e223:	c0 ea 05             	shr    $0x5,%dl
 804e226:	0f b6 d2             	movzbl %dl,%edx
 804e229:	8b 14 95 a0 2f 05 08 	mov    0x8052fa0(,%edx,4),%edx
 804e230:	0f a3 c2             	bt     %eax,%edx
 804e233:	0f 82 87 04 00 00    	jb     804e6c0 <exit@plt+0x54a8>
 804e239:	89 34 24             	mov    %esi,(%esp)
 804e23c:	e8 17 ae ff ff       	call   8049058 <mbsinit@plt>
 804e241:	85 c0                	test   %eax,%eax
 804e243:	0f 84 ba 09 00 00    	je     804ec03 <exit@plt+0x59eb>
 804e249:	c6 45 ac 01          	movb   $0x1,-0x54(%ebp)
 804e24d:	e8 46 ac ff ff       	call   8048e98 <__ctype_get_mb_cur_max@plt>
 804e252:	89 44 24 04          	mov    %eax,0x4(%esp)
 804e256:	8b 45 bc             	mov    -0x44(%ebp),%eax
 804e259:	89 04 24             	mov    %eax,(%esp)
 804e25c:	e8 af ce ff ff       	call   804b110 <exit@plt+0x1ef8>
 804e261:	89 74 24 0c          	mov    %esi,0xc(%esp)
 804e265:	89 44 24 08          	mov    %eax,0x8(%esp)
 804e269:	8b 45 bc             	mov    -0x44(%ebp),%eax
 804e26c:	89 44 24 04          	mov    %eax,0x4(%esp)
 804e270:	8d 45 c8             	lea    -0x38(%ebp),%eax
 804e273:	89 04 24             	mov    %eax,(%esp)
 804e276:	e8 4d ad ff ff       	call   8048fc8 <mbrtowc@plt>
 804e27b:	83 f8 ff             	cmp    $0xffffffff,%eax
 804e27e:	89 45 c0             	mov    %eax,-0x40(%ebp)
 804e281:	0f 84 69 04 00 00    	je     804e6f0 <exit@plt+0x54d8>
 804e287:	83 f8 fe             	cmp    $0xfffffffe,%eax
 804e28a:	0f 84 88 07 00 00    	je     804ea18 <exit@plt+0x5800>
 804e290:	85 c0                	test   %eax,%eax
 804e292:	75 1e                	jne    804e2b2 <exit@plt+0x509a>
 804e294:	8b 45 bc             	mov    -0x44(%ebp),%eax
 804e297:	c7 45 c0 01 00 00 00 	movl   $0x1,-0x40(%ebp)
 804e29e:	80 38 00             	cmpb   $0x0,(%eax)
 804e2a1:	0f 85 38 09 00 00    	jne    804ebdf <exit@plt+0x59c7>
 804e2a7:	8b 55 c8             	mov    -0x38(%ebp),%edx
 804e2aa:	85 d2                	test   %edx,%edx
 804e2ac:	0f 85 09 09 00 00    	jne    804ebbb <exit@plt+0x59a3>
 804e2b2:	89 34 24             	mov    %esi,(%esp)
 804e2b5:	c6 45 c4 01          	movb   $0x1,-0x3c(%ebp)
 804e2b9:	e8 9a ad ff ff       	call   8049058 <mbsinit@plt>
 804e2be:	85 c0                	test   %eax,%eax
 804e2c0:	74 04                	je     804e2c6 <exit@plt+0x50ae>
 804e2c2:	c6 45 ac 00          	movb   $0x0,-0x54(%ebp)
 804e2c6:	80 7d c4 00          	cmpb   $0x0,-0x3c(%ebp)
 804e2ca:	c6 45 b8 01          	movb   $0x1,-0x48(%ebp)
 804e2ce:	0f 85 0b 04 00 00    	jne    804e6df <exit@plt+0x54c7>
 804e2d4:	8b 8d c4 fe ff ff    	mov    -0x13c(%ebp),%ecx
 804e2da:	89 5d 84             	mov    %ebx,-0x7c(%ebp)
 804e2dd:	c6 85 74 ff ff ff 00 	movb   $0x0,-0x8c(%ebp)
 804e2e4:	c7 85 78 ff ff ff 00 	movl   $0x0,-0x88(%ebp)
 804e2eb:	00 00 00 
 804e2ee:	c7 85 7c ff ff ff 00 	movl   $0x0,-0x84(%ebp)
 804e2f5:	00 00 00 
 804e2f8:	c6 45 80 00          	movb   $0x0,-0x80(%ebp)
 804e2fc:	89 8d 4c ff ff ff    	mov    %ecx,-0xb4(%ebp)
 804e302:	c6 85 3c ff ff ff 00 	movb   $0x0,-0xc4(%ebp)
 804e309:	c7 85 40 ff ff ff 00 	movl   $0x0,-0xc0(%ebp)
 804e310:	00 00 00 
 804e313:	c7 85 44 ff ff ff 00 	movl   $0x0,-0xbc(%ebp)
 804e31a:	00 00 00 
 804e31d:	c6 85 48 ff ff ff 00 	movb   $0x0,-0xb8(%ebp)
 804e324:	c7 85 b8 fe ff ff 00 	movl   $0x0,-0x148(%ebp)
 804e32b:	00 00 00 
 804e32e:	c7 85 b0 fe ff ff 00 	movl   $0x0,-0x150(%ebp)
 804e335:	00 00 00 
 804e338:	c7 85 c0 fe ff ff 00 	movl   $0x0,-0x140(%ebp)
 804e33f:	00 00 00 
 804e342:	c7 85 bc fe ff ff 00 	movl   $0x0,-0x144(%ebp)
 804e349:	00 00 00 
 804e34c:	c6 85 ac fe ff ff 01 	movb   $0x1,-0x154(%ebp)
 804e353:	89 9d b4 fe ff ff    	mov    %ebx,-0x14c(%ebp)
 804e359:	8d 85 3c ff ff ff    	lea    -0xc4(%ebp),%eax
 804e35f:	e8 8c f2 ff ff       	call   804d5f0 <exit@plt+0x43d8>
 804e364:	0f b6 85 54 ff ff ff 	movzbl -0xac(%ebp),%eax
 804e36b:	84 c0                	test   %al,%al
 804e36d:	74 0e                	je     804e37d <exit@plt+0x5165>
 804e36f:	8b bd 58 ff ff ff    	mov    -0xa8(%ebp),%edi
 804e375:	85 ff                	test   %edi,%edi
 804e377:	0f 84 9b 03 00 00    	je     804e718 <exit@plt+0x5500>
 804e37d:	80 bd ac fe ff ff 00 	cmpb   $0x0,-0x154(%ebp)
 804e384:	74 72                	je     804e3f8 <exit@plt+0x51e0>
 804e386:	83 bd bc fe ff ff 09 	cmpl   $0x9,-0x144(%ebp)
 804e38d:	76 69                	jbe    804e3f8 <exit@plt+0x51e0>
 804e38f:	8b b5 b8 fe ff ff    	mov    -0x148(%ebp),%esi
 804e395:	39 b5 c0 fe ff ff    	cmp    %esi,-0x140(%ebp)
 804e39b:	72 5b                	jb     804e3f8 <exit@plt+0x51e0>
 804e39d:	8b 9d c0 fe ff ff    	mov    -0x140(%ebp),%ebx
 804e3a3:	2b 9d b0 fe ff ff    	sub    -0x150(%ebp),%ebx
 804e3a9:	74 24                	je     804e3cf <exit@plt+0x51b7>
 804e3ab:	8d 85 74 ff ff ff    	lea    -0x8c(%ebp),%eax
 804e3b1:	e8 3a f2 ff ff       	call   804d5f0 <exit@plt+0x43d8>
 804e3b6:	80 7d 8c 00          	cmpb   $0x0,-0x74(%ebp)
 804e3ba:	0f 85 30 07 00 00    	jne    804eaf0 <exit@plt+0x58d8>
 804e3c0:	8b 45 88             	mov    -0x78(%ebp),%eax
 804e3c3:	01 45 84             	add    %eax,-0x7c(%ebp)
 804e3c6:	83 eb 01             	sub    $0x1,%ebx
 804e3c9:	c6 45 80 00          	movb   $0x0,-0x80(%ebp)
 804e3cd:	75 dc                	jne    804e3ab <exit@plt+0x5193>
 804e3cf:	8d 85 74 ff ff ff    	lea    -0x8c(%ebp),%eax
 804e3d5:	e8 16 f2 ff ff       	call   804d5f0 <exit@plt+0x43d8>
 804e3da:	80 7d 8c 00          	cmpb   $0x0,-0x74(%ebp)
 804e3de:	0f 85 75 07 00 00    	jne    804eb59 <exit@plt+0x5941>
 804e3e4:	8b 95 c0 fe ff ff    	mov    -0x140(%ebp),%edx
 804e3ea:	0f b6 85 54 ff ff ff 	movzbl -0xac(%ebp),%eax
 804e3f1:	89 95 b0 fe ff ff    	mov    %edx,-0x150(%ebp)
 804e3f7:	90                   	nop
 804e3f8:	8b 9d c0 fe ff ff    	mov    -0x140(%ebp),%ebx
 804e3fe:	83 c3 01             	add    $0x1,%ebx
 804e401:	84 c0                	test   %al,%al
 804e403:	0f 84 67 06 00 00    	je     804ea70 <exit@plt+0x5858>
 804e409:	80 7d c4 00          	cmpb   $0x0,-0x3c(%ebp)
 804e40d:	0f 84 5d 06 00 00    	je     804ea70 <exit@plt+0x5858>
 804e413:	8b 85 58 ff ff ff    	mov    -0xa8(%ebp),%eax
 804e419:	3b 45 c8             	cmp    -0x38(%ebp),%eax
 804e41c:	0f 94 c0             	sete   %al
 804e41f:	84 c0                	test   %al,%al
 804e421:	0f 84 58 06 00 00    	je     804ea7f <exit@plt+0x5867>
 804e427:	8b 95 54 ff ff ff    	mov    -0xac(%ebp),%edx
 804e42d:	8b 85 3c ff ff ff    	mov    -0xc4(%ebp),%eax
 804e433:	8b b5 b4 fe ff ff    	mov    -0x14c(%ebp),%esi
 804e439:	89 95 1c ff ff ff    	mov    %edx,-0xe4(%ebp)
 804e43f:	8b 95 58 ff ff ff    	mov    -0xa8(%ebp),%edx
 804e445:	89 85 04 ff ff ff    	mov    %eax,-0xfc(%ebp)
 804e44b:	8b 85 40 ff ff ff    	mov    -0xc0(%ebp),%eax
 804e451:	89 b5 dc fe ff ff    	mov    %esi,-0x124(%ebp)
 804e457:	89 95 20 ff ff ff    	mov    %edx,-0xe0(%ebp)
 804e45d:	8b 95 5c ff ff ff    	mov    -0xa4(%ebp),%edx
 804e463:	89 85 08 ff ff ff    	mov    %eax,-0xf8(%ebp)
 804e469:	8b 85 44 ff ff ff    	mov    -0xbc(%ebp),%eax
 804e46f:	89 95 24 ff ff ff    	mov    %edx,-0xdc(%ebp)
 804e475:	8b 95 60 ff ff ff    	mov    -0xa0(%ebp),%edx
 804e47b:	89 85 0c ff ff ff    	mov    %eax,-0xf4(%ebp)
 804e481:	8b 85 48 ff ff ff    	mov    -0xb8(%ebp),%eax
 804e487:	89 95 28 ff ff ff    	mov    %edx,-0xd8(%ebp)
 804e48d:	8b 95 64 ff ff ff    	mov    -0x9c(%ebp),%edx
 804e493:	89 85 10 ff ff ff    	mov    %eax,-0xf0(%ebp)
 804e499:	8b 85 4c ff ff ff    	mov    -0xb4(%ebp),%eax
 804e49f:	c6 85 10 ff ff ff 00 	movb   $0x0,-0xf0(%ebp)
 804e4a6:	89 95 2c ff ff ff    	mov    %edx,-0xd4(%ebp)
 804e4ac:	8b 95 68 ff ff ff    	mov    -0x98(%ebp),%edx
 804e4b2:	89 85 14 ff ff ff    	mov    %eax,-0xec(%ebp)
 804e4b8:	8b 85 50 ff ff ff    	mov    -0xb0(%ebp),%eax
 804e4be:	01 85 14 ff ff ff    	add    %eax,-0xec(%ebp)
 804e4c4:	89 95 30 ff ff ff    	mov    %edx,-0xd0(%ebp)
 804e4ca:	8b 95 6c ff ff ff    	mov    -0x94(%ebp),%edx
 804e4d0:	89 85 18 ff ff ff    	mov    %eax,-0xe8(%ebp)
 804e4d6:	8d 85 cc fe ff ff    	lea    -0x134(%ebp),%eax
 804e4dc:	89 95 34 ff ff ff    	mov    %edx,-0xcc(%ebp)
 804e4e2:	8b 95 70 ff ff ff    	mov    -0x90(%ebp),%edx
 804e4e8:	89 95 38 ff ff ff    	mov    %edx,-0xc8(%ebp)
 804e4ee:	c6 85 cc fe ff ff 00 	movb   $0x0,-0x134(%ebp)
 804e4f5:	c7 85 d0 fe ff ff 00 	movl   $0x0,-0x130(%ebp)
 804e4fc:	00 00 00 
 804e4ff:	c7 85 d4 fe ff ff 00 	movl   $0x0,-0x12c(%ebp)
 804e506:	00 00 00 
 804e509:	c6 85 d8 fe ff ff 00 	movb   $0x0,-0x128(%ebp)
 804e510:	e8 db f0 ff ff       	call   804d5f0 <exit@plt+0x43d8>
 804e515:	80 bd e4 fe ff ff 00 	cmpb   $0x0,-0x11c(%ebp)
 804e51c:	0f 85 de 05 00 00    	jne    804eb00 <exit@plt+0x58e8>
 804e522:	8b 9d c0 fe ff ff    	mov    -0x140(%ebp),%ebx
 804e528:	8b 85 e0 fe ff ff    	mov    -0x120(%ebp),%eax
 804e52e:	01 85 dc fe ff ff    	add    %eax,-0x124(%ebp)
 804e534:	c6 85 d8 fe ff ff 00 	movb   $0x0,-0x128(%ebp)
 804e53b:	83 c3 02             	add    $0x2,%ebx
 804e53e:	eb 57                	jmp    804e597 <exit@plt+0x537f>
 804e540:	8b 85 20 ff ff ff    	mov    -0xe0(%ebp),%eax
 804e546:	85 c0                	test   %eax,%eax
 804e548:	0f 84 ca 01 00 00    	je     804e718 <exit@plt+0x5500>
 804e54e:	80 bd e4 fe ff ff 00 	cmpb   $0x0,-0x11c(%ebp)
 804e555:	0f 84 fd 00 00 00    	je     804e658 <exit@plt+0x5440>
 804e55b:	3b 85 e8 fe ff ff    	cmp    -0x118(%ebp),%eax
 804e561:	0f 95 c0             	setne  %al
 804e564:	84 c0                	test   %al,%al
 804e566:	8d 53 01             	lea    0x1(%ebx),%edx
 804e569:	0f 85 10 05 00 00    	jne    804ea7f <exit@plt+0x5867>
 804e56f:	8b 85 18 ff ff ff    	mov    -0xe8(%ebp),%eax
 804e575:	89 d3                	mov    %edx,%ebx
 804e577:	01 85 14 ff ff ff    	add    %eax,-0xec(%ebp)
 804e57d:	8b 85 e0 fe ff ff    	mov    -0x120(%ebp),%eax
 804e583:	01 85 dc fe ff ff    	add    %eax,-0x124(%ebp)
 804e589:	c6 85 10 ff ff ff 00 	movb   $0x0,-0xf0(%ebp)
 804e590:	c6 85 d8 fe ff ff 00 	movb   $0x0,-0x128(%ebp)
 804e597:	80 bd cc fe ff ff 00 	cmpb   $0x0,-0x134(%ebp)
 804e59e:	0f 85 b9 01 00 00    	jne    804e75d <exit@plt+0x5545>
 804e5a4:	8b 95 dc fe ff ff    	mov    -0x124(%ebp),%edx
 804e5aa:	0f b6 02             	movzbl (%edx),%eax
 804e5ad:	89 c1                	mov    %eax,%ecx
 804e5af:	c0 e9 05             	shr    $0x5,%cl
 804e5b2:	0f b6 c9             	movzbl %cl,%ecx
 804e5b5:	8b 0c 8d a0 2f 05 08 	mov    0x8052fa0(,%ecx,4),%ecx
 804e5bc:	0f a3 c1             	bt     %eax,%ecx
 804e5bf:	0f 83 7b 01 00 00    	jae    804e740 <exit@plt+0x5528>
 804e5c5:	c7 85 e0 fe ff ff 01 	movl   $0x1,-0x120(%ebp)
 804e5cc:	00 00 00 
 804e5cf:	0f be 02             	movsbl (%edx),%eax
 804e5d2:	c6 85 e4 fe ff ff 01 	movb   $0x1,-0x11c(%ebp)
 804e5d9:	89 85 e8 fe ff ff    	mov    %eax,-0x118(%ebp)
 804e5df:	80 bd e4 fe ff ff 00 	cmpb   $0x0,-0x11c(%ebp)
 804e5e6:	c6 85 d8 fe ff ff 01 	movb   $0x1,-0x128(%ebp)
 804e5ed:	0f 85 2d 01 00 00    	jne    804e720 <exit@plt+0x5508>
 804e5f3:	80 bd 10 ff ff ff 00 	cmpb   $0x0,-0xf0(%ebp)
 804e5fa:	75 4f                	jne    804e64b <exit@plt+0x5433>
 804e5fc:	80 bd 04 ff ff ff 00 	cmpb   $0x0,-0xfc(%ebp)
 804e603:	0f 85 1c 02 00 00    	jne    804e825 <exit@plt+0x560d>
 804e609:	8b 95 14 ff ff ff    	mov    -0xec(%ebp),%edx
 804e60f:	0f b6 02             	movzbl (%edx),%eax
 804e612:	89 c1                	mov    %eax,%ecx
 804e614:	c0 e9 05             	shr    $0x5,%cl
 804e617:	0f b6 c9             	movzbl %cl,%ecx
 804e61a:	8b 0c 8d a0 2f 05 08 	mov    0x8052fa0(,%ecx,4),%ecx
 804e621:	0f a3 c1             	bt     %eax,%ecx
 804e624:	0f 83 de 01 00 00    	jae    804e808 <exit@plt+0x55f0>
 804e62a:	c7 85 18 ff ff ff 01 	movl   $0x1,-0xe8(%ebp)
 804e631:	00 00 00 
 804e634:	0f be 02             	movsbl (%edx),%eax
 804e637:	c6 85 1c ff ff ff 01 	movb   $0x1,-0xe4(%ebp)
 804e63e:	89 85 20 ff ff ff    	mov    %eax,-0xe0(%ebp)
 804e644:	c6 85 10 ff ff ff 01 	movb   $0x1,-0xf0(%ebp)
 804e64b:	80 bd 1c ff ff ff 00 	cmpb   $0x0,-0xe4(%ebp)
 804e652:	0f 85 e8 fe ff ff    	jne    804e540 <exit@plt+0x5328>
 804e658:	8b 8d 18 ff ff ff    	mov    -0xe8(%ebp),%ecx
 804e65e:	b8 01 00 00 00       	mov    $0x1,%eax
 804e663:	3b 8d e0 fe ff ff    	cmp    -0x120(%ebp),%ecx
 804e669:	0f 85 f5 fe ff ff    	jne    804e564 <exit@plt+0x534c>
 804e66f:	8b bd dc fe ff ff    	mov    -0x124(%ebp),%edi
 804e675:	39 c9                	cmp    %ecx,%ecx
 804e677:	8b b5 14 ff ff ff    	mov    -0xec(%ebp),%esi
 804e67d:	f3 a6                	repz cmpsb %es:(%edi),%ds:(%esi)
 804e67f:	0f 95 c0             	setne  %al
 804e682:	e9 dd fe ff ff       	jmp    804e564 <exit@plt+0x534c>
 804e687:	90                   	nop
 804e688:	0f b6 03             	movzbl (%ebx),%eax
 804e68b:	84 c0                	test   %al,%al
 804e68d:	88 85 c0 fe ff ff    	mov    %al,-0x140(%ebp)
 804e693:	0f 85 37 02 00 00    	jne    804e8d0 <exit@plt+0x56b8>
 804e699:	8b b5 c4 fe ff ff    	mov    -0x13c(%ebp),%esi
 804e69f:	8b 4d e4             	mov    -0x1c(%ebp),%ecx
 804e6a2:	65 33 0d 14 00 00 00 	xor    %gs:0x14,%ecx
 804e6a9:	89 f0                	mov    %esi,%eax
 804e6ab:	0f 85 05 05 00 00    	jne    804ebb6 <exit@plt+0x599e>
 804e6b1:	81 c4 7c 01 00 00    	add    $0x17c,%esp
 804e6b7:	5b                   	pop    %ebx
 804e6b8:	5e                   	pop    %esi
 804e6b9:	5f                   	pop    %edi
 804e6ba:	5d                   	pop    %ebp
 804e6bb:	c3                   	ret    
 804e6bc:	8d 74 26 00          	lea    0x0(%esi,%eiz,1),%esi
 804e6c0:	c7 45 c0 01 00 00 00 	movl   $0x1,-0x40(%ebp)
 804e6c7:	0f be 03             	movsbl (%ebx),%eax
 804e6ca:	c6 45 c4 01          	movb   $0x1,-0x3c(%ebp)
 804e6ce:	80 7d c4 00          	cmpb   $0x0,-0x3c(%ebp)
 804e6d2:	c6 45 b8 01          	movb   $0x1,-0x48(%ebp)
 804e6d6:	89 45 c8             	mov    %eax,-0x38(%ebp)
 804e6d9:	0f 84 f5 fb ff ff    	je     804e2d4 <exit@plt+0x50bc>
 804e6df:	8b 45 c8             	mov    -0x38(%ebp),%eax
 804e6e2:	85 c0                	test   %eax,%eax
 804e6e4:	74 b3                	je     804e699 <exit@plt+0x5481>
 804e6e6:	e9 e9 fb ff ff       	jmp    804e2d4 <exit@plt+0x50bc>
 804e6eb:	90                   	nop
 804e6ec:	8d 74 26 00          	lea    0x0(%esi,%eiz,1),%esi
 804e6f0:	c7 45 c0 01 00 00 00 	movl   $0x1,-0x40(%ebp)
 804e6f7:	c6 45 c4 00          	movb   $0x0,-0x3c(%ebp)
 804e6fb:	e9 c6 fb ff ff       	jmp    804e2c6 <exit@plt+0x50ae>
 804e700:	8b 95 c4 fe ff ff    	mov    -0x13c(%ebp),%edx
 804e706:	8b 85 bc fe ff ff    	mov    -0x144(%ebp),%eax
 804e70c:	80 3c 02 00          	cmpb   $0x0,(%edx,%eax,1)
 804e710:	0f 85 36 03 00 00    	jne    804ea4c <exit@plt+0x5834>
 804e716:	66 90                	xchg   %ax,%ax
 804e718:	31 f6                	xor    %esi,%esi
 804e71a:	eb 83                	jmp    804e69f <exit@plt+0x5487>
 804e71c:	8d 74 26 00          	lea    0x0(%esi,%eiz,1),%esi
 804e720:	8b 85 e8 fe ff ff    	mov    -0x118(%ebp),%eax
 804e726:	85 c0                	test   %eax,%eax
 804e728:	0f 85 c5 fe ff ff    	jne    804e5f3 <exit@plt+0x53db>
 804e72e:	8b b5 4c ff ff ff    	mov    -0xb4(%ebp),%esi
 804e734:	e9 66 ff ff ff       	jmp    804e69f <exit@plt+0x5487>
 804e739:	8d b4 26 00 00 00 00 	lea    0x0(%esi,%eiz,1),%esi
 804e740:	8d 85 d0 fe ff ff    	lea    -0x130(%ebp),%eax
 804e746:	89 04 24             	mov    %eax,(%esp)
 804e749:	e8 0a a9 ff ff       	call   8049058 <mbsinit@plt>
 804e74e:	85 c0                	test   %eax,%eax
 804e750:	0f 84 ad 04 00 00    	je     804ec03 <exit@plt+0x59eb>
 804e756:	c6 85 cc fe ff ff 01 	movb   $0x1,-0x134(%ebp)
 804e75d:	e8 36 a7 ff ff       	call   8048e98 <__ctype_get_mb_cur_max@plt>
 804e762:	89 44 24 04          	mov    %eax,0x4(%esp)
 804e766:	8b 85 dc fe ff ff    	mov    -0x124(%ebp),%eax
 804e76c:	89 04 24             	mov    %eax,(%esp)
 804e76f:	e8 9c c9 ff ff       	call   804b110 <exit@plt+0x1ef8>
 804e774:	8d 95 d0 fe ff ff    	lea    -0x130(%ebp),%edx
 804e77a:	8d 8d e8 fe ff ff    	lea    -0x118(%ebp),%ecx
 804e780:	89 54 24 0c          	mov    %edx,0xc(%esp)
 804e784:	89 0c 24             	mov    %ecx,(%esp)
 804e787:	89 44 24 08          	mov    %eax,0x8(%esp)
 804e78b:	8b 85 dc fe ff ff    	mov    -0x124(%ebp),%eax
 804e791:	89 44 24 04          	mov    %eax,0x4(%esp)
 804e795:	e8 2e a8 ff ff       	call   8048fc8 <mbrtowc@plt>
 804e79a:	83 f8 ff             	cmp    $0xffffffff,%eax
 804e79d:	89 85 e0 fe ff ff    	mov    %eax,-0x120(%ebp)
 804e7a3:	0f 84 87 02 00 00    	je     804ea30 <exit@plt+0x5818>
 804e7a9:	83 f8 fe             	cmp    $0xfffffffe,%eax
 804e7ac:	0f 84 fe 02 00 00    	je     804eab0 <exit@plt+0x5898>
 804e7b2:	85 c0                	test   %eax,%eax
 804e7b4:	75 27                	jne    804e7dd <exit@plt+0x55c5>
 804e7b6:	8b 85 dc fe ff ff    	mov    -0x124(%ebp),%eax
 804e7bc:	c7 85 e0 fe ff ff 01 	movl   $0x1,-0x120(%ebp)
 804e7c3:	00 00 00 
 804e7c6:	80 38 00             	cmpb   $0x0,(%eax)
 804e7c9:	0f 85 10 04 00 00    	jne    804ebdf <exit@plt+0x59c7>
 804e7cf:	8b 95 e8 fe ff ff    	mov    -0x118(%ebp),%edx
 804e7d5:	85 d2                	test   %edx,%edx
 804e7d7:	0f 85 de 03 00 00    	jne    804ebbb <exit@plt+0x59a3>
 804e7dd:	8d b5 d0 fe ff ff    	lea    -0x130(%ebp),%esi
 804e7e3:	89 34 24             	mov    %esi,(%esp)
 804e7e6:	c6 85 e4 fe ff ff 01 	movb   $0x1,-0x11c(%ebp)
 804e7ed:	e8 66 a8 ff ff       	call   8049058 <mbsinit@plt>
 804e7f2:	85 c0                	test   %eax,%eax
 804e7f4:	0f 84 e5 fd ff ff    	je     804e5df <exit@plt+0x53c7>
 804e7fa:	c6 85 cc fe ff ff 00 	movb   $0x0,-0x134(%ebp)
 804e801:	e9 d9 fd ff ff       	jmp    804e5df <exit@plt+0x53c7>
 804e806:	66 90                	xchg   %ax,%ax
 804e808:	8d 85 08 ff ff ff    	lea    -0xf8(%ebp),%eax
 804e80e:	89 04 24             	mov    %eax,(%esp)
 804e811:	e8 42 a8 ff ff       	call   8049058 <mbsinit@plt>
 804e816:	85 c0                	test   %eax,%eax
 804e818:	0f 84 e5 03 00 00    	je     804ec03 <exit@plt+0x59eb>
 804e81e:	c6 85 04 ff ff ff 01 	movb   $0x1,-0xfc(%ebp)
 804e825:	e8 6e a6 ff ff       	call   8048e98 <__ctype_get_mb_cur_max@plt>
 804e82a:	89 44 24 04          	mov    %eax,0x4(%esp)
 804e82e:	8b 85 14 ff ff ff    	mov    -0xec(%ebp),%eax
 804e834:	89 04 24             	mov    %eax,(%esp)
 804e837:	e8 d4 c8 ff ff       	call   804b110 <exit@plt+0x1ef8>
 804e83c:	8d 95 08 ff ff ff    	lea    -0xf8(%ebp),%edx
 804e842:	8d 8d 20 ff ff ff    	lea    -0xe0(%ebp),%ecx
 804e848:	89 54 24 0c          	mov    %edx,0xc(%esp)
 804e84c:	89 0c 24             	mov    %ecx,(%esp)
 804e84f:	89 44 24 08          	mov    %eax,0x8(%esp)
 804e853:	8b 85 14 ff ff ff    	mov    -0xec(%ebp),%eax
 804e859:	89 44 24 04          	mov    %eax,0x4(%esp)
 804e85d:	e8 66 a7 ff ff       	call   8048fc8 <mbrtowc@plt>
 804e862:	83 f8 ff             	cmp    $0xffffffff,%eax
 804e865:	89 85 18 ff ff ff    	mov    %eax,-0xe8(%ebp)
 804e86b:	0f 84 e7 01 00 00    	je     804ea58 <exit@plt+0x5840>
 804e871:	83 f8 fe             	cmp    $0xfffffffe,%eax
 804e874:	0f 84 56 02 00 00    	je     804ead0 <exit@plt+0x58b8>
 804e87a:	85 c0                	test   %eax,%eax
 804e87c:	75 27                	jne    804e8a5 <exit@plt+0x568d>
 804e87e:	8b 85 14 ff ff ff    	mov    -0xec(%ebp),%eax
 804e884:	c7 85 18 ff ff ff 01 	movl   $0x1,-0xe8(%ebp)
 804e88b:	00 00 00 
 804e88e:	80 38 00             	cmpb   $0x0,(%eax)
 804e891:	0f 85 48 03 00 00    	jne    804ebdf <exit@plt+0x59c7>
 804e897:	8b bd 20 ff ff ff    	mov    -0xe0(%ebp),%edi
 804e89d:	85 ff                	test   %edi,%edi
 804e89f:	0f 85 16 03 00 00    	jne    804ebbb <exit@plt+0x59a3>
 804e8a5:	8d b5 08 ff ff ff    	lea    -0xf8(%ebp),%esi
 804e8ab:	89 34 24             	mov    %esi,(%esp)
 804e8ae:	c6 85 1c ff ff ff 01 	movb   $0x1,-0xe4(%ebp)
 804e8b5:	e8 9e a7 ff ff       	call   8049058 <mbsinit@plt>
 804e8ba:	85 c0                	test   %eax,%eax
 804e8bc:	0f 84 82 fd ff ff    	je     804e644 <exit@plt+0x542c>
 804e8c2:	c6 85 04 ff ff ff 00 	movb   $0x0,-0xfc(%ebp)
 804e8c9:	e9 76 fd ff ff       	jmp    804e644 <exit@plt+0x542c>
 804e8ce:	66 90                	xchg   %ax,%ax
 804e8d0:	8b 8d c4 fe ff ff    	mov    -0x13c(%ebp),%ecx
 804e8d6:	8d 53 01             	lea    0x1(%ebx),%edx
 804e8d9:	89 95 b0 fe ff ff    	mov    %edx,-0x150(%ebp)
 804e8df:	80 39 00             	cmpb   $0x0,(%ecx)
 804e8e2:	0f 84 30 fe ff ff    	je     804e718 <exit@plt+0x5500>
 804e8e8:	89 9d a8 fe ff ff    	mov    %ebx,-0x158(%ebp)
 804e8ee:	31 ff                	xor    %edi,%edi
 804e8f0:	c7 85 b8 fe ff ff 00 	movl   $0x0,-0x148(%ebp)
 804e8f7:	00 00 00 
 804e8fa:	c6 85 b4 fe ff ff 01 	movb   $0x1,-0x14c(%ebp)
 804e901:	c7 85 bc fe ff ff 00 	movl   $0x0,-0x144(%ebp)
 804e908:	00 00 00 
 804e90b:	c7 85 a4 fe ff ff 00 	movl   $0x0,-0x15c(%ebp)
 804e912:	00 00 00 
 804e915:	89 9d 94 fe ff ff    	mov    %ebx,-0x16c(%ebp)
 804e91b:	8b 9d c4 fe ff ff    	mov    -0x13c(%ebp),%ebx
 804e921:	03 9d bc fe ff ff    	add    -0x144(%ebp),%ebx
 804e927:	80 bd b4 fe ff ff 00 	cmpb   $0x0,-0x14c(%ebp)
 804e92e:	89 9d ac fe ff ff    	mov    %ebx,-0x154(%ebp)
 804e934:	74 5a                	je     804e990 <exit@plt+0x5778>
 804e936:	83 bd bc fe ff ff 09 	cmpl   $0x9,-0x144(%ebp)
 804e93d:	76 51                	jbe    804e990 <exit@plt+0x5778>
 804e93f:	3b bd b8 fe ff ff    	cmp    -0x148(%ebp),%edi
 804e945:	72 49                	jb     804e990 <exit@plt+0x5778>
 804e947:	8b b5 a8 fe ff ff    	mov    -0x158(%ebp),%esi
 804e94d:	85 f6                	test   %esi,%esi
 804e94f:	0f 84 d3 01 00 00    	je     804eb28 <exit@plt+0x5910>
 804e955:	8b b5 a8 fe ff ff    	mov    -0x158(%ebp),%esi
 804e95b:	89 f8                	mov    %edi,%eax
 804e95d:	2b 85 a4 fe ff ff    	sub    -0x15c(%ebp),%eax
 804e963:	89 34 24             	mov    %esi,(%esp)
 804e966:	89 44 24 04          	mov    %eax,0x4(%esp)
 804e96a:	e8 e9 a7 ff ff       	call   8049158 <strnlen@plt>
 804e96f:	89 bd a4 fe ff ff    	mov    %edi,-0x15c(%ebp)
 804e975:	01 c6                	add    %eax,%esi
 804e977:	89 b5 a8 fe ff ff    	mov    %esi,-0x158(%ebp)
 804e97d:	80 3e 00             	cmpb   $0x0,(%esi)
 804e980:	0f 84 a2 01 00 00    	je     804eb28 <exit@plt+0x5910>
 804e986:	89 bd a4 fe ff ff    	mov    %edi,-0x15c(%ebp)
 804e98c:	8d 74 26 00          	lea    0x0(%esi,%eiz,1),%esi
 804e990:	83 85 bc fe ff ff 01 	addl   $0x1,-0x144(%ebp)
 804e997:	83 c7 01             	add    $0x1,%edi
 804e99a:	8b 8d c4 fe ff ff    	mov    -0x13c(%ebp),%ecx
 804e9a0:	8b 95 bc fe ff ff    	mov    -0x144(%ebp),%edx
 804e9a6:	0f b6 85 c0 fe ff ff 	movzbl -0x140(%ebp),%eax
 804e9ad:	3a 44 11 ff          	cmp    -0x1(%ecx,%edx,1),%al
 804e9b1:	0f 85 49 fd ff ff    	jne    804e700 <exit@plt+0x54e8>
 804e9b7:	8b b5 b0 fe ff ff    	mov    -0x150(%ebp),%esi
 804e9bd:	0f b6 16             	movzbl (%esi),%edx
 804e9c0:	84 d2                	test   %dl,%dl
 804e9c2:	74 44                	je     804ea08 <exit@plt+0x57f0>
 804e9c4:	8b 85 bc fe ff ff    	mov    -0x144(%ebp),%eax
 804e9ca:	0f b6 0c 01          	movzbl (%ecx,%eax,1),%ecx
 804e9ce:	84 c9                	test   %cl,%cl
 804e9d0:	0f 84 42 fd ff ff    	je     804e718 <exit@plt+0x5500>
 804e9d6:	83 c7 01             	add    $0x1,%edi
 804e9d9:	31 c0                	xor    %eax,%eax
 804e9db:	38 ca                	cmp    %cl,%dl
 804e9dd:	75 6d                	jne    804ea4c <exit@plt+0x5834>
 804e9df:	8b b5 94 fe ff ff    	mov    -0x16c(%ebp),%esi
 804e9e5:	eb 18                	jmp    804e9ff <exit@plt+0x57e7>
 804e9e7:	90                   	nop
 804e9e8:	0f b6 4c 03 02       	movzbl 0x2(%ebx,%eax,1),%ecx
 804e9ed:	84 c9                	test   %cl,%cl
 804e9ef:	0f 84 23 fd ff ff    	je     804e718 <exit@plt+0x5500>
 804e9f5:	83 c7 01             	add    $0x1,%edi
 804e9f8:	83 c0 01             	add    $0x1,%eax
 804e9fb:	38 ca                	cmp    %cl,%dl
 804e9fd:	75 47                	jne    804ea46 <exit@plt+0x582e>
 804e9ff:	0f b6 54 06 02       	movzbl 0x2(%esi,%eax,1),%edx
 804ea04:	84 d2                	test   %dl,%dl
 804ea06:	75 e0                	jne    804e9e8 <exit@plt+0x57d0>
 804ea08:	8b b5 ac fe ff ff    	mov    -0x154(%ebp),%esi
 804ea0e:	e9 8c fc ff ff       	jmp    804e69f <exit@plt+0x5487>
 804ea13:	90                   	nop
 804ea14:	8d 74 26 00          	lea    0x0(%esi,%eiz,1),%esi
 804ea18:	8b 45 bc             	mov    -0x44(%ebp),%eax
 804ea1b:	89 04 24             	mov    %eax,(%esp)
 804ea1e:	e8 55 a6 ff ff       	call   8049078 <strlen@plt>
 804ea23:	c6 45 c4 00          	movb   $0x0,-0x3c(%ebp)
 804ea27:	89 45 c0             	mov    %eax,-0x40(%ebp)
 804ea2a:	e9 97 f8 ff ff       	jmp    804e2c6 <exit@plt+0x50ae>
 804ea2f:	90                   	nop
 804ea30:	c7 85 e0 fe ff ff 01 	movl   $0x1,-0x120(%ebp)
 804ea37:	00 00 00 
 804ea3a:	c6 85 e4 fe ff ff 00 	movb   $0x0,-0x11c(%ebp)
 804ea41:	e9 99 fb ff ff       	jmp    804e5df <exit@plt+0x53c7>
 804ea46:	89 b5 94 fe ff ff    	mov    %esi,-0x16c(%ebp)
 804ea4c:	83 85 b8 fe ff ff 05 	addl   $0x5,-0x148(%ebp)
 804ea53:	e9 c3 fe ff ff       	jmp    804e91b <exit@plt+0x5703>
 804ea58:	c7 85 18 ff ff ff 01 	movl   $0x1,-0xe8(%ebp)
 804ea5f:	00 00 00 
 804ea62:	c6 85 1c ff ff ff 00 	movb   $0x0,-0xe4(%ebp)
 804ea69:	e9 d6 fb ff ff       	jmp    804e644 <exit@plt+0x542c>
 804ea6e:	66 90                	xchg   %ax,%ax
 804ea70:	8b 8d 50 ff ff ff    	mov    -0xb0(%ebp),%ecx
 804ea76:	3b 4d c0             	cmp    -0x40(%ebp),%ecx
 804ea79:	0f 84 94 00 00 00    	je     804eb13 <exit@plt+0x58fb>
 804ea7f:	8b 85 50 ff ff ff    	mov    -0xb0(%ebp),%eax
 804ea85:	83 85 bc fe ff ff 01 	addl   $0x1,-0x144(%ebp)
 804ea8c:	01 85 4c ff ff ff    	add    %eax,-0xb4(%ebp)
 804ea92:	83 85 b8 fe ff ff 05 	addl   $0x5,-0x148(%ebp)
 804ea99:	c6 85 48 ff ff ff 00 	movb   $0x0,-0xb8(%ebp)
 804eaa0:	89 9d c0 fe ff ff    	mov    %ebx,-0x140(%ebp)
 804eaa6:	e9 ae f8 ff ff       	jmp    804e359 <exit@plt+0x5141>
 804eaab:	90                   	nop
 804eaac:	8d 74 26 00          	lea    0x0(%esi,%eiz,1),%esi
 804eab0:	8b 85 dc fe ff ff    	mov    -0x124(%ebp),%eax
 804eab6:	89 04 24             	mov    %eax,(%esp)
 804eab9:	e8 ba a5 ff ff       	call   8049078 <strlen@plt>
 804eabe:	c6 85 e4 fe ff ff 00 	movb   $0x0,-0x11c(%ebp)
 804eac5:	89 85 e0 fe ff ff    	mov    %eax,-0x120(%ebp)
 804eacb:	e9 0f fb ff ff       	jmp    804e5df <exit@plt+0x53c7>
 804ead0:	8b 85 14 ff ff ff    	mov    -0xec(%ebp),%eax
 804ead6:	89 04 24             	mov    %eax,(%esp)
 804ead9:	e8 9a a5 ff ff       	call   8049078 <strlen@plt>
 804eade:	c6 85 1c ff ff ff 00 	movb   $0x0,-0xe4(%ebp)
 804eae5:	89 85 18 ff ff ff    	mov    %eax,-0xe8(%ebp)
 804eaeb:	e9 54 fb ff ff       	jmp    804e644 <exit@plt+0x542c>
 804eaf0:	8b 75 90             	mov    -0x70(%ebp),%esi
 804eaf3:	85 f6                	test   %esi,%esi
 804eaf5:	0f 84 d4 f8 ff ff    	je     804e3cf <exit@plt+0x51b7>
 804eafb:	e9 c0 f8 ff ff       	jmp    804e3c0 <exit@plt+0x51a8>
 804eb00:	8b 8d e8 fe ff ff    	mov    -0x118(%ebp),%ecx
 804eb06:	85 c9                	test   %ecx,%ecx
 804eb08:	0f 85 14 fa ff ff    	jne    804e522 <exit@plt+0x530a>
 804eb0e:	e8 35 a3 ff ff       	call   8048e48 <abort@plt>
 804eb13:	8b 7d bc             	mov    -0x44(%ebp),%edi
 804eb16:	39 c9                	cmp    %ecx,%ecx
 804eb18:	8b b5 4c ff ff ff    	mov    -0xb4(%ebp),%esi
 804eb1e:	f3 a6                	repz cmpsb %es:(%edi),%ds:(%esi)
 804eb20:	0f 94 c0             	sete   %al
 804eb23:	e9 f7 f8 ff ff       	jmp    804e41f <exit@plt+0x5207>
 804eb28:	8b 95 94 fe ff ff    	mov    -0x16c(%ebp),%edx
 804eb2e:	8d 8d c8 fe ff ff    	lea    -0x138(%ebp),%ecx
 804eb34:	89 d8                	mov    %ebx,%eax
 804eb36:	e8 35 ec ff ff       	call   804d770 <exit@plt+0x4558>
 804eb3b:	84 c0                	test   %al,%al
 804eb3d:	0f 85 e4 00 00 00    	jne    804ec27 <exit@plt+0x5a0f>
 804eb43:	c6 85 b4 fe ff ff 00 	movb   $0x0,-0x14c(%ebp)
 804eb4a:	c7 85 a8 fe ff ff 00 	movl   $0x0,-0x158(%ebp)
 804eb51:	00 00 00 
 804eb54:	e9 37 fe ff ff       	jmp    804e990 <exit@plt+0x5778>
 804eb59:	8b 5d 90             	mov    -0x70(%ebp),%ebx
 804eb5c:	85 db                	test   %ebx,%ebx
 804eb5e:	74 18                	je     804eb78 <exit@plt+0x5960>
 804eb60:	8b 8d c0 fe ff ff    	mov    -0x140(%ebp),%ecx
 804eb66:	0f b6 85 54 ff ff ff 	movzbl -0xac(%ebp),%eax
 804eb6d:	89 8d b0 fe ff ff    	mov    %ecx,-0x150(%ebp)
 804eb73:	e9 80 f8 ff ff       	jmp    804e3f8 <exit@plt+0x51e0>
 804eb78:	8b 95 b4 fe ff ff    	mov    -0x14c(%ebp),%edx
 804eb7e:	8d 8d c8 fe ff ff    	lea    -0x138(%ebp),%ecx
 804eb84:	8b 85 c4 fe ff ff    	mov    -0x13c(%ebp),%eax
 804eb8a:	e8 41 ed ff ff       	call   804d8d0 <exit@plt+0x46b8>
 804eb8f:	84 c0                	test   %al,%al
 804eb91:	0f 85 90 00 00 00    	jne    804ec27 <exit@plt+0x5a0f>
 804eb97:	8b b5 c0 fe ff ff    	mov    -0x140(%ebp),%esi
 804eb9d:	0f b6 85 54 ff ff ff 	movzbl -0xac(%ebp),%eax
 804eba4:	c6 85 ac fe ff ff 00 	movb   $0x0,-0x154(%ebp)
 804ebab:	89 b5 b0 fe ff ff    	mov    %esi,-0x150(%ebp)
 804ebb1:	e9 42 f8 ff ff       	jmp    804e3f8 <exit@plt+0x51e0>
 804ebb6:	e8 5d a5 ff ff       	call   8049118 <__stack_chk_fail@plt>
 804ebbb:	c7 44 24 0c c0 2f 05 	movl   $0x8052fc0,0xc(%esp)
 804ebc2:	08 
 804ebc3:	c7 44 24 08 ab 00 00 	movl   $0xab,0x8(%esp)
 804ebca:	00 
 804ebcb:	c7 44 24 04 f4 27 05 	movl   $0x80527f4,0x4(%esp)
 804ebd2:	08 
 804ebd3:	c7 04 24 2c 28 05 08 	movl   $0x805282c,(%esp)
 804ebda:	e8 c9 a3 ff ff       	call   8048fa8 <__assert_fail@plt>
 804ebdf:	c7 44 24 0c c0 2f 05 	movl   $0x8052fc0,0xc(%esp)
 804ebe6:	08 
 804ebe7:	c7 44 24 08 aa 00 00 	movl   $0xaa,0x8(%esp)
 804ebee:	00 
 804ebef:	c7 44 24 04 f4 27 05 	movl   $0x80527f4,0x4(%esp)
 804ebf6:	08 
 804ebf7:	c7 04 24 15 28 05 08 	movl   $0x8052815,(%esp)
 804ebfe:	e8 a5 a3 ff ff       	call   8048fa8 <__assert_fail@plt>
 804ec03:	c7 44 24 0c c0 2f 05 	movl   $0x8052fc0,0xc(%esp)
 804ec0a:	08 
 804ec0b:	c7 44 24 08 8e 00 00 	movl   $0x8e,0x8(%esp)
 804ec12:	00 
 804ec13:	c7 44 24 04 f4 27 05 	movl   $0x80527f4,0x4(%esp)
 804ec1a:	08 
 804ec1b:	c7 04 24 fe 27 05 08 	movl   $0x80527fe,(%esp)
 804ec22:	e8 81 a3 ff ff       	call   8048fa8 <__assert_fail@plt>
 804ec27:	8b b5 c8 fe ff ff    	mov    -0x138(%ebp),%esi
 804ec2d:	e9 6d fa ff ff       	jmp    804e69f <exit@plt+0x5487>
 804ec32:	90                   	nop
 804ec33:	90                   	nop
 804ec34:	90                   	nop
 804ec35:	90                   	nop
 804ec36:	90                   	nop
 804ec37:	90                   	nop
 804ec38:	90                   	nop
 804ec39:	90                   	nop
 804ec3a:	90                   	nop
 804ec3b:	90                   	nop
 804ec3c:	90                   	nop
 804ec3d:	90                   	nop
 804ec3e:	90                   	nop
 804ec3f:	90                   	nop
 804ec40:	55                   	push   %ebp
 804ec41:	89 e5                	mov    %esp,%ebp
 804ec43:	57                   	push   %edi
 804ec44:	56                   	push   %esi
 804ec45:	53                   	push   %ebx
 804ec46:	83 ec 4c             	sub    $0x4c,%esp
 804ec49:	8b 45 08             	mov    0x8(%ebp),%eax
 804ec4c:	89 04 24             	mov    %eax,(%esp)
 804ec4f:	89 45 e4             	mov    %eax,-0x1c(%ebp)
 804ec52:	e8 21 a4 ff ff       	call   8049078 <strlen@plt>
 804ec57:	3d ff 0f 00 00       	cmp    $0xfff,%eax
 804ec5c:	89 c3                	mov    %eax,%ebx
 804ec5e:	77 03                	ja     804ec63 <exit@plt+0x5a4b>
 804ec60:	c1 e3 04             	shl    $0x4,%ebx
 804ec63:	8d 7b 01             	lea    0x1(%ebx),%edi
 804ec66:	89 45 e0             	mov    %eax,-0x20(%ebp)
 804ec69:	89 3c 24             	mov    %edi,(%esp)
 804ec6c:	e8 87 a4 ff ff       	call   80490f8 <malloc@plt>
 804ec71:	85 c0                	test   %eax,%eax
 804ec73:	89 c6                	mov    %eax,%esi
 804ec75:	0f 84 ac 01 00 00    	je     804ee27 <exit@plt+0x5c0f>
 804ec7b:	8b 45 0c             	mov    0xc(%ebp),%eax
 804ec7e:	c7 44 24 10 00 00 00 	movl   $0x0,0x10(%esp)
 804ec85:	00 
 804ec86:	c7 44 24 0c 00 00 00 	movl   $0x0,0xc(%esp)
 804ec8d:	00 
 804ec8e:	c7 44 24 08 00 00 00 	movl   $0x0,0x8(%esp)
 804ec95:	00 
 804ec96:	c7 44 24 04 00 00 00 	movl   $0x0,0x4(%esp)
 804ec9d:	00 
 804ec9e:	89 04 24             	mov    %eax,(%esp)
 804eca1:	e8 e2 a3 ff ff       	call   8049088 <iconv@plt>
 804eca6:	89 75 dc             	mov    %esi,-0x24(%ebp)
 804eca9:	89 5d d8             	mov    %ebx,-0x28(%ebp)
 804ecac:	eb 61                	jmp    804ed0f <exit@plt+0x5af7>
 804ecae:	66 90                	xchg   %ax,%ax
 804ecb0:	e8 a3 a1 ff ff       	call   8048e58 <__errno_location@plt>
 804ecb5:	8b 18                	mov    (%eax),%ebx
 804ecb7:	89 c2                	mov    %eax,%edx
 804ecb9:	83 fb 16             	cmp    $0x16,%ebx
 804ecbc:	0f 84 e0 00 00 00    	je     804eda2 <exit@plt+0x5b8a>
 804ecc2:	83 fb 07             	cmp    $0x7,%ebx
 804ecc5:	0f 85 40 01 00 00    	jne    804ee0b <exit@plt+0x5bf3>
 804eccb:	8b 45 dc             	mov    -0x24(%ebp),%eax
 804ecce:	8d 1c 3f             	lea    (%edi,%edi,1),%ebx
 804ecd1:	39 df                	cmp    %ebx,%edi
 804ecd3:	89 45 d4             	mov    %eax,-0x2c(%ebp)
 804ecd6:	0f 83 24 01 00 00    	jae    804ee00 <exit@plt+0x5be8>
 804ecdc:	89 55 d0             	mov    %edx,-0x30(%ebp)
 804ecdf:	89 5c 24 04          	mov    %ebx,0x4(%esp)
 804ece3:	89 34 24             	mov    %esi,(%esp)
 804ece6:	e8 dd a1 ff ff       	call   8048ec8 <realloc@plt>
 804eceb:	8b 55 d0             	mov    -0x30(%ebp),%edx
 804ecee:	85 c0                	test   %eax,%eax
 804ecf0:	0f 84 0a 01 00 00    	je     804ee00 <exit@plt+0x5be8>
 804ecf6:	8b 55 d4             	mov    -0x2c(%ebp),%edx
 804ecf9:	89 df                	mov    %ebx,%edi
 804ecfb:	29 f2                	sub    %esi,%edx
 804ecfd:	89 d6                	mov    %edx,%esi
 804ecff:	8d 14 10             	lea    (%eax,%edx,1),%edx
 804ed02:	89 55 dc             	mov    %edx,-0x24(%ebp)
 804ed05:	8d 53 ff             	lea    -0x1(%ebx),%edx
 804ed08:	29 f2                	sub    %esi,%edx
 804ed0a:	89 c6                	mov    %eax,%esi
 804ed0c:	89 55 d8             	mov    %edx,-0x28(%ebp)
 804ed0f:	8d 55 d8             	lea    -0x28(%ebp),%edx
 804ed12:	89 54 24 10          	mov    %edx,0x10(%esp)
 804ed16:	8d 55 e0             	lea    -0x20(%ebp),%edx
 804ed19:	89 54 24 08          	mov    %edx,0x8(%esp)
 804ed1d:	8b 55 0c             	mov    0xc(%ebp),%edx
 804ed20:	8d 45 dc             	lea    -0x24(%ebp),%eax
 804ed23:	89 44 24 0c          	mov    %eax,0xc(%esp)
 804ed27:	8d 45 e4             	lea    -0x1c(%ebp),%eax
 804ed2a:	89 44 24 04          	mov    %eax,0x4(%esp)
 804ed2e:	89 14 24             	mov    %edx,(%esp)
 804ed31:	e8 52 a3 ff ff       	call   8049088 <iconv@plt>
 804ed36:	83 f8 ff             	cmp    $0xffffffff,%eax
 804ed39:	0f 84 71 ff ff ff    	je     804ecb0 <exit@plt+0x5a98>
 804ed3f:	eb 61                	jmp    804eda2 <exit@plt+0x5b8a>
 804ed41:	8d b4 26 00 00 00 00 	lea    0x0(%esi,%eiz,1),%esi
 804ed48:	90                   	nop
 804ed49:	8d b4 26 00 00 00 00 	lea    0x0(%esi,%eiz,1),%esi
 804ed50:	e8 03 a1 ff ff       	call   8048e58 <__errno_location@plt>
 804ed55:	8b 18                	mov    (%eax),%ebx
 804ed57:	89 c2                	mov    %eax,%edx
 804ed59:	83 fb 07             	cmp    $0x7,%ebx
 804ed5c:	0f 85 a9 00 00 00    	jne    804ee0b <exit@plt+0x5bf3>
 804ed62:	8b 45 dc             	mov    -0x24(%ebp),%eax
 804ed65:	8d 1c 3f             	lea    (%edi,%edi,1),%ebx
 804ed68:	39 df                	cmp    %ebx,%edi
 804ed6a:	89 45 d4             	mov    %eax,-0x2c(%ebp)
 804ed6d:	0f 83 8d 00 00 00    	jae    804ee00 <exit@plt+0x5be8>
 804ed73:	89 55 d0             	mov    %edx,-0x30(%ebp)
 804ed76:	89 5c 24 04          	mov    %ebx,0x4(%esp)
 804ed7a:	89 34 24             	mov    %esi,(%esp)
 804ed7d:	e8 46 a1 ff ff       	call   8048ec8 <realloc@plt>
 804ed82:	8b 55 d0             	mov    -0x30(%ebp),%edx
 804ed85:	85 c0                	test   %eax,%eax
 804ed87:	74 77                	je     804ee00 <exit@plt+0x5be8>
 804ed89:	8b 55 d4             	mov    -0x2c(%ebp),%edx
 804ed8c:	89 df                	mov    %ebx,%edi
 804ed8e:	29 f2                	sub    %esi,%edx
 804ed90:	89 d6                	mov    %edx,%esi
 804ed92:	8d 14 10             	lea    (%eax,%edx,1),%edx
 804ed95:	89 55 dc             	mov    %edx,-0x24(%ebp)
 804ed98:	8d 53 ff             	lea    -0x1(%ebx),%edx
 804ed9b:	29 f2                	sub    %esi,%edx
 804ed9d:	89 c6                	mov    %eax,%esi
 804ed9f:	89 55 d8             	mov    %edx,-0x28(%ebp)
 804eda2:	8d 45 d8             	lea    -0x28(%ebp),%eax
 804eda5:	89 44 24 10          	mov    %eax,0x10(%esp)
 804eda9:	8b 45 0c             	mov    0xc(%ebp),%eax
 804edac:	8d 55 dc             	lea    -0x24(%ebp),%edx
 804edaf:	89 54 24 0c          	mov    %edx,0xc(%esp)
 804edb3:	c7 44 24 08 00 00 00 	movl   $0x0,0x8(%esp)
 804edba:	00 
 804edbb:	c7 44 24 04 00 00 00 	movl   $0x0,0x4(%esp)
 804edc2:	00 
 804edc3:	89 04 24             	mov    %eax,(%esp)
 804edc6:	e8 bd a2 ff ff       	call   8049088 <iconv@plt>
 804edcb:	83 f8 ff             	cmp    $0xffffffff,%eax
 804edce:	0f 84 74 ff ff ff    	je     804ed48 <exit@plt+0x5b30>
 804edd4:	8b 45 dc             	mov    -0x24(%ebp),%eax
 804edd7:	c6 00 00             	movb   $0x0,(%eax)
 804edda:	83 c0 01             	add    $0x1,%eax
 804eddd:	89 c2                	mov    %eax,%edx
 804eddf:	29 f2                	sub    %esi,%edx
 804ede1:	39 fa                	cmp    %edi,%edx
 804ede3:	73 38                	jae    804ee1d <exit@plt+0x5c05>
 804ede5:	89 45 dc             	mov    %eax,-0x24(%ebp)
 804ede8:	89 54 24 04          	mov    %edx,0x4(%esp)
 804edec:	89 34 24             	mov    %esi,(%esp)
 804edef:	e8 d4 a0 ff ff       	call   8048ec8 <realloc@plt>
 804edf4:	85 c0                	test   %eax,%eax
 804edf6:	74 25                	je     804ee1d <exit@plt+0x5c05>
 804edf8:	89 c6                	mov    %eax,%esi
 804edfa:	eb 21                	jmp    804ee1d <exit@plt+0x5c05>
 804edfc:	8d 74 26 00          	lea    0x0(%esi,%eiz,1),%esi
 804ee00:	c7 02 0c 00 00 00    	movl   $0xc,(%edx)
 804ee06:	bb 0c 00 00 00       	mov    $0xc,%ebx
 804ee0b:	89 34 24             	mov    %esi,(%esp)
 804ee0e:	31 f6                	xor    %esi,%esi
 804ee10:	89 55 d0             	mov    %edx,-0x30(%ebp)
 804ee13:	e8 e0 a1 ff ff       	call   8048ff8 <free@plt>
 804ee18:	8b 55 d0             	mov    -0x30(%ebp),%edx
 804ee1b:	89 1a                	mov    %ebx,(%edx)
 804ee1d:	83 c4 4c             	add    $0x4c,%esp
 804ee20:	89 f0                	mov    %esi,%eax
 804ee22:	5b                   	pop    %ebx
 804ee23:	5e                   	pop    %esi
 804ee24:	5f                   	pop    %edi
 804ee25:	5d                   	pop    %ebp
 804ee26:	c3                   	ret    
 804ee27:	e8 2c a0 ff ff       	call   8048e58 <__errno_location@plt>
 804ee2c:	c7 00 0c 00 00 00    	movl   $0xc,(%eax)
 804ee32:	eb e9                	jmp    804ee1d <exit@plt+0x5c05>
 804ee34:	8d b6 00 00 00 00    	lea    0x0(%esi),%esi
 804ee3a:	8d bf 00 00 00 00    	lea    0x0(%edi),%edi
 804ee40:	55                   	push   %ebp
 804ee41:	89 e5                	mov    %esp,%ebp
 804ee43:	83 ec 28             	sub    $0x28,%esp
 804ee46:	89 5d f4             	mov    %ebx,-0xc(%ebp)
 804ee49:	8b 5d 08             	mov    0x8(%ebp),%ebx
 804ee4c:	89 75 f8             	mov    %esi,-0x8(%ebp)
 804ee4f:	8b 75 10             	mov    0x10(%ebp),%esi
 804ee52:	89 7d fc             	mov    %edi,-0x4(%ebp)
 804ee55:	8b 7d 0c             	mov    0xc(%ebp),%edi
 804ee58:	80 3b 00             	cmpb   $0x0,(%ebx)
 804ee5b:	74 10                	je     804ee6d <exit@plt+0x5c55>
 804ee5d:	89 74 24 04          	mov    %esi,0x4(%esp)
 804ee61:	89 3c 24             	mov    %edi,(%esp)
 804ee64:	e8 c7 e2 ff ff       	call   804d130 <exit@plt+0x3f18>
 804ee69:	85 c0                	test   %eax,%eax
 804ee6b:	75 33                	jne    804eea0 <exit@plt+0x5c88>
 804ee6d:	89 1c 24             	mov    %ebx,(%esp)
 804ee70:	e8 93 a3 ff ff       	call   8049208 <__strdup@plt>
 804ee75:	85 c0                	test   %eax,%eax
 804ee77:	89 c6                	mov    %eax,%esi
 804ee79:	74 15                	je     804ee90 <exit@plt+0x5c78>
 804ee7b:	89 f0                	mov    %esi,%eax
 804ee7d:	8b 5d f4             	mov    -0xc(%ebp),%ebx
 804ee80:	8b 75 f8             	mov    -0x8(%ebp),%esi
 804ee83:	8b 7d fc             	mov    -0x4(%ebp),%edi
 804ee86:	89 ec                	mov    %ebp,%esp
 804ee88:	5d                   	pop    %ebp
 804ee89:	c3                   	ret    
 804ee8a:	8d b6 00 00 00 00    	lea    0x0(%esi),%esi
 804ee90:	e8 c3 9f ff ff       	call   8048e58 <__errno_location@plt>
 804ee95:	c7 00 0c 00 00 00    	movl   $0xc,(%eax)
 804ee9b:	eb de                	jmp    804ee7b <exit@plt+0x5c63>
 804ee9d:	8d 76 00             	lea    0x0(%esi),%esi
 804eea0:	89 7c 24 04          	mov    %edi,0x4(%esp)
 804eea4:	89 34 24             	mov    %esi,(%esp)
 804eea7:	31 f6                	xor    %esi,%esi
 804eea9:	e8 2a a0 ff ff       	call   8048ed8 <iconv_open@plt>
 804eeae:	83 f8 ff             	cmp    $0xffffffff,%eax
 804eeb1:	89 c7                	mov    %eax,%edi
 804eeb3:	74 c6                	je     804ee7b <exit@plt+0x5c63>
 804eeb5:	89 44 24 04          	mov    %eax,0x4(%esp)
 804eeb9:	89 1c 24             	mov    %ebx,(%esp)
 804eebc:	e8 7f fd ff ff       	call   804ec40 <exit@plt+0x5a28>
 804eec1:	85 c0                	test   %eax,%eax
 804eec3:	89 c6                	mov    %eax,%esi
 804eec5:	74 23                	je     804eeea <exit@plt+0x5cd2>
 804eec7:	89 3c 24             	mov    %edi,(%esp)
 804eeca:	e8 59 a2 ff ff       	call   8049128 <iconv_close@plt>
 804eecf:	85 c0                	test   %eax,%eax
 804eed1:	79 a8                	jns    804ee7b <exit@plt+0x5c63>
 804eed3:	e8 80 9f ff ff       	call   8048e58 <__errno_location@plt>
 804eed8:	8b 38                	mov    (%eax),%edi
 804eeda:	89 c3                	mov    %eax,%ebx
 804eedc:	89 34 24             	mov    %esi,(%esp)
 804eedf:	31 f6                	xor    %esi,%esi
 804eee1:	e8 12 a1 ff ff       	call   8048ff8 <free@plt>
 804eee6:	89 3b                	mov    %edi,(%ebx)
 804eee8:	eb 91                	jmp    804ee7b <exit@plt+0x5c63>
 804eeea:	e8 69 9f ff ff       	call   8048e58 <__errno_location@plt>
 804eeef:	8b 30                	mov    (%eax),%esi
 804eef1:	89 c3                	mov    %eax,%ebx
 804eef3:	89 3c 24             	mov    %edi,(%esp)
 804eef6:	e8 2d a2 ff ff       	call   8049128 <iconv_close@plt>
 804eefb:	89 33                	mov    %esi,(%ebx)
 804eefd:	31 f6                	xor    %esi,%esi
 804eeff:	e9 77 ff ff ff       	jmp    804ee7b <exit@plt+0x5c63>
 804ef04:	8d b6 00 00 00 00    	lea    0x0(%esi),%esi
 804ef0a:	8d bf 00 00 00 00    	lea    0x0(%edi),%edi
 804ef10:	55                   	push   %ebp
 804ef11:	89 e5                	mov    %esp,%ebp
 804ef13:	57                   	push   %edi
 804ef14:	56                   	push   %esi
 804ef15:	53                   	push   %ebx
 804ef16:	81 ec 6c 10 00 00    	sub    $0x106c,%esp
 804ef1c:	8b 45 08             	mov    0x8(%ebp),%eax
 804ef1f:	8b 55 14             	mov    0x14(%ebp),%edx
 804ef22:	8b 7d 10             	mov    0x10(%ebp),%edi
 804ef25:	c7 44 24 10 00 00 00 	movl   $0x0,0x10(%esp)
 804ef2c:	00 
 804ef2d:	89 85 b4 ef ff ff    	mov    %eax,-0x104c(%ebp)
 804ef33:	8b 45 18             	mov    0x18(%ebp),%eax
 804ef36:	89 95 ac ef ff ff    	mov    %edx,-0x1054(%ebp)
 804ef3c:	c7 44 24 0c 00 00 00 	movl   $0x0,0xc(%esp)
 804ef43:	00 
 804ef44:	65 8b 15 14 00 00 00 	mov    %gs:0x14,%edx
 804ef4b:	89 55 e4             	mov    %edx,-0x1c(%ebp)
 804ef4e:	31 d2                	xor    %edx,%edx
 804ef50:	89 85 b0 ef ff ff    	mov    %eax,-0x1050(%ebp)
 804ef56:	c7 44 24 08 00 00 00 	movl   $0x0,0x8(%esp)
 804ef5d:	00 
 804ef5e:	c7 44 24 04 00 00 00 	movl   $0x0,0x4(%esp)
 804ef65:	00 
 804ef66:	89 3c 24             	mov    %edi,(%esp)
 804ef69:	e8 1a a1 ff ff       	call   8049088 <iconv@plt>
 804ef6e:	8b 55 0c             	mov    0xc(%ebp),%edx
 804ef71:	8b 85 b4 ef ff ff    	mov    -0x104c(%ebp),%eax
 804ef77:	85 d2                	test   %edx,%edx
 804ef79:	89 85 d8 ef ff ff    	mov    %eax,-0x1028(%ebp)
 804ef7f:	89 95 d4 ef ff ff    	mov    %edx,-0x102c(%ebp)
 804ef85:	0f 84 b6 00 00 00    	je     804f041 <exit@plt+0x5e29>
 804ef8b:	8d 85 dc ef ff ff    	lea    -0x1024(%ebp),%eax
 804ef91:	31 f6                	xor    %esi,%esi
 804ef93:	8d 95 e0 ef ff ff    	lea    -0x1020(%ebp),%edx
 804ef99:	89 85 c4 ef ff ff    	mov    %eax,-0x103c(%ebp)
 804ef9f:	8d 85 d4 ef ff ff    	lea    -0x102c(%ebp),%eax
 804efa5:	89 95 b8 ef ff ff    	mov    %edx,-0x1048(%ebp)
 804efab:	8d 95 d8 ef ff ff    	lea    -0x1028(%ebp),%edx
 804efb1:	8d 9d e4 ef ff ff    	lea    -0x101c(%ebp),%ebx
 804efb7:	89 85 c0 ef ff ff    	mov    %eax,-0x1040(%ebp)
 804efbd:	89 95 bc ef ff ff    	mov    %edx,-0x1044(%ebp)
 804efc3:	eb 1b                	jmp    804efe0 <exit@plt+0x5dc8>
 804efc5:	8d 76 00             	lea    0x0(%esi),%esi
 804efc8:	8b 85 e0 ef ff ff    	mov    -0x1020(%ebp),%eax
 804efce:	8b 95 d4 ef ff ff    	mov    -0x102c(%ebp),%edx
 804efd4:	29 d8                	sub    %ebx,%eax
 804efd6:	01 c6                	add    %eax,%esi
 804efd8:	85 d2                	test   %edx,%edx
 804efda:	0f 84 88 00 00 00    	je     804f068 <exit@plt+0x5e50>
 804efe0:	8b 85 c4 ef ff ff    	mov    -0x103c(%ebp),%eax
 804efe6:	8b 95 b8 ef ff ff    	mov    -0x1048(%ebp),%edx
 804efec:	89 9d e0 ef ff ff    	mov    %ebx,-0x1020(%ebp)
 804eff2:	c7 85 dc ef ff ff 00 	movl   $0x1000,-0x1024(%ebp)
 804eff9:	10 00 00 
 804effc:	89 44 24 10          	mov    %eax,0x10(%esp)
 804f000:	8b 85 c0 ef ff ff    	mov    -0x1040(%ebp),%eax
 804f006:	89 54 24 0c          	mov    %edx,0xc(%esp)
 804f00a:	8b 95 bc ef ff ff    	mov    -0x1044(%ebp),%edx
 804f010:	89 3c 24             	mov    %edi,(%esp)
 804f013:	89 44 24 08          	mov    %eax,0x8(%esp)
 804f017:	89 54 24 04          	mov    %edx,0x4(%esp)
 804f01b:	e8 68 a0 ff ff       	call   8049088 <iconv@plt>
 804f020:	83 f8 ff             	cmp    $0xffffffff,%eax
 804f023:	75 a3                	jne    804efc8 <exit@plt+0x5db0>
 804f025:	e8 2e 9e ff ff       	call   8048e58 <__errno_location@plt>
 804f02a:	8b 00                	mov    (%eax),%eax
 804f02c:	83 f8 07             	cmp    $0x7,%eax
 804f02f:	90                   	nop
 804f030:	74 96                	je     804efc8 <exit@plt+0x5db0>
 804f032:	83 f8 16             	cmp    $0x16,%eax
 804f035:	74 31                	je     804f068 <exit@plt+0x5e50>
 804f037:	b8 ff ff ff ff       	mov    $0xffffffff,%eax
 804f03c:	e9 c5 01 00 00       	jmp    804f206 <exit@plt+0x5fee>
 804f041:	8d 85 dc ef ff ff    	lea    -0x1024(%ebp),%eax
 804f047:	31 f6                	xor    %esi,%esi
 804f049:	8d 95 e0 ef ff ff    	lea    -0x1020(%ebp),%edx
 804f04f:	8d 9d e4 ef ff ff    	lea    -0x101c(%ebp),%ebx
 804f055:	89 85 c4 ef ff ff    	mov    %eax,-0x103c(%ebp)
 804f05b:	89 95 b8 ef ff ff    	mov    %edx,-0x1048(%ebp)
 804f061:	8d b4 26 00 00 00 00 	lea    0x0(%esi,%eiz,1),%esi
 804f068:	8b 85 c4 ef ff ff    	mov    -0x103c(%ebp),%eax
 804f06e:	8b 95 b8 ef ff ff    	mov    -0x1048(%ebp),%edx
 804f074:	89 9d e0 ef ff ff    	mov    %ebx,-0x1020(%ebp)
 804f07a:	c7 85 dc ef ff ff 00 	movl   $0x1000,-0x1024(%ebp)
 804f081:	10 00 00 
 804f084:	89 44 24 10          	mov    %eax,0x10(%esp)
 804f088:	89 54 24 0c          	mov    %edx,0xc(%esp)
 804f08c:	c7 44 24 08 00 00 00 	movl   $0x0,0x8(%esp)
 804f093:	00 
 804f094:	c7 44 24 04 00 00 00 	movl   $0x0,0x4(%esp)
 804f09b:	00 
 804f09c:	89 3c 24             	mov    %edi,(%esp)
 804f09f:	e8 e4 9f ff ff       	call   8049088 <iconv@plt>
 804f0a4:	83 f8 ff             	cmp    $0xffffffff,%eax
 804f0a7:	74 8e                	je     804f037 <exit@plt+0x5e1f>
 804f0a9:	8b 85 e0 ef ff ff    	mov    -0x1020(%ebp),%eax
 804f0af:	29 d8                	sub    %ebx,%eax
 804f0b1:	01 c6                	add    %eax,%esi
 804f0b3:	0f 84 3f 01 00 00    	je     804f1f8 <exit@plt+0x5fe0>
 804f0b9:	8b 95 ac ef ff ff    	mov    -0x1054(%ebp),%edx
 804f0bf:	8b 1a                	mov    (%edx),%ebx
 804f0c1:	85 db                	test   %ebx,%ebx
 804f0c3:	0f 84 57 01 00 00    	je     804f220 <exit@plt+0x6008>
 804f0c9:	8b 85 b0 ef ff ff    	mov    -0x1050(%ebp),%eax
 804f0cf:	3b 30                	cmp    (%eax),%esi
 804f0d1:	0f 87 49 01 00 00    	ja     804f220 <exit@plt+0x6008>
 804f0d7:	c7 44 24 10 00 00 00 	movl   $0x0,0x10(%esp)
 804f0de:	00 
 804f0df:	c7 44 24 0c 00 00 00 	movl   $0x0,0xc(%esp)
 804f0e6:	00 
 804f0e7:	c7 44 24 08 00 00 00 	movl   $0x0,0x8(%esp)
 804f0ee:	00 
 804f0ef:	c7 44 24 04 00 00 00 	movl   $0x0,0x4(%esp)
 804f0f6:	00 
 804f0f7:	89 3c 24             	mov    %edi,(%esp)
 804f0fa:	e8 89 9f ff ff       	call   8049088 <iconv@plt>
 804f0ff:	8b 95 b4 ef ff ff    	mov    -0x104c(%ebp),%edx
 804f105:	8b 45 0c             	mov    0xc(%ebp),%eax
 804f108:	89 9d d8 ef ff ff    	mov    %ebx,-0x1028(%ebp)
 804f10e:	89 9d b4 ef ff ff    	mov    %ebx,-0x104c(%ebp)
 804f114:	8b 9d b8 ef ff ff    	mov    -0x1048(%ebp),%ebx
 804f11a:	89 95 e0 ef ff ff    	mov    %edx,-0x1020(%ebp)
 804f120:	8d 95 d4 ef ff ff    	lea    -0x102c(%ebp),%edx
 804f126:	89 85 dc ef ff ff    	mov    %eax,-0x1024(%ebp)
 804f12c:	8d 85 d8 ef ff ff    	lea    -0x1028(%ebp),%eax
 804f132:	89 85 bc ef ff ff    	mov    %eax,-0x1044(%ebp)
 804f138:	8b 45 0c             	mov    0xc(%ebp),%eax
 804f13b:	89 b5 d4 ef ff ff    	mov    %esi,-0x102c(%ebp)
 804f141:	89 95 c0 ef ff ff    	mov    %edx,-0x1040(%ebp)
 804f147:	eb 0d                	jmp    804f156 <exit@plt+0x5f3e>
 804f149:	8d b4 26 00 00 00 00 	lea    0x0(%esi,%eiz,1),%esi
 804f150:	8b 85 dc ef ff ff    	mov    -0x1024(%ebp),%eax
 804f156:	85 c0                	test   %eax,%eax
 804f158:	0f 84 ea 00 00 00    	je     804f248 <exit@plt+0x6030>
 804f15e:	8b 95 c0 ef ff ff    	mov    -0x1040(%ebp),%edx
 804f164:	8b 85 bc ef ff ff    	mov    -0x1044(%ebp),%eax
 804f16a:	89 5c 24 04          	mov    %ebx,0x4(%esp)
 804f16e:	89 3c 24             	mov    %edi,(%esp)
 804f171:	89 54 24 10          	mov    %edx,0x10(%esp)
 804f175:	8b 95 c4 ef ff ff    	mov    -0x103c(%ebp),%edx
 804f17b:	89 44 24 0c          	mov    %eax,0xc(%esp)
 804f17f:	89 54 24 08          	mov    %edx,0x8(%esp)
 804f183:	e8 00 9f ff ff       	call   8049088 <iconv@plt>
 804f188:	83 f8 ff             	cmp    $0xffffffff,%eax
 804f18b:	75 c3                	jne    804f150 <exit@plt+0x5f38>
 804f18d:	e8 c6 9c ff ff       	call   8048e58 <__errno_location@plt>
 804f192:	8b 9d b4 ef ff ff    	mov    -0x104c(%ebp),%ebx
 804f198:	83 38 16             	cmpl   $0x16,(%eax)
 804f19b:	0f 85 b2 00 00 00    	jne    804f253 <exit@plt+0x603b>
 804f1a1:	8b 85 c0 ef ff ff    	mov    -0x1040(%ebp),%eax
 804f1a7:	8b 95 bc ef ff ff    	mov    -0x1044(%ebp),%edx
 804f1ad:	c7 44 24 08 00 00 00 	movl   $0x0,0x8(%esp)
 804f1b4:	00 
 804f1b5:	c7 44 24 04 00 00 00 	movl   $0x0,0x4(%esp)
 804f1bc:	00 
 804f1bd:	89 44 24 10          	mov    %eax,0x10(%esp)
 804f1c1:	89 54 24 0c          	mov    %edx,0xc(%esp)
 804f1c5:	89 3c 24             	mov    %edi,(%esp)
 804f1c8:	e8 bb 9e ff ff       	call   8049088 <iconv@plt>
 804f1cd:	83 f8 ff             	cmp    $0xffffffff,%eax
 804f1d0:	0f 84 7d 00 00 00    	je     804f253 <exit@plt+0x603b>
 804f1d6:	8b 85 d4 ef ff ff    	mov    -0x102c(%ebp),%eax
 804f1dc:	85 c0                	test   %eax,%eax
 804f1de:	0f 85 95 00 00 00    	jne    804f279 <exit@plt+0x6061>
 804f1e4:	8b 85 ac ef ff ff    	mov    -0x1054(%ebp),%eax
 804f1ea:	8b 95 b0 ef ff ff    	mov    -0x1050(%ebp),%edx
 804f1f0:	89 18                	mov    %ebx,(%eax)
 804f1f2:	31 c0                	xor    %eax,%eax
 804f1f4:	89 32                	mov    %esi,(%edx)
 804f1f6:	eb 0e                	jmp    804f206 <exit@plt+0x5fee>
 804f1f8:	8b 85 b0 ef ff ff    	mov    -0x1050(%ebp),%eax
 804f1fe:	c7 00 00 00 00 00    	movl   $0x0,(%eax)
 804f204:	31 c0                	xor    %eax,%eax
 804f206:	8b 55 e4             	mov    -0x1c(%ebp),%edx
 804f209:	65 33 15 14 00 00 00 	xor    %gs:0x14,%edx
 804f210:	75 6c                	jne    804f27e <exit@plt+0x6066>
 804f212:	81 c4 6c 10 00 00    	add    $0x106c,%esp
 804f218:	5b                   	pop    %ebx
 804f219:	5e                   	pop    %esi
 804f21a:	5f                   	pop    %edi
 804f21b:	5d                   	pop    %ebp
 804f21c:	c3                   	ret    
 804f21d:	8d 76 00             	lea    0x0(%esi),%esi
 804f220:	89 34 24             	mov    %esi,(%esp)
 804f223:	e8 d0 9e ff ff       	call   80490f8 <malloc@plt>
 804f228:	85 c0                	test   %eax,%eax
 804f22a:	89 c3                	mov    %eax,%ebx
 804f22c:	0f 85 a5 fe ff ff    	jne    804f0d7 <exit@plt+0x5ebf>
 804f232:	e8 21 9c ff ff       	call   8048e58 <__errno_location@plt>
 804f237:	c7 00 0c 00 00 00    	movl   $0xc,(%eax)
 804f23d:	83 c8 ff             	or     $0xffffffff,%eax
 804f240:	eb c4                	jmp    804f206 <exit@plt+0x5fee>
 804f242:	8d b6 00 00 00 00    	lea    0x0(%esi),%esi
 804f248:	8b 9d b4 ef ff ff    	mov    -0x104c(%ebp),%ebx
 804f24e:	e9 4e ff ff ff       	jmp    804f1a1 <exit@plt+0x5f89>
 804f253:	8b 85 ac ef ff ff    	mov    -0x1054(%ebp),%eax
 804f259:	39 18                	cmp    %ebx,(%eax)
 804f25b:	0f 84 d6 fd ff ff    	je     804f037 <exit@plt+0x5e1f>
 804f261:	e8 f2 9b ff ff       	call   8048e58 <__errno_location@plt>
 804f266:	8b 38                	mov    (%eax),%edi
 804f268:	89 c6                	mov    %eax,%esi
 804f26a:	89 1c 24             	mov    %ebx,(%esp)
 804f26d:	e8 86 9d ff ff       	call   8048ff8 <free@plt>
 804f272:	83 c8 ff             	or     $0xffffffff,%eax
 804f275:	89 3e                	mov    %edi,(%esi)
 804f277:	eb 8d                	jmp    804f206 <exit@plt+0x5fee>
 804f279:	e8 ca 9b ff ff       	call   8048e48 <abort@plt>
 804f27e:	e8 95 9e ff ff       	call   8049118 <__stack_chk_fail@plt>
 804f283:	90                   	nop
 804f284:	90                   	nop
 804f285:	90                   	nop
 804f286:	90                   	nop
 804f287:	90                   	nop
 804f288:	90                   	nop
 804f289:	90                   	nop
 804f28a:	90                   	nop
 804f28b:	90                   	nop
 804f28c:	90                   	nop
 804f28d:	90                   	nop
 804f28e:	90                   	nop
 804f28f:	90                   	nop
 804f290:	55                   	push   %ebp
 804f291:	89 e5                	mov    %esp,%ebp
 804f293:	83 ec 18             	sub    $0x18,%esp
 804f296:	8b 45 0c             	mov    0xc(%ebp),%eax
 804f299:	89 44 24 04          	mov    %eax,0x4(%esp)
 804f29d:	8b 45 08             	mov    0x8(%ebp),%eax
 804f2a0:	89 04 24             	mov    %eax,(%esp)
 804f2a3:	e8 d0 9e ff ff       	call   8049178 <__strndup@plt>
 804f2a8:	85 c0                	test   %eax,%eax
 804f2aa:	74 02                	je     804f2ae <exit@plt+0x6096>
 804f2ac:	c9                   	leave  
 804f2ad:	c3                   	ret    
 804f2ae:	66 90                	xchg   %ax,%ax
 804f2b0:	e8 5b c6 ff ff       	call   804b910 <exit@plt+0x26f8>
 804f2b5:	90                   	nop
 804f2b6:	90                   	nop
 804f2b7:	90                   	nop
 804f2b8:	90                   	nop
 804f2b9:	90                   	nop
 804f2ba:	90                   	nop
 804f2bb:	90                   	nop
 804f2bc:	90                   	nop
 804f2bd:	90                   	nop
 804f2be:	90                   	nop
 804f2bf:	90                   	nop
 804f2c0:	55                   	push   %ebp
 804f2c1:	89 e5                	mov    %esp,%ebp
 804f2c3:	83 ec 28             	sub    $0x28,%esp
 804f2c6:	89 75 f8             	mov    %esi,-0x8(%ebp)
 804f2c9:	8b 75 08             	mov    0x8(%ebp),%esi
 804f2cc:	89 5d f4             	mov    %ebx,-0xc(%ebp)
 804f2cf:	89 7d fc             	mov    %edi,-0x4(%ebp)
 804f2d2:	89 34 24             	mov    %esi,(%esp)
 804f2d5:	e8 5e 9e ff ff       	call   8049138 <__fpending@plt>
 804f2da:	8b 1e                	mov    (%esi),%ebx
 804f2dc:	89 34 24             	mov    %esi,(%esp)
 804f2df:	83 e3 20             	and    $0x20,%ebx
 804f2e2:	89 c7                	mov    %eax,%edi
 804f2e4:	e8 5f 9d ff ff       	call   8049048 <fclose@plt>
 804f2e9:	85 c0                	test   %eax,%eax
 804f2eb:	0f 95 c0             	setne  %al
 804f2ee:	85 db                	test   %ebx,%ebx
 804f2f0:	75 36                	jne    804f328 <exit@plt+0x6110>
 804f2f2:	84 c0                	test   %al,%al
 804f2f4:	74 14                	je     804f30a <exit@plt+0x60f2>
 804f2f6:	85 ff                	test   %edi,%edi
 804f2f8:	75 26                	jne    804f320 <exit@plt+0x6108>
 804f2fa:	8d b6 00 00 00 00    	lea    0x0(%esi),%esi
 804f300:	e8 53 9b ff ff       	call   8048e58 <__errno_location@plt>
 804f305:	83 38 09             	cmpl   $0x9,(%eax)
 804f308:	75 16                	jne    804f320 <exit@plt+0x6108>
 804f30a:	31 c0                	xor    %eax,%eax
 804f30c:	8b 5d f4             	mov    -0xc(%ebp),%ebx
 804f30f:	8b 75 f8             	mov    -0x8(%ebp),%esi
 804f312:	8b 7d fc             	mov    -0x4(%ebp),%edi
 804f315:	89 ec                	mov    %ebp,%esp
 804f317:	5d                   	pop    %ebp
 804f318:	c3                   	ret    
 804f319:	8d b4 26 00 00 00 00 	lea    0x0(%esi,%eiz,1),%esi
 804f320:	b8 ff ff ff ff       	mov    $0xffffffff,%eax
 804f325:	eb e5                	jmp    804f30c <exit@plt+0x60f4>
 804f327:	90                   	nop
 804f328:	84 c0                	test   %al,%al
 804f32a:	75 f4                	jne    804f320 <exit@plt+0x6108>
 804f32c:	8d 74 26 00          	lea    0x0(%esi,%eiz,1),%esi
 804f330:	e8 23 9b ff ff       	call   8048e58 <__errno_location@plt>
 804f335:	c7 00 00 00 00 00    	movl   $0x0,(%eax)
 804f33b:	b8 ff ff ff ff       	mov    $0xffffffff,%eax
 804f340:	eb ca                	jmp    804f30c <exit@plt+0x60f4>
 804f342:	90                   	nop
 804f343:	90                   	nop
 804f344:	90                   	nop
 804f345:	90                   	nop
 804f346:	90                   	nop
 804f347:	90                   	nop
 804f348:	90                   	nop
 804f349:	90                   	nop
 804f34a:	90                   	nop
 804f34b:	90                   	nop
 804f34c:	90                   	nop
 804f34d:	90                   	nop
 804f34e:	90                   	nop
 804f34f:	90                   	nop
 804f350:	55                   	push   %ebp
 804f351:	89 e5                	mov    %esp,%ebp
 804f353:	57                   	push   %edi
 804f354:	31 ff                	xor    %edi,%edi
 804f356:	56                   	push   %esi
 804f357:	53                   	push   %ebx
 804f358:	81 ec bc 03 00 00    	sub    $0x3bc,%esp
 804f35e:	8b 45 08             	mov    0x8(%ebp),%eax
 804f361:	8b 4d 10             	mov    0x10(%ebp),%ecx
 804f364:	8d 9d 18 fd ff ff    	lea    -0x2e8(%ebp),%ebx
 804f36a:	8b 55 0c             	mov    0xc(%ebp),%edx
 804f36d:	8b 75 14             	mov    0x14(%ebp),%esi
 804f370:	89 85 cc fc ff ff    	mov    %eax,-0x334(%ebp)
 804f376:	65 a1 14 00 00 00    	mov    %gs:0x14,%eax
 804f37c:	89 45 e4             	mov    %eax,-0x1c(%ebp)
 804f37f:	31 c0                	xor    %eax,%eax
 804f381:	8d 85 00 fd ff ff    	lea    -0x300(%ebp),%eax
 804f387:	89 95 bc fc ff ff    	mov    %edx,-0x344(%ebp)
 804f38d:	89 8d f4 fc ff ff    	mov    %ecx,-0x30c(%ebp)
 804f393:	89 5c 24 08          	mov    %ebx,0x8(%esp)
 804f397:	89 44 24 04          	mov    %eax,0x4(%esp)
 804f39b:	89 0c 24             	mov    %ecx,(%esp)
 804f39e:	e8 fd 21 00 00       	call   80515a0 <exit@plt+0x8388>
 804f3a3:	85 c0                	test   %eax,%eax
 804f3a5:	78 56                	js     804f3fd <exit@plt+0x61e5>
 804f3a7:	89 5c 24 04          	mov    %ebx,0x4(%esp)
 804f3ab:	89 34 24             	mov    %esi,(%esp)
 804f3ae:	e8 cd 20 00 00       	call   8051480 <exit@plt+0x8268>
 804f3b3:	85 c0                	test   %eax,%eax
 804f3b5:	0f 88 32 16 00 00    	js     80509ed <exit@plt+0x77d5>
 804f3bb:	8b 85 08 fd ff ff    	mov    -0x2f8(%ebp),%eax
 804f3c1:	83 c0 07             	add    $0x7,%eax
 804f3c4:	19 d2                	sbb    %edx,%edx
 804f3c6:	09 d0                	or     %edx,%eax
 804f3c8:	03 85 0c fd ff ff    	add    -0x2f4(%ebp),%eax
 804f3ce:	73 48                	jae    804f418 <exit@plt+0x6200>
 804f3d0:	8b 85 04 fd ff ff    	mov    -0x2fc(%ebp),%eax
 804f3d6:	89 04 24             	mov    %eax,(%esp)
 804f3d9:	e8 1a 9c ff ff       	call   8048ff8 <free@plt>
 804f3de:	8b 85 1c fd ff ff    	mov    -0x2e4(%ebp),%eax
 804f3e4:	85 c0                	test   %eax,%eax
 804f3e6:	74 08                	je     804f3f0 <exit@plt+0x61d8>
 804f3e8:	89 04 24             	mov    %eax,(%esp)
 804f3eb:	e8 08 9c ff ff       	call   8048ff8 <free@plt>
 804f3f0:	e8 63 9a ff ff       	call   8048e58 <__errno_location@plt>
 804f3f5:	31 ff                	xor    %edi,%edi
 804f3f7:	c7 00 0c 00 00 00    	movl   $0xc,(%eax)
 804f3fd:	8b 4d e4             	mov    -0x1c(%ebp),%ecx
 804f400:	65 33 0d 14 00 00 00 	xor    %gs:0x14,%ecx
 804f407:	89 f8                	mov    %edi,%eax
 804f409:	0f 85 ff 1c 00 00    	jne    805110e <exit@plt+0x7ef6>
 804f40f:	8d 65 f4             	lea    -0xc(%ebp),%esp
 804f412:	5b                   	pop    %ebx
 804f413:	5e                   	pop    %esi
 804f414:	5f                   	pop    %edi
 804f415:	5d                   	pop    %ebp
 804f416:	c3                   	ret    
 804f417:	90                   	nop
 804f418:	89 c2                	mov    %eax,%edx
 804f41a:	83 c2 06             	add    $0x6,%edx
 804f41d:	72 b1                	jb     804f3d0 <exit@plt+0x61b8>
 804f41f:	81 fa 9f 0f 00 00    	cmp    $0xf9f,%edx
 804f425:	0f 87 c5 01 00 00    	ja     804f5f0 <exit@plt+0x63d8>
 804f42b:	83 c0 24             	add    $0x24,%eax
 804f42e:	83 e0 f0             	and    $0xfffffff0,%eax
 804f431:	29 c4                	sub    %eax,%esp
 804f433:	8d 54 24 3b          	lea    0x3b(%esp),%edx
 804f437:	83 e2 f0             	and    $0xfffffff0,%edx
 804f43a:	89 95 d4 fc ff ff    	mov    %edx,-0x32c(%ebp)
 804f440:	c7 85 a4 fc ff ff 00 	movl   $0x0,-0x35c(%ebp)
 804f447:	00 00 00 
 804f44a:	8b 95 cc fc ff ff    	mov    -0x334(%ebp),%edx
 804f450:	31 db                	xor    %ebx,%ebx
 804f452:	31 ff                	xor    %edi,%edi
 804f454:	85 d2                	test   %edx,%edx
 804f456:	74 0e                	je     804f466 <exit@plt+0x624e>
 804f458:	8b 8d bc fc ff ff    	mov    -0x344(%ebp),%ecx
 804f45e:	8b bd cc fc ff ff    	mov    -0x334(%ebp),%edi
 804f464:	8b 19                	mov    (%ecx),%ebx
 804f466:	8b 85 d4 fc ff ff    	mov    -0x32c(%ebp),%eax
 804f46c:	31 d2                	xor    %edx,%edx
 804f46e:	8b 8d d4 fc ff ff    	mov    -0x32c(%ebp),%ecx
 804f474:	8b b5 04 fd ff ff    	mov    -0x2fc(%ebp),%esi
 804f47a:	c7 85 c4 fc ff ff 00 	movl   $0x0,-0x33c(%ebp)
 804f481:	00 00 00 
 804f484:	83 c0 01             	add    $0x1,%eax
 804f487:	89 85 b8 fc ff ff    	mov    %eax,-0x348(%ebp)
 804f48d:	8d 85 28 fd ff ff    	lea    -0x2d8(%ebp),%eax
 804f493:	83 c1 02             	add    $0x2,%ecx
 804f496:	89 85 84 fc ff ff    	mov    %eax,-0x37c(%ebp)
 804f49c:	89 f8                	mov    %edi,%eax
 804f49e:	89 d7                	mov    %edx,%edi
 804f4a0:	89 8d a8 fc ff ff    	mov    %ecx,-0x358(%ebp)
 804f4a6:	89 c2                	mov    %eax,%edx
 804f4a8:	8b 06                	mov    (%esi),%eax
 804f4aa:	3b 85 f4 fc ff ff    	cmp    -0x30c(%ebp),%eax
 804f4b0:	0f 84 cb 00 00 00    	je     804f581 <exit@plt+0x6369>
 804f4b6:	2b 85 f4 fc ff ff    	sub    -0x30c(%ebp),%eax
 804f4bc:	89 c1                	mov    %eax,%ecx
 804f4be:	01 f9                	add    %edi,%ecx
 804f4c0:	89 85 f0 fc ff ff    	mov    %eax,-0x310(%ebp)
 804f4c6:	19 c0                	sbb    %eax,%eax
 804f4c8:	09 c1                	or     %eax,%ecx
 804f4ca:	39 cb                	cmp    %ecx,%ebx
 804f4cc:	73 7a                	jae    804f548 <exit@plt+0x6330>
 804f4ce:	83 fb 00             	cmp    $0x0,%ebx
 804f4d1:	0f 85 21 0a 00 00    	jne    804fef8 <exit@plt+0x6ce0>
 804f4d7:	b3 0c                	mov    $0xc,%bl
 804f4d9:	39 cb                	cmp    %ecx,%ebx
 804f4db:	73 02                	jae    804f4df <exit@plt+0x62c7>
 804f4dd:	89 cb                	mov    %ecx,%ebx
 804f4df:	83 fb ff             	cmp    $0xffffffff,%ebx
 804f4e2:	0f 84 60 0b 00 00    	je     8050048 <exit@plt+0x6e30>
 804f4e8:	3b 95 cc fc ff ff    	cmp    -0x334(%ebp),%edx
 804f4ee:	0f 94 85 d0 fc ff ff 	sete   -0x330(%ebp)
 804f4f5:	85 d2                	test   %edx,%edx
 804f4f7:	74 0d                	je     804f506 <exit@plt+0x62ee>
 804f4f9:	80 bd d0 fc ff ff 00 	cmpb   $0x0,-0x330(%ebp)
 804f500:	0f 84 02 0a 00 00    	je     804ff08 <exit@plt+0x6cf0>
 804f506:	89 95 98 fc ff ff    	mov    %edx,-0x368(%ebp)
 804f50c:	89 8d 9c fc ff ff    	mov    %ecx,-0x364(%ebp)
 804f512:	89 1c 24             	mov    %ebx,(%esp)
 804f515:	e8 de 9b ff ff       	call   80490f8 <malloc@plt>
 804f51a:	8b 95 98 fc ff ff    	mov    -0x368(%ebp),%edx
 804f520:	8b 8d 9c fc ff ff    	mov    -0x364(%ebp),%ecx
 804f526:	89 85 d8 fc ff ff    	mov    %eax,-0x328(%ebp)
 804f52c:	8b 85 d8 fc ff ff    	mov    -0x328(%ebp),%eax
 804f532:	85 c0                	test   %eax,%eax
 804f534:	0f 84 0e 0b 00 00    	je     8050048 <exit@plt+0x6e30>
 804f53a:	85 ff                	test   %edi,%edi
 804f53c:	0f 85 96 0b 00 00    	jne    80500d8 <exit@plt+0x6ec0>
 804f542:	8b 95 d8 fc ff ff    	mov    -0x328(%ebp),%edx
 804f548:	8b 85 f0 fc ff ff    	mov    -0x310(%ebp),%eax
 804f54e:	8d 3c 3a             	lea    (%edx,%edi,1),%edi
 804f551:	89 3c 24             	mov    %edi,(%esp)
 804f554:	89 95 98 fc ff ff    	mov    %edx,-0x368(%ebp)
 804f55a:	89 8d 9c fc ff ff    	mov    %ecx,-0x364(%ebp)
 804f560:	89 44 24 08          	mov    %eax,0x8(%esp)
 804f564:	8b 85 f4 fc ff ff    	mov    -0x30c(%ebp),%eax
 804f56a:	89 44 24 04          	mov    %eax,0x4(%esp)
 804f56e:	e8 f5 9a ff ff       	call   8049068 <memcpy@plt>
 804f573:	8b 8d 9c fc ff ff    	mov    -0x364(%ebp),%ecx
 804f579:	8b 95 98 fc ff ff    	mov    -0x368(%ebp),%edx
 804f57f:	89 cf                	mov    %ecx,%edi
 804f581:	8b 8d c4 fc ff ff    	mov    -0x33c(%ebp),%ecx
 804f587:	39 8d 00 fd ff ff    	cmp    %ecx,-0x300(%ebp)
 804f58d:	0f 84 2d 10 00 00    	je     80505c0 <exit@plt+0x73a8>
 804f593:	0f b6 46 24          	movzbl 0x24(%esi),%eax
 804f597:	3c 25                	cmp    $0x25,%al
 804f599:	0f 84 99 09 00 00    	je     804ff38 <exit@plt+0x6d20>
 804f59f:	8b 4e 28             	mov    0x28(%esi),%ecx
 804f5a2:	83 f9 ff             	cmp    $0xffffffff,%ecx
 804f5a5:	0f 84 45 03 00 00    	je     804f8f0 <exit@plt+0x66d8>
 804f5ab:	3c 6e                	cmp    $0x6e,%al
 804f5ad:	0f 84 c5 0a 00 00    	je     8050078 <exit@plt+0x6e60>
 804f5b3:	3c 46                	cmp    $0x46,%al
 804f5b5:	74 69                	je     804f620 <exit@plt+0x6408>
 804f5b7:	3c 66                	cmp    $0x66,%al
 804f5b9:	74 65                	je     804f620 <exit@plt+0x6408>
 804f5bb:	3c 65                	cmp    $0x65,%al
 804f5bd:	8d 76 00             	lea    0x0(%esi),%esi
 804f5c0:	74 5e                	je     804f620 <exit@plt+0x6408>
 804f5c2:	3c 45                	cmp    $0x45,%al
 804f5c4:	74 5a                	je     804f620 <exit@plt+0x6408>
 804f5c6:	3c 67                	cmp    $0x67,%al
 804f5c8:	74 56                	je     804f620 <exit@plt+0x6408>
 804f5ca:	3c 47                	cmp    $0x47,%al
 804f5cc:	8d 74 26 00          	lea    0x0(%esi,%eiz,1),%esi
 804f5d0:	74 4e                	je     804f620 <exit@plt+0x6408>
 804f5d2:	3c 61                	cmp    $0x61,%al
 804f5d4:	74 4a                	je     804f620 <exit@plt+0x6408>
 804f5d6:	3c 41                	cmp    $0x41,%al
 804f5d8:	74 46                	je     804f620 <exit@plt+0x6408>
 804f5da:	8b 85 1c fd ff ff    	mov    -0x2e4(%ebp),%eax
 804f5e0:	c1 e1 04             	shl    $0x4,%ecx
 804f5e3:	8b 0c 01             	mov    (%ecx,%eax,1),%ecx
 804f5e6:	89 8d f0 fc ff ff    	mov    %ecx,-0x310(%ebp)
 804f5ec:	eb 4c                	jmp    804f63a <exit@plt+0x6422>
 804f5ee:	66 90                	xchg   %ax,%ax
 804f5f0:	83 fa ff             	cmp    $0xffffffff,%edx
 804f5f3:	0f 84 d7 fd ff ff    	je     804f3d0 <exit@plt+0x61b8>
 804f5f9:	89 14 24             	mov    %edx,(%esp)
 804f5fc:	e8 f7 9a ff ff       	call   80490f8 <malloc@plt>
 804f601:	85 c0                	test   %eax,%eax
 804f603:	89 85 d4 fc ff ff    	mov    %eax,-0x32c(%ebp)
 804f609:	0f 84 c1 fd ff ff    	je     804f3d0 <exit@plt+0x61b8>
 804f60f:	89 85 a4 fc ff ff    	mov    %eax,-0x35c(%ebp)
 804f615:	e9 30 fe ff ff       	jmp    804f44a <exit@plt+0x6232>
 804f61a:	8d b6 00 00 00 00    	lea    0x0(%esi),%esi
 804f620:	c1 e1 04             	shl    $0x4,%ecx
 804f623:	03 8d 1c fd ff ff    	add    -0x2e4(%ebp),%ecx
 804f629:	8b 01                	mov    (%ecx),%eax
 804f62b:	83 f8 0c             	cmp    $0xc,%eax
 804f62e:	89 85 f0 fc ff ff    	mov    %eax,-0x310(%ebp)
 804f634:	0f 84 86 0b 00 00    	je     80501c0 <exit@plt+0x6fa8>
 804f63a:	8b 8d d4 fc ff ff    	mov    -0x32c(%ebp),%ecx
 804f640:	8b 46 08             	mov    0x8(%esi),%eax
 804f643:	c6 01 25             	movb   $0x25,(%ecx)
 804f646:	8b 8d b8 fc ff ff    	mov    -0x348(%ebp),%ecx
 804f64c:	a8 01                	test   $0x1,%al
 804f64e:	89 8d f4 fc ff ff    	mov    %ecx,-0x30c(%ebp)
 804f654:	74 0f                	je     804f665 <exit@plt+0x644d>
 804f656:	c6 01 27             	movb   $0x27,(%ecx)
 804f659:	8b 8d a8 fc ff ff    	mov    -0x358(%ebp),%ecx
 804f65f:	89 8d f4 fc ff ff    	mov    %ecx,-0x30c(%ebp)
 804f665:	a8 02                	test   $0x2,%al
 804f667:	74 12                	je     804f67b <exit@plt+0x6463>
 804f669:	8b 8d f4 fc ff ff    	mov    -0x30c(%ebp),%ecx
 804f66f:	c6 01 2d             	movb   $0x2d,(%ecx)
 804f672:	83 c1 01             	add    $0x1,%ecx
 804f675:	89 8d f4 fc ff ff    	mov    %ecx,-0x30c(%ebp)
 804f67b:	a8 04                	test   $0x4,%al
 804f67d:	74 12                	je     804f691 <exit@plt+0x6479>
 804f67f:	8b 8d f4 fc ff ff    	mov    -0x30c(%ebp),%ecx
 804f685:	c6 01 2b             	movb   $0x2b,(%ecx)
 804f688:	83 c1 01             	add    $0x1,%ecx
 804f68b:	89 8d f4 fc ff ff    	mov    %ecx,-0x30c(%ebp)
 804f691:	a8 08                	test   $0x8,%al
 804f693:	74 12                	je     804f6a7 <exit@plt+0x648f>
 804f695:	8b 8d f4 fc ff ff    	mov    -0x30c(%ebp),%ecx
 804f69b:	c6 01 20             	movb   $0x20,(%ecx)
 804f69e:	83 c1 01             	add    $0x1,%ecx
 804f6a1:	89 8d f4 fc ff ff    	mov    %ecx,-0x30c(%ebp)
 804f6a7:	a8 10                	test   $0x10,%al
 804f6a9:	74 12                	je     804f6bd <exit@plt+0x64a5>
 804f6ab:	8b 8d f4 fc ff ff    	mov    -0x30c(%ebp),%ecx
 804f6b1:	c6 01 23             	movb   $0x23,(%ecx)
 804f6b4:	83 c1 01             	add    $0x1,%ecx
 804f6b7:	89 8d f4 fc ff ff    	mov    %ecx,-0x30c(%ebp)
 804f6bd:	a8 20                	test   $0x20,%al
 804f6bf:	74 12                	je     804f6d3 <exit@plt+0x64bb>
 804f6c1:	8b 85 f4 fc ff ff    	mov    -0x30c(%ebp),%eax
 804f6c7:	c6 00 30             	movb   $0x30,(%eax)
 804f6ca:	83 c0 01             	add    $0x1,%eax
 804f6cd:	89 85 f4 fc ff ff    	mov    %eax,-0x30c(%ebp)
 804f6d3:	8b 46 0c             	mov    0xc(%esi),%eax
 804f6d6:	8b 4e 10             	mov    0x10(%esi),%ecx
 804f6d9:	39 c8                	cmp    %ecx,%eax
 804f6db:	74 36                	je     804f713 <exit@plt+0x64fb>
 804f6dd:	29 c1                	sub    %eax,%ecx
 804f6df:	89 44 24 04          	mov    %eax,0x4(%esp)
 804f6e3:	8b 85 f4 fc ff ff    	mov    -0x30c(%ebp),%eax
 804f6e9:	89 4c 24 08          	mov    %ecx,0x8(%esp)
 804f6ed:	89 95 98 fc ff ff    	mov    %edx,-0x368(%ebp)
 804f6f3:	89 8d 9c fc ff ff    	mov    %ecx,-0x364(%ebp)
 804f6f9:	89 04 24             	mov    %eax,(%esp)
 804f6fc:	e8 67 99 ff ff       	call   8049068 <memcpy@plt>
 804f701:	8b 8d 9c fc ff ff    	mov    -0x364(%ebp),%ecx
 804f707:	01 8d f4 fc ff ff    	add    %ecx,-0x30c(%ebp)
 804f70d:	8b 95 98 fc ff ff    	mov    -0x368(%ebp),%edx
 804f713:	8b 46 18             	mov    0x18(%esi),%eax
 804f716:	8b 4e 1c             	mov    0x1c(%esi),%ecx
 804f719:	39 c8                	cmp    %ecx,%eax
 804f71b:	74 36                	je     804f753 <exit@plt+0x653b>
 804f71d:	29 c1                	sub    %eax,%ecx
 804f71f:	89 44 24 04          	mov    %eax,0x4(%esp)
 804f723:	8b 85 f4 fc ff ff    	mov    -0x30c(%ebp),%eax
 804f729:	89 4c 24 08          	mov    %ecx,0x8(%esp)
 804f72d:	89 95 98 fc ff ff    	mov    %edx,-0x368(%ebp)
 804f733:	89 8d 9c fc ff ff    	mov    %ecx,-0x364(%ebp)
 804f739:	89 04 24             	mov    %eax,(%esp)
 804f73c:	e8 27 99 ff ff       	call   8049068 <memcpy@plt>
 804f741:	8b 8d 9c fc ff ff    	mov    -0x364(%ebp),%ecx
 804f747:	01 8d f4 fc ff ff    	add    %ecx,-0x30c(%ebp)
 804f74d:	8b 95 98 fc ff ff    	mov    -0x368(%ebp),%edx
 804f753:	83 bd f0 fc ff ff 10 	cmpl   $0x10,-0x310(%ebp)
 804f75a:	77 2c                	ja     804f788 <exit@plt+0x6570>
 804f75c:	0f b6 8d f0 fc ff ff 	movzbl -0x310(%ebp),%ecx
 804f763:	b8 01 00 00 00       	mov    $0x1,%eax
 804f768:	d3 e0                	shl    %cl,%eax
 804f76a:	a9 80 41 01 00       	test   $0x14180,%eax
 804f76f:	0f 85 bd 01 00 00    	jne    804f932 <exit@plt+0x671a>
 804f775:	f6 c4 10             	test   $0x10,%ah
 804f778:	0f 85 e2 09 00 00    	jne    8050160 <exit@plt+0x6f48>
 804f77e:	f6 c4 06             	test   $0x6,%ah
 804f781:	0f 85 99 01 00 00    	jne    804f920 <exit@plt+0x6708>
 804f787:	90                   	nop
 804f788:	0f b6 46 24          	movzbl 0x24(%esi),%eax
 804f78c:	8b 8d f4 fc ff ff    	mov    -0x30c(%ebp),%ecx
 804f792:	88 01                	mov    %al,(%ecx)
 804f794:	8b 85 f4 fc ff ff    	mov    -0x30c(%ebp),%eax
 804f79a:	83 c1 01             	add    $0x1,%ecx
 804f79d:	89 8d b0 fc ff ff    	mov    %ecx,-0x350(%ebp)
 804f7a3:	c6 40 01 00          	movb   $0x0,0x1(%eax)
 804f7a7:	8b 46 14             	mov    0x14(%esi),%eax
 804f7aa:	c7 85 f4 fc ff ff 00 	movl   $0x0,-0x30c(%ebp)
 804f7b1:	00 00 00 
 804f7b4:	83 f8 ff             	cmp    $0xffffffff,%eax
 804f7b7:	74 25                	je     804f7de <exit@plt+0x65c6>
 804f7b9:	c1 e0 04             	shl    $0x4,%eax
 804f7bc:	03 85 1c fd ff ff    	add    -0x2e4(%ebp),%eax
 804f7c2:	83 38 05             	cmpl   $0x5,(%eax)
 804f7c5:	0f 85 25 01 00 00    	jne    804f8f0 <exit@plt+0x66d8>
 804f7cb:	8b 40 04             	mov    0x4(%eax),%eax
 804f7ce:	c7 85 f4 fc ff ff 01 	movl   $0x1,-0x30c(%ebp)
 804f7d5:	00 00 00 
 804f7d8:	89 85 10 fd ff ff    	mov    %eax,-0x2f0(%ebp)
 804f7de:	8b 46 20             	mov    0x20(%esi),%eax
 804f7e1:	83 f8 ff             	cmp    $0xffffffff,%eax
 804f7e4:	74 2b                	je     804f811 <exit@plt+0x65f9>
 804f7e6:	c1 e0 04             	shl    $0x4,%eax
 804f7e9:	03 85 1c fd ff ff    	add    -0x2e4(%ebp),%eax
 804f7ef:	83 38 05             	cmpl   $0x5,(%eax)
 804f7f2:	0f 85 f8 00 00 00    	jne    804f8f0 <exit@plt+0x66d8>
 804f7f8:	8b 8d f4 fc ff ff    	mov    -0x30c(%ebp),%ecx
 804f7fe:	8b 40 04             	mov    0x4(%eax),%eax
 804f801:	89 84 8d 10 fd ff ff 	mov    %eax,-0x2f0(%ebp,%ecx,4)
 804f808:	83 c1 01             	add    $0x1,%ecx
 804f80b:	89 8d f4 fc ff ff    	mov    %ecx,-0x30c(%ebp)
 804f811:	89 f8                	mov    %edi,%eax
 804f813:	83 c0 02             	add    $0x2,%eax
 804f816:	89 85 c8 fc ff ff    	mov    %eax,-0x338(%ebp)
 804f81c:	19 c0                	sbb    %eax,%eax
 804f81e:	0b 85 c8 fc ff ff    	or     -0x338(%ebp),%eax
 804f824:	39 c3                	cmp    %eax,%ebx
 804f826:	73 79                	jae    804f8a1 <exit@plt+0x6689>
 804f828:	85 db                	test   %ebx,%ebx
 804f82a:	0f 85 48 09 00 00    	jne    8050178 <exit@plt+0x6f60>
 804f830:	b3 0c                	mov    $0xc,%bl
 804f832:	39 bd c8 fc ff ff    	cmp    %edi,-0x338(%ebp)
 804f838:	19 c0                	sbb    %eax,%eax
 804f83a:	0b 85 c8 fc ff ff    	or     -0x338(%ebp),%eax
 804f840:	39 c3                	cmp    %eax,%ebx
 804f842:	73 12                	jae    804f856 <exit@plt+0x663e>
 804f844:	3b bd c8 fc ff ff    	cmp    -0x338(%ebp),%edi
 804f84a:	0f 87 f8 07 00 00    	ja     8050048 <exit@plt+0x6e30>
 804f850:	8b 9d c8 fc ff ff    	mov    -0x338(%ebp),%ebx
 804f856:	83 fb ff             	cmp    $0xffffffff,%ebx
 804f859:	0f 84 e9 07 00 00    	je     8050048 <exit@plt+0x6e30>
 804f85f:	3b 95 cc fc ff ff    	cmp    -0x334(%ebp),%edx
 804f865:	0f 94 85 d8 fc ff ff 	sete   -0x328(%ebp)
 804f86c:	85 d2                	test   %edx,%edx
 804f86e:	74 0d                	je     804f87d <exit@plt+0x6665>
 804f870:	80 bd d8 fc ff ff 00 	cmpb   $0x0,-0x328(%ebp)
 804f877:	0f 84 0b 09 00 00    	je     8050188 <exit@plt+0x6f70>
 804f87d:	89 95 98 fc ff ff    	mov    %edx,-0x368(%ebp)
 804f883:	89 1c 24             	mov    %ebx,(%esp)
 804f886:	e8 6d 98 ff ff       	call   80490f8 <malloc@plt>
 804f88b:	8b 95 98 fc ff ff    	mov    -0x368(%ebp),%edx
 804f891:	89 c1                	mov    %eax,%ecx
 804f893:	85 c9                	test   %ecx,%ecx
 804f895:	0f 84 ad 07 00 00    	je     8050048 <exit@plt+0x6e30>
 804f89b:	85 ff                	test   %edi,%edi
 804f89d:	75 59                	jne    804f8f8 <exit@plt+0x66e0>
 804f89f:	89 ca                	mov    %ecx,%edx
 804f8a1:	c6 04 3a 00          	movb   $0x0,(%edx,%edi,1)
 804f8a5:	8b 8d 10 fd ff ff    	mov    -0x2f0(%ebp),%ecx
 804f8ab:	8b 85 14 fd ff ff    	mov    -0x2ec(%ebp),%eax
 804f8b1:	89 b5 c0 fc ff ff    	mov    %esi,-0x340(%ebp)
 804f8b7:	89 d6                	mov    %edx,%esi
 804f8b9:	89 8d b4 fc ff ff    	mov    %ecx,-0x34c(%ebp)
 804f8bf:	89 85 ac fc ff ff    	mov    %eax,-0x354(%ebp)
 804f8c5:	89 d9                	mov    %ebx,%ecx
 804f8c7:	29 f9                	sub    %edi,%ecx
 804f8c9:	c7 85 20 fd ff ff ff 	movl   $0xffffffff,-0x2e0(%ebp)
 804f8d0:	ff ff ff 
 804f8d3:	0f 88 f7 01 00 00    	js     804fad0 <exit@plt+0x68b8>
 804f8d9:	83 bd f0 fc ff ff 11 	cmpl   $0x11,-0x310(%ebp)
 804f8e0:	76 6e                	jbe    804f950 <exit@plt+0x6738>
 804f8e2:	eb 0c                	jmp    804f8f0 <exit@plt+0x66d8>
 804f8e4:	8d 74 26 00          	lea    0x0(%esi,%eiz,1),%esi
 804f8e8:	dd d8                	fstp   %st(0)
 804f8ea:	8d b6 00 00 00 00    	lea    0x0(%esi),%esi
 804f8f0:	e8 53 95 ff ff       	call   8048e48 <abort@plt>
 804f8f5:	8d 76 00             	lea    0x0(%esi),%esi
 804f8f8:	80 bd d8 fc ff ff 00 	cmpb   $0x0,-0x328(%ebp)
 804f8ff:	74 9e                	je     804f89f <exit@plt+0x6687>
 804f901:	89 0c 24             	mov    %ecx,(%esp)
 804f904:	89 8d 9c fc ff ff    	mov    %ecx,-0x364(%ebp)
 804f90a:	89 7c 24 08          	mov    %edi,0x8(%esp)
 804f90e:	89 54 24 04          	mov    %edx,0x4(%esp)
 804f912:	e8 51 97 ff ff       	call   8049068 <memcpy@plt>
 804f917:	8b 8d 9c fc ff ff    	mov    -0x364(%ebp),%ecx
 804f91d:	eb 80                	jmp    804f89f <exit@plt+0x6687>
 804f91f:	90                   	nop
 804f920:	8b 85 f4 fc ff ff    	mov    -0x30c(%ebp),%eax
 804f926:	c6 00 6c             	movb   $0x6c,(%eax)
 804f929:	83 c0 01             	add    $0x1,%eax
 804f92c:	89 85 f4 fc ff ff    	mov    %eax,-0x30c(%ebp)
 804f932:	8b 8d f4 fc ff ff    	mov    -0x30c(%ebp),%ecx
 804f938:	c6 01 6c             	movb   $0x6c,(%ecx)
 804f93b:	83 c1 01             	add    $0x1,%ecx
 804f93e:	89 8d f4 fc ff ff    	mov    %ecx,-0x30c(%ebp)
 804f944:	e9 3f fe ff ff       	jmp    804f788 <exit@plt+0x6570>
 804f949:	8d b4 26 00 00 00 00 	lea    0x0(%esi,%eiz,1),%esi
 804f950:	8b 95 f0 fc ff ff    	mov    -0x310(%ebp),%edx
 804f956:	ff 24 95 d4 2f 05 08 	jmp    *0x8052fd4(,%edx,4)
 804f95d:	8d 76 00             	lea    0x0(%esi),%esi
 804f960:	8b 85 c0 fc ff ff    	mov    -0x340(%ebp),%eax
 804f966:	8b 50 28             	mov    0x28(%eax),%edx
 804f969:	8b 85 1c fd ff ff    	mov    -0x2e4(%ebp),%eax
 804f96f:	c1 e2 04             	shl    $0x4,%edx
 804f972:	83 bd f4 fc ff ff 01 	cmpl   $0x1,-0x30c(%ebp)
 804f979:	8b 44 02 04          	mov    0x4(%edx,%eax,1),%eax
 804f97d:	0f 84 85 01 00 00    	je     804fb08 <exit@plt+0x68f0>
 804f983:	0f 83 57 02 00 00    	jae    804fbe0 <exit@plt+0x69c8>
 804f989:	89 44 24 14          	mov    %eax,0x14(%esp)
 804f98d:	8b 85 d4 fc ff ff    	mov    -0x32c(%ebp),%eax
 804f993:	8d 95 20 fd ff ff    	lea    -0x2e0(%ebp),%edx
 804f999:	89 4c 24 04          	mov    %ecx,0x4(%esp)
 804f99d:	89 8d 9c fc ff ff    	mov    %ecx,-0x364(%ebp)
 804f9a3:	89 54 24 18          	mov    %edx,0x18(%esp)
 804f9a7:	89 44 24 10          	mov    %eax,0x10(%esp)
 804f9ab:	8d 04 3e             	lea    (%esi,%edi,1),%eax
 804f9ae:	c7 44 24 0c ff ff ff 	movl   $0xffffffff,0xc(%esp)
 804f9b5:	ff 
 804f9b6:	c7 44 24 08 01 00 00 	movl   $0x1,0x8(%esp)
 804f9bd:	00 
 804f9be:	89 04 24             	mov    %eax,(%esp)
 804f9c1:	e8 12 98 ff ff       	call   80491d8 <__snprintf_chk@plt>
 804f9c6:	8b 8d 9c fc ff ff    	mov    -0x364(%ebp),%ecx
 804f9cc:	89 85 d0 fc ff ff    	mov    %eax,-0x330(%ebp)
 804f9d2:	8b 85 20 fd ff ff    	mov    -0x2e0(%ebp),%eax
 804f9d8:	85 c0                	test   %eax,%eax
 804f9da:	0f 88 89 01 00 00    	js     804fb69 <exit@plt+0x6951>
 804f9e0:	39 c1                	cmp    %eax,%ecx
 804f9e2:	89 85 d8 fc ff ff    	mov    %eax,-0x328(%ebp)
 804f9e8:	76 0d                	jbe    804f9f7 <exit@plt+0x67df>
 804f9ea:	8d 14 06             	lea    (%esi,%eax,1),%edx
 804f9ed:	80 3c 3a 00          	cmpb   $0x0,(%edx,%edi,1)
 804f9f1:	0f 85 f9 fe ff ff    	jne    804f8f0 <exit@plt+0x66d8>
 804f9f7:	39 85 d0 fc ff ff    	cmp    %eax,-0x330(%ebp)
 804f9fd:	7e 12                	jle    804fa11 <exit@plt+0x67f9>
 804f9ff:	8b 95 d0 fc ff ff    	mov    -0x330(%ebp),%edx
 804fa05:	89 95 20 fd ff ff    	mov    %edx,-0x2e0(%ebp)
 804fa0b:	89 95 d8 fc ff ff    	mov    %edx,-0x328(%ebp)
 804fa11:	8b 85 d8 fc ff ff    	mov    -0x328(%ebp),%eax
 804fa17:	83 c0 01             	add    $0x1,%eax
 804fa1a:	39 c1                	cmp    %eax,%ecx
 804fa1c:	0f 87 26 0d 00 00    	ja     8050748 <exit@plt+0x7530>
 804fa22:	81 f9 ff ff ff 7f    	cmp    $0x7fffffff,%ecx
 804fa28:	0f 84 92 0e 00 00    	je     80508c0 <exit@plt+0x76a8>
 804fa2e:	8b 8d d8 fc ff ff    	mov    -0x328(%ebp),%ecx
 804fa34:	89 da                	mov    %ebx,%edx
 804fa36:	03 8d c8 fc ff ff    	add    -0x338(%ebp),%ecx
 804fa3c:	c1 fa 1f             	sar    $0x1f,%edx
 804fa3f:	8d 04 1b             	lea    (%ebx,%ebx,1),%eax
 804fa42:	09 d0                	or     %edx,%eax
 804fa44:	39 cf                	cmp    %ecx,%edi
 804fa46:	ba ff ff ff ff       	mov    $0xffffffff,%edx
 804fa4b:	77 08                	ja     804fa55 <exit@plt+0x683d>
 804fa4d:	39 c8                	cmp    %ecx,%eax
 804fa4f:	89 c2                	mov    %eax,%edx
 804fa51:	73 02                	jae    804fa55 <exit@plt+0x683d>
 804fa53:	89 ca                	mov    %ecx,%edx
 804fa55:	39 d3                	cmp    %edx,%ebx
 804fa57:	0f 83 68 fe ff ff    	jae    804f8c5 <exit@plt+0x66ad>
 804fa5d:	83 fb 00             	cmp    $0x0,%ebx
 804fa60:	0f 85 62 06 00 00    	jne    80500c8 <exit@plt+0x6eb0>
 804fa66:	b3 0c                	mov    $0xc,%bl
 804fa68:	39 d3                	cmp    %edx,%ebx
 804fa6a:	73 02                	jae    804fa6e <exit@plt+0x6856>
 804fa6c:	89 d3                	mov    %edx,%ebx
 804fa6e:	83 fb ff             	cmp    $0xffffffff,%ebx
 804fa71:	0f 84 31 07 00 00    	je     80501a8 <exit@plt+0x6f90>
 804fa77:	3b b5 cc fc ff ff    	cmp    -0x334(%ebp),%esi
 804fa7d:	0f 94 c1             	sete   %cl
 804fa80:	85 f6                	test   %esi,%esi
 804fa82:	74 08                	je     804fa8c <exit@plt+0x6874>
 804fa84:	84 c9                	test   %cl,%cl
 804fa86:	0f 84 1c 06 00 00    	je     80500a8 <exit@plt+0x6e90>
 804fa8c:	88 8d 9c fc ff ff    	mov    %cl,-0x364(%ebp)
 804fa92:	89 1c 24             	mov    %ebx,(%esp)
 804fa95:	e8 5e 96 ff ff       	call   80490f8 <malloc@plt>
 804fa9a:	0f b6 8d 9c fc ff ff 	movzbl -0x364(%ebp),%ecx
 804faa1:	89 c2                	mov    %eax,%edx
 804faa3:	85 d2                	test   %edx,%edx
 804faa5:	0f 84 fd 06 00 00    	je     80501a8 <exit@plt+0x6f90>
 804faab:	84 c9                	test   %cl,%cl
 804faad:	0f 85 cd 00 00 00    	jne    804fb80 <exit@plt+0x6968>
 804fab3:	89 d9                	mov    %ebx,%ecx
 804fab5:	89 d6                	mov    %edx,%esi
 804fab7:	29 f9                	sub    %edi,%ecx
 804fab9:	c7 85 20 fd ff ff ff 	movl   $0xffffffff,-0x2e0(%ebp)
 804fac0:	ff ff ff 
 804fac3:	0f 89 10 fe ff ff    	jns    804f8d9 <exit@plt+0x66c1>
 804fac9:	8d b4 26 00 00 00 00 	lea    0x0(%esi,%eiz,1),%esi
 804fad0:	b9 ff ff ff 7f       	mov    $0x7fffffff,%ecx
 804fad5:	e9 ff fd ff ff       	jmp    804f8d9 <exit@plt+0x66c1>
 804fada:	8d b6 00 00 00 00    	lea    0x0(%esi),%esi
 804fae0:	8b 85 c0 fc ff ff    	mov    -0x340(%ebp),%eax
 804fae6:	8b 50 28             	mov    0x28(%eax),%edx
 804fae9:	8b 85 1c fd ff ff    	mov    -0x2e4(%ebp),%eax
 804faef:	c1 e2 04             	shl    $0x4,%edx
 804faf2:	83 bd f4 fc ff ff 01 	cmpl   $0x1,-0x30c(%ebp)
 804faf9:	0f b6 44 02 04       	movzbl 0x4(%edx,%eax,1),%eax
 804fafe:	0f 85 7f fe ff ff    	jne    804f983 <exit@plt+0x676b>
 804fb04:	8d 74 26 00          	lea    0x0(%esi,%eiz,1),%esi
 804fb08:	89 44 24 18          	mov    %eax,0x18(%esp)
 804fb0c:	8b 85 b4 fc ff ff    	mov    -0x34c(%ebp),%eax
 804fb12:	8d 95 20 fd ff ff    	lea    -0x2e0(%ebp),%edx
 804fb18:	89 54 24 1c          	mov    %edx,0x1c(%esp)
 804fb1c:	89 44 24 14          	mov    %eax,0x14(%esp)
 804fb20:	8b 95 d4 fc ff ff    	mov    -0x32c(%ebp),%edx
 804fb26:	89 54 24 10          	mov    %edx,0x10(%esp)
 804fb2a:	8d 04 3e             	lea    (%esi,%edi,1),%eax
 804fb2d:	89 4c 24 04          	mov    %ecx,0x4(%esp)
 804fb31:	89 8d 9c fc ff ff    	mov    %ecx,-0x364(%ebp)
 804fb37:	c7 44 24 0c ff ff ff 	movl   $0xffffffff,0xc(%esp)
 804fb3e:	ff 
 804fb3f:	c7 44 24 08 01 00 00 	movl   $0x1,0x8(%esp)
 804fb46:	00 
 804fb47:	89 04 24             	mov    %eax,(%esp)
 804fb4a:	e8 89 96 ff ff       	call   80491d8 <__snprintf_chk@plt>
 804fb4f:	8b 8d 9c fc ff ff    	mov    -0x364(%ebp),%ecx
 804fb55:	89 85 d0 fc ff ff    	mov    %eax,-0x330(%ebp)
 804fb5b:	8b 85 20 fd ff ff    	mov    -0x2e0(%ebp),%eax
 804fb61:	85 c0                	test   %eax,%eax
 804fb63:	0f 89 77 fe ff ff    	jns    804f9e0 <exit@plt+0x67c8>
 804fb69:	8b 85 b0 fc ff ff    	mov    -0x350(%ebp),%eax
 804fb6f:	80 38 00             	cmpb   $0x0,(%eax)
 804fb72:	0f 84 a0 05 00 00    	je     8050118 <exit@plt+0x6f00>
 804fb78:	c6 00 00             	movb   $0x0,(%eax)
 804fb7b:	e9 45 fd ff ff       	jmp    804f8c5 <exit@plt+0x66ad>
 804fb80:	85 ff                	test   %edi,%edi
 804fb82:	0f 84 2b ff ff ff    	je     804fab3 <exit@plt+0x689b>
 804fb88:	89 74 24 04          	mov    %esi,0x4(%esp)
 804fb8c:	89 14 24             	mov    %edx,(%esp)
 804fb8f:	89 95 98 fc ff ff    	mov    %edx,-0x368(%ebp)
 804fb95:	89 7c 24 08          	mov    %edi,0x8(%esp)
 804fb99:	e8 ca 94 ff ff       	call   8049068 <memcpy@plt>
 804fb9e:	8b 95 98 fc ff ff    	mov    -0x368(%ebp),%edx
 804fba4:	89 d6                	mov    %edx,%esi
 804fba6:	e9 1a fd ff ff       	jmp    804f8c5 <exit@plt+0x66ad>
 804fbab:	90                   	nop
 804fbac:	8d 74 26 00          	lea    0x0(%esi,%eiz,1),%esi
 804fbb0:	8b 85 c0 fc ff ff    	mov    -0x340(%ebp),%eax
 804fbb6:	8b 50 28             	mov    0x28(%eax),%edx
 804fbb9:	8b 85 1c fd ff ff    	mov    -0x2e4(%ebp),%eax
 804fbbf:	c1 e2 04             	shl    $0x4,%edx
 804fbc2:	83 bd f4 fc ff ff 01 	cmpl   $0x1,-0x30c(%ebp)
 804fbc9:	0f b7 44 02 04       	movzwl 0x4(%edx,%eax,1),%eax
 804fbce:	0f 84 34 ff ff ff    	je     804fb08 <exit@plt+0x68f0>
 804fbd4:	0f 82 af fd ff ff    	jb     804f989 <exit@plt+0x6771>
 804fbda:	8d b6 00 00 00 00    	lea    0x0(%esi),%esi
 804fbe0:	83 bd f4 fc ff ff 02 	cmpl   $0x2,-0x30c(%ebp)
 804fbe7:	0f 85 03 fd ff ff    	jne    804f8f0 <exit@plt+0x66d8>
 804fbed:	89 44 24 1c          	mov    %eax,0x1c(%esp)
 804fbf1:	8b 85 ac fc ff ff    	mov    -0x354(%ebp),%eax
 804fbf7:	8d 95 20 fd ff ff    	lea    -0x2e0(%ebp),%edx
 804fbfd:	89 54 24 20          	mov    %edx,0x20(%esp)
 804fc01:	8b 95 b4 fc ff ff    	mov    -0x34c(%ebp),%edx
 804fc07:	89 44 24 18          	mov    %eax,0x18(%esp)
 804fc0b:	8b 85 d4 fc ff ff    	mov    -0x32c(%ebp),%eax
 804fc11:	89 54 24 14          	mov    %edx,0x14(%esp)
 804fc15:	89 44 24 10          	mov    %eax,0x10(%esp)
 804fc19:	8d 04 3e             	lea    (%esi,%edi,1),%eax
 804fc1c:	89 4c 24 04          	mov    %ecx,0x4(%esp)
 804fc20:	89 8d 9c fc ff ff    	mov    %ecx,-0x364(%ebp)
 804fc26:	c7 44 24 0c ff ff ff 	movl   $0xffffffff,0xc(%esp)
 804fc2d:	ff 
 804fc2e:	c7 44 24 08 01 00 00 	movl   $0x1,0x8(%esp)
 804fc35:	00 
 804fc36:	89 04 24             	mov    %eax,(%esp)
 804fc39:	e8 9a 95 ff ff       	call   80491d8 <__snprintf_chk@plt>
 804fc3e:	8b 8d 9c fc ff ff    	mov    -0x364(%ebp),%ecx
 804fc44:	89 85 d0 fc ff ff    	mov    %eax,-0x330(%ebp)
 804fc4a:	e9 83 fd ff ff       	jmp    804f9d2 <exit@plt+0x67ba>
 804fc4f:	90                   	nop
 804fc50:	8b 85 c0 fc ff ff    	mov    -0x340(%ebp),%eax
 804fc56:	8b 50 28             	mov    0x28(%eax),%edx
 804fc59:	8b 85 1c fd ff ff    	mov    -0x2e4(%ebp),%eax
 804fc5f:	c1 e2 04             	shl    $0x4,%edx
 804fc62:	83 bd f4 fc ff ff 01 	cmpl   $0x1,-0x30c(%ebp)
 804fc69:	0f bf 44 02 04       	movswl 0x4(%edx,%eax,1),%eax
 804fc6e:	0f 85 0f fd ff ff    	jne    804f983 <exit@plt+0x676b>
 804fc74:	e9 8f fe ff ff       	jmp    804fb08 <exit@plt+0x68f0>
 804fc79:	8d b4 26 00 00 00 00 	lea    0x0(%esi,%eiz,1),%esi
 804fc80:	8b 85 c0 fc ff ff    	mov    -0x340(%ebp),%eax
 804fc86:	8b 50 28             	mov    0x28(%eax),%edx
 804fc89:	8b 85 1c fd ff ff    	mov    -0x2e4(%ebp),%eax
 804fc8f:	c1 e2 04             	shl    $0x4,%edx
 804fc92:	83 bd f4 fc ff ff 01 	cmpl   $0x1,-0x30c(%ebp)
 804fc99:	0f be 44 02 04       	movsbl 0x4(%edx,%eax,1),%eax
 804fc9e:	0f 85 df fc ff ff    	jne    804f983 <exit@plt+0x676b>
 804fca4:	e9 5f fe ff ff       	jmp    804fb08 <exit@plt+0x68f0>
 804fca9:	8d b4 26 00 00 00 00 	lea    0x0(%esi,%eiz,1),%esi
 804fcb0:	8b 95 c0 fc ff ff    	mov    -0x340(%ebp),%edx
 804fcb6:	8b 52 28             	mov    0x28(%edx),%edx
 804fcb9:	c1 e2 04             	shl    $0x4,%edx
 804fcbc:	89 d0                	mov    %edx,%eax
 804fcbe:	8b 95 1c fd ff ff    	mov    -0x2e4(%ebp),%edx
 804fcc4:	83 bd f4 fc ff ff 01 	cmpl   $0x1,-0x30c(%ebp)
 804fccb:	8d 54 10 04          	lea    0x4(%eax,%edx,1),%edx
 804fccf:	8b 02                	mov    (%edx),%eax
 804fcd1:	8b 52 04             	mov    0x4(%edx),%edx
 804fcd4:	89 85 d8 fc ff ff    	mov    %eax,-0x328(%ebp)
 804fcda:	89 95 dc fc ff ff    	mov    %edx,-0x324(%ebp)
 804fce0:	0f 84 62 08 00 00    	je     8050548 <exit@plt+0x7330>
 804fce6:	0f 83 cc 01 00 00    	jae    804feb8 <exit@plt+0x6ca0>
 804fcec:	8d 95 20 fd ff ff    	lea    -0x2e0(%ebp),%edx
 804fcf2:	8b 85 d8 fc ff ff    	mov    -0x328(%ebp),%eax
 804fcf8:	89 54 24 1c          	mov    %edx,0x1c(%esp)
 804fcfc:	8b 95 dc fc ff ff    	mov    -0x324(%ebp),%edx
 804fd02:	89 44 24 14          	mov    %eax,0x14(%esp)
 804fd06:	89 54 24 18          	mov    %edx,0x18(%esp)
 804fd0a:	e9 11 fe ff ff       	jmp    804fb20 <exit@plt+0x6908>
 804fd0f:	90                   	nop
 804fd10:	8b 85 c0 fc ff ff    	mov    -0x340(%ebp),%eax
 804fd16:	8b 95 1c fd ff ff    	mov    -0x2e4(%ebp),%edx
 804fd1c:	8b 40 28             	mov    0x28(%eax),%eax
 804fd1f:	c1 e0 04             	shl    $0x4,%eax
 804fd22:	8d 54 10 04          	lea    0x4(%eax,%edx,1),%edx
 804fd26:	8b 02                	mov    (%edx),%eax
 804fd28:	8b 52 04             	mov    0x4(%edx),%edx
 804fd2b:	83 bd f4 fc ff ff 01 	cmpl   $0x1,-0x30c(%ebp)
 804fd32:	89 85 d8 fc ff ff    	mov    %eax,-0x328(%ebp)
 804fd38:	89 95 dc fc ff ff    	mov    %edx,-0x324(%ebp)
 804fd3e:	0f 84 04 08 00 00    	je     8050548 <exit@plt+0x7330>
 804fd44:	0f 83 6e 01 00 00    	jae    804feb8 <exit@plt+0x6ca0>
 804fd4a:	8d 95 20 fd ff ff    	lea    -0x2e0(%ebp),%edx
 804fd50:	8b 85 d8 fc ff ff    	mov    -0x328(%ebp),%eax
 804fd56:	89 54 24 1c          	mov    %edx,0x1c(%esp)
 804fd5a:	8b 95 dc fc ff ff    	mov    -0x324(%ebp),%edx
 804fd60:	89 44 24 14          	mov    %eax,0x14(%esp)
 804fd64:	89 54 24 18          	mov    %edx,0x18(%esp)
 804fd68:	8b 95 d4 fc ff ff    	mov    -0x32c(%ebp),%edx
 804fd6e:	89 54 24 10          	mov    %edx,0x10(%esp)
 804fd72:	e9 b3 fd ff ff       	jmp    804fb2a <exit@plt+0x6912>
 804fd77:	90                   	nop
 804fd78:	8b 85 c0 fc ff ff    	mov    -0x340(%ebp),%eax
 804fd7e:	8b 50 28             	mov    0x28(%eax),%edx
 804fd81:	8b 85 1c fd ff ff    	mov    -0x2e4(%ebp),%eax
 804fd87:	c1 e2 04             	shl    $0x4,%edx
 804fd8a:	83 bd f4 fc ff ff 01 	cmpl   $0x1,-0x30c(%ebp)
 804fd91:	dd 44 02 04          	fldl   0x4(%edx,%eax,1)
 804fd95:	0f 84 75 09 00 00    	je     8050710 <exit@plt+0x74f8>
 804fd9b:	0f 82 07 07 00 00    	jb     80504a8 <exit@plt+0x7290>
 804fda1:	83 bd f4 fc ff ff 02 	cmpl   $0x2,-0x30c(%ebp)
 804fda8:	0f 85 3a fb ff ff    	jne    804f8e8 <exit@plt+0x66d0>
 804fdae:	8b 95 ac fc ff ff    	mov    -0x354(%ebp),%edx
 804fdb4:	8d 85 20 fd ff ff    	lea    -0x2e0(%ebp),%eax
 804fdba:	89 44 24 24          	mov    %eax,0x24(%esp)
 804fdbe:	dd 5c 24 1c          	fstpl  0x1c(%esp)
 804fdc2:	89 54 24 18          	mov    %edx,0x18(%esp)
 804fdc6:	8b 85 b4 fc ff ff    	mov    -0x34c(%ebp),%eax
 804fdcc:	8b 95 d4 fc ff ff    	mov    -0x32c(%ebp),%edx
 804fdd2:	89 4c 24 04          	mov    %ecx,0x4(%esp)
 804fdd6:	89 8d 9c fc ff ff    	mov    %ecx,-0x364(%ebp)
 804fddc:	89 44 24 14          	mov    %eax,0x14(%esp)
 804fde0:	8d 04 3e             	lea    (%esi,%edi,1),%eax
 804fde3:	89 54 24 10          	mov    %edx,0x10(%esp)
 804fde7:	c7 44 24 0c ff ff ff 	movl   $0xffffffff,0xc(%esp)
 804fdee:	ff 
 804fdef:	c7 44 24 08 01 00 00 	movl   $0x1,0x8(%esp)
 804fdf6:	00 
 804fdf7:	89 04 24             	mov    %eax,(%esp)
 804fdfa:	e8 d9 93 ff ff       	call   80491d8 <__snprintf_chk@plt>
 804fdff:	8b 8d 9c fc ff ff    	mov    -0x364(%ebp),%ecx
 804fe05:	89 85 d0 fc ff ff    	mov    %eax,-0x330(%ebp)
 804fe0b:	e9 c2 fb ff ff       	jmp    804f9d2 <exit@plt+0x67ba>
 804fe10:	8b 85 c0 fc ff ff    	mov    -0x340(%ebp),%eax
 804fe16:	8b 50 28             	mov    0x28(%eax),%edx
 804fe19:	8b 85 1c fd ff ff    	mov    -0x2e4(%ebp),%eax
 804fe1f:	c1 e2 04             	shl    $0x4,%edx
 804fe22:	db 6c 02 04          	fldt   0x4(%edx,%eax,1)
 804fe26:	83 bd f4 fc ff ff 01 	cmpl   $0x1,-0x30c(%ebp)
 804fe2d:	db bd d8 fc ff ff    	fstpt  -0x328(%ebp)
 804fe33:	0f 84 b7 08 00 00    	je     80506f0 <exit@plt+0x74d8>
 804fe39:	0f 82 89 06 00 00    	jb     80504c8 <exit@plt+0x72b0>
 804fe3f:	83 bd f4 fc ff ff 02 	cmpl   $0x2,-0x30c(%ebp)
 804fe46:	0f 85 a4 fa ff ff    	jne    804f8f0 <exit@plt+0x66d8>
 804fe4c:	8d 85 20 fd ff ff    	lea    -0x2e0(%ebp),%eax
 804fe52:	8b 95 b4 fc ff ff    	mov    -0x34c(%ebp),%edx
 804fe58:	89 44 24 28          	mov    %eax,0x28(%esp)
 804fe5c:	8b 85 ac fc ff ff    	mov    -0x354(%ebp),%eax
 804fe62:	db ad d8 fc ff ff    	fldt   -0x328(%ebp)
 804fe68:	89 4c 24 04          	mov    %ecx,0x4(%esp)
 804fe6c:	89 8d 9c fc ff ff    	mov    %ecx,-0x364(%ebp)
 804fe72:	89 44 24 18          	mov    %eax,0x18(%esp)
 804fe76:	8b 85 d4 fc ff ff    	mov    -0x32c(%ebp),%eax
 804fe7c:	db 7c 24 1c          	fstpt  0x1c(%esp)
 804fe80:	89 54 24 14          	mov    %edx,0x14(%esp)
 804fe84:	89 44 24 10          	mov    %eax,0x10(%esp)
 804fe88:	8d 04 3e             	lea    (%esi,%edi,1),%eax
 804fe8b:	c7 44 24 0c ff ff ff 	movl   $0xffffffff,0xc(%esp)
 804fe92:	ff 
 804fe93:	c7 44 24 08 01 00 00 	movl   $0x1,0x8(%esp)
 804fe9a:	00 
 804fe9b:	89 04 24             	mov    %eax,(%esp)
 804fe9e:	e8 35 93 ff ff       	call   80491d8 <__snprintf_chk@plt>
 804fea3:	8b 8d 9c fc ff ff    	mov    -0x364(%ebp),%ecx
 804fea9:	89 85 d0 fc ff ff    	mov    %eax,-0x330(%ebp)
 804feaf:	e9 1e fb ff ff       	jmp    804f9d2 <exit@plt+0x67ba>
 804feb4:	8d 74 26 00          	lea    0x0(%esi,%eiz,1),%esi
 804feb8:	83 bd f4 fc ff ff 02 	cmpl   $0x2,-0x30c(%ebp)
 804febf:	0f 85 2b fa ff ff    	jne    804f8f0 <exit@plt+0x66d8>
 804fec5:	8d 95 20 fd ff ff    	lea    -0x2e0(%ebp),%edx
 804fecb:	8b 85 d8 fc ff ff    	mov    -0x328(%ebp),%eax
 804fed1:	89 54 24 24          	mov    %edx,0x24(%esp)
 804fed5:	8b 95 dc fc ff ff    	mov    -0x324(%ebp),%edx
 804fedb:	89 44 24 1c          	mov    %eax,0x1c(%esp)
 804fedf:	89 54 24 20          	mov    %edx,0x20(%esp)
 804fee3:	8b 95 ac fc ff ff    	mov    -0x354(%ebp),%edx
 804fee9:	89 54 24 18          	mov    %edx,0x18(%esp)
 804feed:	e9 d4 fe ff ff       	jmp    804fdc6 <exit@plt+0x6bae>
 804fef2:	8d b6 00 00 00 00    	lea    0x0(%esi),%esi
 804fef8:	0f 8c 4a 01 00 00    	jl     8050048 <exit@plt+0x6e30>
 804fefe:	01 db                	add    %ebx,%ebx
 804ff00:	e9 d4 f5 ff ff       	jmp    804f4d9 <exit@plt+0x62c1>
 804ff05:	8d 76 00             	lea    0x0(%esi),%esi
 804ff08:	89 14 24             	mov    %edx,(%esp)
 804ff0b:	89 95 98 fc ff ff    	mov    %edx,-0x368(%ebp)
 804ff11:	89 8d 9c fc ff ff    	mov    %ecx,-0x364(%ebp)
 804ff17:	89 5c 24 04          	mov    %ebx,0x4(%esp)
 804ff1b:	e8 a8 8f ff ff       	call   8048ec8 <realloc@plt>
 804ff20:	8b 8d 9c fc ff ff    	mov    -0x364(%ebp),%ecx
 804ff26:	8b 95 98 fc ff ff    	mov    -0x368(%ebp),%edx
 804ff2c:	89 85 d8 fc ff ff    	mov    %eax,-0x328(%ebp)
 804ff32:	e9 f5 f5 ff ff       	jmp    804f52c <exit@plt+0x6314>
 804ff37:	90                   	nop
 804ff38:	83 7e 28 ff          	cmpl   $0xffffffff,0x28(%esi)
 804ff3c:	0f 85 ae f9 ff ff    	jne    804f8f0 <exit@plt+0x66d8>
 804ff42:	89 f9                	mov    %edi,%ecx
 804ff44:	83 c1 01             	add    $0x1,%ecx
 804ff47:	19 c0                	sbb    %eax,%eax
 804ff49:	09 c1                	or     %eax,%ecx
 804ff4b:	39 cb                	cmp    %ecx,%ebx
 804ff4d:	73 76                	jae    804ffc5 <exit@plt+0x6dad>
 804ff4f:	83 fb 00             	cmp    $0x0,%ebx
 804ff52:	0f 85 58 02 00 00    	jne    80501b0 <exit@plt+0x6f98>
 804ff58:	b3 0c                	mov    $0xc,%bl
 804ff5a:	39 cb                	cmp    %ecx,%ebx
 804ff5c:	73 02                	jae    804ff60 <exit@plt+0x6d48>
 804ff5e:	89 cb                	mov    %ecx,%ebx
 804ff60:	83 fb ff             	cmp    $0xffffffff,%ebx
 804ff63:	0f 84 df 00 00 00    	je     8050048 <exit@plt+0x6e30>
 804ff69:	3b 95 cc fc ff ff    	cmp    -0x334(%ebp),%edx
 804ff6f:	0f 94 85 f0 fc ff ff 	sete   -0x310(%ebp)
 804ff76:	85 d2                	test   %edx,%edx
 804ff78:	74 09                	je     804ff83 <exit@plt+0x6d6b>
 804ff7a:	80 bd f0 fc ff ff 00 	cmpb   $0x0,-0x310(%ebp)
 804ff81:	74 65                	je     804ffe8 <exit@plt+0x6dd0>
 804ff83:	89 95 98 fc ff ff    	mov    %edx,-0x368(%ebp)
 804ff89:	89 8d 9c fc ff ff    	mov    %ecx,-0x364(%ebp)
 804ff8f:	89 1c 24             	mov    %ebx,(%esp)
 804ff92:	e8 61 91 ff ff       	call   80490f8 <malloc@plt>
 804ff97:	8b 95 98 fc ff ff    	mov    -0x368(%ebp),%edx
 804ff9d:	8b 8d 9c fc ff ff    	mov    -0x364(%ebp),%ecx
 804ffa3:	89 85 f4 fc ff ff    	mov    %eax,-0x30c(%ebp)
 804ffa9:	8b 85 f4 fc ff ff    	mov    -0x30c(%ebp),%eax
 804ffaf:	85 c0                	test   %eax,%eax
 804ffb1:	0f 84 91 00 00 00    	je     8050048 <exit@plt+0x6e30>
 804ffb7:	85 ff                	test   %edi,%edi
 804ffb9:	0f 85 c1 05 00 00    	jne    8050580 <exit@plt+0x7368>
 804ffbf:	8b 95 f4 fc ff ff    	mov    -0x30c(%ebp),%edx
 804ffc5:	c6 04 3a 25          	movb   $0x25,(%edx,%edi,1)
 804ffc9:	89 cf                	mov    %ecx,%edi
 804ffcb:	8b 4e 04             	mov    0x4(%esi),%ecx
 804ffce:	83 c6 2c             	add    $0x2c,%esi
 804ffd1:	83 85 c4 fc ff ff 01 	addl   $0x1,-0x33c(%ebp)
 804ffd8:	89 8d f4 fc ff ff    	mov    %ecx,-0x30c(%ebp)
 804ffde:	e9 c5 f4 ff ff       	jmp    804f4a8 <exit@plt+0x6290>
 804ffe3:	90                   	nop
 804ffe4:	8d 74 26 00          	lea    0x0(%esi,%eiz,1),%esi
 804ffe8:	89 14 24             	mov    %edx,(%esp)
 804ffeb:	89 95 98 fc ff ff    	mov    %edx,-0x368(%ebp)
 804fff1:	89 8d 9c fc ff ff    	mov    %ecx,-0x364(%ebp)
 804fff7:	89 5c 24 04          	mov    %ebx,0x4(%esp)
 804fffb:	e8 c8 8e ff ff       	call   8048ec8 <realloc@plt>
 8050000:	8b 8d 9c fc ff ff    	mov    -0x364(%ebp),%ecx
 8050006:	8b 95 98 fc ff ff    	mov    -0x368(%ebp),%edx
 805000c:	89 85 f4 fc ff ff    	mov    %eax,-0x30c(%ebp)
 8050012:	eb 95                	jmp    804ffa9 <exit@plt+0x6d91>
 8050014:	83 bd d8 fc ff ff ff 	cmpl   $0xffffffff,-0x328(%ebp)
 805001b:	74 2b                	je     8050048 <exit@plt+0x6e30>
 805001d:	8b 85 d8 fc ff ff    	mov    -0x328(%ebp),%eax
 8050023:	89 95 98 fc ff ff    	mov    %edx,-0x368(%ebp)
 8050029:	89 04 24             	mov    %eax,(%esp)
 805002c:	e8 c7 90 ff ff       	call   80490f8 <malloc@plt>
 8050031:	8b 95 98 fc ff ff    	mov    -0x368(%ebp),%edx
 8050037:	85 c0                	test   %eax,%eax
 8050039:	89 85 f4 fc ff ff    	mov    %eax,-0x30c(%ebp)
 805003f:	0f 85 af 02 00 00    	jne    80502f4 <exit@plt+0x70dc>
 8050045:	8d 76 00             	lea    0x0(%esi),%esi
 8050048:	89 d7                	mov    %edx,%edi
 805004a:	85 ff                	test   %edi,%edi
 805004c:	0f 85 d6 04 00 00    	jne    8050528 <exit@plt+0x7310>
 8050052:	8b 95 a4 fc ff ff    	mov    -0x35c(%ebp),%edx
 8050058:	85 d2                	test   %edx,%edx
 805005a:	0f 84 70 f3 ff ff    	je     804f3d0 <exit@plt+0x61b8>
 8050060:	8b 95 a4 fc ff ff    	mov    -0x35c(%ebp),%edx
 8050066:	89 14 24             	mov    %edx,(%esp)
 8050069:	e8 8a 8f ff ff       	call   8048ff8 <free@plt>
 805006e:	e9 5d f3 ff ff       	jmp    804f3d0 <exit@plt+0x61b8>
 8050073:	90                   	nop
 8050074:	8d 74 26 00          	lea    0x0(%esi,%eiz,1),%esi
 8050078:	c1 e1 04             	shl    $0x4,%ecx
 805007b:	03 8d 1c fd ff ff    	add    -0x2e4(%ebp),%ecx
 8050081:	8b 01                	mov    (%ecx),%eax
 8050083:	83 e8 12             	sub    $0x12,%eax
 8050086:	83 f8 04             	cmp    $0x4,%eax
 8050089:	0f 87 61 f8 ff ff    	ja     804f8f0 <exit@plt+0x66d8>
 805008f:	ff 24 85 1c 30 05 08 	jmp    *0x805301c(,%eax,4)
 8050096:	66 90                	xchg   %ax,%ax
 8050098:	8b 41 04             	mov    0x4(%ecx),%eax
 805009b:	89 38                	mov    %edi,(%eax)
 805009d:	e9 29 ff ff ff       	jmp    804ffcb <exit@plt+0x6db3>
 80500a2:	8d b6 00 00 00 00    	lea    0x0(%esi),%esi
 80500a8:	88 8d 9c fc ff ff    	mov    %cl,-0x364(%ebp)
 80500ae:	89 5c 24 04          	mov    %ebx,0x4(%esp)
 80500b2:	89 34 24             	mov    %esi,(%esp)
 80500b5:	e8 0e 8e ff ff       	call   8048ec8 <realloc@plt>
 80500ba:	0f b6 8d 9c fc ff ff 	movzbl -0x364(%ebp),%ecx
 80500c1:	89 c2                	mov    %eax,%edx
 80500c3:	e9 db f9 ff ff       	jmp    804faa3 <exit@plt+0x688b>
 80500c8:	0f 8c da 00 00 00    	jl     80501a8 <exit@plt+0x6f90>
 80500ce:	01 db                	add    %ebx,%ebx
 80500d0:	e9 93 f9 ff ff       	jmp    804fa68 <exit@plt+0x6850>
 80500d5:	8d 76 00             	lea    0x0(%esi),%esi
 80500d8:	80 bd d0 fc ff ff 00 	cmpb   $0x0,-0x330(%ebp)
 80500df:	90                   	nop
 80500e0:	0f 84 5c f4 ff ff    	je     804f542 <exit@plt+0x632a>
 80500e6:	89 54 24 04          	mov    %edx,0x4(%esp)
 80500ea:	8b 95 d8 fc ff ff    	mov    -0x328(%ebp),%edx
 80500f0:	89 8d 9c fc ff ff    	mov    %ecx,-0x364(%ebp)
 80500f6:	89 7c 24 08          	mov    %edi,0x8(%esp)
 80500fa:	89 14 24             	mov    %edx,(%esp)
 80500fd:	e8 66 8f ff ff       	call   8049068 <memcpy@plt>
 8050102:	8b 95 d8 fc ff ff    	mov    -0x328(%ebp),%edx
 8050108:	8b 8d 9c fc ff ff    	mov    -0x364(%ebp),%ecx
 805010e:	e9 35 f4 ff ff       	jmp    804f548 <exit@plt+0x6330>
 8050113:	90                   	nop
 8050114:	8d 74 26 00          	lea    0x0(%esi,%eiz,1),%esi
 8050118:	8b 85 d0 fc ff ff    	mov    -0x330(%ebp),%eax
 805011e:	85 c0                	test   %eax,%eax
 8050120:	0f 89 d9 f8 ff ff    	jns    804f9ff <exit@plt+0x67e7>
 8050126:	85 db                	test   %ebx,%ebx
 8050128:	0f 88 0a 06 00 00    	js     8050738 <exit@plt+0x7520>
 805012e:	8d 04 1b             	lea    (%ebx,%ebx,1),%eax
 8050131:	83 c0 0c             	add    $0xc,%eax
 8050134:	0f 82 fe 05 00 00    	jb     8050738 <exit@plt+0x7520>
 805013a:	39 c3                	cmp    %eax,%ebx
 805013c:	0f 83 83 f7 ff ff    	jae    804f8c5 <exit@plt+0x66ad>
 8050142:	83 fb 00             	cmp    $0x0,%ebx
 8050145:	0f 85 e2 08 00 00    	jne    8050a2d <exit@plt+0x7815>
 805014b:	b3 0c                	mov    $0xc,%bl
 805014d:	39 c3                	cmp    %eax,%ebx
 805014f:	90                   	nop
 8050150:	0f 83 18 f9 ff ff    	jae    804fa6e <exit@plt+0x6856>
 8050156:	89 c3                	mov    %eax,%ebx
 8050158:	e9 11 f9 ff ff       	jmp    804fa6e <exit@plt+0x6856>
 805015d:	8d 76 00             	lea    0x0(%esi),%esi
 8050160:	8b 85 f4 fc ff ff    	mov    -0x30c(%ebp),%eax
 8050166:	c6 00 4c             	movb   $0x4c,(%eax)
 8050169:	83 c0 01             	add    $0x1,%eax
 805016c:	89 85 f4 fc ff ff    	mov    %eax,-0x30c(%ebp)
 8050172:	e9 11 f6 ff ff       	jmp    804f788 <exit@plt+0x6570>
 8050177:	90                   	nop
 8050178:	8d 04 1b             	lea    (%ebx,%ebx,1),%eax
 805017b:	c1 fb 1f             	sar    $0x1f,%ebx
 805017e:	09 c3                	or     %eax,%ebx
 8050180:	e9 ad f6 ff ff       	jmp    804f832 <exit@plt+0x661a>
 8050185:	8d 76 00             	lea    0x0(%esi),%esi
 8050188:	89 14 24             	mov    %edx,(%esp)
 805018b:	89 95 98 fc ff ff    	mov    %edx,-0x368(%ebp)
 8050191:	89 5c 24 04          	mov    %ebx,0x4(%esp)
 8050195:	e8 2e 8d ff ff       	call   8048ec8 <realloc@plt>
 805019a:	8b 95 98 fc ff ff    	mov    -0x368(%ebp),%edx
 80501a0:	89 c1                	mov    %eax,%ecx
 80501a2:	e9 ec f6 ff ff       	jmp    804f893 <exit@plt+0x667b>
 80501a7:	90                   	nop
 80501a8:	89 f7                	mov    %esi,%edi
 80501aa:	e9 9b fe ff ff       	jmp    805004a <exit@plt+0x6e32>
 80501af:	90                   	nop
 80501b0:	0f 8c 92 fe ff ff    	jl     8050048 <exit@plt+0x6e30>
 80501b6:	01 db                	add    %ebx,%ebx
 80501b8:	e9 9d fd ff ff       	jmp    804ff5a <exit@plt+0x6d42>
 80501bd:	8d 76 00             	lea    0x0(%esi),%esi
 80501c0:	db 69 04             	fldt   0x4(%ecx)
 80501c3:	89 95 98 fc ff ff    	mov    %edx,-0x368(%ebp)
 80501c9:	d9 c0                	fld    %st(0)
 80501cb:	db 3c 24             	fstpt  (%esp)
 80501ce:	db bd 88 fc ff ff    	fstpt  -0x378(%ebp)
 80501d4:	e8 47 12 00 00       	call   8051420 <exit@plt+0x8208>
 80501d9:	8b 95 98 fc ff ff    	mov    -0x368(%ebp),%edx
 80501df:	85 c0                	test   %eax,%eax
 80501e1:	db ad 88 fc ff ff    	fldt   -0x378(%ebp)
 80501e7:	0f 84 8b 02 00 00    	je     8050478 <exit@plt+0x7260>
 80501ed:	dd d8                	fstp   %st(0)
 80501ef:	8b 4e 08             	mov    0x8(%esi),%ecx
 80501f2:	8b 46 0c             	mov    0xc(%esi),%eax
 80501f5:	c7 85 f0 fc ff ff 00 	movl   $0x0,-0x310(%ebp)
 80501fc:	00 00 00 
 80501ff:	c7 85 c0 fc ff ff 00 	movl   $0x0,-0x340(%ebp)
 8050206:	00 00 00 
 8050209:	89 8d b4 fc ff ff    	mov    %ecx,-0x34c(%ebp)
 805020f:	8b 4e 10             	mov    0x10(%esi),%ecx
 8050212:	39 c8                	cmp    %ecx,%eax
 8050214:	89 8d f4 fc ff ff    	mov    %ecx,-0x30c(%ebp)
 805021a:	74 39                	je     8050255 <exit@plt+0x703d>
 805021c:	8b 4e 14             	mov    0x14(%esi),%ecx
 805021f:	83 f9 ff             	cmp    $0xffffffff,%ecx
 8050222:	0f 84 fe 08 00 00    	je     8050b26 <exit@plt+0x790e>
 8050228:	c1 e1 04             	shl    $0x4,%ecx
 805022b:	03 8d 1c fd ff ff    	add    -0x2e4(%ebp),%ecx
 8050231:	83 39 05             	cmpl   $0x5,(%ecx)
 8050234:	0f 85 b6 f6 ff ff    	jne    804f8f0 <exit@plt+0x66d8>
 805023a:	8b 49 04             	mov    0x4(%ecx),%ecx
 805023d:	c7 85 c0 fc ff ff 01 	movl   $0x1,-0x340(%ebp)
 8050244:	00 00 00 
 8050247:	85 c9                	test   %ecx,%ecx
 8050249:	89 8d f0 fc ff ff    	mov    %ecx,-0x310(%ebp)
 805024f:	0f 88 09 0a 00 00    	js     8050c5e <exit@plt+0x7a46>
 8050255:	8b 4e 1c             	mov    0x1c(%esi),%ecx
 8050258:	8b 46 18             	mov    0x18(%esi),%eax
 805025b:	89 8d f4 fc ff ff    	mov    %ecx,-0x30c(%ebp)
 8050261:	39 c8                	cmp    %ecx,%eax
 8050263:	0f 84 3d 0a 00 00    	je     8050ca6 <exit@plt+0x7a8e>
 8050269:	8b 4e 20             	mov    0x20(%esi),%ecx
 805026c:	83 f9 ff             	cmp    $0xffffffff,%ecx
 805026f:	0f 84 35 08 00 00    	je     8050aaa <exit@plt+0x7892>
 8050275:	c1 e1 04             	shl    $0x4,%ecx
 8050278:	03 8d 1c fd ff ff    	add    -0x2e4(%ebp),%ecx
 805027e:	83 39 05             	cmpl   $0x5,(%ecx)
 8050281:	0f 85 69 f6 ff ff    	jne    804f8f0 <exit@plt+0x66d8>
 8050287:	8b 49 04             	mov    0x4(%ecx),%ecx
 805028a:	85 c9                	test   %ecx,%ecx
 805028c:	89 8d 74 fc ff ff    	mov    %ecx,-0x38c(%ebp)
 8050292:	0f 88 0e 0a 00 00    	js     8050ca6 <exit@plt+0x7a8e>
 8050298:	8b 85 74 fc ff ff    	mov    -0x38c(%ebp),%eax
 805029e:	b9 0c 00 00 00       	mov    $0xc,%ecx
 80502a3:	85 c0                	test   %eax,%eax
 80502a5:	0f 85 8f 07 00 00    	jne    8050a3a <exit@plt+0x7822>
 80502ab:	39 8d f0 fc ff ff    	cmp    %ecx,-0x310(%ebp)
 80502b1:	0f 86 6e 0e 00 00    	jbe    8051125 <exit@plt+0x7f0d>
 80502b7:	8b 8d f0 fc ff ff    	mov    -0x310(%ebp),%ecx
 80502bd:	83 c1 01             	add    $0x1,%ecx
 80502c0:	89 8d d8 fc ff ff    	mov    %ecx,-0x328(%ebp)
 80502c6:	8b 8d f0 fc ff ff    	mov    -0x310(%ebp),%ecx
 80502cc:	3b 8d d8 fc ff ff    	cmp    -0x328(%ebp),%ecx
 80502d2:	0f 87 70 fd ff ff    	ja     8050048 <exit@plt+0x6e30>
 80502d8:	81 bd d8 fc ff ff bc 	cmpl   $0x2bc,-0x328(%ebp)
 80502df:	02 00 00 
 80502e2:	8d 8d 28 fd ff ff    	lea    -0x2d8(%ebp),%ecx
 80502e8:	89 8d f4 fc ff ff    	mov    %ecx,-0x30c(%ebp)
 80502ee:	0f 87 20 fd ff ff    	ja     8050014 <exit@plt+0x6dfc>
 80502f4:	8b 4e 28             	mov    0x28(%esi),%ecx
 80502f7:	8b 85 1c fd ff ff    	mov    -0x2e4(%ebp),%eax
 80502fd:	c1 e1 04             	shl    $0x4,%ecx
 8050300:	db 6c 01 04          	fldt   0x4(%ecx,%eax,1)
 8050304:	89 95 98 fc ff ff    	mov    %edx,-0x368(%ebp)
 805030a:	d9 c0                	fld    %st(0)
 805030c:	db 3c 24             	fstpt  (%esp)
 805030f:	db bd 88 fc ff ff    	fstpt  -0x378(%ebp)
 8050315:	e8 06 11 00 00       	call   8051420 <exit@plt+0x8208>
 805031a:	8b 95 98 fc ff ff    	mov    -0x368(%ebp),%edx
 8050320:	85 c0                	test   %eax,%eax
 8050322:	db ad 88 fc ff ff    	fldt   -0x378(%ebp)
 8050328:	0f 84 ca 04 00 00    	je     80507f8 <exit@plt+0x75e0>
 805032e:	dd d8                	fstp   %st(0)
 8050330:	0f b6 46 24          	movzbl 0x24(%esi),%eax
 8050334:	83 e8 41             	sub    $0x41,%eax
 8050337:	3c 19                	cmp    $0x19,%al
 8050339:	0f 87 42 07 00 00    	ja     8050a81 <exit@plt+0x7869>
 805033f:	8b 8d f4 fc ff ff    	mov    -0x30c(%ebp),%ecx
 8050345:	c6 01 4e             	movb   $0x4e,(%ecx)
 8050348:	c6 41 01 41          	movb   $0x41,0x1(%ecx)
 805034c:	c6 41 02 4e          	movb   $0x4e,0x2(%ecx)
 8050350:	83 c1 03             	add    $0x3,%ecx
 8050353:	89 8d c8 fc ff ff    	mov    %ecx,-0x338(%ebp)
 8050359:	c7 85 d0 fc ff ff 00 	movl   $0x0,-0x330(%ebp)
 8050360:	00 00 00 
 8050363:	8b 85 c0 fc ff ff    	mov    -0x340(%ebp),%eax
 8050369:	85 c0                	test   %eax,%eax
 805036b:	0f 85 ef 03 00 00    	jne    8050760 <exit@plt+0x7548>
 8050371:	8b 8d c8 fc ff ff    	mov    -0x338(%ebp),%ecx
 8050377:	2b 8d f4 fc ff ff    	sub    -0x30c(%ebp),%ecx
 805037d:	39 8d d8 fc ff ff    	cmp    %ecx,-0x328(%ebp)
 8050383:	0f 86 67 f5 ff ff    	jbe    804f8f0 <exit@plt+0x66d8>
 8050389:	89 d8                	mov    %ebx,%eax
 805038b:	29 f8                	sub    %edi,%eax
 805038d:	39 c8                	cmp    %ecx,%eax
 805038f:	0f 87 8a 06 00 00    	ja     8050a1f <exit@plt+0x7807>
 8050395:	89 c8                	mov    %ecx,%eax
 8050397:	01 f8                	add    %edi,%eax
 8050399:	89 85 f0 fc ff ff    	mov    %eax,-0x310(%ebp)
 805039f:	19 c0                	sbb    %eax,%eax
 80503a1:	0b 85 f0 fc ff ff    	or     -0x310(%ebp),%eax
 80503a7:	39 c3                	cmp    %eax,%ebx
 80503a9:	73 7a                	jae    8050425 <exit@plt+0x720d>
 80503ab:	83 fb 00             	cmp    $0x0,%ebx
 80503ae:	0f 85 9d 08 00 00    	jne    8050c51 <exit@plt+0x7a39>
 80503b4:	b3 0c                	mov    $0xc,%bl
 80503b6:	39 c3                	cmp    %eax,%ebx
 80503b8:	73 02                	jae    80503bc <exit@plt+0x71a4>
 80503ba:	89 c3                	mov    %eax,%ebx
 80503bc:	83 fb ff             	cmp    $0xffffffff,%ebx
 80503bf:	0f 84 83 fc ff ff    	je     8050048 <exit@plt+0x6e30>
 80503c5:	3b 95 cc fc ff ff    	cmp    -0x334(%ebp),%edx
 80503cb:	0f 94 85 d0 fc ff ff 	sete   -0x330(%ebp)
 80503d2:	85 d2                	test   %edx,%edx
 80503d4:	74 0d                	je     80503e3 <exit@plt+0x71cb>
 80503d6:	80 bd d0 fc ff ff 00 	cmpb   $0x0,-0x330(%ebp)
 80503dd:	0f 84 3f 08 00 00    	je     8050c22 <exit@plt+0x7a0a>
 80503e3:	89 95 98 fc ff ff    	mov    %edx,-0x368(%ebp)
 80503e9:	89 8d 9c fc ff ff    	mov    %ecx,-0x364(%ebp)
 80503ef:	89 1c 24             	mov    %ebx,(%esp)
 80503f2:	e8 01 8d ff ff       	call   80490f8 <malloc@plt>
 80503f7:	8b 95 98 fc ff ff    	mov    -0x368(%ebp),%edx
 80503fd:	8b 8d 9c fc ff ff    	mov    -0x364(%ebp),%ecx
 8050403:	89 85 d8 fc ff ff    	mov    %eax,-0x328(%ebp)
 8050409:	8b 85 d8 fc ff ff    	mov    -0x328(%ebp),%eax
 805040f:	85 c0                	test   %eax,%eax
 8050411:	0f 84 31 fc ff ff    	je     8050048 <exit@plt+0x6e30>
 8050417:	85 ff                	test   %edi,%edi
 8050419:	0f 85 a3 09 00 00    	jne    8050dc2 <exit@plt+0x7baa>
 805041f:	8b 95 d8 fc ff ff    	mov    -0x328(%ebp),%edx
 8050425:	89 4c 24 08          	mov    %ecx,0x8(%esp)
 8050429:	8b 8d f4 fc ff ff    	mov    -0x30c(%ebp),%ecx
 805042f:	8d 3c 3a             	lea    (%edx,%edi,1),%edi
 8050432:	89 95 98 fc ff ff    	mov    %edx,-0x368(%ebp)
 8050438:	89 3c 24             	mov    %edi,(%esp)
 805043b:	89 4c 24 04          	mov    %ecx,0x4(%esp)
 805043f:	e8 24 8c ff ff       	call   8049068 <memcpy@plt>
 8050444:	8b 85 84 fc ff ff    	mov    -0x37c(%ebp),%eax
 805044a:	39 85 f4 fc ff ff    	cmp    %eax,-0x30c(%ebp)
 8050450:	8b 95 98 fc ff ff    	mov    -0x368(%ebp),%edx
 8050456:	74 14                	je     805046c <exit@plt+0x7254>
 8050458:	8b 8d f4 fc ff ff    	mov    -0x30c(%ebp),%ecx
 805045e:	89 0c 24             	mov    %ecx,(%esp)
 8050461:	e8 92 8b ff ff       	call   8048ff8 <free@plt>
 8050466:	8b 95 98 fc ff ff    	mov    -0x368(%ebp),%edx
 805046c:	8b bd f0 fc ff ff    	mov    -0x310(%ebp),%edi
 8050472:	e9 54 fb ff ff       	jmp    804ffcb <exit@plt+0x6db3>
 8050477:	90                   	nop
 8050478:	d9 c0                	fld    %st(0)
 805047a:	d8 c1                	fadd   %st(1),%st
 805047c:	d9 c9                	fxch   %st(1)
 805047e:	da e9                	fucompp 
 8050480:	df e0                	fnstsw %ax
 8050482:	9e                   	sahf   
 8050483:	7a 06                	jp     805048b <exit@plt+0x7273>
 8050485:	0f 84 64 fd ff ff    	je     80501ef <exit@plt+0x6fd7>
 805048b:	8b 46 28             	mov    0x28(%esi),%eax
 805048e:	8b 8d 1c fd ff ff    	mov    -0x2e4(%ebp),%ecx
 8050494:	c1 e0 04             	shl    $0x4,%eax
 8050497:	8b 04 08             	mov    (%eax,%ecx,1),%eax
 805049a:	89 85 f0 fc ff ff    	mov    %eax,-0x310(%ebp)
 80504a0:	e9 95 f1 ff ff       	jmp    804f63a <exit@plt+0x6422>
 80504a5:	8d 76 00             	lea    0x0(%esi),%esi
 80504a8:	8b 85 d4 fc ff ff    	mov    -0x32c(%ebp),%eax
 80504ae:	8d 95 20 fd ff ff    	lea    -0x2e0(%ebp),%edx
 80504b4:	89 54 24 1c          	mov    %edx,0x1c(%esp)
 80504b8:	dd 5c 24 14          	fstpl  0x14(%esp)
 80504bc:	89 44 24 10          	mov    %eax,0x10(%esp)
 80504c0:	e9 65 f6 ff ff       	jmp    804fb2a <exit@plt+0x6912>
 80504c5:	8d 76 00             	lea    0x0(%esi),%esi
 80504c8:	8d 85 20 fd ff ff    	lea    -0x2e0(%ebp),%eax
 80504ce:	89 44 24 20          	mov    %eax,0x20(%esp)
 80504d2:	8b 85 d4 fc ff ff    	mov    -0x32c(%ebp),%eax
 80504d8:	db ad d8 fc ff ff    	fldt   -0x328(%ebp)
 80504de:	89 44 24 10          	mov    %eax,0x10(%esp)
 80504e2:	db 7c 24 14          	fstpt  0x14(%esp)
 80504e6:	e9 2e f7 ff ff       	jmp    804fc19 <exit@plt+0x6a01>
 80504eb:	90                   	nop
 80504ec:	8d 74 26 00          	lea    0x0(%esi,%eiz,1),%esi
 80504f0:	8b 41 04             	mov    0x4(%ecx),%eax
 80504f3:	89 f9                	mov    %edi,%ecx
 80504f5:	88 08                	mov    %cl,(%eax)
 80504f7:	e9 cf fa ff ff       	jmp    804ffcb <exit@plt+0x6db3>
 80504fc:	8d 74 26 00          	lea    0x0(%esi,%eiz,1),%esi
 8050500:	8b 41 04             	mov    0x4(%ecx),%eax
 8050503:	89 38                	mov    %edi,(%eax)
 8050505:	c7 40 04 00 00 00 00 	movl   $0x0,0x4(%eax)
 805050c:	e9 ba fa ff ff       	jmp    804ffcb <exit@plt+0x6db3>
 8050511:	8d b4 26 00 00 00 00 	lea    0x0(%esi,%eiz,1),%esi
 8050518:	8b 41 04             	mov    0x4(%ecx),%eax
 805051b:	66 89 38             	mov    %di,(%eax)
 805051e:	e9 a8 fa ff ff       	jmp    804ffcb <exit@plt+0x6db3>
 8050523:	90                   	nop
 8050524:	8d 74 26 00          	lea    0x0(%esi,%eiz,1),%esi
 8050528:	3b bd cc fc ff ff    	cmp    -0x334(%ebp),%edi
 805052e:	0f 84 1e fb ff ff    	je     8050052 <exit@plt+0x6e3a>
 8050534:	89 3c 24             	mov    %edi,(%esp)
 8050537:	e8 bc 8a ff ff       	call   8048ff8 <free@plt>
 805053c:	e9 11 fb ff ff       	jmp    8050052 <exit@plt+0x6e3a>
 8050541:	8d b4 26 00 00 00 00 	lea    0x0(%esi,%eiz,1),%esi
 8050548:	8d 85 20 fd ff ff    	lea    -0x2e0(%ebp),%eax
 805054e:	8b 95 dc fc ff ff    	mov    -0x324(%ebp),%edx
 8050554:	89 44 24 20          	mov    %eax,0x20(%esp)
 8050558:	8b 85 d8 fc ff ff    	mov    -0x328(%ebp),%eax
 805055e:	89 54 24 1c          	mov    %edx,0x1c(%esp)
 8050562:	8b 95 b4 fc ff ff    	mov    -0x34c(%ebp),%edx
 8050568:	89 44 24 18          	mov    %eax,0x18(%esp)
 805056c:	8b 85 d4 fc ff ff    	mov    -0x32c(%ebp),%eax
 8050572:	89 54 24 14          	mov    %edx,0x14(%esp)
 8050576:	89 44 24 10          	mov    %eax,0x10(%esp)
 805057a:	e9 9a f6 ff ff       	jmp    804fc19 <exit@plt+0x6a01>
 805057f:	90                   	nop
 8050580:	80 bd f0 fc ff ff 00 	cmpb   $0x0,-0x310(%ebp)
 8050587:	0f 84 32 fa ff ff    	je     804ffbf <exit@plt+0x6da7>
 805058d:	8b 85 f4 fc ff ff    	mov    -0x30c(%ebp),%eax
 8050593:	89 54 24 04          	mov    %edx,0x4(%esp)
 8050597:	89 8d 9c fc ff ff    	mov    %ecx,-0x364(%ebp)
 805059d:	89 7c 24 08          	mov    %edi,0x8(%esp)
 80505a1:	89 04 24             	mov    %eax,(%esp)
 80505a4:	e8 bf 8a ff ff       	call   8049068 <memcpy@plt>
 80505a9:	8b 95 f4 fc ff ff    	mov    -0x30c(%ebp),%edx
 80505af:	8b 8d 9c fc ff ff    	mov    -0x364(%ebp),%ecx
 80505b5:	e9 0b fa ff ff       	jmp    804ffc5 <exit@plt+0x6dad>
 80505ba:	8d b6 00 00 00 00    	lea    0x0(%esi),%esi
 80505c0:	89 d0                	mov    %edx,%eax
 80505c2:	89 fa                	mov    %edi,%edx
 80505c4:	89 d6                	mov    %edx,%esi
 80505c6:	89 c7                	mov    %eax,%edi
 80505c8:	83 c6 01             	add    $0x1,%esi
 80505cb:	19 c0                	sbb    %eax,%eax
 80505cd:	09 f0                	or     %esi,%eax
 80505cf:	39 d8                	cmp    %ebx,%eax
 80505d1:	76 69                	jbe    805063c <exit@plt+0x7424>
 80505d3:	85 db                	test   %ebx,%ebx
 80505d5:	0f 85 97 06 00 00    	jne    8050c72 <exit@plt+0x7a5a>
 80505db:	b3 0c                	mov    $0xc,%bl
 80505dd:	39 d6                	cmp    %edx,%esi
 80505df:	19 c0                	sbb    %eax,%eax
 80505e1:	09 f0                	or     %esi,%eax
 80505e3:	39 c3                	cmp    %eax,%ebx
 80505e5:	73 0a                	jae    80505f1 <exit@plt+0x73d9>
 80505e7:	39 f2                	cmp    %esi,%edx
 80505e9:	0f 87 5b fa ff ff    	ja     805004a <exit@plt+0x6e32>
 80505ef:	89 f3                	mov    %esi,%ebx
 80505f1:	83 fb ff             	cmp    $0xffffffff,%ebx
 80505f4:	0f 84 50 fa ff ff    	je     805004a <exit@plt+0x6e32>
 80505fa:	3b bd cc fc ff ff    	cmp    -0x334(%ebp),%edi
 8050600:	0f 94 85 f4 fc ff ff 	sete   -0x30c(%ebp)
 8050607:	85 ff                	test   %edi,%edi
 8050609:	74 0d                	je     8050618 <exit@plt+0x7400>
 805060b:	80 bd f4 fc ff ff 00 	cmpb   $0x0,-0x30c(%ebp)
 8050612:	0f 84 b8 06 00 00    	je     8050cd0 <exit@plt+0x7ab8>
 8050618:	89 95 98 fc ff ff    	mov    %edx,-0x368(%ebp)
 805061e:	89 1c 24             	mov    %ebx,(%esp)
 8050621:	e8 d2 8a ff ff       	call   80490f8 <malloc@plt>
 8050626:	8b 95 98 fc ff ff    	mov    -0x368(%ebp),%edx
 805062c:	89 c1                	mov    %eax,%ecx
 805062e:	85 c9                	test   %ecx,%ecx
 8050630:	0f 84 14 fa ff ff    	je     805004a <exit@plt+0x6e32>
 8050636:	85 d2                	test   %edx,%edx
 8050638:	75 79                	jne    80506b3 <exit@plt+0x749b>
 805063a:	89 cf                	mov    %ecx,%edi
 805063c:	c6 04 17 00          	movb   $0x0,(%edi,%edx,1)
 8050640:	3b bd cc fc ff ff    	cmp    -0x334(%ebp),%edi
 8050646:	74 08                	je     8050650 <exit@plt+0x7438>
 8050648:	39 f3                	cmp    %esi,%ebx
 805064a:	0f 87 2f 06 00 00    	ja     8050c7f <exit@plt+0x7a67>
 8050650:	8b 9d a4 fc ff ff    	mov    -0x35c(%ebp),%ebx
 8050656:	85 db                	test   %ebx,%ebx
 8050658:	74 1a                	je     8050674 <exit@plt+0x745c>
 805065a:	8b 85 a4 fc ff ff    	mov    -0x35c(%ebp),%eax
 8050660:	89 95 98 fc ff ff    	mov    %edx,-0x368(%ebp)
 8050666:	89 04 24             	mov    %eax,(%esp)
 8050669:	e8 8a 89 ff ff       	call   8048ff8 <free@plt>
 805066e:	8b 95 98 fc ff ff    	mov    -0x368(%ebp),%edx
 8050674:	8b 85 04 fd ff ff    	mov    -0x2fc(%ebp),%eax
 805067a:	89 95 98 fc ff ff    	mov    %edx,-0x368(%ebp)
 8050680:	89 04 24             	mov    %eax,(%esp)
 8050683:	e8 70 89 ff ff       	call   8048ff8 <free@plt>
 8050688:	8b 85 1c fd ff ff    	mov    -0x2e4(%ebp),%eax
 805068e:	8b 95 98 fc ff ff    	mov    -0x368(%ebp),%edx
 8050694:	85 c0                	test   %eax,%eax
 8050696:	74 0e                	je     80506a6 <exit@plt+0x748e>
 8050698:	89 04 24             	mov    %eax,(%esp)
 805069b:	e8 58 89 ff ff       	call   8048ff8 <free@plt>
 80506a0:	8b 95 98 fc ff ff    	mov    -0x368(%ebp),%edx
 80506a6:	8b 8d bc fc ff ff    	mov    -0x344(%ebp),%ecx
 80506ac:	89 11                	mov    %edx,(%ecx)
 80506ae:	e9 4a ed ff ff       	jmp    804f3fd <exit@plt+0x61e5>
 80506b3:	80 bd f4 fc ff ff 00 	cmpb   $0x0,-0x30c(%ebp)
 80506ba:	0f 84 7a ff ff ff    	je     805063a <exit@plt+0x7422>
 80506c0:	89 54 24 08          	mov    %edx,0x8(%esp)
 80506c4:	89 7c 24 04          	mov    %edi,0x4(%esp)
 80506c8:	89 0c 24             	mov    %ecx,(%esp)
 80506cb:	89 95 98 fc ff ff    	mov    %edx,-0x368(%ebp)
 80506d1:	89 8d 9c fc ff ff    	mov    %ecx,-0x364(%ebp)
 80506d7:	e8 8c 89 ff ff       	call   8049068 <memcpy@plt>
 80506dc:	8b 8d 9c fc ff ff    	mov    -0x364(%ebp),%ecx
 80506e2:	8b 95 98 fc ff ff    	mov    -0x368(%ebp),%edx
 80506e8:	89 cf                	mov    %ecx,%edi
 80506ea:	e9 4d ff ff ff       	jmp    805063c <exit@plt+0x7424>
 80506ef:	90                   	nop
 80506f0:	db ad d8 fc ff ff    	fldt   -0x328(%ebp)
 80506f6:	8d 95 20 fd ff ff    	lea    -0x2e0(%ebp),%edx
 80506fc:	89 54 24 24          	mov    %edx,0x24(%esp)
 8050700:	db 7c 24 18          	fstpt  0x18(%esp)
 8050704:	e9 bd f6 ff ff       	jmp    804fdc6 <exit@plt+0x6bae>
 8050709:	8d b4 26 00 00 00 00 	lea    0x0(%esi,%eiz,1),%esi
 8050710:	8d 95 20 fd ff ff    	lea    -0x2e0(%ebp),%edx
 8050716:	8b 85 b4 fc ff ff    	mov    -0x34c(%ebp),%eax
 805071c:	89 54 24 20          	mov    %edx,0x20(%esp)
 8050720:	8b 95 d4 fc ff ff    	mov    -0x32c(%ebp),%edx
 8050726:	dd 5c 24 18          	fstpl  0x18(%esp)
 805072a:	89 44 24 14          	mov    %eax,0x14(%esp)
 805072e:	89 54 24 10          	mov    %edx,0x10(%esp)
 8050732:	e9 e2 f4 ff ff       	jmp    804fc19 <exit@plt+0x6a01>
 8050737:	90                   	nop
 8050738:	b8 ff ff ff ff       	mov    $0xffffffff,%eax
 805073d:	e9 f8 f9 ff ff       	jmp    805013a <exit@plt+0x6f22>
 8050742:	8d b6 00 00 00 00    	lea    0x0(%esi),%esi
 8050748:	89 f2                	mov    %esi,%edx
 805074a:	8b b5 c0 fc ff ff    	mov    -0x340(%ebp),%esi
 8050750:	03 bd d8 fc ff ff    	add    -0x328(%ebp),%edi
 8050756:	e9 70 f8 ff ff       	jmp    804ffcb <exit@plt+0x6db3>
 805075b:	90                   	nop
 805075c:	8d 74 26 00          	lea    0x0(%esi,%eiz,1),%esi
 8050760:	8b 8d c8 fc ff ff    	mov    -0x338(%ebp),%ecx
 8050766:	2b 8d f4 fc ff ff    	sub    -0x30c(%ebp),%ecx
 805076c:	39 8d f0 fc ff ff    	cmp    %ecx,-0x310(%ebp)
 8050772:	0f 86 05 fc ff ff    	jbe    805037d <exit@plt+0x7165>
 8050778:	8b 85 f4 fc ff ff    	mov    -0x30c(%ebp),%eax
 805077e:	8b 8d c8 fc ff ff    	mov    -0x338(%ebp),%ecx
 8050784:	2b 85 c8 fc ff ff    	sub    -0x338(%ebp),%eax
 805078a:	03 85 f0 fc ff ff    	add    -0x310(%ebp),%eax
 8050790:	01 c1                	add    %eax,%ecx
 8050792:	f6 85 b4 fc ff ff 02 	testb  $0x2,-0x34c(%ebp)
 8050799:	89 85 f0 fc ff ff    	mov    %eax,-0x310(%ebp)
 805079f:	89 8d c0 fc ff ff    	mov    %ecx,-0x340(%ebp)
 80507a5:	0f 84 5d 05 00 00    	je     8050d08 <exit@plt+0x7af0>
 80507ab:	31 c0                	xor    %eax,%eax
 80507ad:	83 bd f0 fc ff ff 00 	cmpl   $0x0,-0x310(%ebp)
 80507b4:	0f 84 fd 05 00 00    	je     8050db7 <exit@plt+0x7b9f>
 80507ba:	89 bd d0 fc ff ff    	mov    %edi,-0x330(%ebp)
 80507c0:	8b 8d c8 fc ff ff    	mov    -0x338(%ebp),%ecx
 80507c6:	8b bd f0 fc ff ff    	mov    -0x310(%ebp),%edi
 80507cc:	8d 74 26 00          	lea    0x0(%esi,%eiz,1),%esi
 80507d0:	c6 04 01 20          	movb   $0x20,(%ecx,%eax,1)
 80507d4:	83 c0 01             	add    $0x1,%eax
 80507d7:	39 f8                	cmp    %edi,%eax
 80507d9:	75 f5                	jne    80507d0 <exit@plt+0x75b8>
 80507db:	8b 8d c0 fc ff ff    	mov    -0x340(%ebp),%ecx
 80507e1:	8b bd d0 fc ff ff    	mov    -0x330(%ebp),%edi
 80507e7:	2b 8d f4 fc ff ff    	sub    -0x30c(%ebp),%ecx
 80507ed:	e9 8b fb ff ff       	jmp    805037d <exit@plt+0x7165>
 80507f2:	8d b6 00 00 00 00    	lea    0x0(%esi),%esi
 80507f8:	d9 bd 26 fd ff ff    	fnstcw -0x2da(%ebp)
 80507fe:	0f b7 8d 26 fd ff ff 	movzwl -0x2da(%ebp),%ecx
 8050805:	89 c8                	mov    %ecx,%eax
 8050807:	80 cc 03             	or     $0x3,%ah
 805080a:	66 89 8d b0 fc ff ff 	mov    %cx,-0x350(%ebp)
 8050811:	66 89 85 26 fd ff ff 	mov    %ax,-0x2da(%ebp)
 8050818:	d9 ad 26 fd ff ff    	fldcw  -0x2da(%ebp)
 805081e:	d9 e5                	fxam   
 8050820:	df e0                	fnstsw %ax
 8050822:	f6 c4 02             	test   $0x2,%ah
 8050825:	0f 84 32 02 00 00    	je     8050a5d <exit@plt+0x7845>
 805082b:	8b 85 f4 fc ff ff    	mov    -0x30c(%ebp),%eax
 8050831:	d9 e0                	fchs   
 8050833:	c6 00 2d             	movb   $0x2d,(%eax)
 8050836:	83 c0 01             	add    $0x1,%eax
 8050839:	89 85 d0 fc ff ff    	mov    %eax,-0x330(%ebp)
 805083f:	d9 ee                	fldz   
 8050841:	d9 c9                	fxch   %st(1)
 8050843:	dd e1                	fucom  %st(1)
 8050845:	df e0                	fnstsw %ax
 8050847:	dd d9                	fstp   %st(1)
 8050849:	9e                   	sahf   
 805084a:	0f 86 c2 00 00 00    	jbe    8050912 <exit@plt+0x76fa>
 8050850:	d9 c0                	fld    %st(0)
 8050852:	d8 c1                	fadd   %st(1),%st
 8050854:	dd e9                	fucomp %st(1)
 8050856:	df e0                	fnstsw %ax
 8050858:	9e                   	sahf   
 8050859:	0f 85 b3 00 00 00    	jne    8050912 <exit@plt+0x76fa>
 805085f:	0f 8a ad 00 00 00    	jp     8050912 <exit@plt+0x76fa>
 8050865:	dd d8                	fstp   %st(0)
 8050867:	0f b6 46 24          	movzbl 0x24(%esi),%eax
 805086b:	83 e8 41             	sub    $0x41,%eax
 805086e:	3c 19                	cmp    $0x19,%al
 8050870:	0f 87 54 06 00 00    	ja     8050eca <exit@plt+0x7cb2>
 8050876:	8b 8d d0 fc ff ff    	mov    -0x330(%ebp),%ecx
 805087c:	c6 01 49             	movb   $0x49,(%ecx)
 805087f:	c6 41 01 4e          	movb   $0x4e,0x1(%ecx)
 8050883:	c6 41 02 46          	movb   $0x46,0x2(%ecx)
 8050887:	83 c1 03             	add    $0x3,%ecx
 805088a:	89 8d c8 fc ff ff    	mov    %ecx,-0x338(%ebp)
 8050890:	c7 85 d0 fc ff ff 00 	movl   $0x0,-0x330(%ebp)
 8050897:	00 00 00 
 805089a:	8d b6 00 00 00 00    	lea    0x0(%esi),%esi
 80508a0:	0f b7 8d b0 fc ff ff 	movzwl -0x350(%ebp),%ecx
 80508a7:	66 89 8d 26 fd ff ff 	mov    %cx,-0x2da(%ebp)
 80508ae:	d9 ad 26 fd ff ff    	fldcw  -0x2da(%ebp)
 80508b4:	e9 aa fa ff ff       	jmp    8050363 <exit@plt+0x714b>
 80508b9:	8d b4 26 00 00 00 00 	lea    0x0(%esi,%eiz,1),%esi
 80508c0:	85 f6                	test   %esi,%esi
 80508c2:	0f 85 27 04 00 00    	jne    8050cef <exit@plt+0x7ad7>
 80508c8:	8b 8d a4 fc ff ff    	mov    -0x35c(%ebp),%ecx
 80508ce:	85 c9                	test   %ecx,%ecx
 80508d0:	74 0e                	je     80508e0 <exit@plt+0x76c8>
 80508d2:	8b 85 a4 fc ff ff    	mov    -0x35c(%ebp),%eax
 80508d8:	89 04 24             	mov    %eax,(%esp)
 80508db:	e8 18 87 ff ff       	call   8048ff8 <free@plt>
 80508e0:	8b 85 04 fd ff ff    	mov    -0x2fc(%ebp),%eax
 80508e6:	89 04 24             	mov    %eax,(%esp)
 80508e9:	e8 0a 87 ff ff       	call   8048ff8 <free@plt>
 80508ee:	8b 85 1c fd ff ff    	mov    -0x2e4(%ebp),%eax
 80508f4:	85 c0                	test   %eax,%eax
 80508f6:	74 08                	je     8050900 <exit@plt+0x76e8>
 80508f8:	89 04 24             	mov    %eax,(%esp)
 80508fb:	e8 f8 86 ff ff       	call   8048ff8 <free@plt>
 8050900:	e8 53 85 ff ff       	call   8048e58 <__errno_location@plt>
 8050905:	31 ff                	xor    %edi,%edi
 8050907:	c7 00 4b 00 00 00    	movl   $0x4b,(%eax)
 805090d:	e9 eb ea ff ff       	jmp    804f3fd <exit@plt+0x61e5>
 8050912:	d9 ee                	fldz   
 8050914:	d9 c9                	fxch   %st(1)
 8050916:	da e9                	fucompp 
 8050918:	df e0                	fnstsw %ax
 805091a:	9e                   	sahf   
 805091b:	0f 8a cf ef ff ff    	jp     804f8f0 <exit@plt+0x66d8>
 8050921:	0f 85 c9 ef ff ff    	jne    804f8f0 <exit@plt+0x66d8>
 8050927:	0f b6 46 24          	movzbl 0x24(%esi),%eax
 805092b:	3c 46                	cmp    $0x46,%al
 805092d:	74 08                	je     8050937 <exit@plt+0x771f>
 805092f:	3c 66                	cmp    $0x66,%al
 8050931:	0f 85 59 02 00 00    	jne    8050b90 <exit@plt+0x7978>
 8050937:	8b 8d d0 fc ff ff    	mov    -0x330(%ebp),%ecx
 805093d:	c6 01 30             	movb   $0x30,(%ecx)
 8050940:	83 c1 01             	add    $0x1,%ecx
 8050943:	89 8d c8 fc ff ff    	mov    %ecx,-0x338(%ebp)
 8050949:	8b 8d 74 fc ff ff    	mov    -0x38c(%ebp),%ecx
 805094f:	85 c9                	test   %ecx,%ecx
 8050951:	0f 95 85 ac fc ff ff 	setne  -0x354(%ebp)
 8050958:	75 0d                	jne    8050967 <exit@plt+0x774f>
 805095a:	f6 85 b4 fc ff ff 10 	testb  $0x10,-0x34c(%ebp)
 8050961:	0f 84 39 ff ff ff    	je     80508a0 <exit@plt+0x7688>
 8050967:	89 95 98 fc ff ff    	mov    %edx,-0x368(%ebp)
 805096d:	c7 04 24 00 00 01 00 	movl   $0x10000,(%esp)
 8050974:	e8 6f 87 ff ff       	call   80490e8 <nl_langinfo@plt>
 8050979:	8b 95 98 fc ff ff    	mov    -0x368(%ebp),%edx
 805097f:	0f b6 00             	movzbl (%eax),%eax
 8050982:	84 c0                	test   %al,%al
 8050984:	88 85 a0 fc ff ff    	mov    %al,-0x360(%ebp)
 805098a:	75 07                	jne    8050993 <exit@plt+0x777b>
 805098c:	c6 85 a0 fc ff ff 2e 	movb   $0x2e,-0x360(%ebp)
 8050993:	8b 8d c8 fc ff ff    	mov    -0x338(%ebp),%ecx
 8050999:	0f b6 85 a0 fc ff ff 	movzbl -0x360(%ebp),%eax
 80509a0:	88 01                	mov    %al,(%ecx)
 80509a2:	83 c1 01             	add    $0x1,%ecx
 80509a5:	80 bd ac fc ff ff 00 	cmpb   $0x0,-0x354(%ebp)
 80509ac:	89 8d c8 fc ff ff    	mov    %ecx,-0x338(%ebp)
 80509b2:	0f 84 e8 fe ff ff    	je     80508a0 <exit@plt+0x7688>
 80509b8:	89 bd ac fc ff ff    	mov    %edi,-0x354(%ebp)
 80509be:	8b 8d 74 fc ff ff    	mov    -0x38c(%ebp),%ecx
 80509c4:	31 c0                	xor    %eax,%eax
 80509c6:	8b bd d0 fc ff ff    	mov    -0x330(%ebp),%edi
 80509cc:	8d 74 26 00          	lea    0x0(%esi,%eiz,1),%esi
 80509d0:	c6 44 07 02 30       	movb   $0x30,0x2(%edi,%eax,1)
 80509d5:	83 c0 01             	add    $0x1,%eax
 80509d8:	39 c8                	cmp    %ecx,%eax
 80509da:	75 f4                	jne    80509d0 <exit@plt+0x77b8>
 80509dc:	8b bd ac fc ff ff    	mov    -0x354(%ebp),%edi
 80509e2:	01 85 c8 fc ff ff    	add    %eax,-0x338(%ebp)
 80509e8:	e9 b3 fe ff ff       	jmp    80508a0 <exit@plt+0x7688>
 80509ed:	8b 85 04 fd ff ff    	mov    -0x2fc(%ebp),%eax
 80509f3:	89 04 24             	mov    %eax,(%esp)
 80509f6:	e8 fd 85 ff ff       	call   8048ff8 <free@plt>
 80509fb:	8b 85 1c fd ff ff    	mov    -0x2e4(%ebp),%eax
 8050a01:	85 c0                	test   %eax,%eax
 8050a03:	74 08                	je     8050a0d <exit@plt+0x77f5>
 8050a05:	89 04 24             	mov    %eax,(%esp)
 8050a08:	e8 eb 85 ff ff       	call   8048ff8 <free@plt>
 8050a0d:	e8 46 84 ff ff       	call   8048e58 <__errno_location@plt>
 8050a12:	31 ff                	xor    %edi,%edi
 8050a14:	c7 00 16 00 00 00    	movl   $0x16,(%eax)
 8050a1a:	e9 de e9 ff ff       	jmp    804f3fd <exit@plt+0x61e5>
 8050a1f:	8d 04 39             	lea    (%ecx,%edi,1),%eax
 8050a22:	89 85 f0 fc ff ff    	mov    %eax,-0x310(%ebp)
 8050a28:	e9 f8 f9 ff ff       	jmp    8050425 <exit@plt+0x720d>
 8050a2d:	0f 8c 75 f7 ff ff    	jl     80501a8 <exit@plt+0x6f90>
 8050a33:	01 db                	add    %ebx,%ebx
 8050a35:	e9 13 f7 ff ff       	jmp    805014d <exit@plt+0x6f35>
 8050a3a:	8b 8d 74 fc ff ff    	mov    -0x38c(%ebp),%ecx
 8050a40:	83 c1 0c             	add    $0xc,%ecx
 8050a43:	0f 83 62 f8 ff ff    	jae    80502ab <exit@plt+0x7093>
 8050a49:	c7 85 d8 fc ff ff 00 	movl   $0x0,-0x328(%ebp)
 8050a50:	00 00 00 
 8050a53:	b9 ff ff ff ff       	mov    $0xffffffff,%ecx
 8050a58:	e9 6f f8 ff ff       	jmp    80502cc <exit@plt+0x70b4>
 8050a5d:	f6 85 b4 fc ff ff 04 	testb  $0x4,-0x34c(%ebp)
 8050a64:	0f 84 8c 01 00 00    	je     8050bf6 <exit@plt+0x79de>
 8050a6a:	8b 8d f4 fc ff ff    	mov    -0x30c(%ebp),%ecx
 8050a70:	c6 01 2b             	movb   $0x2b,(%ecx)
 8050a73:	83 c1 01             	add    $0x1,%ecx
 8050a76:	89 8d d0 fc ff ff    	mov    %ecx,-0x330(%ebp)
 8050a7c:	e9 be fd ff ff       	jmp    805083f <exit@plt+0x7627>
 8050a81:	8b 85 f4 fc ff ff    	mov    -0x30c(%ebp),%eax
 8050a87:	c6 00 6e             	movb   $0x6e,(%eax)
 8050a8a:	c6 40 01 61          	movb   $0x61,0x1(%eax)
 8050a8e:	c6 40 02 6e          	movb   $0x6e,0x2(%eax)
 8050a92:	83 c0 03             	add    $0x3,%eax
 8050a95:	89 85 c8 fc ff ff    	mov    %eax,-0x338(%ebp)
 8050a9b:	c7 85 d0 fc ff ff 00 	movl   $0x0,-0x330(%ebp)
 8050aa2:	00 00 00 
 8050aa5:	e9 b9 f8 ff ff       	jmp    8050363 <exit@plt+0x714b>
 8050aaa:	83 c0 01             	add    $0x1,%eax
 8050aad:	39 85 f4 fc ff ff    	cmp    %eax,-0x30c(%ebp)
 8050ab3:	0f 84 ff 01 00 00    	je     8050cb8 <exit@plt+0x7aa0>
 8050ab9:	89 bd d8 fc ff ff    	mov    %edi,-0x328(%ebp)
 8050abf:	8b bd f4 fc ff ff    	mov    -0x30c(%ebp),%edi
 8050ac5:	31 c9                	xor    %ecx,%ecx
 8050ac7:	c7 85 74 fc ff ff 00 	movl   $0x0,-0x38c(%ebp)
 8050ace:	00 00 00 
 8050ad1:	89 9d d0 fc ff ff    	mov    %ebx,-0x330(%ebp)
 8050ad7:	89 95 c8 fc ff ff    	mov    %edx,-0x338(%ebp)
 8050add:	8d 76 00             	lea    0x0(%esi),%esi
 8050ae0:	0f b6 18             	movzbl (%eax),%ebx
 8050ae3:	83 c0 01             	add    $0x1,%eax
 8050ae6:	81 f9 99 99 99 19    	cmp    $0x19999999,%ecx
 8050aec:	ba ff ff ff ff       	mov    $0xffffffff,%edx
 8050af1:	77 05                	ja     8050af8 <exit@plt+0x78e0>
 8050af3:	8d 14 89             	lea    (%ecx,%ecx,4),%edx
 8050af6:	01 d2                	add    %edx,%edx
 8050af8:	0f be db             	movsbl %bl,%ebx
 8050afb:	8d 4c 1a d0          	lea    -0x30(%edx,%ebx,1),%ecx
 8050aff:	39 d1                	cmp    %edx,%ecx
 8050b01:	19 d2                	sbb    %edx,%edx
 8050b03:	09 d1                	or     %edx,%ecx
 8050b05:	39 f8                	cmp    %edi,%eax
 8050b07:	75 d7                	jne    8050ae0 <exit@plt+0x78c8>
 8050b09:	89 8d 74 fc ff ff    	mov    %ecx,-0x38c(%ebp)
 8050b0f:	8b bd d8 fc ff ff    	mov    -0x328(%ebp),%edi
 8050b15:	8b 9d d0 fc ff ff    	mov    -0x330(%ebp),%ebx
 8050b1b:	8b 95 c8 fc ff ff    	mov    -0x338(%ebp),%edx
 8050b21:	e9 72 f7 ff ff       	jmp    8050298 <exit@plt+0x7080>
 8050b26:	89 bd d8 fc ff ff    	mov    %edi,-0x328(%ebp)
 8050b2c:	31 c9                	xor    %ecx,%ecx
 8050b2e:	89 d7                	mov    %edx,%edi
 8050b30:	c7 85 f0 fc ff ff 00 	movl   $0x0,-0x310(%ebp)
 8050b37:	00 00 00 
 8050b3a:	89 9d d0 fc ff ff    	mov    %ebx,-0x330(%ebp)
 8050b40:	0f b6 10             	movzbl (%eax),%edx
 8050b43:	83 c0 01             	add    $0x1,%eax
 8050b46:	81 f9 99 99 99 19    	cmp    $0x19999999,%ecx
 8050b4c:	bb ff ff ff ff       	mov    $0xffffffff,%ebx
 8050b51:	77 05                	ja     8050b58 <exit@plt+0x7940>
 8050b53:	8d 1c 89             	lea    (%ecx,%ecx,4),%ebx
 8050b56:	01 db                	add    %ebx,%ebx
 8050b58:	0f be d2             	movsbl %dl,%edx
 8050b5b:	8d 4c 13 d0          	lea    -0x30(%ebx,%edx,1),%ecx
 8050b5f:	39 d9                	cmp    %ebx,%ecx
 8050b61:	19 d2                	sbb    %edx,%edx
 8050b63:	09 d1                	or     %edx,%ecx
 8050b65:	39 85 f4 fc ff ff    	cmp    %eax,-0x30c(%ebp)
 8050b6b:	75 d3                	jne    8050b40 <exit@plt+0x7928>
 8050b6d:	89 fa                	mov    %edi,%edx
 8050b6f:	8b 9d d0 fc ff ff    	mov    -0x330(%ebp),%ebx
 8050b75:	89 8d f0 fc ff ff    	mov    %ecx,-0x310(%ebp)
 8050b7b:	8b bd d8 fc ff ff    	mov    -0x328(%ebp),%edi
 8050b81:	c7 85 c0 fc ff ff 01 	movl   $0x1,-0x340(%ebp)
 8050b88:	00 00 00 
 8050b8b:	e9 c5 f6 ff ff       	jmp    8050255 <exit@plt+0x703d>
 8050b90:	3c 45                	cmp    $0x45,%al
 8050b92:	74 08                	je     8050b9c <exit@plt+0x7984>
 8050b94:	3c 65                	cmp    $0x65,%al
 8050b96:	0f 85 60 02 00 00    	jne    8050dfc <exit@plt+0x7be4>
 8050b9c:	8b 85 d0 fc ff ff    	mov    -0x330(%ebp),%eax
 8050ba2:	c6 00 30             	movb   $0x30,(%eax)
 8050ba5:	83 c0 01             	add    $0x1,%eax
 8050ba8:	89 85 c8 fc ff ff    	mov    %eax,-0x338(%ebp)
 8050bae:	8b 85 74 fc ff ff    	mov    -0x38c(%ebp),%eax
 8050bb4:	85 c0                	test   %eax,%eax
 8050bb6:	0f 95 85 ac fc ff ff 	setne  -0x354(%ebp)
 8050bbd:	0f 85 47 04 00 00    	jne    805100a <exit@plt+0x7df2>
 8050bc3:	f6 85 b4 fc ff ff 10 	testb  $0x10,-0x34c(%ebp)
 8050bca:	0f 85 3a 04 00 00    	jne    805100a <exit@plt+0x7df2>
 8050bd0:	8b 8d c8 fc ff ff    	mov    -0x338(%ebp),%ecx
 8050bd6:	0f b6 46 24          	movzbl 0x24(%esi),%eax
 8050bda:	c6 41 01 2b          	movb   $0x2b,0x1(%ecx)
 8050bde:	88 01                	mov    %al,(%ecx)
 8050be0:	c6 41 02 30          	movb   $0x30,0x2(%ecx)
 8050be4:	c6 41 03 30          	movb   $0x30,0x3(%ecx)
 8050be8:	83 c1 04             	add    $0x4,%ecx
 8050beb:	89 8d c8 fc ff ff    	mov    %ecx,-0x338(%ebp)
 8050bf1:	e9 aa fc ff ff       	jmp    80508a0 <exit@plt+0x7688>
 8050bf6:	8b 85 f4 fc ff ff    	mov    -0x30c(%ebp),%eax
 8050bfc:	f6 85 b4 fc ff ff 08 	testb  $0x8,-0x34c(%ebp)
 8050c03:	89 85 d0 fc ff ff    	mov    %eax,-0x330(%ebp)
 8050c09:	0f 84 30 fc ff ff    	je     805083f <exit@plt+0x7627>
 8050c0f:	89 c1                	mov    %eax,%ecx
 8050c11:	83 c1 01             	add    $0x1,%ecx
 8050c14:	c6 00 20             	movb   $0x20,(%eax)
 8050c17:	89 8d d0 fc ff ff    	mov    %ecx,-0x330(%ebp)
 8050c1d:	e9 1d fc ff ff       	jmp    805083f <exit@plt+0x7627>
 8050c22:	89 14 24             	mov    %edx,(%esp)
 8050c25:	89 95 98 fc ff ff    	mov    %edx,-0x368(%ebp)
 8050c2b:	89 8d 9c fc ff ff    	mov    %ecx,-0x364(%ebp)
 8050c31:	89 5c 24 04          	mov    %ebx,0x4(%esp)
 8050c35:	e8 8e 82 ff ff       	call   8048ec8 <realloc@plt>
 8050c3a:	8b 8d 9c fc ff ff    	mov    -0x364(%ebp),%ecx
 8050c40:	8b 95 98 fc ff ff    	mov    -0x368(%ebp),%edx
 8050c46:	89 85 d8 fc ff ff    	mov    %eax,-0x328(%ebp)
 8050c4c:	e9 b8 f7 ff ff       	jmp    8050409 <exit@plt+0x71f1>
 8050c51:	0f 8c f1 f3 ff ff    	jl     8050048 <exit@plt+0x6e30>
 8050c57:	01 db                	add    %ebx,%ebx
 8050c59:	e9 58 f7 ff ff       	jmp    80503b6 <exit@plt+0x719e>
 8050c5e:	f7 d9                	neg    %ecx
 8050c60:	83 8d b4 fc ff ff 02 	orl    $0x2,-0x34c(%ebp)
 8050c67:	89 8d f0 fc ff ff    	mov    %ecx,-0x310(%ebp)
 8050c6d:	e9 e3 f5 ff ff       	jmp    8050255 <exit@plt+0x703d>
 8050c72:	8d 04 1b             	lea    (%ebx,%ebx,1),%eax
 8050c75:	c1 fb 1f             	sar    $0x1f,%ebx
 8050c78:	09 c3                	or     %eax,%ebx
 8050c7a:	e9 5e f9 ff ff       	jmp    80505dd <exit@plt+0x73c5>
 8050c7f:	89 95 98 fc ff ff    	mov    %edx,-0x368(%ebp)
 8050c85:	89 74 24 04          	mov    %esi,0x4(%esp)
 8050c89:	89 3c 24             	mov    %edi,(%esp)
 8050c8c:	e8 37 82 ff ff       	call   8048ec8 <realloc@plt>
 8050c91:	8b 95 98 fc ff ff    	mov    -0x368(%ebp),%edx
 8050c97:	85 c0                	test   %eax,%eax
 8050c99:	0f 84 b1 f9 ff ff    	je     8050650 <exit@plt+0x7438>
 8050c9f:	89 c7                	mov    %eax,%edi
 8050ca1:	e9 aa f9 ff ff       	jmp    8050650 <exit@plt+0x7438>
 8050ca6:	0f b6 46 24          	movzbl 0x24(%esi),%eax
 8050caa:	3c 41                	cmp    $0x41,%al
 8050cac:	88 85 f4 fc ff ff    	mov    %al,-0x30c(%ebp)
 8050cb2:	0f 85 f6 01 00 00    	jne    8050eae <exit@plt+0x7c96>
 8050cb8:	c7 85 74 fc ff ff 00 	movl   $0x0,-0x38c(%ebp)
 8050cbf:	00 00 00 
 8050cc2:	b9 0c 00 00 00       	mov    $0xc,%ecx
 8050cc7:	e9 df f5 ff ff       	jmp    80502ab <exit@plt+0x7093>
 8050ccc:	8d 74 26 00          	lea    0x0(%esi,%eiz,1),%esi
 8050cd0:	89 95 98 fc ff ff    	mov    %edx,-0x368(%ebp)
 8050cd6:	89 5c 24 04          	mov    %ebx,0x4(%esp)
 8050cda:	89 3c 24             	mov    %edi,(%esp)
 8050cdd:	e8 e6 81 ff ff       	call   8048ec8 <realloc@plt>
 8050ce2:	8b 95 98 fc ff ff    	mov    -0x368(%ebp),%edx
 8050ce8:	89 c1                	mov    %eax,%ecx
 8050cea:	e9 3f f9 ff ff       	jmp    805062e <exit@plt+0x7416>
 8050cef:	3b b5 cc fc ff ff    	cmp    -0x334(%ebp),%esi
 8050cf5:	0f 84 cd fb ff ff    	je     80508c8 <exit@plt+0x76b0>
 8050cfb:	89 34 24             	mov    %esi,(%esp)
 8050cfe:	e8 f5 82 ff ff       	call   8048ff8 <free@plt>
 8050d03:	e9 c0 fb ff ff       	jmp    80508c8 <exit@plt+0x76b0>
 8050d08:	8b 85 d0 fc ff ff    	mov    -0x330(%ebp),%eax
 8050d0e:	85 c0                	test   %eax,%eax
 8050d10:	74 0d                	je     8050d1f <exit@plt+0x7b07>
 8050d12:	f6 85 b4 fc ff ff 20 	testb  $0x20,-0x34c(%ebp)
 8050d19:	0f 85 d4 01 00 00    	jne    8050ef3 <exit@plt+0x7cdb>
 8050d1f:	8b 85 c0 fc ff ff    	mov    -0x340(%ebp),%eax
 8050d25:	8b 8d f4 fc ff ff    	mov    -0x30c(%ebp),%ecx
 8050d2b:	89 85 d0 fc ff ff    	mov    %eax,-0x330(%ebp)
 8050d31:	8b 85 c8 fc ff ff    	mov    -0x338(%ebp),%eax
 8050d37:	39 c8                	cmp    %ecx,%eax
 8050d39:	76 44                	jbe    8050d7f <exit@plt+0x7b67>
 8050d3b:	8b 8d d0 fc ff ff    	mov    -0x330(%ebp),%ecx
 8050d41:	89 bd d0 fc ff ff    	mov    %edi,-0x330(%ebp)
 8050d47:	8b bd f4 fc ff ff    	mov    -0x30c(%ebp),%edi
 8050d4d:	89 9d c8 fc ff ff    	mov    %ebx,-0x338(%ebp)
 8050d53:	90                   	nop
 8050d54:	8d 74 26 00          	lea    0x0(%esi,%eiz,1),%esi
 8050d58:	83 e8 01             	sub    $0x1,%eax
 8050d5b:	83 e9 01             	sub    $0x1,%ecx
 8050d5e:	0f b6 18             	movzbl (%eax),%ebx
 8050d61:	39 c7                	cmp    %eax,%edi
 8050d63:	88 19                	mov    %bl,(%ecx)
 8050d65:	72 f1                	jb     8050d58 <exit@plt+0x7b40>
 8050d67:	8b 85 f4 fc ff ff    	mov    -0x30c(%ebp),%eax
 8050d6d:	8b bd d0 fc ff ff    	mov    -0x330(%ebp),%edi
 8050d73:	8b 9d c8 fc ff ff    	mov    -0x338(%ebp),%ebx
 8050d79:	89 85 c8 fc ff ff    	mov    %eax,-0x338(%ebp)
 8050d7f:	8b 8d f0 fc ff ff    	mov    -0x310(%ebp),%ecx
 8050d85:	31 c0                	xor    %eax,%eax
 8050d87:	85 c9                	test   %ecx,%ecx
 8050d89:	74 26                	je     8050db1 <exit@plt+0x7b99>
 8050d8b:	89 bd d0 fc ff ff    	mov    %edi,-0x330(%ebp)
 8050d91:	8b 8d c8 fc ff ff    	mov    -0x338(%ebp),%ecx
 8050d97:	8b bd f0 fc ff ff    	mov    -0x310(%ebp),%edi
 8050d9d:	8d 76 00             	lea    0x0(%esi),%esi
 8050da0:	c6 04 01 20          	movb   $0x20,(%ecx,%eax,1)
 8050da4:	83 c0 01             	add    $0x1,%eax
 8050da7:	39 c7                	cmp    %eax,%edi
 8050da9:	75 f5                	jne    8050da0 <exit@plt+0x7b88>
 8050dab:	8b bd d0 fc ff ff    	mov    -0x330(%ebp),%edi
 8050db1:	8b 8d c0 fc ff ff    	mov    -0x340(%ebp),%ecx
 8050db7:	2b 8d f4 fc ff ff    	sub    -0x30c(%ebp),%ecx
 8050dbd:	e9 bb f5 ff ff       	jmp    805037d <exit@plt+0x7165>
 8050dc2:	80 bd d0 fc ff ff 00 	cmpb   $0x0,-0x330(%ebp)
 8050dc9:	0f 84 50 f6 ff ff    	je     805041f <exit@plt+0x7207>
 8050dcf:	89 54 24 04          	mov    %edx,0x4(%esp)
 8050dd3:	8b 95 d8 fc ff ff    	mov    -0x328(%ebp),%edx
 8050dd9:	89 8d 9c fc ff ff    	mov    %ecx,-0x364(%ebp)
 8050ddf:	89 7c 24 08          	mov    %edi,0x8(%esp)
 8050de3:	89 14 24             	mov    %edx,(%esp)
 8050de6:	e8 7d 82 ff ff       	call   8049068 <memcpy@plt>
 8050deb:	8b 95 d8 fc ff ff    	mov    -0x328(%ebp),%edx
 8050df1:	8b 8d 9c fc ff ff    	mov    -0x364(%ebp),%ecx
 8050df7:	e9 29 f6 ff ff       	jmp    8050425 <exit@plt+0x720d>
 8050dfc:	3c 47                	cmp    $0x47,%al
 8050dfe:	74 08                	je     8050e08 <exit@plt+0x7bf0>
 8050e00:	3c 67                	cmp    $0x67,%al
 8050e02:	0f 85 78 01 00 00    	jne    8050f80 <exit@plt+0x7d68>
 8050e08:	8b 85 d0 fc ff ff    	mov    -0x330(%ebp),%eax
 8050e0e:	c6 00 30             	movb   $0x30,(%eax)
 8050e11:	83 c0 01             	add    $0x1,%eax
 8050e14:	f6 85 b4 fc ff ff 10 	testb  $0x10,-0x34c(%ebp)
 8050e1b:	89 85 c8 fc ff ff    	mov    %eax,-0x338(%ebp)
 8050e21:	0f 84 79 fa ff ff    	je     80508a0 <exit@plt+0x7688>
 8050e27:	8b 8d 74 fc ff ff    	mov    -0x38c(%ebp),%ecx
 8050e2d:	89 95 98 fc ff ff    	mov    %edx,-0x368(%ebp)
 8050e33:	c7 04 24 00 00 01 00 	movl   $0x10000,(%esp)
 8050e3a:	83 e9 01             	sub    $0x1,%ecx
 8050e3d:	83 bd 74 fc ff ff 01 	cmpl   $0x1,-0x38c(%ebp)
 8050e44:	19 c0                	sbb    %eax,%eax
 8050e46:	f7 d0                	not    %eax
 8050e48:	21 c1                	and    %eax,%ecx
 8050e4a:	89 8d ac fc ff ff    	mov    %ecx,-0x354(%ebp)
 8050e50:	e8 93 82 ff ff       	call   80490e8 <nl_langinfo@plt>
 8050e55:	8b 95 98 fc ff ff    	mov    -0x368(%ebp),%edx
 8050e5b:	0f b6 00             	movzbl (%eax),%eax
 8050e5e:	84 c0                	test   %al,%al
 8050e60:	75 05                	jne    8050e67 <exit@plt+0x7c4f>
 8050e62:	b8 2e 00 00 00       	mov    $0x2e,%eax
 8050e67:	8b 8d c8 fc ff ff    	mov    -0x338(%ebp),%ecx
 8050e6d:	88 01                	mov    %al,(%ecx)
 8050e6f:	83 c1 01             	add    $0x1,%ecx
 8050e72:	83 bd ac fc ff ff 00 	cmpl   $0x0,-0x354(%ebp)
 8050e79:	89 8d c8 fc ff ff    	mov    %ecx,-0x338(%ebp)
 8050e7f:	0f 84 1b fa ff ff    	je     80508a0 <exit@plt+0x7688>
 8050e85:	8b 8d d0 fc ff ff    	mov    -0x330(%ebp),%ecx
 8050e8b:	31 c0                	xor    %eax,%eax
 8050e8d:	c6 44 01 02 30       	movb   $0x30,0x2(%ecx,%eax,1)
 8050e92:	83 c0 01             	add    $0x1,%eax
 8050e95:	39 85 ac fc ff ff    	cmp    %eax,-0x354(%ebp)
 8050e9b:	75 f0                	jne    8050e8d <exit@plt+0x7c75>
 8050e9d:	8b 85 ac fc ff ff    	mov    -0x354(%ebp),%eax
 8050ea3:	01 85 c8 fc ff ff    	add    %eax,-0x338(%ebp)
 8050ea9:	e9 f2 f9 ff ff       	jmp    80508a0 <exit@plt+0x7688>
 8050eae:	3c 61                	cmp    $0x61,%al
 8050eb0:	b9 12 00 00 00       	mov    $0x12,%ecx
 8050eb5:	c7 85 74 fc ff ff 06 	movl   $0x6,-0x38c(%ebp)
 8050ebc:	00 00 00 
 8050ebf:	0f 85 e6 f3 ff ff    	jne    80502ab <exit@plt+0x7093>
 8050ec5:	e9 ee fd ff ff       	jmp    8050cb8 <exit@plt+0x7aa0>
 8050eca:	8b 85 d0 fc ff ff    	mov    -0x330(%ebp),%eax
 8050ed0:	c6 00 69             	movb   $0x69,(%eax)
 8050ed3:	c6 40 01 6e          	movb   $0x6e,0x1(%eax)
 8050ed7:	c6 40 02 66          	movb   $0x66,0x2(%eax)
 8050edb:	83 c0 03             	add    $0x3,%eax
 8050ede:	89 85 c8 fc ff ff    	mov    %eax,-0x338(%ebp)
 8050ee4:	c7 85 d0 fc ff ff 00 	movl   $0x0,-0x330(%ebp)
 8050eeb:	00 00 00 
 8050eee:	e9 ad f9 ff ff       	jmp    80508a0 <exit@plt+0x7688>
 8050ef3:	8b 85 d0 fc ff ff    	mov    -0x330(%ebp),%eax
 8050ef9:	39 85 c8 fc ff ff    	cmp    %eax,-0x338(%ebp)
 8050eff:	76 46                	jbe    8050f47 <exit@plt+0x7d2f>
 8050f01:	8b 85 c8 fc ff ff    	mov    -0x338(%ebp),%eax
 8050f07:	8b 8d c0 fc ff ff    	mov    -0x340(%ebp),%ecx
 8050f0d:	89 bd c8 fc ff ff    	mov    %edi,-0x338(%ebp)
 8050f13:	8b bd d0 fc ff ff    	mov    -0x330(%ebp),%edi
 8050f19:	89 9d b4 fc ff ff    	mov    %ebx,-0x34c(%ebp)
 8050f1f:	90                   	nop
 8050f20:	83 e8 01             	sub    $0x1,%eax
 8050f23:	83 e9 01             	sub    $0x1,%ecx
 8050f26:	0f b6 18             	movzbl (%eax),%ebx
 8050f29:	39 c7                	cmp    %eax,%edi
 8050f2b:	88 19                	mov    %bl,(%ecx)
 8050f2d:	72 f1                	jb     8050f20 <exit@plt+0x7d08>
 8050f2f:	8b 8d d0 fc ff ff    	mov    -0x330(%ebp),%ecx
 8050f35:	8b 9d b4 fc ff ff    	mov    -0x34c(%ebp),%ebx
 8050f3b:	8b bd c8 fc ff ff    	mov    -0x338(%ebp),%edi
 8050f41:	89 8d c8 fc ff ff    	mov    %ecx,-0x338(%ebp)
 8050f47:	8b 8d f0 fc ff ff    	mov    -0x310(%ebp),%ecx
 8050f4d:	31 c0                	xor    %eax,%eax
 8050f4f:	85 c9                	test   %ecx,%ecx
 8050f51:	0f 84 5a fe ff ff    	je     8050db1 <exit@plt+0x7b99>
 8050f57:	89 bd d0 fc ff ff    	mov    %edi,-0x330(%ebp)
 8050f5d:	8b 8d c8 fc ff ff    	mov    -0x338(%ebp),%ecx
 8050f63:	8b bd f0 fc ff ff    	mov    -0x310(%ebp),%edi
 8050f69:	8d b4 26 00 00 00 00 	lea    0x0(%esi,%eiz,1),%esi
 8050f70:	c6 04 01 30          	movb   $0x30,(%ecx,%eax,1)
 8050f74:	83 c0 01             	add    $0x1,%eax
 8050f77:	39 c7                	cmp    %eax,%edi
 8050f79:	75 f5                	jne    8050f70 <exit@plt+0x7d58>
 8050f7b:	e9 2b fe ff ff       	jmp    8050dab <exit@plt+0x7b93>
 8050f80:	3c 41                	cmp    $0x41,%al
 8050f82:	0f 85 8b 01 00 00    	jne    8051113 <exit@plt+0x7efb>
 8050f88:	8b 8d d0 fc ff ff    	mov    -0x330(%ebp),%ecx
 8050f8e:	c6 01 30             	movb   $0x30,(%ecx)
 8050f91:	0f b6 46 24          	movzbl 0x24(%esi),%eax
 8050f95:	83 c0 17             	add    $0x17,%eax
 8050f98:	88 41 01             	mov    %al,0x1(%ecx)
 8050f9b:	8b 85 d0 fc ff ff    	mov    -0x330(%ebp),%eax
 8050fa1:	83 c1 02             	add    $0x2,%ecx
 8050fa4:	89 8d a0 fc ff ff    	mov    %ecx,-0x360(%ebp)
 8050faa:	c6 40 02 30          	movb   $0x30,0x2(%eax)
 8050fae:	8b 8d 74 fc ff ff    	mov    -0x38c(%ebp),%ecx
 8050fb4:	83 c0 03             	add    $0x3,%eax
 8050fb7:	89 85 c8 fc ff ff    	mov    %eax,-0x338(%ebp)
 8050fbd:	85 c9                	test   %ecx,%ecx
 8050fbf:	0f 95 85 ac fc ff ff 	setne  -0x354(%ebp)
 8050fc6:	0f 85 c0 00 00 00    	jne    805108c <exit@plt+0x7e74>
 8050fcc:	f6 85 b4 fc ff ff 10 	testb  $0x10,-0x34c(%ebp)
 8050fd3:	0f 85 b3 00 00 00    	jne    805108c <exit@plt+0x7e74>
 8050fd9:	0f b6 46 24          	movzbl 0x24(%esi),%eax
 8050fdd:	8b 8d c8 fc ff ff    	mov    -0x338(%ebp),%ecx
 8050fe3:	83 c0 0f             	add    $0xf,%eax
 8050fe6:	88 01                	mov    %al,(%ecx)
 8050fe8:	c6 41 01 2b          	movb   $0x2b,0x1(%ecx)
 8050fec:	c6 41 02 30          	movb   $0x30,0x2(%ecx)
 8050ff0:	8b 85 a0 fc ff ff    	mov    -0x360(%ebp),%eax
 8050ff6:	83 c1 03             	add    $0x3,%ecx
 8050ff9:	89 8d c8 fc ff ff    	mov    %ecx,-0x338(%ebp)
 8050fff:	89 85 d0 fc ff ff    	mov    %eax,-0x330(%ebp)
 8051005:	e9 96 f8 ff ff       	jmp    80508a0 <exit@plt+0x7688>
 805100a:	89 95 98 fc ff ff    	mov    %edx,-0x368(%ebp)
 8051010:	c7 04 24 00 00 01 00 	movl   $0x10000,(%esp)
 8051017:	e8 cc 80 ff ff       	call   80490e8 <nl_langinfo@plt>
 805101c:	8b 95 98 fc ff ff    	mov    -0x368(%ebp),%edx
 8051022:	0f b6 00             	movzbl (%eax),%eax
 8051025:	84 c0                	test   %al,%al
 8051027:	88 85 a0 fc ff ff    	mov    %al,-0x360(%ebp)
 805102d:	75 07                	jne    8051036 <exit@plt+0x7e1e>
 805102f:	c6 85 a0 fc ff ff 2e 	movb   $0x2e,-0x360(%ebp)
 8051036:	8b 85 c8 fc ff ff    	mov    -0x338(%ebp),%eax
 805103c:	0f b6 8d a0 fc ff ff 	movzbl -0x360(%ebp),%ecx
 8051043:	88 08                	mov    %cl,(%eax)
 8051045:	83 c0 01             	add    $0x1,%eax
 8051048:	80 bd ac fc ff ff 00 	cmpb   $0x0,-0x354(%ebp)
 805104f:	89 85 c8 fc ff ff    	mov    %eax,-0x338(%ebp)
 8051055:	0f 84 75 fb ff ff    	je     8050bd0 <exit@plt+0x79b8>
 805105b:	89 bd ac fc ff ff    	mov    %edi,-0x354(%ebp)
 8051061:	8b 8d 74 fc ff ff    	mov    -0x38c(%ebp),%ecx
 8051067:	31 c0                	xor    %eax,%eax
 8051069:	8b bd d0 fc ff ff    	mov    -0x330(%ebp),%edi
 805106f:	c6 44 07 02 30       	movb   $0x30,0x2(%edi,%eax,1)
 8051074:	83 c0 01             	add    $0x1,%eax
 8051077:	39 c1                	cmp    %eax,%ecx
 8051079:	75 f4                	jne    805106f <exit@plt+0x7e57>
 805107b:	8b bd ac fc ff ff    	mov    -0x354(%ebp),%edi
 8051081:	01 8d c8 fc ff ff    	add    %ecx,-0x338(%ebp)
 8051087:	e9 44 fb ff ff       	jmp    8050bd0 <exit@plt+0x79b8>
 805108c:	89 95 98 fc ff ff    	mov    %edx,-0x368(%ebp)
 8051092:	c7 04 24 00 00 01 00 	movl   $0x10000,(%esp)
 8051099:	e8 4a 80 ff ff       	call   80490e8 <nl_langinfo@plt>
 805109e:	8b 95 98 fc ff ff    	mov    -0x368(%ebp),%edx
 80510a4:	0f b6 00             	movzbl (%eax),%eax
 80510a7:	84 c0                	test   %al,%al
 80510a9:	88 85 83 fc ff ff    	mov    %al,-0x37d(%ebp)
 80510af:	75 07                	jne    80510b8 <exit@plt+0x7ea0>
 80510b1:	c6 85 83 fc ff ff 2e 	movb   $0x2e,-0x37d(%ebp)
 80510b8:	8b 85 c8 fc ff ff    	mov    -0x338(%ebp),%eax
 80510be:	0f b6 8d 83 fc ff ff 	movzbl -0x37d(%ebp),%ecx
 80510c5:	88 08                	mov    %cl,(%eax)
 80510c7:	83 c0 01             	add    $0x1,%eax
 80510ca:	80 bd ac fc ff ff 00 	cmpb   $0x0,-0x354(%ebp)
 80510d1:	89 85 c8 fc ff ff    	mov    %eax,-0x338(%ebp)
 80510d7:	0f 84 fc fe ff ff    	je     8050fd9 <exit@plt+0x7dc1>
 80510dd:	89 bd ac fc ff ff    	mov    %edi,-0x354(%ebp)
 80510e3:	8b 8d 74 fc ff ff    	mov    -0x38c(%ebp),%ecx
 80510e9:	31 c0                	xor    %eax,%eax
 80510eb:	8b bd d0 fc ff ff    	mov    -0x330(%ebp),%edi
 80510f1:	c6 44 07 04 30       	movb   $0x30,0x4(%edi,%eax,1)
 80510f6:	83 c0 01             	add    $0x1,%eax
 80510f9:	39 c1                	cmp    %eax,%ecx
 80510fb:	75 f4                	jne    80510f1 <exit@plt+0x7ed9>
 80510fd:	8b bd ac fc ff ff    	mov    -0x354(%ebp),%edi
 8051103:	01 8d c8 fc ff ff    	add    %ecx,-0x338(%ebp)
 8051109:	e9 cb fe ff ff       	jmp    8050fd9 <exit@plt+0x7dc1>
 805110e:	e8 05 80 ff ff       	call   8049118 <__stack_chk_fail@plt>
 8051113:	3c 61                	cmp    $0x61,%al
 8051115:	0f 84 6d fe ff ff    	je     8050f88 <exit@plt+0x7d70>
 805111b:	90                   	nop
 805111c:	8d 74 26 00          	lea    0x0(%esi,%eiz,1),%esi
 8051120:	e9 cb e7 ff ff       	jmp    804f8f0 <exit@plt+0x66d8>
 8051125:	8d 41 01             	lea    0x1(%ecx),%eax
 8051128:	89 85 d8 fc ff ff    	mov    %eax,-0x328(%ebp)
 805112e:	66 90                	xchg   %ax,%ax
 8051130:	e9 97 f1 ff ff       	jmp    80502cc <exit@plt+0x70b4>
 8051135:	90                   	nop
 8051136:	90                   	nop
 8051137:	90                   	nop
 8051138:	90                   	nop
 8051139:	90                   	nop
 805113a:	90                   	nop
 805113b:	90                   	nop
 805113c:	90                   	nop
 805113d:	90                   	nop
 805113e:	90                   	nop
 805113f:	90                   	nop
 8051140:	55                   	push   %ebp
 8051141:	89 e5                	mov    %esp,%ebp
 8051143:	83 ec 08             	sub    $0x8,%esp
 8051146:	8b 4d 08             	mov    0x8(%ebp),%ecx
 8051149:	85 c9                	test   %ecx,%ecx
 805114b:	74 09                	je     8051156 <exit@plt+0x7f3e>
 805114d:	81 79 fc 4a fb 15 14 	cmpl   $0x1415fb4a,-0x4(%ecx)
 8051154:	74 02                	je     8051158 <exit@plt+0x7f40>
 8051156:	c9                   	leave  
 8051157:	c3                   	ret    
 8051158:	89 c8                	mov    %ecx,%eax
 805115a:	ba 01 ff 00 ff       	mov    $0xff00ff01,%edx
 805115f:	f7 e2                	mul    %edx
 8051161:	c1 ea 08             	shr    $0x8,%edx
 8051164:	89 d0                	mov    %edx,%eax
 8051166:	c1 e0 08             	shl    $0x8,%eax
 8051169:	8d 14 10             	lea    (%eax,%edx,1),%edx
 805116c:	89 c8                	mov    %ecx,%eax
 805116e:	29 d0                	sub    %edx,%eax
 8051170:	8d 14 85 00 53 05 08 	lea    0x8055300(,%eax,4),%edx
 8051177:	8b 04 85 00 53 05 08 	mov    0x8055300(,%eax,4),%eax
 805117e:	85 c0                	test   %eax,%eax
 8051180:	75 10                	jne    8051192 <exit@plt+0x7f7a>
 8051182:	eb d2                	jmp    8051156 <exit@plt+0x7f3e>
 8051184:	8d 74 26 00          	lea    0x0(%esi,%eiz,1),%esi
 8051188:	8d 50 f8             	lea    -0x8(%eax),%edx
 805118b:	8b 40 f8             	mov    -0x8(%eax),%eax
 805118e:	85 c0                	test   %eax,%eax
 8051190:	74 c4                	je     8051156 <exit@plt+0x7f3e>
 8051192:	39 c1                	cmp    %eax,%ecx
 8051194:	75 f2                	jne    8051188 <exit@plt+0x7f70>
 8051196:	8d 41 f8             	lea    -0x8(%ecx),%eax
 8051199:	8b 49 f8             	mov    -0x8(%ecx),%ecx
 805119c:	89 0a                	mov    %ecx,(%edx)
 805119e:	89 45 08             	mov    %eax,0x8(%ebp)
 80511a1:	c9                   	leave  
 80511a2:	e9 51 7e ff ff       	jmp    8048ff8 <free@plt>
 80511a7:	89 f6                	mov    %esi,%esi
 80511a9:	8d bc 27 00 00 00 00 	lea    0x0(%edi,%eiz,1),%edi
 80511b0:	55                   	push   %ebp
 80511b1:	89 e5                	mov    %esp,%ebp
 80511b3:	83 ec 18             	sub    $0x18,%esp
 80511b6:	8b 45 08             	mov    0x8(%ebp),%eax
 80511b9:	83 c0 08             	add    $0x8,%eax
 80511bc:	73 0a                	jae    80511c8 <exit@plt+0x7fb0>
 80511be:	31 c0                	xor    %eax,%eax
 80511c0:	c9                   	leave  
 80511c1:	c3                   	ret    
 80511c2:	8d b6 00 00 00 00    	lea    0x0(%esi),%esi
 80511c8:	89 04 24             	mov    %eax,(%esp)
 80511cb:	e8 28 7f ff ff       	call   80490f8 <malloc@plt>
 80511d0:	85 c0                	test   %eax,%eax
 80511d2:	74 ea                	je     80511be <exit@plt+0x7fa6>
 80511d4:	8d 48 08             	lea    0x8(%eax),%ecx
 80511d7:	ba 01 ff 00 ff       	mov    $0xff00ff01,%edx
 80511dc:	89 c8                	mov    %ecx,%eax
 80511de:	f7 e2                	mul    %edx
 80511e0:	c7 41 fc 4a fb 15 14 	movl   $0x1415fb4a,-0x4(%ecx)
 80511e7:	c1 ea 08             	shr    $0x8,%edx
 80511ea:	89 d0                	mov    %edx,%eax
 80511ec:	c1 e0 08             	shl    $0x8,%eax
 80511ef:	8d 14 10             	lea    (%eax,%edx,1),%edx
 80511f2:	89 c8                	mov    %ecx,%eax
 80511f4:	29 d0                	sub    %edx,%eax
 80511f6:	89 c2                	mov    %eax,%edx
 80511f8:	8b 04 85 00 53 05 08 	mov    0x8055300(,%eax,4),%eax
 80511ff:	89 41 f8             	mov    %eax,-0x8(%ecx)
 8051202:	89 c8                	mov    %ecx,%eax
 8051204:	89 0c 95 00 53 05 08 	mov    %ecx,0x8055300(,%edx,4)
 805120b:	c9                   	leave  
 805120c:	c3                   	ret    
 805120d:	90                   	nop
 805120e:	90                   	nop
 805120f:	90                   	nop
 8051210:	55                   	push   %ebp
 8051211:	89 e5                	mov    %esp,%ebp
 8051213:	57                   	push   %edi
 8051214:	56                   	push   %esi
 8051215:	53                   	push   %ebx
 8051216:	83 ec 5c             	sub    $0x5c,%esp
 8051219:	8b 5d 08             	mov    0x8(%ebp),%ebx
 805121c:	65 a1 14 00 00 00    	mov    %gs:0x14,%eax
 8051222:	89 45 e4             	mov    %eax,-0x1c(%ebp)
 8051225:	31 c0                	xor    %eax,%eax
 8051227:	e8 6c 7c ff ff       	call   8048e98 <__ctype_get_mb_cur_max@plt>
 805122c:	83 f8 01             	cmp    $0x1,%eax
 805122f:	0f 86 6b 01 00 00    	jbe    80513a0 <exit@plt+0x8188>
 8051235:	c6 45 ac 00          	movb   $0x0,-0x54(%ebp)
 8051239:	31 f6                	xor    %esi,%esi
 805123b:	80 7d ac 00          	cmpb   $0x0,-0x54(%ebp)
 805123f:	89 5d bc             	mov    %ebx,-0x44(%ebp)
 8051242:	8d 7d c8             	lea    -0x38(%ebp),%edi
 8051245:	c7 45 b0 00 00 00 00 	movl   $0x0,-0x50(%ebp)
 805124c:	8d 5d b0             	lea    -0x50(%ebp),%ebx
 805124f:	c7 45 b4 00 00 00 00 	movl   $0x0,-0x4c(%ebp)
 8051256:	c6 45 b8 00          	movb   $0x0,-0x48(%ebp)
 805125a:	75 54                	jne    80512b0 <exit@plt+0x8098>
 805125c:	8d 74 26 00          	lea    0x0(%esi,%eiz,1),%esi
 8051260:	8b 55 bc             	mov    -0x44(%ebp),%edx
 8051263:	0f b6 02             	movzbl (%edx),%eax
 8051266:	89 c1                	mov    %eax,%ecx
 8051268:	c0 e9 05             	shr    $0x5,%cl
 805126b:	0f b6 c9             	movzbl %cl,%ecx
 805126e:	8b 0c 8d a0 2f 05 08 	mov    0x8052fa0(,%ecx,4),%ecx
 8051275:	0f a3 c1             	bt     %eax,%ecx
 8051278:	0f 83 e2 00 00 00    	jae    8051360 <exit@plt+0x8148>
 805127e:	c7 45 c0 01 00 00 00 	movl   $0x1,-0x40(%ebp)
 8051285:	0f be 02             	movsbl (%edx),%eax
 8051288:	c6 45 c4 01          	movb   $0x1,-0x3c(%ebp)
 805128c:	89 45 c8             	mov    %eax,-0x38(%ebp)
 805128f:	80 7d c4 00          	cmpb   $0x0,-0x3c(%ebp)
 8051293:	c6 45 b8 01          	movb   $0x1,-0x48(%ebp)
 8051297:	0f 85 9b 00 00 00    	jne    8051338 <exit@plt+0x8120>
 805129d:	8b 45 c0             	mov    -0x40(%ebp),%eax
 80512a0:	83 c6 01             	add    $0x1,%esi
 80512a3:	01 45 bc             	add    %eax,-0x44(%ebp)
 80512a6:	80 7d ac 00          	cmpb   $0x0,-0x54(%ebp)
 80512aa:	c6 45 b8 00          	movb   $0x0,-0x48(%ebp)
 80512ae:	74 b0                	je     8051260 <exit@plt+0x8048>
 80512b0:	e8 e3 7b ff ff       	call   8048e98 <__ctype_get_mb_cur_max@plt>
 80512b5:	89 44 24 04          	mov    %eax,0x4(%esp)
 80512b9:	8b 45 bc             	mov    -0x44(%ebp),%eax
 80512bc:	89 04 24             	mov    %eax,(%esp)
 80512bf:	e8 4c 9e ff ff       	call   804b110 <exit@plt+0x1ef8>
 80512c4:	89 5c 24 0c          	mov    %ebx,0xc(%esp)
 80512c8:	89 3c 24             	mov    %edi,(%esp)
 80512cb:	89 44 24 08          	mov    %eax,0x8(%esp)
 80512cf:	8b 45 bc             	mov    -0x44(%ebp),%eax
 80512d2:	89 44 24 04          	mov    %eax,0x4(%esp)
 80512d6:	e8 ed 7c ff ff       	call   8048fc8 <mbrtowc@plt>
 80512db:	83 f8 ff             	cmp    $0xffffffff,%eax
 80512de:	89 45 c0             	mov    %eax,-0x40(%ebp)
 80512e1:	0f 84 91 00 00 00    	je     8051378 <exit@plt+0x8160>
 80512e7:	83 f8 fe             	cmp    $0xfffffffe,%eax
 80512ea:	0f 84 98 00 00 00    	je     8051388 <exit@plt+0x8170>
 80512f0:	85 c0                	test   %eax,%eax
 80512f2:	75 1e                	jne    8051312 <exit@plt+0x80fa>
 80512f4:	8b 45 bc             	mov    -0x44(%ebp),%eax
 80512f7:	c7 45 c0 01 00 00 00 	movl   $0x1,-0x40(%ebp)
 80512fe:	80 38 00             	cmpb   $0x0,(%eax)
 8051301:	0f 85 f2 00 00 00    	jne    80513f9 <exit@plt+0x81e1>
 8051307:	8b 55 c8             	mov    -0x38(%ebp),%edx
 805130a:	85 d2                	test   %edx,%edx
 805130c:	0f 85 c3 00 00 00    	jne    80513d5 <exit@plt+0x81bd>
 8051312:	89 1c 24             	mov    %ebx,(%esp)
 8051315:	c6 45 c4 01          	movb   $0x1,-0x3c(%ebp)
 8051319:	e8 3a 7d ff ff       	call   8049058 <mbsinit@plt>
 805131e:	85 c0                	test   %eax,%eax
 8051320:	0f 84 69 ff ff ff    	je     805128f <exit@plt+0x8077>
 8051326:	80 7d c4 00          	cmpb   $0x0,-0x3c(%ebp)
 805132a:	c6 45 ac 00          	movb   $0x0,-0x54(%ebp)
 805132e:	c6 45 b8 01          	movb   $0x1,-0x48(%ebp)
 8051332:	0f 84 65 ff ff ff    	je     805129d <exit@plt+0x8085>
 8051338:	8b 45 c8             	mov    -0x38(%ebp),%eax
 805133b:	85 c0                	test   %eax,%eax
 805133d:	0f 85 5a ff ff ff    	jne    805129d <exit@plt+0x8085>
 8051343:	8b 55 e4             	mov    -0x1c(%ebp),%edx
 8051346:	65 33 15 14 00 00 00 	xor    %gs:0x14,%edx
 805134d:	89 f0                	mov    %esi,%eax
 805134f:	75 7f                	jne    80513d0 <exit@plt+0x81b8>
 8051351:	83 c4 5c             	add    $0x5c,%esp
 8051354:	5b                   	pop    %ebx
 8051355:	5e                   	pop    %esi
 8051356:	5f                   	pop    %edi
 8051357:	5d                   	pop    %ebp
 8051358:	c3                   	ret    
 8051359:	8d b4 26 00 00 00 00 	lea    0x0(%esi,%eiz,1),%esi
 8051360:	89 1c 24             	mov    %ebx,(%esp)
 8051363:	e8 f0 7c ff ff       	call   8049058 <mbsinit@plt>
 8051368:	85 c0                	test   %eax,%eax
 805136a:	74 40                	je     80513ac <exit@plt+0x8194>
 805136c:	c6 45 ac 01          	movb   $0x1,-0x54(%ebp)
 8051370:	e9 3b ff ff ff       	jmp    80512b0 <exit@plt+0x8098>
 8051375:	8d 76 00             	lea    0x0(%esi),%esi
 8051378:	c7 45 c0 01 00 00 00 	movl   $0x1,-0x40(%ebp)
 805137f:	c6 45 c4 00          	movb   $0x0,-0x3c(%ebp)
 8051383:	e9 07 ff ff ff       	jmp    805128f <exit@plt+0x8077>
 8051388:	8b 45 bc             	mov    -0x44(%ebp),%eax
 805138b:	89 04 24             	mov    %eax,(%esp)
 805138e:	e8 e5 7c ff ff       	call   8049078 <strlen@plt>
 8051393:	c6 45 c4 00          	movb   $0x0,-0x3c(%ebp)
 8051397:	89 45 c0             	mov    %eax,-0x40(%ebp)
 805139a:	e9 f0 fe ff ff       	jmp    805128f <exit@plt+0x8077>
 805139f:	90                   	nop
 80513a0:	89 1c 24             	mov    %ebx,(%esp)
 80513a3:	e8 d0 7c ff ff       	call   8049078 <strlen@plt>
 80513a8:	89 c6                	mov    %eax,%esi
 80513aa:	eb 97                	jmp    8051343 <exit@plt+0x812b>
 80513ac:	c7 44 24 0c 30 30 05 	movl   $0x8053030,0xc(%esp)
 80513b3:	08 
 80513b4:	c7 44 24 08 8e 00 00 	movl   $0x8e,0x8(%esp)
 80513bb:	00 
 80513bc:	c7 44 24 04 f4 27 05 	movl   $0x80527f4,0x4(%esp)
 80513c3:	08 
 80513c4:	c7 04 24 fe 27 05 08 	movl   $0x80527fe,(%esp)
 80513cb:	e8 d8 7b ff ff       	call   8048fa8 <__assert_fail@plt>
 80513d0:	e8 43 7d ff ff       	call   8049118 <__stack_chk_fail@plt>
 80513d5:	c7 44 24 0c 30 30 05 	movl   $0x8053030,0xc(%esp)
 80513dc:	08 
 80513dd:	c7 44 24 08 ab 00 00 	movl   $0xab,0x8(%esp)
 80513e4:	00 
 80513e5:	c7 44 24 04 f4 27 05 	movl   $0x80527f4,0x4(%esp)
 80513ec:	08 
 80513ed:	c7 04 24 2c 28 05 08 	movl   $0x805282c,(%esp)
 80513f4:	e8 af 7b ff ff       	call   8048fa8 <__assert_fail@plt>
 80513f9:	c7 44 24 0c 30 30 05 	movl   $0x8053030,0xc(%esp)
 8051400:	08 
 8051401:	c7 44 24 08 aa 00 00 	movl   $0xaa,0x8(%esp)
 8051408:	00 
 8051409:	c7 44 24 04 f4 27 05 	movl   $0x80527f4,0x4(%esp)
 8051410:	08 
 8051411:	c7 04 24 15 28 05 08 	movl   $0x8052815,(%esp)
 8051418:	e8 8b 7b ff ff       	call   8048fa8 <__assert_fail@plt>
 805141d:	90                   	nop
 805141e:	90                   	nop
 805141f:	90                   	nop
 8051420:	55                   	push   %ebp
 8051421:	89 e5                	mov    %esp,%ebp
 8051423:	83 ec 18             	sub    $0x18,%esp
 8051426:	8b 45 08             	mov    0x8(%ebp),%eax
 8051429:	8b 4d 10             	mov    0x10(%ebp),%ecx
 805142c:	8b 55 0c             	mov    0xc(%ebp),%edx
 805142f:	89 45 e8             	mov    %eax,-0x18(%ebp)
 8051432:	89 4d f0             	mov    %ecx,-0x10(%ebp)
 8051435:	8b 45 f0             	mov    -0x10(%ebp),%eax
 8051438:	89 55 ec             	mov    %edx,-0x14(%ebp)
 805143b:	25 ff 7f 00 00       	and    $0x7fff,%eax
 8051440:	74 16                	je     8051458 <exit@plt+0x8240>
 8051442:	3d ff 7f 00 00       	cmp    $0x7fff,%eax
 8051447:	74 17                	je     8051460 <exit@plt+0x8248>
 8051449:	8b 45 ec             	mov    -0x14(%ebp),%eax
 805144c:	c9                   	leave  
 805144d:	c1 e8 1f             	shr    $0x1f,%eax
 8051450:	83 f0 01             	xor    $0x1,%eax
 8051453:	c3                   	ret    
 8051454:	8d 74 26 00          	lea    0x0(%esi,%eiz,1),%esi
 8051458:	8b 45 ec             	mov    -0x14(%ebp),%eax
 805145b:	c9                   	leave  
 805145c:	c1 e8 1f             	shr    $0x1f,%eax
 805145f:	c3                   	ret    
 8051460:	8b 45 ec             	mov    -0x14(%ebp),%eax
 8051463:	2d 00 00 00 80       	sub    $0x80000000,%eax
 8051468:	0b 45 e8             	or     -0x18(%ebp),%eax
 805146b:	c9                   	leave  
 805146c:	0f 95 c0             	setne  %al
 805146f:	0f b6 c0             	movzbl %al,%eax
 8051472:	c3                   	ret    
 8051473:	90                   	nop
 8051474:	90                   	nop
 8051475:	90                   	nop
 8051476:	90                   	nop
 8051477:	90                   	nop
 8051478:	90                   	nop
 8051479:	90                   	nop
 805147a:	90                   	nop
 805147b:	90                   	nop
 805147c:	90                   	nop
 805147d:	90                   	nop
 805147e:	90                   	nop
 805147f:	90                   	nop
 8051480:	55                   	push   %ebp
 8051481:	89 e5                	mov    %esp,%ebp
 8051483:	57                   	push   %edi
 8051484:	56                   	push   %esi
 8051485:	53                   	push   %ebx
 8051486:	83 ec 04             	sub    $0x4,%esp
 8051489:	8b 5d 0c             	mov    0xc(%ebp),%ebx
 805148c:	8b 75 08             	mov    0x8(%ebp),%esi
 805148f:	8b 13                	mov    (%ebx),%edx
 8051491:	8b 43 04             	mov    0x4(%ebx),%eax
 8051494:	85 d2                	test   %edx,%edx
 8051496:	74 68                	je     8051500 <exit@plt+0x82e8>
 8051498:	31 d2                	xor    %edx,%edx
 805149a:	89 5d f0             	mov    %ebx,-0x10(%ebp)
 805149d:	8d 76 00             	lea    0x0(%esi),%esi
 80514a0:	83 38 16             	cmpl   $0x16,(%eax)
 80514a3:	76 13                	jbe    80514b8 <exit@plt+0x82a0>
 80514a5:	83 c4 04             	add    $0x4,%esp
 80514a8:	b8 ff ff ff ff       	mov    $0xffffffff,%eax
 80514ad:	5b                   	pop    %ebx
 80514ae:	5e                   	pop    %esi
 80514af:	5f                   	pop    %edi
 80514b0:	5d                   	pop    %ebp
 80514b1:	c3                   	ret    
 80514b2:	8d b6 00 00 00 00    	lea    0x0(%esi),%esi
 80514b8:	8b 08                	mov    (%eax),%ecx
 80514ba:	ff 24 8d 4c 30 05 08 	jmp    *0x805304c(,%ecx,4)
 80514c1:	8d b4 26 00 00 00 00 	lea    0x0(%esi,%eiz,1),%esi
 80514c8:	8d 4e 04             	lea    0x4(%esi),%ecx
 80514cb:	8b 36                	mov    (%esi),%esi
 80514cd:	89 70 04             	mov    %esi,0x4(%eax)
 80514d0:	8b 5d f0             	mov    -0x10(%ebp),%ebx
 80514d3:	83 c2 01             	add    $0x1,%edx
 80514d6:	39 13                	cmp    %edx,(%ebx)
 80514d8:	76 26                	jbe    8051500 <exit@plt+0x82e8>
 80514da:	83 c0 10             	add    $0x10,%eax
 80514dd:	89 ce                	mov    %ecx,%esi
 80514df:	eb bf                	jmp    80514a0 <exit@plt+0x8288>
 80514e1:	8d b4 26 00 00 00 00 	lea    0x0(%esi,%eiz,1),%esi
 80514e8:	8b 7e 04             	mov    0x4(%esi),%edi
 80514eb:	8d 4e 08             	lea    0x8(%esi),%ecx
 80514ee:	83 c2 01             	add    $0x1,%edx
 80514f1:	8b 36                	mov    (%esi),%esi
 80514f3:	89 78 08             	mov    %edi,0x8(%eax)
 80514f6:	89 70 04             	mov    %esi,0x4(%eax)
 80514f9:	8b 5d f0             	mov    -0x10(%ebp),%ebx
 80514fc:	39 13                	cmp    %edx,(%ebx)
 80514fe:	77 da                	ja     80514da <exit@plt+0x82c2>
 8051500:	83 c4 04             	add    $0x4,%esp
 8051503:	31 c0                	xor    %eax,%eax
 8051505:	5b                   	pop    %ebx
 8051506:	5e                   	pop    %esi
 8051507:	5f                   	pop    %edi
 8051508:	5d                   	pop    %ebp
 8051509:	c3                   	ret    
 805150a:	8d b6 00 00 00 00    	lea    0x0(%esi),%esi
 8051510:	8d 4e 04             	lea    0x4(%esi),%ecx
 8051513:	8b 36                	mov    (%esi),%esi
 8051515:	66 89 70 04          	mov    %si,0x4(%eax)
 8051519:	eb b5                	jmp    80514d0 <exit@plt+0x82b8>
 805151b:	90                   	nop
 805151c:	8d 74 26 00          	lea    0x0(%esi,%eiz,1),%esi
 8051520:	8d 4e 04             	lea    0x4(%esi),%ecx
 8051523:	8b 36                	mov    (%esi),%esi
 8051525:	89 f3                	mov    %esi,%ebx
 8051527:	88 58 04             	mov    %bl,0x4(%eax)
 805152a:	eb a4                	jmp    80514d0 <exit@plt+0x82b8>
 805152c:	8d 74 26 00          	lea    0x0(%esi,%eiz,1),%esi
 8051530:	dd 06                	fldl   (%esi)
 8051532:	8d 4e 08             	lea    0x8(%esi),%ecx
 8051535:	dd 58 04             	fstpl  0x4(%eax)
 8051538:	eb 96                	jmp    80514d0 <exit@plt+0x82b8>
 805153a:	8d b6 00 00 00 00    	lea    0x0(%esi),%esi
 8051540:	8b 1e                	mov    (%esi),%ebx
 8051542:	8d 4e 0c             	lea    0xc(%esi),%ecx
 8051545:	8b 7e 08             	mov    0x8(%esi),%edi
 8051548:	8b 76 04             	mov    0x4(%esi),%esi
 805154b:	89 58 04             	mov    %ebx,0x4(%eax)
 805154e:	89 78 0c             	mov    %edi,0xc(%eax)
 8051551:	89 70 08             	mov    %esi,0x8(%eax)
 8051554:	e9 77 ff ff ff       	jmp    80514d0 <exit@plt+0x82b8>
 8051559:	8d b4 26 00 00 00 00 	lea    0x0(%esi,%eiz,1),%esi
 8051560:	8d 4e 04             	lea    0x4(%esi),%ecx
 8051563:	8b 36                	mov    (%esi),%esi
 8051565:	85 f6                	test   %esi,%esi
 8051567:	89 70 04             	mov    %esi,0x4(%eax)
 805156a:	0f 85 60 ff ff ff    	jne    80514d0 <exit@plt+0x82b8>
 8051570:	c7 40 04 43 30 05 08 	movl   $0x8053043,0x4(%eax)
 8051577:	e9 54 ff ff ff       	jmp    80514d0 <exit@plt+0x82b8>
 805157c:	8d 74 26 00          	lea    0x0(%esi,%eiz,1),%esi
 8051580:	8d 4e 04             	lea    0x4(%esi),%ecx
 8051583:	8b 36                	mov    (%esi),%esi
 8051585:	85 f6                	test   %esi,%esi
 8051587:	89 70 04             	mov    %esi,0x4(%eax)
 805158a:	0f 85 40 ff ff ff    	jne    80514d0 <exit@plt+0x82b8>
 8051590:	c7 40 04 a8 30 05 08 	movl   $0x80530a8,0x4(%eax)
 8051597:	e9 34 ff ff ff       	jmp    80514d0 <exit@plt+0x82b8>
 805159c:	90                   	nop
 805159d:	90                   	nop
 805159e:	90                   	nop
 805159f:	90                   	nop
 80515a0:	55                   	push   %ebp
 80515a1:	89 e5                	mov    %esp,%ebp
 80515a3:	57                   	push   %edi
 80515a4:	56                   	push   %esi
 80515a5:	53                   	push   %ebx
 80515a6:	83 ec 4c             	sub    $0x4c,%esp
 80515a9:	8b 45 0c             	mov    0xc(%ebp),%eax
 80515ac:	c7 00 00 00 00 00    	movl   $0x0,(%eax)
 80515b2:	c7 04 24 2c 00 00 00 	movl   $0x2c,(%esp)
 80515b9:	e8 3a 7b ff ff       	call   80490f8 <malloc@plt>
 80515be:	8b 55 0c             	mov    0xc(%ebp),%edx
 80515c1:	85 c0                	test   %eax,%eax
 80515c3:	89 42 04             	mov    %eax,0x4(%edx)
 80515c6:	0f 84 e8 06 00 00    	je     8051cb4 <exit@plt+0x8a9c>
 80515cc:	8b 4d 10             	mov    0x10(%ebp),%ecx
 80515cf:	8b 7d 08             	mov    0x8(%ebp),%edi
 80515d2:	c7 45 c4 00 00 00 00 	movl   $0x0,-0x3c(%ebp)
 80515d9:	c7 45 d4 00 00 00 00 	movl   $0x0,-0x2c(%ebp)
 80515e0:	c7 01 00 00 00 00    	movl   $0x0,(%ecx)
 80515e6:	8b 32                	mov    (%edx),%esi
 80515e8:	89 c2                	mov    %eax,%edx
 80515ea:	c7 41 04 00 00 00 00 	movl   $0x0,0x4(%ecx)
 80515f1:	c7 45 d8 00 00 00 00 	movl   $0x0,-0x28(%ebp)
 80515f8:	c7 45 cc 01 00 00 00 	movl   $0x1,-0x34(%ebp)
 80515ff:	c7 45 dc 00 00 00 00 	movl   $0x0,-0x24(%ebp)
 8051606:	eb 02                	jmp    805160a <exit@plt+0x83f2>
 8051608:	89 c7                	mov    %eax,%edi
 805160a:	0f b6 0f             	movzbl (%edi),%ecx
 805160d:	84 c9                	test   %cl,%cl
 805160f:	0f 84 01 03 00 00    	je     8051916 <exit@plt+0x86fe>
 8051615:	80 f9 25             	cmp    $0x25,%cl
 8051618:	8d 47 01             	lea    0x1(%edi),%eax
 805161b:	75 eb                	jne    8051608 <exit@plt+0x83f0>
 805161d:	6b de 2c             	imul   $0x2c,%esi,%ebx
 8051620:	8d 1c 1a             	lea    (%edx,%ebx,1),%ebx
 8051623:	89 3b                	mov    %edi,(%ebx)
 8051625:	c7 43 08 00 00 00 00 	movl   $0x0,0x8(%ebx)
 805162c:	c7 43 0c 00 00 00 00 	movl   $0x0,0xc(%ebx)
 8051633:	c7 43 10 00 00 00 00 	movl   $0x0,0x10(%ebx)
 805163a:	c7 43 14 ff ff ff ff 	movl   $0xffffffff,0x14(%ebx)
 8051641:	c7 43 18 00 00 00 00 	movl   $0x0,0x18(%ebx)
 8051648:	c7 43 1c 00 00 00 00 	movl   $0x0,0x1c(%ebx)
 805164f:	c7 43 20 ff ff ff ff 	movl   $0xffffffff,0x20(%ebx)
 8051656:	c7 43 28 ff ff ff ff 	movl   $0xffffffff,0x28(%ebx)
 805165d:	0f b6 57 01          	movzbl 0x1(%edi),%edx
 8051661:	8d 4a d0             	lea    -0x30(%edx),%ecx
 8051664:	80 f9 09             	cmp    $0x9,%cl
 8051667:	77 24                	ja     805168d <exit@plt+0x8475>
 8051669:	89 c1                	mov    %eax,%ecx
 805166b:	89 c6                	mov    %eax,%esi
 805166d:	89 d7                	mov    %edx,%edi
 805166f:	90                   	nop
 8051670:	83 c1 01             	add    $0x1,%ecx
 8051673:	0f b6 01             	movzbl (%ecx),%eax
 8051676:	8d 50 d0             	lea    -0x30(%eax),%edx
 8051679:	80 fa 09             	cmp    $0x9,%dl
 805167c:	76 f2                	jbe    8051670 <exit@plt+0x8458>
 805167e:	89 c1                	mov    %eax,%ecx
 8051680:	89 fa                	mov    %edi,%edx
 8051682:	80 f9 24             	cmp    $0x24,%cl
 8051685:	89 f0                	mov    %esi,%eax
 8051687:	0f 84 76 06 00 00    	je     8051d03 <exit@plt+0x8aeb>
 805168d:	c7 45 d0 ff ff ff ff 	movl   $0xffffffff,-0x30(%ebp)
 8051694:	eb 25                	jmp    80516bb <exit@plt+0x84a3>
 8051696:	66 90                	xchg   %ax,%ax
 8051698:	80 fa 2d             	cmp    $0x2d,%dl
 805169b:	74 33                	je     80516d0 <exit@plt+0x84b8>
 805169d:	80 fa 2b             	cmp    $0x2b,%dl
 80516a0:	74 36                	je     80516d8 <exit@plt+0x84c0>
 80516a2:	80 fa 20             	cmp    $0x20,%dl
 80516a5:	74 41                	je     80516e8 <exit@plt+0x84d0>
 80516a7:	80 fa 23             	cmp    $0x23,%dl
 80516aa:	74 4c                	je     80516f8 <exit@plt+0x84e0>
 80516ac:	80 fa 30             	cmp    $0x30,%dl
 80516af:	90                   	nop
 80516b0:	75 56                	jne    8051708 <exit@plt+0x84f0>
 80516b2:	83 4b 08 20          	orl    $0x20,0x8(%ebx)
 80516b6:	66 90                	xchg   %ax,%ax
 80516b8:	0f b6 10             	movzbl (%eax),%edx
 80516bb:	83 c0 01             	add    $0x1,%eax
 80516be:	80 fa 27             	cmp    $0x27,%dl
 80516c1:	8d 48 ff             	lea    -0x1(%eax),%ecx
 80516c4:	75 d2                	jne    8051698 <exit@plt+0x8480>
 80516c6:	83 4b 08 01          	orl    $0x1,0x8(%ebx)
 80516ca:	eb ec                	jmp    80516b8 <exit@plt+0x84a0>
 80516cc:	8d 74 26 00          	lea    0x0(%esi,%eiz,1),%esi
 80516d0:	83 4b 08 02          	orl    $0x2,0x8(%ebx)
 80516d4:	eb e2                	jmp    80516b8 <exit@plt+0x84a0>
 80516d6:	66 90                	xchg   %ax,%ax
 80516d8:	83 4b 08 04          	orl    $0x4,0x8(%ebx)
 80516dc:	8d 74 26 00          	lea    0x0(%esi,%eiz,1),%esi
 80516e0:	eb d6                	jmp    80516b8 <exit@plt+0x84a0>
 80516e2:	8d b6 00 00 00 00    	lea    0x0(%esi),%esi
 80516e8:	83 4b 08 08          	orl    $0x8,0x8(%ebx)
 80516ec:	8d 74 26 00          	lea    0x0(%esi,%eiz,1),%esi
 80516f0:	eb c6                	jmp    80516b8 <exit@plt+0x84a0>
 80516f2:	8d b6 00 00 00 00    	lea    0x0(%esi),%esi
 80516f8:	83 4b 08 10          	orl    $0x10,0x8(%ebx)
 80516fc:	8d 74 26 00          	lea    0x0(%esi,%eiz,1),%esi
 8051700:	eb b6                	jmp    80516b8 <exit@plt+0x84a0>
 8051702:	8d b6 00 00 00 00    	lea    0x0(%esi),%esi
 8051708:	80 fa 2a             	cmp    $0x2a,%dl
 805170b:	90                   	nop
 805170c:	8d 74 26 00          	lea    0x0(%esi,%eiz,1),%esi
 8051710:	0f 84 b8 02 00 00    	je     80519ce <exit@plt+0x87b6>
 8051716:	8d 42 d0             	lea    -0x30(%edx),%eax
 8051719:	3c 09                	cmp    $0x9,%al
 805171b:	0f 86 14 02 00 00    	jbe    8051935 <exit@plt+0x871d>
 8051721:	8b 75 dc             	mov    -0x24(%ebp),%esi
 8051724:	8b 45 d4             	mov    -0x2c(%ebp),%eax
 8051727:	89 75 e4             	mov    %esi,-0x1c(%ebp)
 805172a:	89 ce                	mov    %ecx,%esi
 805172c:	89 45 c8             	mov    %eax,-0x38(%ebp)
 805172f:	8b 45 e4             	mov    -0x1c(%ebp),%eax
 8051732:	80 fa 2e             	cmp    $0x2e,%dl
 8051735:	89 f7                	mov    %esi,%edi
 8051737:	89 45 dc             	mov    %eax,-0x24(%ebp)
 805173a:	0f 84 44 02 00 00    	je     8051984 <exit@plt+0x876c>
 8051740:	8d 47 01             	lea    0x1(%edi),%eax
 8051743:	31 f6                	xor    %esi,%esi
 8051745:	eb 27                	jmp    805176e <exit@plt+0x8556>
 8051747:	90                   	nop
 8051748:	80 fa 4c             	cmp    $0x4c,%dl
 805174b:	74 3b                	je     8051788 <exit@plt+0x8570>
 805174d:	80 fa 6c             	cmp    $0x6c,%dl
 8051750:	74 3e                	je     8051790 <exit@plt+0x8578>
 8051752:	80 fa 6a             	cmp    $0x6a,%dl
 8051755:	74 41                	je     8051798 <exit@plt+0x8580>
 8051757:	80 fa 5a             	cmp    $0x5a,%dl
 805175a:	74 0c                	je     8051768 <exit@plt+0x8550>
 805175c:	80 fa 7a             	cmp    $0x7a,%dl
 805175f:	90                   	nop
 8051760:	74 06                	je     8051768 <exit@plt+0x8550>
 8051762:	80 fa 74             	cmp    $0x74,%dl
 8051765:	75 41                	jne    80517a8 <exit@plt+0x8590>
 8051767:	90                   	nop
 8051768:	0f b6 10             	movzbl (%eax),%edx
 805176b:	83 c0 01             	add    $0x1,%eax
 805176e:	80 fa 68             	cmp    $0x68,%dl
 8051771:	8d 78 ff             	lea    -0x1(%eax),%edi
 8051774:	75 d2                	jne    8051748 <exit@plt+0x8530>
 8051776:	89 f1                	mov    %esi,%ecx
 8051778:	ba 01 00 00 00       	mov    $0x1,%edx
 805177d:	83 e1 01             	and    $0x1,%ecx
 8051780:	d3 e2                	shl    %cl,%edx
 8051782:	09 d6                	or     %edx,%esi
 8051784:	eb e2                	jmp    8051768 <exit@plt+0x8550>
 8051786:	66 90                	xchg   %ax,%ax
 8051788:	83 ce 04             	or     $0x4,%esi
 805178b:	eb db                	jmp    8051768 <exit@plt+0x8550>
 805178d:	8d 76 00             	lea    0x0(%esi),%esi
 8051790:	83 c6 08             	add    $0x8,%esi
 8051793:	eb d3                	jmp    8051768 <exit@plt+0x8550>
 8051795:	8d 76 00             	lea    0x0(%esi),%esi
 8051798:	83 c6 10             	add    $0x10,%esi
 805179b:	90                   	nop
 805179c:	8d 74 26 00          	lea    0x0(%esi,%eiz,1),%esi
 80517a0:	eb c6                	jmp    8051768 <exit@plt+0x8550>
 80517a2:	8d b6 00 00 00 00    	lea    0x0(%esi),%esi
 80517a8:	8d 42 db             	lea    -0x25(%edx),%eax
 80517ab:	3c 53                	cmp    $0x53,%al
 80517ad:	8d 76 00             	lea    0x0(%esi),%esi
 80517b0:	76 3c                	jbe    80517ee <exit@plt+0x85d6>
 80517b2:	8b 5d 10             	mov    0x10(%ebp),%ebx
 80517b5:	8b 4b 04             	mov    0x4(%ebx),%ecx
 80517b8:	85 c9                	test   %ecx,%ecx
 80517ba:	74 08                	je     80517c4 <exit@plt+0x85ac>
 80517bc:	89 0c 24             	mov    %ecx,(%esp)
 80517bf:	e8 34 78 ff ff       	call   8048ff8 <free@plt>
 80517c4:	8b 75 0c             	mov    0xc(%ebp),%esi
 80517c7:	8b 46 04             	mov    0x4(%esi),%eax
 80517ca:	85 c0                	test   %eax,%eax
 80517cc:	74 08                	je     80517d6 <exit@plt+0x85be>
 80517ce:	89 04 24             	mov    %eax,(%esp)
 80517d1:	e8 22 78 ff ff       	call   8048ff8 <free@plt>
 80517d6:	e8 7d 76 ff ff       	call   8048e58 <__errno_location@plt>
 80517db:	c7 00 16 00 00 00    	movl   $0x16,(%eax)
 80517e1:	83 c4 4c             	add    $0x4c,%esp
 80517e4:	b8 ff ff ff ff       	mov    $0xffffffff,%eax
 80517e9:	5b                   	pop    %ebx
 80517ea:	5e                   	pop    %esi
 80517eb:	5f                   	pop    %edi
 80517ec:	5d                   	pop    %ebp
 80517ed:	c3                   	ret    
 80517ee:	0f b6 c0             	movzbl %al,%eax
 80517f1:	ff 24 85 c4 30 05 08 	jmp    *0x80530c4(,%eax,4)
 80517f8:	31 c0                	xor    %eax,%eax
 80517fa:	83 fe 07             	cmp    $0x7,%esi
 80517fd:	0f 9f c0             	setg   %al
 8051800:	83 c0 0f             	add    $0xf,%eax
 8051803:	89 45 e4             	mov    %eax,-0x1c(%ebp)
 8051806:	8b 4d d0             	mov    -0x30(%ebp),%ecx
 8051809:	83 f9 ff             	cmp    $0xffffffff,%ecx
 805180c:	89 4b 28             	mov    %ecx,0x28(%ebx)
 805180f:	75 1d                	jne    805182e <exit@plt+0x8616>
 8051811:	8b 75 dc             	mov    -0x24(%ebp),%esi
 8051814:	83 fe ff             	cmp    $0xffffffff,%esi
 8051817:	89 73 28             	mov    %esi,0x28(%ebx)
 805181a:	0f 84 f2 07 00 00    	je     8052012 <exit@plt+0x8dfa>
 8051820:	8b 45 dc             	mov    -0x24(%ebp),%eax
 8051823:	89 c1                	mov    %eax,%ecx
 8051825:	83 c1 01             	add    $0x1,%ecx
 8051828:	89 45 d0             	mov    %eax,-0x30(%ebp)
 805182b:	89 4d dc             	mov    %ecx,-0x24(%ebp)
 805182e:	8b 75 d0             	mov    -0x30(%ebp),%esi
 8051831:	39 75 d8             	cmp    %esi,-0x28(%ebp)
 8051834:	0f 86 a9 03 00 00    	jbe    8051be3 <exit@plt+0x89cb>
 805183a:	8b 45 10             	mov    0x10(%ebp),%eax
 805183d:	8b 70 04             	mov    0x4(%eax),%esi
 8051840:	8b 4d 10             	mov    0x10(%ebp),%ecx
 8051843:	8b 01                	mov    (%ecx),%eax
 8051845:	3b 45 d0             	cmp    -0x30(%ebp),%eax
 8051848:	77 47                	ja     8051891 <exit@plt+0x8679>
 805184a:	89 c1                	mov    %eax,%ecx
 805184c:	c1 e1 04             	shl    $0x4,%ecx
 805184f:	89 4d c0             	mov    %ecx,-0x40(%ebp)
 8051852:	8b 4d 10             	mov    0x10(%ebp),%ecx
 8051855:	89 7d d4             	mov    %edi,-0x2c(%ebp)
 8051858:	8b 49 04             	mov    0x4(%ecx),%ecx
 805185b:	89 4d e0             	mov    %ecx,-0x20(%ebp)
 805185e:	8b 4d c0             	mov    -0x40(%ebp),%ecx
 8051861:	8b 7d e0             	mov    -0x20(%ebp),%edi
 8051864:	89 5d c0             	mov    %ebx,-0x40(%ebp)
 8051867:	8b 5d d0             	mov    -0x30(%ebp),%ebx
 805186a:	eb 06                	jmp    8051872 <exit@plt+0x865a>
 805186c:	8d 74 26 00          	lea    0x0(%esi,%eiz,1),%esi
 8051870:	89 fe                	mov    %edi,%esi
 8051872:	83 c0 01             	add    $0x1,%eax
 8051875:	c7 04 0e 00 00 00 00 	movl   $0x0,(%esi,%ecx,1)
 805187c:	83 c1 10             	add    $0x10,%ecx
 805187f:	39 d8                	cmp    %ebx,%eax
 8051881:	76 ed                	jbe    8051870 <exit@plt+0x8658>
 8051883:	8b 75 10             	mov    0x10(%ebp),%esi
 8051886:	8b 7d d4             	mov    -0x2c(%ebp),%edi
 8051889:	8b 5d c0             	mov    -0x40(%ebp),%ebx
 805188c:	89 06                	mov    %eax,(%esi)
 805188e:	8b 75 e0             	mov    -0x20(%ebp),%esi
 8051891:	8b 4d d0             	mov    -0x30(%ebp),%ecx
 8051894:	c1 e1 04             	shl    $0x4,%ecx
 8051897:	8d 0c 0e             	lea    (%esi,%ecx,1),%ecx
 805189a:	8b 01                	mov    (%ecx),%eax
 805189c:	85 c0                	test   %eax,%eax
 805189e:	0f 85 a4 03 00 00    	jne    8051c48 <exit@plt+0x8a30>
 80518a4:	8b 45 e4             	mov    -0x1c(%ebp),%eax
 80518a7:	89 01                	mov    %eax,(%ecx)
 80518a9:	88 53 24             	mov    %dl,0x24(%ebx)
 80518ac:	8b 55 0c             	mov    0xc(%ebp),%edx
 80518af:	83 c7 01             	add    $0x1,%edi
 80518b2:	89 7b 04             	mov    %edi,0x4(%ebx)
 80518b5:	8b 32                	mov    (%edx),%esi
 80518b7:	83 c6 01             	add    $0x1,%esi
 80518ba:	39 75 cc             	cmp    %esi,-0x34(%ebp)
 80518bd:	89 32                	mov    %esi,(%edx)
 80518bf:	77 3e                	ja     80518ff <exit@plt+0x86e7>
 80518c1:	8b 45 cc             	mov    -0x34(%ebp),%eax
 80518c4:	85 c0                	test   %eax,%eax
 80518c6:	0f 88 c4 03 00 00    	js     8051c90 <exit@plt+0x8a78>
 80518cc:	d1 65 cc             	shll   -0x34(%ebp)
 80518cf:	81 7d cc 5d 74 d1 05 	cmpl   $0x5d1745d,-0x34(%ebp)
 80518d6:	0f 87 b4 03 00 00    	ja     8051c90 <exit@plt+0x8a78>
 80518dc:	6b 45 cc 2c          	imul   $0x2c,-0x34(%ebp),%eax
 80518e0:	89 44 24 04          	mov    %eax,0x4(%esp)
 80518e4:	8b 42 04             	mov    0x4(%edx),%eax
 80518e7:	89 04 24             	mov    %eax,(%esp)
 80518ea:	e8 d9 75 ff ff       	call   8048ec8 <realloc@plt>
 80518ef:	85 c0                	test   %eax,%eax
 80518f1:	0f 84 99 03 00 00    	je     8051c90 <exit@plt+0x8a78>
 80518f7:	8b 4d 0c             	mov    0xc(%ebp),%ecx
 80518fa:	8b 31                	mov    (%ecx),%esi
 80518fc:	89 41 04             	mov    %eax,0x4(%ecx)
 80518ff:	8b 45 c8             	mov    -0x38(%ebp),%eax
 8051902:	8b 5d 0c             	mov    0xc(%ebp),%ebx
 8051905:	89 45 d4             	mov    %eax,-0x2c(%ebp)
 8051908:	0f b6 0f             	movzbl (%edi),%ecx
 805190b:	8b 53 04             	mov    0x4(%ebx),%edx
 805190e:	84 c9                	test   %cl,%cl
 8051910:	0f 85 ff fc ff ff    	jne    8051615 <exit@plt+0x83fd>
 8051916:	6b f6 2c             	imul   $0x2c,%esi,%esi
 8051919:	8b 4d d4             	mov    -0x2c(%ebp),%ecx
 805191c:	31 c0                	xor    %eax,%eax
 805191e:	8b 5d c4             	mov    -0x3c(%ebp),%ebx
 8051921:	89 3c 16             	mov    %edi,(%esi,%edx,1)
 8051924:	8b 55 0c             	mov    0xc(%ebp),%edx
 8051927:	89 4a 08             	mov    %ecx,0x8(%edx)
 805192a:	89 5a 0c             	mov    %ebx,0xc(%edx)
 805192d:	83 c4 4c             	add    $0x4c,%esp
 8051930:	5b                   	pop    %ebx
 8051931:	5e                   	pop    %esi
 8051932:	5f                   	pop    %edi
 8051933:	5d                   	pop    %ebp
 8051934:	c3                   	ret    
 8051935:	89 4b 0c             	mov    %ecx,0xc(%ebx)
 8051938:	0f b6 01             	movzbl (%ecx),%eax
 805193b:	83 e8 30             	sub    $0x30,%eax
 805193e:	3c 09                	cmp    $0x9,%al
 8051940:	0f 87 d5 05 00 00    	ja     8051f1b <exit@plt+0x8d03>
 8051946:	89 ce                	mov    %ecx,%esi
 8051948:	83 c6 01             	add    $0x1,%esi
 805194b:	0f b6 06             	movzbl (%esi),%eax
 805194e:	83 e8 30             	sub    $0x30,%eax
 8051951:	3c 09                	cmp    $0x9,%al
 8051953:	76 f3                	jbe    8051948 <exit@plt+0x8730>
 8051955:	8b 45 d4             	mov    -0x2c(%ebp),%eax
 8051958:	89 f7                	mov    %esi,%edi
 805195a:	29 cf                	sub    %ecx,%edi
 805195c:	89 7d c8             	mov    %edi,-0x38(%ebp)
 805195f:	89 73 10             	mov    %esi,0x10(%ebx)
 8051962:	39 c7                	cmp    %eax,%edi
 8051964:	0f 86 8c 01 00 00    	jbe    8051af6 <exit@plt+0x88de>
 805196a:	8b 4d dc             	mov    -0x24(%ebp),%ecx
 805196d:	89 f7                	mov    %esi,%edi
 805196f:	0f b6 16             	movzbl (%esi),%edx
 8051972:	89 4d e4             	mov    %ecx,-0x1c(%ebp)
 8051975:	8b 45 e4             	mov    -0x1c(%ebp),%eax
 8051978:	80 fa 2e             	cmp    $0x2e,%dl
 805197b:	89 45 dc             	mov    %eax,-0x24(%ebp)
 805197e:	0f 85 bc fd ff ff    	jne    8051740 <exit@plt+0x8528>
 8051984:	80 7e 01 2a          	cmpb   $0x2a,0x1(%esi)
 8051988:	8d 7e 01             	lea    0x1(%esi),%edi
 805198b:	0f 84 fd 03 00 00    	je     8051d8e <exit@plt+0x8b76>
 8051991:	89 73 18             	mov    %esi,0x18(%ebx)
 8051994:	0f b6 46 01          	movzbl 0x1(%esi),%eax
 8051998:	83 e8 30             	sub    $0x30,%eax
 805199b:	3c 09                	cmp    $0x9,%al
 805199d:	77 0e                	ja     80519ad <exit@plt+0x8795>
 805199f:	90                   	nop
 80519a0:	83 c7 01             	add    $0x1,%edi
 80519a3:	0f b6 07             	movzbl (%edi),%eax
 80519a6:	83 e8 30             	sub    $0x30,%eax
 80519a9:	3c 09                	cmp    $0x9,%al
 80519ab:	76 f3                	jbe    80519a0 <exit@plt+0x8788>
 80519ad:	89 f9                	mov    %edi,%ecx
 80519af:	29 f1                	sub    %esi,%ecx
 80519b1:	3b 4d c4             	cmp    -0x3c(%ebp),%ecx
 80519b4:	89 7b 1c             	mov    %edi,0x1c(%ebx)
 80519b7:	0f 86 a6 03 00 00    	jbe    8051d63 <exit@plt+0x8b4b>
 80519bd:	8b 75 e4             	mov    -0x1c(%ebp),%esi
 80519c0:	0f b6 17             	movzbl (%edi),%edx
 80519c3:	89 4d c4             	mov    %ecx,-0x3c(%ebp)
 80519c6:	89 75 dc             	mov    %esi,-0x24(%ebp)
 80519c9:	e9 72 fd ff ff       	jmp    8051740 <exit@plt+0x8528>
 80519ce:	8b 55 d4             	mov    -0x2c(%ebp),%edx
 80519d1:	89 c6                	mov    %eax,%esi
 80519d3:	89 4b 0c             	mov    %ecx,0xc(%ebx)
 80519d6:	89 43 10             	mov    %eax,0x10(%ebx)
 80519d9:	85 d2                	test   %edx,%edx
 80519db:	75 07                	jne    80519e4 <exit@plt+0x87cc>
 80519dd:	c7 45 d4 01 00 00 00 	movl   $0x1,-0x2c(%ebp)
 80519e4:	0f b6 10             	movzbl (%eax),%edx
 80519e7:	89 c7                	mov    %eax,%edi
 80519e9:	89 d1                	mov    %edx,%ecx
 80519eb:	83 e9 30             	sub    $0x30,%ecx
 80519ee:	80 f9 09             	cmp    $0x9,%cl
 80519f1:	88 55 e0             	mov    %dl,-0x20(%ebp)
 80519f4:	89 c2                	mov    %eax,%edx
 80519f6:	0f 86 8c 00 00 00    	jbe    8051a88 <exit@plt+0x8870>
 80519fc:	8b 53 14             	mov    0x14(%ebx),%edx
 80519ff:	83 fa ff             	cmp    $0xffffffff,%edx
 8051a02:	0f 84 69 03 00 00    	je     8051d71 <exit@plt+0x8b59>
 8051a08:	8b 7d dc             	mov    -0x24(%ebp),%edi
 8051a0b:	89 55 dc             	mov    %edx,-0x24(%ebp)
 8051a0e:	89 7d e4             	mov    %edi,-0x1c(%ebp)
 8051a11:	8b 7d dc             	mov    -0x24(%ebp),%edi
 8051a14:	39 7d d8             	cmp    %edi,-0x28(%ebp)
 8051a17:	0f 86 57 02 00 00    	jbe    8051c74 <exit@plt+0x8a5c>
 8051a1d:	8b 45 10             	mov    0x10(%ebp),%eax
 8051a20:	8b 48 04             	mov    0x4(%eax),%ecx
 8051a23:	8b 55 10             	mov    0x10(%ebp),%edx
 8051a26:	8b 02                	mov    (%edx),%eax
 8051a28:	3b 45 dc             	cmp    -0x24(%ebp),%eax
 8051a2b:	77 2f                	ja     8051a5c <exit@plt+0x8844>
 8051a2d:	8b 7d 10             	mov    0x10(%ebp),%edi
 8051a30:	89 c2                	mov    %eax,%edx
 8051a32:	c1 e2 04             	shl    $0x4,%edx
 8051a35:	8b 7f 04             	mov    0x4(%edi),%edi
 8051a38:	89 7d e0             	mov    %edi,-0x20(%ebp)
 8051a3b:	8b 7d dc             	mov    -0x24(%ebp),%edi
 8051a3e:	eb 03                	jmp    8051a43 <exit@plt+0x882b>
 8051a40:	8b 4d e0             	mov    -0x20(%ebp),%ecx
 8051a43:	83 c0 01             	add    $0x1,%eax
 8051a46:	c7 04 11 00 00 00 00 	movl   $0x0,(%ecx,%edx,1)
 8051a4d:	83 c2 10             	add    $0x10,%edx
 8051a50:	39 f8                	cmp    %edi,%eax
 8051a52:	76 ec                	jbe    8051a40 <exit@plt+0x8828>
 8051a54:	8b 55 10             	mov    0x10(%ebp),%edx
 8051a57:	8b 4d e0             	mov    -0x20(%ebp),%ecx
 8051a5a:	89 02                	mov    %eax,(%edx)
 8051a5c:	8b 55 dc             	mov    -0x24(%ebp),%edx
 8051a5f:	c1 e2 04             	shl    $0x4,%edx
 8051a62:	8d 14 11             	lea    (%ecx,%edx,1),%edx
 8051a65:	8b 02                	mov    (%edx),%eax
 8051a67:	85 c0                	test   %eax,%eax
 8051a69:	0f 85 e9 01 00 00    	jne    8051c58 <exit@plt+0x8a40>
 8051a6f:	8b 4d d4             	mov    -0x2c(%ebp),%ecx
 8051a72:	c7 02 05 00 00 00    	movl   $0x5,(%edx)
 8051a78:	0f b6 16             	movzbl (%esi),%edx
 8051a7b:	89 4d c8             	mov    %ecx,-0x38(%ebp)
 8051a7e:	e9 ac fc ff ff       	jmp    805172f <exit@plt+0x8517>
 8051a83:	90                   	nop
 8051a84:	8d 74 26 00          	lea    0x0(%esi,%eiz,1),%esi
 8051a88:	83 c2 01             	add    $0x1,%edx
 8051a8b:	0f b6 0a             	movzbl (%edx),%ecx
 8051a8e:	8d 41 d0             	lea    -0x30(%ecx),%eax
 8051a91:	3c 09                	cmp    $0x9,%al
 8051a93:	76 f3                	jbe    8051a88 <exit@plt+0x8870>
 8051a95:	80 f9 24             	cmp    $0x24,%cl
 8051a98:	89 f8                	mov    %edi,%eax
 8051a9a:	0f 85 5c ff ff ff    	jne    80519fc <exit@plt+0x87e4>
 8051aa0:	89 de                	mov    %ebx,%esi
 8051aa2:	0f b6 5d e0          	movzbl -0x20(%ebp),%ebx
 8051aa6:	31 d2                	xor    %edx,%edx
 8051aa8:	81 fa 99 99 99 19    	cmp    $0x19999999,%edx
 8051aae:	b9 ff ff ff ff       	mov    $0xffffffff,%ecx
 8051ab3:	77 05                	ja     8051aba <exit@plt+0x88a2>
 8051ab5:	8d 0c 92             	lea    (%edx,%edx,4),%ecx
 8051ab8:	01 c9                	add    %ecx,%ecx
 8051aba:	0f be db             	movsbl %bl,%ebx
 8051abd:	8d 54 19 d0          	lea    -0x30(%ecx,%ebx,1),%edx
 8051ac1:	39 ca                	cmp    %ecx,%edx
 8051ac3:	19 c9                	sbb    %ecx,%ecx
 8051ac5:	83 c0 01             	add    $0x1,%eax
 8051ac8:	0f b6 18             	movzbl (%eax),%ebx
 8051acb:	09 ca                	or     %ecx,%edx
 8051acd:	8d 4b d0             	lea    -0x30(%ebx),%ecx
 8051ad0:	80 f9 09             	cmp    $0x9,%cl
 8051ad3:	76 d3                	jbe    8051aa8 <exit@plt+0x8890>
 8051ad5:	85 d2                	test   %edx,%edx
 8051ad7:	89 f3                	mov    %esi,%ebx
 8051ad9:	0f 84 d3 fc ff ff    	je     80517b2 <exit@plt+0x859a>
 8051adf:	83 fa ff             	cmp    $0xffffffff,%edx
 8051ae2:	0f 84 35 05 00 00    	je     805201d <exit@plt+0x8e05>
 8051ae8:	83 ea 01             	sub    $0x1,%edx
 8051aeb:	89 56 14             	mov    %edx,0x14(%esi)
 8051aee:	8d 70 01             	lea    0x1(%eax),%esi
 8051af1:	e9 09 ff ff ff       	jmp    80519ff <exit@plt+0x87e7>
 8051af6:	89 f1                	mov    %esi,%ecx
 8051af8:	8b 75 d4             	mov    -0x2c(%ebp),%esi
 8051afb:	8b 7d dc             	mov    -0x24(%ebp),%edi
 8051afe:	0f b6 11             	movzbl (%ecx),%edx
 8051b01:	89 75 c8             	mov    %esi,-0x38(%ebp)
 8051b04:	89 ce                	mov    %ecx,%esi
 8051b06:	89 7d e4             	mov    %edi,-0x1c(%ebp)
 8051b09:	e9 21 fc ff ff       	jmp    805172f <exit@plt+0x8517>
 8051b0e:	83 fe 0f             	cmp    $0xf,%esi
 8051b11:	7f 0c                	jg     8051b1f <exit@plt+0x8907>
 8051b13:	f7 c6 04 00 00 00    	test   $0x4,%esi
 8051b19:	0f 84 10 04 00 00    	je     8051f2f <exit@plt+0x8d17>
 8051b1f:	c7 45 e4 0a 00 00 00 	movl   $0xa,-0x1c(%ebp)
 8051b26:	e9 db fc ff ff       	jmp    8051806 <exit@plt+0x85ee>
 8051b2b:	90                   	nop
 8051b2c:	8d 74 26 00          	lea    0x0(%esi,%eiz,1),%esi
 8051b30:	c7 45 e4 10 00 00 00 	movl   $0x10,-0x1c(%ebp)
 8051b37:	ba 73 00 00 00       	mov    $0x73,%edx
 8051b3c:	e9 c5 fc ff ff       	jmp    8051806 <exit@plt+0x85ee>
 8051b41:	c7 45 e4 0e 00 00 00 	movl   $0xe,-0x1c(%ebp)
 8051b48:	ba 63 00 00 00       	mov    $0x63,%edx
 8051b4d:	e9 b4 fc ff ff       	jmp    8051806 <exit@plt+0x85ee>
 8051b52:	83 fe 0f             	cmp    $0xf,%esi
 8051b55:	7f 10                	jg     8051b67 <exit@plt+0x894f>
 8051b57:	83 e6 04             	and    $0x4,%esi
 8051b5a:	c7 45 e4 0b 00 00 00 	movl   $0xb,-0x1c(%ebp)
 8051b61:	0f 84 9f fc ff ff    	je     8051806 <exit@plt+0x85ee>
 8051b67:	c7 45 e4 0c 00 00 00 	movl   $0xc,-0x1c(%ebp)
 8051b6e:	66 90                	xchg   %ax,%ax
 8051b70:	e9 91 fc ff ff       	jmp    8051806 <exit@plt+0x85ee>
 8051b75:	8d 76 00             	lea    0x0(%esi),%esi
 8051b78:	c7 45 e4 11 00 00 00 	movl   $0x11,-0x1c(%ebp)
 8051b7f:	90                   	nop
 8051b80:	e9 81 fc ff ff       	jmp    8051806 <exit@plt+0x85ee>
 8051b85:	83 fe 0f             	cmp    $0xf,%esi
 8051b88:	7f 0c                	jg     8051b96 <exit@plt+0x897e>
 8051b8a:	f7 c6 04 00 00 00    	test   $0x4,%esi
 8051b90:	0f 84 d2 03 00 00    	je     8051f68 <exit@plt+0x8d50>
 8051b96:	c7 45 e4 16 00 00 00 	movl   $0x16,-0x1c(%ebp)
 8051b9d:	8d 76 00             	lea    0x0(%esi),%esi
 8051ba0:	e9 61 fc ff ff       	jmp    8051806 <exit@plt+0x85ee>
 8051ba5:	8d 76 00             	lea    0x0(%esi),%esi
 8051ba8:	83 fe 0f             	cmp    $0xf,%esi
 8051bab:	90                   	nop
 8051bac:	8d 74 26 00          	lea    0x0(%esi,%eiz,1),%esi
 8051bb0:	7f 0c                	jg     8051bbe <exit@plt+0x89a6>
 8051bb2:	f7 c6 04 00 00 00    	test   $0x4,%esi
 8051bb8:	0f 84 f6 03 00 00    	je     8051fb4 <exit@plt+0x8d9c>
 8051bbe:	c7 45 e4 09 00 00 00 	movl   $0x9,-0x1c(%ebp)
 8051bc5:	e9 3c fc ff ff       	jmp    8051806 <exit@plt+0x85ee>
 8051bca:	8d b6 00 00 00 00    	lea    0x0(%esi),%esi
 8051bd0:	31 c0                	xor    %eax,%eax
 8051bd2:	83 fe 07             	cmp    $0x7,%esi
 8051bd5:	0f 9f c0             	setg   %al
 8051bd8:	83 c0 0d             	add    $0xd,%eax
 8051bdb:	89 45 e4             	mov    %eax,-0x1c(%ebp)
 8051bde:	e9 23 fc ff ff       	jmp    8051806 <exit@plt+0x85ee>
 8051be3:	8b 45 d8             	mov    -0x28(%ebp),%eax
 8051be6:	c1 7d d8 1f          	sarl   $0x1f,-0x28(%ebp)
 8051bea:	8b 4d d0             	mov    -0x30(%ebp),%ecx
 8051bed:	01 c0                	add    %eax,%eax
 8051bef:	09 45 d8             	or     %eax,-0x28(%ebp)
 8051bf2:	39 4d d8             	cmp    %ecx,-0x28(%ebp)
 8051bf5:	77 0c                	ja     8051c03 <exit@plt+0x89eb>
 8051bf7:	83 c1 01             	add    $0x1,%ecx
 8051bfa:	89 4d d8             	mov    %ecx,-0x28(%ebp)
 8051bfd:	0f 82 8d 00 00 00    	jb     8051c90 <exit@plt+0x8a78>
 8051c03:	81 7d d8 ff ff ff 0f 	cmpl   $0xfffffff,-0x28(%ebp)
 8051c0a:	0f 87 80 00 00 00    	ja     8051c90 <exit@plt+0x8a78>
 8051c10:	8b 75 10             	mov    0x10(%ebp),%esi
 8051c13:	8b 4d d8             	mov    -0x28(%ebp),%ecx
 8051c16:	8b 46 04             	mov    0x4(%esi),%eax
 8051c19:	c1 e1 04             	shl    $0x4,%ecx
 8051c1c:	85 c0                	test   %eax,%eax
 8051c1e:	0f 84 e3 02 00 00    	je     8051f07 <exit@plt+0x8cef>
 8051c24:	89 4c 24 04          	mov    %ecx,0x4(%esp)
 8051c28:	89 04 24             	mov    %eax,(%esp)
 8051c2b:	88 55 bc             	mov    %dl,-0x44(%ebp)
 8051c2e:	e8 95 72 ff ff       	call   8048ec8 <realloc@plt>
 8051c33:	0f b6 55 bc          	movzbl -0x44(%ebp),%edx
 8051c37:	85 c0                	test   %eax,%eax
 8051c39:	89 c6                	mov    %eax,%esi
 8051c3b:	74 53                	je     8051c90 <exit@plt+0x8a78>
 8051c3d:	8b 45 10             	mov    0x10(%ebp),%eax
 8051c40:	89 70 04             	mov    %esi,0x4(%eax)
 8051c43:	e9 f8 fb ff ff       	jmp    8051840 <exit@plt+0x8628>
 8051c48:	39 45 e4             	cmp    %eax,-0x1c(%ebp)
 8051c4b:	0f 84 58 fc ff ff    	je     80518a9 <exit@plt+0x8691>
 8051c51:	89 f1                	mov    %esi,%ecx
 8051c53:	e9 60 fb ff ff       	jmp    80517b8 <exit@plt+0x85a0>
 8051c58:	83 f8 05             	cmp    $0x5,%eax
 8051c5b:	90                   	nop
 8051c5c:	8d 74 26 00          	lea    0x0(%esi,%eiz,1),%esi
 8051c60:	0f 85 52 fb ff ff    	jne    80517b8 <exit@plt+0x85a0>
 8051c66:	8b 7d d4             	mov    -0x2c(%ebp),%edi
 8051c69:	0f b6 16             	movzbl (%esi),%edx
 8051c6c:	89 7d c8             	mov    %edi,-0x38(%ebp)
 8051c6f:	e9 bb fa ff ff       	jmp    805172f <exit@plt+0x8517>
 8051c74:	8b 45 d8             	mov    -0x28(%ebp),%eax
 8051c77:	c1 7d d8 1f          	sarl   $0x1f,-0x28(%ebp)
 8051c7b:	8b 55 dc             	mov    -0x24(%ebp),%edx
 8051c7e:	01 c0                	add    %eax,%eax
 8051c80:	09 45 d8             	or     %eax,-0x28(%ebp)
 8051c83:	39 55 d8             	cmp    %edx,-0x28(%ebp)
 8051c86:	77 3f                	ja     8051cc7 <exit@plt+0x8aaf>
 8051c88:	83 c2 01             	add    $0x1,%edx
 8051c8b:	89 55 d8             	mov    %edx,-0x28(%ebp)
 8051c8e:	73 37                	jae    8051cc7 <exit@plt+0x8aaf>
 8051c90:	8b 7d 10             	mov    0x10(%ebp),%edi
 8051c93:	8b 47 04             	mov    0x4(%edi),%eax
 8051c96:	85 c0                	test   %eax,%eax
 8051c98:	74 08                	je     8051ca2 <exit@plt+0x8a8a>
 8051c9a:	89 04 24             	mov    %eax,(%esp)
 8051c9d:	e8 56 73 ff ff       	call   8048ff8 <free@plt>
 8051ca2:	8b 55 0c             	mov    0xc(%ebp),%edx
 8051ca5:	8b 42 04             	mov    0x4(%edx),%eax
 8051ca8:	85 c0                	test   %eax,%eax
 8051caa:	74 08                	je     8051cb4 <exit@plt+0x8a9c>
 8051cac:	89 04 24             	mov    %eax,(%esp)
 8051caf:	e8 44 73 ff ff       	call   8048ff8 <free@plt>
 8051cb4:	e8 9f 71 ff ff       	call   8048e58 <__errno_location@plt>
 8051cb9:	c7 00 0c 00 00 00    	movl   $0xc,(%eax)
 8051cbf:	83 c8 ff             	or     $0xffffffff,%eax
 8051cc2:	e9 66 fc ff ff       	jmp    805192d <exit@plt+0x8715>
 8051cc7:	81 7d d8 ff ff ff 0f 	cmpl   $0xfffffff,-0x28(%ebp)
 8051cce:	66 90                	xchg   %ax,%ax
 8051cd0:	77 be                	ja     8051c90 <exit@plt+0x8a78>
 8051cd2:	8b 4d 10             	mov    0x10(%ebp),%ecx
 8051cd5:	8b 45 d8             	mov    -0x28(%ebp),%eax
 8051cd8:	8b 51 04             	mov    0x4(%ecx),%edx
 8051cdb:	c1 e0 04             	shl    $0x4,%eax
 8051cde:	85 d2                	test   %edx,%edx
 8051ce0:	0f 84 07 03 00 00    	je     8051fed <exit@plt+0x8dd5>
 8051ce6:	89 44 24 04          	mov    %eax,0x4(%esp)
 8051cea:	89 14 24             	mov    %edx,(%esp)
 8051ced:	e8 d6 71 ff ff       	call   8048ec8 <realloc@plt>
 8051cf2:	85 c0                	test   %eax,%eax
 8051cf4:	89 c1                	mov    %eax,%ecx
 8051cf6:	74 98                	je     8051c90 <exit@plt+0x8a78>
 8051cf8:	8b 7d 10             	mov    0x10(%ebp),%edi
 8051cfb:	89 47 04             	mov    %eax,0x4(%edi)
 8051cfe:	e9 20 fd ff ff       	jmp    8051a23 <exit@plt+0x880b>
 8051d03:	89 f1                	mov    %esi,%ecx
 8051d05:	31 c0                	xor    %eax,%eax
 8051d07:	89 df                	mov    %ebx,%edi
 8051d09:	8d b4 26 00 00 00 00 	lea    0x0(%esi,%eiz,1),%esi
 8051d10:	3d 99 99 99 19       	cmp    $0x19999999,%eax
 8051d15:	be ff ff ff ff       	mov    $0xffffffff,%esi
 8051d1a:	77 05                	ja     8051d21 <exit@plt+0x8b09>
 8051d1c:	8d 34 80             	lea    (%eax,%eax,4),%esi
 8051d1f:	01 f6                	add    %esi,%esi
 8051d21:	0f be d2             	movsbl %dl,%edx
 8051d24:	8d 44 16 d0          	lea    -0x30(%esi,%edx,1),%eax
 8051d28:	39 f0                	cmp    %esi,%eax
 8051d2a:	19 d2                	sbb    %edx,%edx
 8051d2c:	83 c1 01             	add    $0x1,%ecx
 8051d2f:	09 d0                	or     %edx,%eax
 8051d31:	0f b6 11             	movzbl (%ecx),%edx
 8051d34:	8d 72 d0             	lea    -0x30(%edx),%esi
 8051d37:	89 f3                	mov    %esi,%ebx
 8051d39:	80 fb 09             	cmp    $0x9,%bl
 8051d3c:	76 d2                	jbe    8051d10 <exit@plt+0x8af8>
 8051d3e:	85 c0                	test   %eax,%eax
 8051d40:	89 fb                	mov    %edi,%ebx
 8051d42:	0f 84 d5 02 00 00    	je     805201d <exit@plt+0x8e05>
 8051d48:	83 f8 ff             	cmp    $0xffffffff,%eax
 8051d4b:	0f 84 c1 02 00 00    	je     8052012 <exit@plt+0x8dfa>
 8051d51:	83 e8 01             	sub    $0x1,%eax
 8051d54:	89 45 d0             	mov    %eax,-0x30(%ebp)
 8051d57:	8d 41 01             	lea    0x1(%ecx),%eax
 8051d5a:	0f b6 51 01          	movzbl 0x1(%ecx),%edx
 8051d5e:	e9 58 f9 ff ff       	jmp    80516bb <exit@plt+0x84a3>
 8051d63:	8b 45 e4             	mov    -0x1c(%ebp),%eax
 8051d66:	0f b6 17             	movzbl (%edi),%edx
 8051d69:	89 45 dc             	mov    %eax,-0x24(%ebp)
 8051d6c:	e9 cf f9 ff ff       	jmp    8051740 <exit@plt+0x8528>
 8051d71:	8b 45 dc             	mov    -0x24(%ebp),%eax
 8051d74:	83 f8 ff             	cmp    $0xffffffff,%eax
 8051d77:	89 43 14             	mov    %eax,0x14(%ebx)
 8051d7a:	0f 84 87 02 00 00    	je     8052007 <exit@plt+0x8def>
 8051d80:	8b 4d dc             	mov    -0x24(%ebp),%ecx
 8051d83:	83 c1 01             	add    $0x1,%ecx
 8051d86:	89 4d e4             	mov    %ecx,-0x1c(%ebp)
 8051d89:	e9 83 fc ff ff       	jmp    8051a11 <exit@plt+0x87f9>
 8051d8e:	83 7d c4 01          	cmpl   $0x1,-0x3c(%ebp)
 8051d92:	8d 7e 02             	lea    0x2(%esi),%edi
 8051d95:	89 73 18             	mov    %esi,0x18(%ebx)
 8051d98:	89 7b 1c             	mov    %edi,0x1c(%ebx)
 8051d9b:	0f 86 82 01 00 00    	jbe    8051f23 <exit@plt+0x8d0b>
 8051da1:	0f b6 37             	movzbl (%edi),%esi
 8051da4:	89 f8                	mov    %edi,%eax
 8051da6:	8d 56 d0             	lea    -0x30(%esi),%edx
 8051da9:	80 fa 09             	cmp    $0x9,%dl
 8051dac:	0f 86 7f 00 00 00    	jbe    8051e31 <exit@plt+0x8c19>
 8051db2:	8b 43 20             	mov    0x20(%ebx),%eax
 8051db5:	83 f8 ff             	cmp    $0xffffffff,%eax
 8051db8:	0f 84 dd 01 00 00    	je     8051f9b <exit@plt+0x8d83>
 8051dbe:	8b 75 e4             	mov    -0x1c(%ebp),%esi
 8051dc1:	89 45 e4             	mov    %eax,-0x1c(%ebp)
 8051dc4:	89 75 dc             	mov    %esi,-0x24(%ebp)
 8051dc7:	8b 75 e4             	mov    -0x1c(%ebp),%esi
 8051dca:	39 75 d8             	cmp    %esi,-0x28(%ebp)
 8051dcd:	0f 86 d2 00 00 00    	jbe    8051ea5 <exit@plt+0x8c8d>
 8051dd3:	8b 45 10             	mov    0x10(%ebp),%eax
 8051dd6:	8b 48 04             	mov    0x4(%eax),%ecx
 8051dd9:	8b 55 10             	mov    0x10(%ebp),%edx
 8051ddc:	8b 02                	mov    (%edx),%eax
 8051dde:	3b 45 e4             	cmp    -0x1c(%ebp),%eax
 8051de1:	77 31                	ja     8051e14 <exit@plt+0x8bfc>
 8051de3:	8b 75 10             	mov    0x10(%ebp),%esi
 8051de6:	89 c2                	mov    %eax,%edx
 8051de8:	c1 e2 04             	shl    $0x4,%edx
 8051deb:	8b 76 04             	mov    0x4(%esi),%esi
 8051dee:	89 75 e0             	mov    %esi,-0x20(%ebp)
 8051df1:	8b 75 e4             	mov    -0x1c(%ebp),%esi
 8051df4:	eb 05                	jmp    8051dfb <exit@plt+0x8be3>
 8051df6:	66 90                	xchg   %ax,%ax
 8051df8:	8b 4d e0             	mov    -0x20(%ebp),%ecx
 8051dfb:	83 c0 01             	add    $0x1,%eax
 8051dfe:	c7 04 11 00 00 00 00 	movl   $0x0,(%ecx,%edx,1)
 8051e05:	83 c2 10             	add    $0x10,%edx
 8051e08:	39 f0                	cmp    %esi,%eax
 8051e0a:	76 ec                	jbe    8051df8 <exit@plt+0x8be0>
 8051e0c:	8b 55 10             	mov    0x10(%ebp),%edx
 8051e0f:	8b 4d e0             	mov    -0x20(%ebp),%ecx
 8051e12:	89 02                	mov    %eax,(%edx)
 8051e14:	8b 45 e4             	mov    -0x1c(%ebp),%eax
 8051e17:	c1 e0 04             	shl    $0x4,%eax
 8051e1a:	8d 04 01             	lea    (%ecx,%eax,1),%eax
 8051e1d:	8b 10                	mov    (%eax),%edx
 8051e1f:	85 d2                	test   %edx,%edx
 8051e21:	75 71                	jne    8051e94 <exit@plt+0x8c7c>
 8051e23:	c7 00 05 00 00 00    	movl   $0x5,(%eax)
 8051e29:	0f b6 17             	movzbl (%edi),%edx
 8051e2c:	e9 0f f9 ff ff       	jmp    8051740 <exit@plt+0x8528>
 8051e31:	83 c0 01             	add    $0x1,%eax
 8051e34:	0f b6 10             	movzbl (%eax),%edx
 8051e37:	8d 4a d0             	lea    -0x30(%edx),%ecx
 8051e3a:	80 f9 09             	cmp    $0x9,%cl
 8051e3d:	76 f2                	jbe    8051e31 <exit@plt+0x8c19>
 8051e3f:	80 fa 24             	cmp    $0x24,%dl
 8051e42:	0f 85 6a ff ff ff    	jne    8051db2 <exit@plt+0x8b9a>
 8051e48:	31 c0                	xor    %eax,%eax
 8051e4a:	89 f1                	mov    %esi,%ecx
 8051e4c:	6b d0 0a             	imul   $0xa,%eax,%edx
 8051e4f:	3d 9a 99 99 19       	cmp    $0x1999999a,%eax
 8051e54:	19 c0                	sbb    %eax,%eax
 8051e56:	0f be c9             	movsbl %cl,%ecx
 8051e59:	f7 d0                	not    %eax
 8051e5b:	09 c2                	or     %eax,%edx
 8051e5d:	8d 44 0a d0          	lea    -0x30(%edx,%ecx,1),%eax
 8051e61:	39 d0                	cmp    %edx,%eax
 8051e63:	19 d2                	sbb    %edx,%edx
 8051e65:	83 c7 01             	add    $0x1,%edi
 8051e68:	0f b6 0f             	movzbl (%edi),%ecx
 8051e6b:	09 d0                	or     %edx,%eax
 8051e6d:	8d 51 d0             	lea    -0x30(%ecx),%edx
 8051e70:	80 fa 09             	cmp    $0x9,%dl
 8051e73:	76 d7                	jbe    8051e4c <exit@plt+0x8c34>
 8051e75:	85 c0                	test   %eax,%eax
 8051e77:	0f 84 8a 01 00 00    	je     8052007 <exit@plt+0x8def>
 8051e7d:	83 f8 ff             	cmp    $0xffffffff,%eax
 8051e80:	0f 84 2c f9 ff ff    	je     80517b2 <exit@plt+0x859a>
 8051e86:	83 e8 01             	sub    $0x1,%eax
 8051e89:	83 c7 01             	add    $0x1,%edi
 8051e8c:	89 43 20             	mov    %eax,0x20(%ebx)
 8051e8f:	e9 21 ff ff ff       	jmp    8051db5 <exit@plt+0x8b9d>
 8051e94:	83 fa 05             	cmp    $0x5,%edx
 8051e97:	0f 85 1b f9 ff ff    	jne    80517b8 <exit@plt+0x85a0>
 8051e9d:	0f b6 17             	movzbl (%edi),%edx
 8051ea0:	e9 9b f8 ff ff       	jmp    8051740 <exit@plt+0x8528>
 8051ea5:	8b 45 d8             	mov    -0x28(%ebp),%eax
 8051ea8:	c1 7d d8 1f          	sarl   $0x1f,-0x28(%ebp)
 8051eac:	8b 55 e4             	mov    -0x1c(%ebp),%edx
 8051eaf:	01 c0                	add    %eax,%eax
 8051eb1:	09 45 d8             	or     %eax,-0x28(%ebp)
 8051eb4:	39 55 d8             	cmp    %edx,-0x28(%ebp)
 8051eb7:	77 0c                	ja     8051ec5 <exit@plt+0x8cad>
 8051eb9:	83 c2 01             	add    $0x1,%edx
 8051ebc:	89 55 d8             	mov    %edx,-0x28(%ebp)
 8051ebf:	0f 82 cb fd ff ff    	jb     8051c90 <exit@plt+0x8a78>
 8051ec5:	81 7d d8 ff ff ff 0f 	cmpl   $0xfffffff,-0x28(%ebp)
 8051ecc:	0f 87 be fd ff ff    	ja     8051c90 <exit@plt+0x8a78>
 8051ed2:	8b 4d 10             	mov    0x10(%ebp),%ecx
 8051ed5:	8b 55 d8             	mov    -0x28(%ebp),%edx
 8051ed8:	8b 41 04             	mov    0x4(%ecx),%eax
 8051edb:	c1 e2 04             	shl    $0x4,%edx
 8051ede:	85 c0                	test   %eax,%eax
 8051ee0:	0f 84 14 01 00 00    	je     8051ffa <exit@plt+0x8de2>
 8051ee6:	89 54 24 04          	mov    %edx,0x4(%esp)
 8051eea:	89 04 24             	mov    %eax,(%esp)
 8051eed:	e8 d6 6f ff ff       	call   8048ec8 <realloc@plt>
 8051ef2:	85 c0                	test   %eax,%eax
 8051ef4:	89 c1                	mov    %eax,%ecx
 8051ef6:	0f 84 94 fd ff ff    	je     8051c90 <exit@plt+0x8a78>
 8051efc:	8b 75 10             	mov    0x10(%ebp),%esi
 8051eff:	89 46 04             	mov    %eax,0x4(%esi)
 8051f02:	e9 d2 fe ff ff       	jmp    8051dd9 <exit@plt+0x8bc1>
 8051f07:	89 0c 24             	mov    %ecx,(%esp)
 8051f0a:	88 55 bc             	mov    %dl,-0x44(%ebp)
 8051f0d:	e8 e6 71 ff ff       	call   80490f8 <malloc@plt>
 8051f12:	0f b6 55 bc          	movzbl -0x44(%ebp),%edx
 8051f16:	e9 1c fd ff ff       	jmp    8051c37 <exit@plt+0x8a1f>
 8051f1b:	89 4b 10             	mov    %ecx,0x10(%ebx)
 8051f1e:	e9 d5 fb ff ff       	jmp    8051af8 <exit@plt+0x88e0>
 8051f23:	c7 45 c4 02 00 00 00 	movl   $0x2,-0x3c(%ebp)
 8051f2a:	e9 72 fe ff ff       	jmp    8051da1 <exit@plt+0x8b89>
 8051f2f:	83 fe 07             	cmp    $0x7,%esi
 8051f32:	c7 45 e4 08 00 00 00 	movl   $0x8,-0x1c(%ebp)
 8051f39:	0f 8f c7 f8 ff ff    	jg     8051806 <exit@plt+0x85ee>
 8051f3f:	f7 c6 02 00 00 00    	test   $0x2,%esi
 8051f45:	c7 45 e4 02 00 00 00 	movl   $0x2,-0x1c(%ebp)
 8051f4c:	0f 85 b4 f8 ff ff    	jne    8051806 <exit@plt+0x85ee>
 8051f52:	83 e6 01             	and    $0x1,%esi
 8051f55:	83 fe 01             	cmp    $0x1,%esi
 8051f58:	19 c0                	sbb    %eax,%eax
 8051f5a:	83 e0 02             	and    $0x2,%eax
 8051f5d:	83 c0 04             	add    $0x4,%eax
 8051f60:	89 45 e4             	mov    %eax,-0x1c(%ebp)
 8051f63:	e9 9e f8 ff ff       	jmp    8051806 <exit@plt+0x85ee>
 8051f68:	83 fe 07             	cmp    $0x7,%esi
 8051f6b:	c7 45 e4 15 00 00 00 	movl   $0x15,-0x1c(%ebp)
 8051f72:	0f 8f 8e f8 ff ff    	jg     8051806 <exit@plt+0x85ee>
 8051f78:	f7 c6 02 00 00 00    	test   $0x2,%esi
 8051f7e:	c7 45 e4 12 00 00 00 	movl   $0x12,-0x1c(%ebp)
 8051f85:	0f 85 7b f8 ff ff    	jne    8051806 <exit@plt+0x85ee>
 8051f8b:	83 e6 01             	and    $0x1,%esi
 8051f8e:	f7 de                	neg    %esi
 8051f90:	83 c6 14             	add    $0x14,%esi
 8051f93:	89 75 e4             	mov    %esi,-0x1c(%ebp)
 8051f96:	e9 6b f8 ff ff       	jmp    8051806 <exit@plt+0x85ee>
 8051f9b:	8b 45 e4             	mov    -0x1c(%ebp),%eax
 8051f9e:	83 f8 ff             	cmp    $0xffffffff,%eax
 8051fa1:	89 43 20             	mov    %eax,0x20(%ebx)
 8051fa4:	74 61                	je     8052007 <exit@plt+0x8def>
 8051fa6:	8b 4d e4             	mov    -0x1c(%ebp),%ecx
 8051fa9:	83 c1 01             	add    $0x1,%ecx
 8051fac:	89 4d dc             	mov    %ecx,-0x24(%ebp)
 8051faf:	e9 13 fe ff ff       	jmp    8051dc7 <exit@plt+0x8baf>
 8051fb4:	83 fe 07             	cmp    $0x7,%esi
 8051fb7:	c7 45 e4 07 00 00 00 	movl   $0x7,-0x1c(%ebp)
 8051fbe:	0f 8f 42 f8 ff ff    	jg     8051806 <exit@plt+0x85ee>
 8051fc4:	f7 c6 02 00 00 00    	test   $0x2,%esi
 8051fca:	c7 45 e4 01 00 00 00 	movl   $0x1,-0x1c(%ebp)
 8051fd1:	0f 85 2f f8 ff ff    	jne    8051806 <exit@plt+0x85ee>
 8051fd7:	83 e6 01             	and    $0x1,%esi
 8051fda:	83 fe 01             	cmp    $0x1,%esi
 8051fdd:	19 f6                	sbb    %esi,%esi
 8051fdf:	83 e6 02             	and    $0x2,%esi
 8051fe2:	83 c6 03             	add    $0x3,%esi
 8051fe5:	89 75 e4             	mov    %esi,-0x1c(%ebp)
 8051fe8:	e9 19 f8 ff ff       	jmp    8051806 <exit@plt+0x85ee>
 8051fed:	89 04 24             	mov    %eax,(%esp)
 8051ff0:	e8 03 71 ff ff       	call   80490f8 <malloc@plt>
 8051ff5:	e9 f8 fc ff ff       	jmp    8051cf2 <exit@plt+0x8ada>
 8051ffa:	89 14 24             	mov    %edx,(%esp)
 8051ffd:	e8 f6 70 ff ff       	call   80490f8 <malloc@plt>
 8052002:	e9 eb fe ff ff       	jmp    8051ef2 <exit@plt+0x8cda>
 8052007:	8b 55 10             	mov    0x10(%ebp),%edx
 805200a:	8b 4a 04             	mov    0x4(%edx),%ecx
 805200d:	e9 a6 f7 ff ff       	jmp    80517b8 <exit@plt+0x85a0>
 8052012:	8b 7d 10             	mov    0x10(%ebp),%edi
 8052015:	8b 4f 04             	mov    0x4(%edi),%ecx
 8052018:	e9 9b f7 ff ff       	jmp    80517b8 <exit@plt+0x85a0>
 805201d:	8b 75 10             	mov    0x10(%ebp),%esi
 8052020:	8b 4e 04             	mov    0x4(%esi),%ecx
 8052023:	e9 90 f7 ff ff       	jmp    80517b8 <exit@plt+0x85a0>
 8052028:	90                   	nop
 8052029:	90                   	nop
 805202a:	90                   	nop
 805202b:	90                   	nop
 805202c:	90                   	nop
 805202d:	90                   	nop
 805202e:	90                   	nop
 805202f:	90                   	nop
 8052030:	55                   	push   %ebp
 8052031:	89 e5                	mov    %esp,%ebp
 8052033:	5d                   	pop    %ebp
 8052034:	c3                   	ret    
 8052035:	8d 74 26 00          	lea    0x0(%esi,%eiz,1),%esi
 8052039:	8d bc 27 00 00 00 00 	lea    0x0(%edi,%eiz,1),%edi
 8052040:	55                   	push   %ebp
 8052041:	89 e5                	mov    %esp,%ebp
 8052043:	57                   	push   %edi
 8052044:	56                   	push   %esi
 8052045:	53                   	push   %ebx
 8052046:	e8 4f 00 00 00       	call   805209a <exit@plt+0x8e82>
 805204b:	81 c3 a9 2f 00 00    	add    $0x2fa9,%ebx
 8052051:	83 ec 1c             	sub    $0x1c,%esp
 8052054:	e8 9f 6d ff ff       	call   8048df8 <getpagesize@plt-0x40>
 8052059:	8d bb 14 ff ff ff    	lea    -0xec(%ebx),%edi
 805205f:	8d 83 14 ff ff ff    	lea    -0xec(%ebx),%eax
 8052065:	29 c7                	sub    %eax,%edi
 8052067:	c1 ff 02             	sar    $0x2,%edi
 805206a:	85 ff                	test   %edi,%edi
 805206c:	74 24                	je     8052092 <exit@plt+0x8e7a>
 805206e:	31 f6                	xor    %esi,%esi
 8052070:	8b 45 10             	mov    0x10(%ebp),%eax
 8052073:	89 44 24 08          	mov    %eax,0x8(%esp)
 8052077:	8b 45 0c             	mov    0xc(%ebp),%eax
 805207a:	89 44 24 04          	mov    %eax,0x4(%esp)
 805207e:	8b 45 08             	mov    0x8(%ebp),%eax
 8052081:	89 04 24             	mov    %eax,(%esp)
 8052084:	ff 94 b3 14 ff ff ff 	call   *-0xec(%ebx,%esi,4)
 805208b:	83 c6 01             	add    $0x1,%esi
 805208e:	39 fe                	cmp    %edi,%esi
 8052090:	72 de                	jb     8052070 <exit@plt+0x8e58>
 8052092:	83 c4 1c             	add    $0x1c,%esp
 8052095:	5b                   	pop    %ebx
 8052096:	5e                   	pop    %esi
 8052097:	5f                   	pop    %edi
 8052098:	5d                   	pop    %ebp
 8052099:	c3                   	ret    
 805209a:	8b 1c 24             	mov    (%esp),%ebx
 805209d:	c3                   	ret    
 805209e:	90                   	nop
 805209f:	90                   	nop
 80520a0:	55                   	push   %ebp
 80520a1:	89 e5                	mov    %esp,%ebp
 80520a3:	53                   	push   %ebx
 80520a4:	e8 f1 ff ff ff       	call   805209a <exit@plt+0x8e82>
 80520a9:	81 c3 4b 2f 00 00    	add    $0x2f4b,%ebx
 80520af:	83 ec 0c             	sub    $0xc,%esp
 80520b2:	8b 83 fc ff ff ff    	mov    -0x4(%ebx),%eax
 80520b8:	85 c0                	test   %eax,%eax
 80520ba:	74 02                	je     80520be <exit@plt+0x8ea6>
 80520bc:	8b 00                	mov    (%eax),%eax
 80520be:	89 44 24 08          	mov    %eax,0x8(%esp)
 80520c2:	8b 45 08             	mov    0x8(%ebp),%eax
 80520c5:	c7 44 24 04 00 00 00 	movl   $0x0,0x4(%esp)
 80520cc:	00 
 80520cd:	89 04 24             	mov    %eax,(%esp)
 80520d0:	e8 93 6d ff ff       	call   8048e68 <__cxa_atexit@plt>
 80520d5:	83 c4 0c             	add    $0xc,%esp
 80520d8:	5b                   	pop    %ebx
 80520d9:	5d                   	pop    %ebp
 80520da:	c3                   	ret    
 80520db:	90                   	nop
 80520dc:	90                   	nop
 80520dd:	90                   	nop
 80520de:	90                   	nop
 80520df:	90                   	nop
 80520e0:	55                   	push   %ebp
 80520e1:	89 e5                	mov    %esp,%ebp
 80520e3:	53                   	push   %ebx
 80520e4:	83 ec 04             	sub    $0x4,%esp
 80520e7:	a1 08 4f 05 08       	mov    0x8054f08,%eax
 80520ec:	83 f8 ff             	cmp    $0xffffffff,%eax
 80520ef:	74 13                	je     8052104 <exit@plt+0x8eec>
 80520f1:	bb 08 4f 05 08       	mov    $0x8054f08,%ebx
 80520f6:	66 90                	xchg   %ax,%ax
 80520f8:	83 eb 04             	sub    $0x4,%ebx
 80520fb:	ff d0                	call   *%eax
 80520fd:	8b 03                	mov    (%ebx),%eax
 80520ff:	83 f8 ff             	cmp    $0xffffffff,%eax
 8052102:	75 f4                	jne    80520f8 <exit@plt+0x8ee0>
 8052104:	83 c4 04             	add    $0x4,%esp
 8052107:	5b                   	pop    %ebx
 8052108:	5d                   	pop    %ebp
 8052109:	c3                   	ret    
 805210a:	90                   	nop
 805210b:	90                   	nop

Disassembly of section .fini:

0805210c <.fini>:
 805210c:	55                   	push   %ebp
 805210d:	89 e5                	mov    %esp,%ebp
 805210f:	53                   	push   %ebx
 8052110:	83 ec 04             	sub    $0x4,%esp
 8052113:	e8 00 00 00 00       	call   8052118 <exit@plt+0x8f00>
 8052118:	5b                   	pop    %ebx
 8052119:	81 c3 dc 2e 00 00    	add    $0x2edc,%ebx
 805211f:	e8 3c 71 ff ff       	call   8049260 <exit@plt+0x48>
 8052124:	59                   	pop    %ecx
 8052125:	5b                   	pop    %ebx
 8052126:	c9                   	leave  
 8052127:	c3                   	ret    
