
fuser:     file format elf32-i386


Disassembly of section .init:

08048b4c <.init>:
 8048b4c:	55                   	push   %ebp
 8048b4d:	89 e5                	mov    %esp,%ebp
 8048b4f:	53                   	push   %ebx
 8048b50:	83 ec 04             	sub    $0x4,%esp
 8048b53:	e8 00 00 00 00       	call   8048b58 <__errno_location@plt-0x34>
 8048b58:	5b                   	pop    %ebx
 8048b59:	81 c3 9c 64 00 00    	add    $0x649c,%ebx
 8048b5f:	8b 93 fc ff ff ff    	mov    -0x4(%ebx),%edx
 8048b65:	85 d2                	test   %edx,%edx
 8048b67:	74 05                	je     8048b6e <__errno_location@plt-0x1e>
 8048b69:	e8 7e 00 00 00       	call   8048bec <__gmon_start__@plt>
 8048b6e:	e8 9d 03 00 00       	call   8048f10 <exit@plt+0xa4>
 8048b73:	e8 78 3f 00 00       	call   804caf0 <exit@plt+0x3c84>
 8048b78:	58                   	pop    %eax
 8048b79:	5b                   	pop    %ebx
 8048b7a:	c9                   	leave  
 8048b7b:	c3                   	ret    

Disassembly of section .plt:

08048b7c <__errno_location@plt-0x10>:
 8048b7c:	ff 35 f8 ef 04 08    	pushl  0x804eff8
 8048b82:	ff 25 fc ef 04 08    	jmp    *0x804effc
 8048b88:	00 00                	add    %al,(%eax)
	...

08048b8c <__errno_location@plt>:
 8048b8c:	ff 25 00 f0 04 08    	jmp    *0x804f000
 8048b92:	68 00 00 00 00       	push   $0x0
 8048b97:	e9 e0 ff ff ff       	jmp    8048b7c <__errno_location@plt-0x10>

08048b9c <inet_ntop@plt>:
 8048b9c:	ff 25 04 f0 04 08    	jmp    *0x804f004
 8048ba2:	68 08 00 00 00       	push   $0x8
 8048ba7:	e9 d0 ff ff ff       	jmp    8048b7c <__errno_location@plt-0x10>

08048bac <getpid@plt>:
 8048bac:	ff 25 08 f0 04 08    	jmp    *0x804f008
 8048bb2:	68 10 00 00 00       	push   $0x10
 8048bb7:	e9 c0 ff ff ff       	jmp    8048b7c <__errno_location@plt-0x10>

08048bbc <strerror@plt>:
 8048bbc:	ff 25 0c f0 04 08    	jmp    *0x804f00c
 8048bc2:	68 18 00 00 00       	push   $0x18
 8048bc7:	e9 b0 ff ff ff       	jmp    8048b7c <__errno_location@plt-0x10>

08048bcc <freeaddrinfo@plt>:
 8048bcc:	ff 25 10 f0 04 08    	jmp    *0x804f010
 8048bd2:	68 20 00 00 00       	push   $0x20
 8048bd7:	e9 a0 ff ff ff       	jmp    8048b7c <__errno_location@plt-0x10>

08048bdc <__fprintf_chk@plt>:
 8048bdc:	ff 25 14 f0 04 08    	jmp    *0x804f014
 8048be2:	68 28 00 00 00       	push   $0x28
 8048be7:	e9 90 ff ff ff       	jmp    8048b7c <__errno_location@plt-0x10>

08048bec <__gmon_start__@plt>:
 8048bec:	ff 25 18 f0 04 08    	jmp    *0x804f018
 8048bf2:	68 30 00 00 00       	push   $0x30
 8048bf7:	e9 80 ff ff ff       	jmp    8048b7c <__errno_location@plt-0x10>

08048bfc <__getdelim@plt>:
 8048bfc:	ff 25 1c f0 04 08    	jmp    *0x804f01c
 8048c02:	68 38 00 00 00       	push   $0x38
 8048c07:	e9 70 ff ff ff       	jmp    8048b7c <__errno_location@plt-0x10>

08048c0c <__xstat64@plt>:
 8048c0c:	ff 25 20 f0 04 08    	jmp    *0x804f020
 8048c12:	68 40 00 00 00       	push   $0x40
 8048c17:	e9 60 ff ff ff       	jmp    8048b7c <__errno_location@plt-0x10>

08048c1c <__printf_chk@plt>:
 8048c1c:	ff 25 24 f0 04 08    	jmp    *0x804f024
 8048c22:	68 48 00 00 00       	push   $0x48
 8048c27:	e9 50 ff ff ff       	jmp    8048b7c <__errno_location@plt-0x10>

08048c2c <strchr@plt>:
 8048c2c:	ff 25 28 f0 04 08    	jmp    *0x804f028
 8048c32:	68 50 00 00 00       	push   $0x50
 8048c37:	e9 40 ff ff ff       	jmp    8048b7c <__errno_location@plt-0x10>

08048c3c <fgets@plt>:
 8048c3c:	ff 25 2c f0 04 08    	jmp    *0x804f02c
 8048c42:	68 58 00 00 00       	push   $0x58
 8048c47:	e9 30 ff ff ff       	jmp    8048b7c <__errno_location@plt-0x10>

08048c4c <fopen64@plt>:
 8048c4c:	ff 25 30 f0 04 08    	jmp    *0x804f030
 8048c52:	68 60 00 00 00       	push   $0x60
 8048c57:	e9 20 ff ff ff       	jmp    8048b7c <__errno_location@plt-0x10>

08048c5c <__libc_start_main@plt>:
 8048c5c:	ff 25 34 f0 04 08    	jmp    *0x804f034
 8048c62:	68 68 00 00 00       	push   $0x68
 8048c67:	e9 10 ff ff ff       	jmp    8048b7c <__errno_location@plt-0x10>

08048c6c <bindtextdomain@plt>:
 8048c6c:	ff 25 38 f0 04 08    	jmp    *0x804f038
 8048c72:	68 70 00 00 00       	push   $0x70
 8048c77:	e9 00 ff ff ff       	jmp    8048b7c <__errno_location@plt-0x10>

08048c7c <strtol@plt>:
 8048c7c:	ff 25 3c f0 04 08    	jmp    *0x804f03c
 8048c82:	68 78 00 00 00       	push   $0x78
 8048c87:	e9 f0 fe ff ff       	jmp    8048b7c <__errno_location@plt-0x10>

08048c8c <free@plt>:
 8048c8c:	ff 25 40 f0 04 08    	jmp    *0x804f040
 8048c92:	68 80 00 00 00       	push   $0x80
 8048c97:	e9 e0 fe ff ff       	jmp    8048b7c <__errno_location@plt-0x10>

08048c9c <__lxstat64@plt>:
 8048c9c:	ff 25 44 f0 04 08    	jmp    *0x804f044
 8048ca2:	68 88 00 00 00       	push   $0x88
 8048ca7:	e9 d0 fe ff ff       	jmp    8048b7c <__errno_location@plt-0x10>

08048cac <dcgettext@plt>:
 8048cac:	ff 25 48 f0 04 08    	jmp    *0x804f048
 8048cb2:	68 90 00 00 00       	push   $0x90
 8048cb7:	e9 c0 fe ff ff       	jmp    8048b7c <__errno_location@plt-0x10>

08048cbc <__asprintf_chk@plt>:
 8048cbc:	ff 25 4c f0 04 08    	jmp    *0x804f04c
 8048cc2:	68 98 00 00 00       	push   $0x98
 8048cc7:	e9 b0 fe ff ff       	jmp    8048b7c <__errno_location@plt-0x10>

08048ccc <fflush@plt>:
 8048ccc:	ff 25 50 f0 04 08    	jmp    *0x804f050
 8048cd2:	68 a0 00 00 00       	push   $0xa0
 8048cd7:	e9 a0 fe ff ff       	jmp    8048b7c <__errno_location@plt-0x10>

08048cdc <opendir@plt>:
 8048cdc:	ff 25 54 f0 04 08    	jmp    *0x804f054
 8048ce2:	68 a8 00 00 00       	push   $0xa8
 8048ce7:	e9 90 fe ff ff       	jmp    8048b7c <__errno_location@plt-0x10>

08048cec <socket@plt>:
 8048cec:	ff 25 58 f0 04 08    	jmp    *0x804f058
 8048cf2:	68 b0 00 00 00       	push   $0xb0
 8048cf7:	e9 80 fe ff ff       	jmp    8048b7c <__errno_location@plt-0x10>

08048cfc <__ctype_b_loc@plt>:
 8048cfc:	ff 25 5c f0 04 08    	jmp    *0x804f05c
 8048d02:	68 b8 00 00 00       	push   $0xb8
 8048d07:	e9 70 fe ff ff       	jmp    8048b7c <__errno_location@plt-0x10>

08048d0c <getaddrinfo@plt>:
 8048d0c:	ff 25 60 f0 04 08    	jmp    *0x804f060
 8048d12:	68 c0 00 00 00       	push   $0xc0
 8048d17:	e9 60 fe ff ff       	jmp    8048b7c <__errno_location@plt-0x10>

08048d1c <fclose@plt>:
 8048d1c:	ff 25 64 f0 04 08    	jmp    *0x804f064
 8048d22:	68 c8 00 00 00       	push   $0xc8
 8048d27:	e9 50 fe ff ff       	jmp    8048b7c <__errno_location@plt-0x10>

08048d2c <readdir64@plt>:
 8048d2c:	ff 25 68 f0 04 08    	jmp    *0x804f068
 8048d32:	68 d0 00 00 00       	push   $0xd0
 8048d37:	e9 40 fe ff ff       	jmp    8048b7c <__errno_location@plt-0x10>

08048d3c <strlen@plt>:
 8048d3c:	ff 25 6c f0 04 08    	jmp    *0x804f06c
 8048d42:	68 d8 00 00 00       	push   $0xd8
 8048d47:	e9 30 fe ff ff       	jmp    8048b7c <__errno_location@plt-0x10>

08048d4c <getpwuid@plt>:
 8048d4c:	ff 25 70 f0 04 08    	jmp    *0x804f070
 8048d52:	68 e0 00 00 00       	push   $0xe0
 8048d57:	e9 20 fe ff ff       	jmp    8048b7c <__errno_location@plt-0x10>

08048d5c <gai_strerror@plt>:
 8048d5c:	ff 25 74 f0 04 08    	jmp    *0x804f074
 8048d62:	68 e8 00 00 00       	push   $0xe8
 8048d67:	e9 10 fe ff ff       	jmp    8048b7c <__errno_location@plt-0x10>

08048d6c <setlocale@plt>:
 8048d6c:	ff 25 78 f0 04 08    	jmp    *0x804f078
 8048d72:	68 f0 00 00 00       	push   $0xf0
 8048d77:	e9 00 fe ff ff       	jmp    8048b7c <__errno_location@plt-0x10>

08048d7c <rpmatch@plt>:
 8048d7c:	ff 25 7c f0 04 08    	jmp    *0x804f07c
 8048d82:	68 f8 00 00 00       	push   $0xf8
 8048d87:	e9 f0 fd ff ff       	jmp    8048b7c <__errno_location@plt-0x10>

08048d8c <closedir@plt>:
 8048d8c:	ff 25 80 f0 04 08    	jmp    *0x804f080
 8048d92:	68 00 01 00 00       	push   $0x100
 8048d97:	e9 e0 fd ff ff       	jmp    8048b7c <__errno_location@plt-0x10>

08048d9c <close@plt>:
 8048d9c:	ff 25 84 f0 04 08    	jmp    *0x804f084
 8048da2:	68 08 01 00 00       	push   $0x108
 8048da7:	e9 d0 fd ff ff       	jmp    8048b7c <__errno_location@plt-0x10>

08048dac <malloc@plt>:
 8048dac:	ff 25 88 f0 04 08    	jmp    *0x804f088
 8048db2:	68 10 01 00 00       	push   $0x110
 8048db7:	e9 c0 fd ff ff       	jmp    8048b7c <__errno_location@plt-0x10>

08048dbc <__stack_chk_fail@plt>:
 8048dbc:	ff 25 8c f0 04 08    	jmp    *0x804f08c
 8048dc2:	68 18 01 00 00       	push   $0x118
 8048dc7:	e9 b0 fd ff ff       	jmp    8048b7c <__errno_location@plt-0x10>

08048dcc <textdomain@plt>:
 8048dcc:	ff 25 90 f0 04 08    	jmp    *0x804f090
 8048dd2:	68 20 01 00 00       	push   $0x120
 8048dd7:	e9 a0 fd ff ff       	jmp    8048b7c <__errno_location@plt-0x10>

08048ddc <__fxstat64@plt>:
 8048ddc:	ff 25 94 f0 04 08    	jmp    *0x804f094
 8048de2:	68 28 01 00 00       	push   $0x128
 8048de7:	e9 90 fd ff ff       	jmp    8048b7c <__errno_location@plt-0x10>

08048dec <sscanf@plt>:
 8048dec:	ff 25 98 f0 04 08    	jmp    *0x804f098
 8048df2:	68 30 01 00 00       	push   $0x130
 8048df7:	e9 80 fd ff ff       	jmp    8048b7c <__errno_location@plt-0x10>

08048dfc <fscanf@plt>:
 8048dfc:	ff 25 9c f0 04 08    	jmp    *0x804f09c
 8048e02:	68 38 01 00 00       	push   $0x138
 8048e07:	e9 70 fd ff ff       	jmp    8048b7c <__errno_location@plt-0x10>

08048e0c <__sprintf_chk@plt>:
 8048e0c:	ff 25 a0 f0 04 08    	jmp    *0x804f0a0
 8048e12:	68 40 01 00 00       	push   $0x140
 8048e17:	e9 60 fd ff ff       	jmp    8048b7c <__errno_location@plt-0x10>

08048e1c <__snprintf_chk@plt>:
 8048e1c:	ff 25 a4 f0 04 08    	jmp    *0x804f0a4
 8048e22:	68 48 01 00 00       	push   $0x148
 8048e27:	e9 50 fd ff ff       	jmp    8048b7c <__errno_location@plt-0x10>

08048e2c <_IO_putc@plt>:
 8048e2c:	ff 25 a8 f0 04 08    	jmp    *0x804f0a8
 8048e32:	68 50 01 00 00       	push   $0x150
 8048e37:	e9 40 fd ff ff       	jmp    8048b7c <__errno_location@plt-0x10>

08048e3c <kill@plt>:
 8048e3c:	ff 25 ac f0 04 08    	jmp    *0x804f0ac
 8048e42:	68 58 01 00 00       	push   $0x158
 8048e47:	e9 30 fd ff ff       	jmp    8048b7c <__errno_location@plt-0x10>

08048e4c <strcmp@plt>:
 8048e4c:	ff 25 b0 f0 04 08    	jmp    *0x804f0b0
 8048e52:	68 60 01 00 00       	push   $0x160
 8048e57:	e9 20 fd ff ff       	jmp    8048b7c <__errno_location@plt-0x10>

08048e5c <__strdup@plt>:
 8048e5c:	ff 25 b4 f0 04 08    	jmp    *0x804f0b4
 8048e62:	68 68 01 00 00       	push   $0x168
 8048e67:	e9 10 fd ff ff       	jmp    8048b7c <__errno_location@plt-0x10>

08048e6c <exit@plt>:
 8048e6c:	ff 25 b8 f0 04 08    	jmp    *0x804f0b8
 8048e72:	68 70 01 00 00       	push   $0x170
 8048e77:	e9 00 fd ff ff       	jmp    8048b7c <__errno_location@plt-0x10>

Disassembly of section .text:

08048e80 <.text>:
 8048e80:	31 ed                	xor    %ebp,%ebp
 8048e82:	5e                   	pop    %esi
 8048e83:	89 e1                	mov    %esp,%ecx
 8048e85:	83 e4 f0             	and    $0xfffffff0,%esp
 8048e88:	50                   	push   %eax
 8048e89:	54                   	push   %esp
 8048e8a:	52                   	push   %edx
 8048e8b:	68 80 ca 04 08       	push   $0x804ca80
 8048e90:	68 90 ca 04 08       	push   $0x804ca90
 8048e95:	51                   	push   %ecx
 8048e96:	56                   	push   %esi
 8048e97:	68 a0 b1 04 08       	push   $0x804b1a0
 8048e9c:	e8 bb fd ff ff       	call   8048c5c <__libc_start_main@plt>
 8048ea1:	f4                   	hlt    
 8048ea2:	90                   	nop
 8048ea3:	90                   	nop
 8048ea4:	90                   	nop
 8048ea5:	90                   	nop
 8048ea6:	90                   	nop
 8048ea7:	90                   	nop
 8048ea8:	90                   	nop
 8048ea9:	90                   	nop
 8048eaa:	90                   	nop
 8048eab:	90                   	nop
 8048eac:	90                   	nop
 8048ead:	90                   	nop
 8048eae:	90                   	nop
 8048eaf:	90                   	nop
 8048eb0:	55                   	push   %ebp
 8048eb1:	89 e5                	mov    %esp,%ebp
 8048eb3:	53                   	push   %ebx
 8048eb4:	83 ec 04             	sub    $0x4,%esp
 8048eb7:	80 3d 24 f2 04 08 00 	cmpb   $0x0,0x804f224
 8048ebe:	75 3f                	jne    8048eff <exit@plt+0x93>
 8048ec0:	a1 28 f2 04 08       	mov    0x804f228,%eax
 8048ec5:	bb 18 ef 04 08       	mov    $0x804ef18,%ebx
 8048eca:	81 eb 14 ef 04 08    	sub    $0x804ef14,%ebx
 8048ed0:	c1 fb 02             	sar    $0x2,%ebx
 8048ed3:	83 eb 01             	sub    $0x1,%ebx
 8048ed6:	39 d8                	cmp    %ebx,%eax
 8048ed8:	73 1e                	jae    8048ef8 <exit@plt+0x8c>
 8048eda:	8d b6 00 00 00 00    	lea    0x0(%esi),%esi
 8048ee0:	83 c0 01             	add    $0x1,%eax
 8048ee3:	a3 28 f2 04 08       	mov    %eax,0x804f228
 8048ee8:	ff 14 85 14 ef 04 08 	call   *0x804ef14(,%eax,4)
 8048eef:	a1 28 f2 04 08       	mov    0x804f228,%eax
 8048ef4:	39 d8                	cmp    %ebx,%eax
 8048ef6:	72 e8                	jb     8048ee0 <exit@plt+0x74>
 8048ef8:	c6 05 24 f2 04 08 01 	movb   $0x1,0x804f224
 8048eff:	83 c4 04             	add    $0x4,%esp
 8048f02:	5b                   	pop    %ebx
 8048f03:	5d                   	pop    %ebp
 8048f04:	c3                   	ret    
 8048f05:	8d 74 26 00          	lea    0x0(%esi,%eiz,1),%esi
 8048f09:	8d bc 27 00 00 00 00 	lea    0x0(%edi,%eiz,1),%edi
 8048f10:	55                   	push   %ebp
 8048f11:	89 e5                	mov    %esp,%ebp
 8048f13:	83 ec 18             	sub    $0x18,%esp
 8048f16:	a1 1c ef 04 08       	mov    0x804ef1c,%eax
 8048f1b:	85 c0                	test   %eax,%eax
 8048f1d:	74 12                	je     8048f31 <exit@plt+0xc5>
 8048f1f:	b8 00 00 00 00       	mov    $0x0,%eax
 8048f24:	85 c0                	test   %eax,%eax
 8048f26:	74 09                	je     8048f31 <exit@plt+0xc5>
 8048f28:	c7 04 24 1c ef 04 08 	movl   $0x804ef1c,(%esp)
 8048f2f:	ff d0                	call   *%eax
 8048f31:	c9                   	leave  
 8048f32:	c3                   	ret    
 8048f33:	90                   	nop
 8048f34:	90                   	nop
 8048f35:	90                   	nop
 8048f36:	90                   	nop
 8048f37:	90                   	nop
 8048f38:	90                   	nop
 8048f39:	90                   	nop
 8048f3a:	90                   	nop
 8048f3b:	90                   	nop
 8048f3c:	90                   	nop
 8048f3d:	90                   	nop
 8048f3e:	90                   	nop
 8048f3f:	90                   	nop
 8048f40:	55                   	push   %ebp
 8048f41:	89 e5                	mov    %esp,%ebp
 8048f43:	83 ec 48             	sub    $0x48,%esp
 8048f46:	89 5d f4             	mov    %ebx,-0xc(%ebp)
 8048f49:	8b 4d 08             	mov    0x8(%ebp),%ecx
 8048f4c:	89 75 f8             	mov    %esi,-0x8(%ebp)
 8048f4f:	8b 5d 0c             	mov    0xc(%ebp),%ebx
 8048f52:	89 7d fc             	mov    %edi,-0x4(%ebp)
 8048f55:	89 c7                	mov    %eax,%edi
 8048f57:	8b 00                	mov    (%eax),%eax
 8048f59:	89 55 d4             	mov    %edx,-0x2c(%ebp)
 8048f5c:	8b 75 14             	mov    0x14(%ebp),%esi
 8048f5f:	89 4d d8             	mov    %ecx,-0x28(%ebp)
 8048f62:	89 5d dc             	mov    %ebx,-0x24(%ebp)
 8048f65:	8b 5d 10             	mov    0x10(%ebp),%ebx
 8048f68:	89 45 e4             	mov    %eax,-0x1c(%ebp)
 8048f6b:	c7 04 24 18 00 00 00 	movl   $0x18,(%esp)
 8048f72:	e8 35 fe ff ff       	call   8048dac <malloc@plt>
 8048f77:	8b 55 d4             	mov    -0x2c(%ebp),%edx
 8048f7a:	85 c0                	test   %eax,%eax
 8048f7c:	74 1c                	je     8048f9a <exit@plt+0x12e>
 8048f7e:	8b 4d dc             	mov    -0x24(%ebp),%ecx
 8048f81:	89 10                	mov    %edx,(%eax)
 8048f83:	8b 55 d8             	mov    -0x28(%ebp),%edx
 8048f86:	89 58 0c             	mov    %ebx,0xc(%eax)
 8048f89:	89 70 10             	mov    %esi,0x10(%eax)
 8048f8c:	89 48 08             	mov    %ecx,0x8(%eax)
 8048f8f:	8b 4d e4             	mov    -0x1c(%ebp),%ecx
 8048f92:	89 50 04             	mov    %edx,0x4(%eax)
 8048f95:	89 48 14             	mov    %ecx,0x14(%eax)
 8048f98:	89 07                	mov    %eax,(%edi)
 8048f9a:	8b 5d f4             	mov    -0xc(%ebp),%ebx
 8048f9d:	8b 75 f8             	mov    -0x8(%ebp),%esi
 8048fa0:	8b 7d fc             	mov    -0x4(%ebp),%edi
 8048fa3:	89 ec                	mov    %ebp,%esp
 8048fa5:	5d                   	pop    %ebp
 8048fa6:	c3                   	ret    
 8048fa7:	89 f6                	mov    %esi,%esi
 8048fa9:	8d bc 27 00 00 00 00 	lea    0x0(%edi,%eiz,1),%edi
 8048fb0:	55                   	push   %ebp
 8048fb1:	89 e5                	mov    %esp,%ebp
 8048fb3:	83 ec 38             	sub    $0x38,%esp
 8048fb6:	89 5d f4             	mov    %ebx,-0xc(%ebp)
 8048fb9:	8b 5d 08             	mov    0x8(%ebp),%ebx
 8048fbc:	89 7d fc             	mov    %edi,-0x4(%ebp)
 8048fbf:	8b 7d 0c             	mov    0xc(%ebp),%edi
 8048fc2:	89 75 f8             	mov    %esi,-0x8(%ebp)
 8048fc5:	8b 43 18             	mov    0x18(%ebx),%eax
 8048fc8:	25 00 f0 00 00       	and    $0xf000,%eax
 8048fcd:	3d 00 60 00 00       	cmp    $0x6000,%eax
 8048fd2:	74 44                	je     8049018 <exit@plt+0x1ac>
 8048fd4:	8b 53 08             	mov    0x8(%ebx),%edx
 8048fd7:	8b 4b 0c             	mov    0xc(%ebx),%ecx
 8048fda:	89 55 e0             	mov    %edx,-0x20(%ebp)
 8048fdd:	89 4d e4             	mov    %ecx,-0x1c(%ebp)
 8048fe0:	8b 37                	mov    (%edi),%esi
 8048fe2:	c7 04 24 10 00 00 00 	movl   $0x10,(%esp)
 8048fe9:	e8 be fd ff ff       	call   8048dac <malloc@plt>
 8048fee:	85 c0                	test   %eax,%eax
 8048ff0:	74 13                	je     8049005 <exit@plt+0x199>
 8048ff2:	8b 55 e0             	mov    -0x20(%ebp),%edx
 8048ff5:	8b 4d e4             	mov    -0x1c(%ebp),%ecx
 8048ff8:	89 70 0c             	mov    %esi,0xc(%eax)
 8048ffb:	89 18                	mov    %ebx,(%eax)
 8048ffd:	89 50 04             	mov    %edx,0x4(%eax)
 8049000:	89 48 08             	mov    %ecx,0x8(%eax)
 8049003:	89 07                	mov    %eax,(%edi)
 8049005:	8b 5d f4             	mov    -0xc(%ebp),%ebx
 8049008:	31 c0                	xor    %eax,%eax
 804900a:	8b 75 f8             	mov    -0x8(%ebp),%esi
 804900d:	8b 7d fc             	mov    -0x4(%ebp),%edi
 8049010:	89 ec                	mov    %ebp,%esp
 8049012:	5d                   	pop    %ebp
 8049013:	c3                   	ret    
 8049014:	8d 74 26 00          	lea    0x0(%esi,%eiz,1),%esi
 8049018:	8b 43 28             	mov    0x28(%ebx),%eax
 804901b:	8b 53 2c             	mov    0x2c(%ebx),%edx
 804901e:	89 45 e0             	mov    %eax,-0x20(%ebp)
 8049021:	89 55 e4             	mov    %edx,-0x1c(%ebp)
 8049024:	eb ba                	jmp    8048fe0 <exit@plt+0x174>
 8049026:	8d 76 00             	lea    0x0(%esi),%esi
 8049029:	8d bc 27 00 00 00 00 	lea    0x0(%edi,%eiz,1),%edi
 8049030:	55                   	push   %ebp
 8049031:	89 e5                	mov    %esp,%ebp
 8049033:	83 ec 18             	sub    $0x18,%esp
 8049036:	c7 44 24 08 05 00 00 	movl   $0x5,0x8(%esp)
 804903d:	00 
 804903e:	c7 44 24 04 48 cb 04 	movl   $0x804cb48,0x4(%esp)
 8049045:	08 
 8049046:	c7 04 24 00 00 00 00 	movl   $0x0,(%esp)
 804904d:	e8 5a fc ff ff       	call   8048cac <dcgettext@plt>
 8049052:	c7 44 24 0c 5b cb 04 	movl   $0x804cb5b,0xc(%esp)
 8049059:	08 
 804905a:	c7 44 24 04 01 00 00 	movl   $0x1,0x4(%esp)
 8049061:	00 
 8049062:	89 44 24 08          	mov    %eax,0x8(%esp)
 8049066:	a1 10 f2 04 08       	mov    0x804f210,%eax
 804906b:	89 04 24             	mov    %eax,(%esp)
 804906e:	e8 69 fb ff ff       	call   8048bdc <__fprintf_chk@plt>
 8049073:	c7 44 24 08 05 00 00 	movl   $0x5,0x8(%esp)
 804907a:	00 
 804907b:	c7 44 24 04 d4 cd 04 	movl   $0x804cdd4,0x4(%esp)
 8049082:	08 
 8049083:	c7 04 24 00 00 00 00 	movl   $0x0,(%esp)
 804908a:	e8 1d fc ff ff       	call   8048cac <dcgettext@plt>
 804908f:	c7 44 24 04 01 00 00 	movl   $0x1,0x4(%esp)
 8049096:	00 
 8049097:	89 44 24 08          	mov    %eax,0x8(%esp)
 804909b:	a1 10 f2 04 08       	mov    0x804f210,%eax
 80490a0:	89 04 24             	mov    %eax,(%esp)
 80490a3:	e8 34 fb ff ff       	call   8048bdc <__fprintf_chk@plt>
 80490a8:	c7 44 24 08 05 00 00 	movl   $0x5,0x8(%esp)
 80490af:	00 
 80490b0:	c7 44 24 04 14 ce 04 	movl   $0x804ce14,0x4(%esp)
 80490b7:	08 
 80490b8:	c7 04 24 00 00 00 00 	movl   $0x0,(%esp)
 80490bf:	e8 e8 fb ff ff       	call   8048cac <dcgettext@plt>
 80490c4:	c7 44 24 04 01 00 00 	movl   $0x1,0x4(%esp)
 80490cb:	00 
 80490cc:	89 44 24 08          	mov    %eax,0x8(%esp)
 80490d0:	a1 10 f2 04 08       	mov    0x804f210,%eax
 80490d5:	89 04 24             	mov    %eax,(%esp)
 80490d8:	e8 ff fa ff ff       	call   8048bdc <__fprintf_chk@plt>
 80490dd:	c9                   	leave  
 80490de:	c3                   	ret    
 80490df:	90                   	nop
 80490e0:	55                   	push   %ebp
 80490e1:	89 e5                	mov    %esp,%ebp
 80490e3:	56                   	push   %esi
 80490e4:	53                   	push   %ebx
 80490e5:	83 ec 20             	sub    $0x20,%esp
 80490e8:	8b 5d 08             	mov    0x8(%ebp),%ebx
 80490eb:	8d 43 08             	lea    0x8(%ebx),%eax
 80490ee:	89 44 24 08          	mov    %eax,0x8(%esp)
 80490f2:	8b 03                	mov    (%ebx),%eax
 80490f4:	c7 04 24 03 00 00 00 	movl   $0x3,(%esp)
 80490fb:	89 44 24 04          	mov    %eax,0x4(%esp)
 80490ff:	e8 08 fb ff ff       	call   8048c0c <__xstat64@plt>
 8049104:	85 c0                	test   %eax,%eax
 8049106:	74 68                	je     8049170 <exit@plt+0x304>
 8049108:	e8 7f fa ff ff       	call   8048b8c <__errno_location@plt>
 804910d:	8b 00                	mov    (%eax),%eax
 804910f:	83 f8 02             	cmp    $0x2,%eax
 8049112:	0f 84 88 00 00 00    	je     80491a0 <exit@plt+0x334>
 8049118:	89 04 24             	mov    %eax,(%esp)
 804911b:	e8 9c fa ff ff       	call   8048bbc <strerror@plt>
 8049120:	8b 1b                	mov    (%ebx),%ebx
 8049122:	c7 44 24 08 05 00 00 	movl   $0x5,0x8(%esp)
 8049129:	00 
 804912a:	c7 44 24 04 61 cb 04 	movl   $0x804cb61,0x4(%esp)
 8049131:	08 
 8049132:	c7 04 24 00 00 00 00 	movl   $0x0,(%esp)
 8049139:	89 c6                	mov    %eax,%esi
 804913b:	e8 6c fb ff ff       	call   8048cac <dcgettext@plt>
 8049140:	89 74 24 10          	mov    %esi,0x10(%esp)
 8049144:	89 5c 24 0c          	mov    %ebx,0xc(%esp)
 8049148:	c7 44 24 04 01 00 00 	movl   $0x1,0x4(%esp)
 804914f:	00 
 8049150:	89 44 24 08          	mov    %eax,0x8(%esp)
 8049154:	a1 10 f2 04 08       	mov    0x804f210,%eax
 8049159:	89 04 24             	mov    %eax,(%esp)
 804915c:	e8 7b fa ff ff       	call   8048bdc <__fprintf_chk@plt>
 8049161:	83 c4 20             	add    $0x20,%esp
 8049164:	b8 ff ff ff ff       	mov    $0xffffffff,%eax
 8049169:	5b                   	pop    %ebx
 804916a:	5e                   	pop    %esi
 804916b:	5d                   	pop    %ebp
 804916c:	c3                   	ret    
 804916d:	8d 76 00             	lea    0x0(%esi),%esi
 8049170:	8b 43 60             	mov    0x60(%ebx),%eax
 8049173:	8b 53 64             	mov    0x64(%ebx),%edx
 8049176:	89 44 24 08          	mov    %eax,0x8(%esp)
 804917a:	89 54 24 0c          	mov    %edx,0xc(%esp)
 804917e:	8b 43 08             	mov    0x8(%ebx),%eax
 8049181:	8b 53 0c             	mov    0xc(%ebx),%edx
 8049184:	89 04 24             	mov    %eax,(%esp)
 8049187:	89 54 24 04          	mov    %edx,0x4(%esp)
 804918b:	8b 45 0c             	mov    0xc(%ebp),%eax
 804918e:	89 da                	mov    %ebx,%edx
 8049190:	e8 ab fd ff ff       	call   8048f40 <exit@plt+0xd4>
 8049195:	83 c4 20             	add    $0x20,%esp
 8049198:	31 c0                	xor    %eax,%eax
 804919a:	5b                   	pop    %ebx
 804919b:	5e                   	pop    %esi
 804919c:	5d                   	pop    %ebp
 804919d:	c3                   	ret    
 804919e:	66 90                	xchg   %ax,%ax
 80491a0:	8b 1b                	mov    (%ebx),%ebx
 80491a2:	c7 44 24 08 05 00 00 	movl   $0x5,0x8(%esp)
 80491a9:	00 
 80491aa:	c7 44 24 04 f8 ce 04 	movl   $0x804cef8,0x4(%esp)
 80491b1:	08 
 80491b2:	c7 04 24 00 00 00 00 	movl   $0x0,(%esp)
 80491b9:	e8 ee fa ff ff       	call   8048cac <dcgettext@plt>
 80491be:	89 5c 24 0c          	mov    %ebx,0xc(%esp)
 80491c2:	c7 44 24 04 01 00 00 	movl   $0x1,0x4(%esp)
 80491c9:	00 
 80491ca:	89 44 24 08          	mov    %eax,0x8(%esp)
 80491ce:	a1 10 f2 04 08       	mov    0x804f210,%eax
 80491d3:	89 04 24             	mov    %eax,(%esp)
 80491d6:	e8 01 fa ff ff       	call   8048bdc <__fprintf_chk@plt>
 80491db:	83 c4 20             	add    $0x20,%esp
 80491de:	b8 ff ff ff ff       	mov    $0xffffffff,%eax
 80491e3:	5b                   	pop    %ebx
 80491e4:	5e                   	pop    %esi
 80491e5:	5d                   	pop    %ebp
 80491e6:	c3                   	ret    
 80491e7:	89 f6                	mov    %esi,%esi
 80491e9:	8d bc 27 00 00 00 00 	lea    0x0(%edi,%eiz,1),%edi
 80491f0:	55                   	push   %ebp
 80491f1:	89 e5                	mov    %esp,%ebp
 80491f3:	57                   	push   %edi
 80491f4:	56                   	push   %esi
 80491f5:	53                   	push   %ebx
 80491f6:	81 ec 9c 20 00 00    	sub    $0x209c,%esp
 80491fc:	8b 45 08             	mov    0x8(%ebp),%eax
 80491ff:	65 8b 15 14 00 00 00 	mov    %gs:0x14,%edx
 8049206:	89 55 e4             	mov    %edx,-0x1c(%ebp)
 8049209:	31 d2                	xor    %edx,%edx
 804920b:	8d 9d e4 df ff ff    	lea    -0x201c(%ebp),%ebx
 8049211:	c7 44 24 04 b7 cd 04 	movl   $0x804cdb7,0x4(%esp)
 8049218:	08 
 8049219:	8d bd dc df ff ff    	lea    -0x2024(%ebp),%edi
 804921f:	c7 04 24 75 cb 04 08 	movl   $0x804cb75,(%esp)
 8049226:	89 85 74 df ff ff    	mov    %eax,-0x208c(%ebp)
 804922c:	e8 1b fa ff ff       	call   8048c4c <fopen64@plt>
 8049231:	85 c0                	test   %eax,%eax
 8049233:	89 c6                	mov    %eax,%esi
 8049235:	0f 84 e1 00 00 00    	je     804931c <exit@plt+0x4b0>
 804923b:	90                   	nop
 804923c:	8d 74 26 00          	lea    0x0(%esi,%eiz,1),%esi
 8049240:	89 74 24 08          	mov    %esi,0x8(%esp)
 8049244:	c7 44 24 04 00 20 00 	movl   $0x2000,0x4(%esp)
 804924b:	00 
 804924c:	89 1c 24             	mov    %ebx,(%esp)
 804924f:	e8 e8 f9 ff ff       	call   8048c3c <fgets@plt>
 8049254:	85 c0                	test   %eax,%eax
 8049256:	0f 84 0c 01 00 00    	je     8049368 <exit@plt+0x4fc>
 804925c:	8d 85 e0 df ff ff    	lea    -0x2020(%ebp),%eax
 8049262:	89 44 24 0c          	mov    %eax,0xc(%esp)
 8049266:	89 7c 24 08          	mov    %edi,0x8(%esp)
 804926a:	c7 44 24 04 40 cf 04 	movl   $0x804cf40,0x4(%esp)
 8049271:	08 
 8049272:	89 1c 24             	mov    %ebx,(%esp)
 8049275:	e8 72 fb ff ff       	call   8048dec <sscanf@plt>
 804927a:	83 f8 02             	cmp    $0x2,%eax
 804927d:	75 c1                	jne    8049240 <exit@plt+0x3d4>
 804927f:	8b 85 e0 df ff ff    	mov    -0x2020(%ebp),%eax
 8049285:	8d 95 7c df ff ff    	lea    -0x2084(%ebp),%edx
 804928b:	89 54 24 08          	mov    %edx,0x8(%esp)
 804928f:	c7 04 24 03 00 00 00 	movl   $0x3,(%esp)
 8049296:	89 44 24 04          	mov    %eax,0x4(%esp)
 804929a:	e8 6d f9 ff ff       	call   8048c0c <__xstat64@plt>
 804929f:	85 c0                	test   %eax,%eax
 80492a1:	0f 88 d9 00 00 00    	js     8049380 <exit@plt+0x514>
 80492a7:	c7 04 24 20 00 00 00 	movl   $0x20,(%esp)
 80492ae:	e8 f9 fa ff ff       	call   8048dac <malloc@plt>
 80492b3:	85 c0                	test   %eax,%eax
 80492b5:	89 c1                	mov    %eax,%ecx
 80492b7:	74 87                	je     8049240 <exit@plt+0x3d4>
 80492b9:	8b 85 e0 df ff ff    	mov    -0x2020(%ebp),%eax
 80492bf:	89 8d 70 df ff ff    	mov    %ecx,-0x2090(%ebp)
 80492c5:	89 04 24             	mov    %eax,(%esp)
 80492c8:	e8 8f fb ff ff       	call   8048e5c <__strdup@plt>
 80492cd:	8b 8d 70 df ff ff    	mov    -0x2090(%ebp),%ecx
 80492d3:	8b 95 d8 df ff ff    	mov    -0x2028(%ebp),%edx
 80492d9:	89 01                	mov    %eax,(%ecx)
 80492db:	8b 85 d4 df ff ff    	mov    -0x202c(%ebp),%eax
 80492e1:	89 51 08             	mov    %edx,0x8(%ecx)
 80492e4:	89 41 04             	mov    %eax,0x4(%ecx)
 80492e7:	8b 85 7c df ff ff    	mov    -0x2084(%ebp),%eax
 80492ed:	8b 95 80 df ff ff    	mov    -0x2080(%ebp),%edx
 80492f3:	89 41 14             	mov    %eax,0x14(%ecx)
 80492f6:	8b 85 dc df ff ff    	mov    -0x2024(%ebp),%eax
 80492fc:	89 51 18             	mov    %edx,0x18(%ecx)
 80492ff:	89 c2                	mov    %eax,%edx
 8049301:	c1 fa 1f             	sar    $0x1f,%edx
 8049304:	89 51 10             	mov    %edx,0x10(%ecx)
 8049307:	8b 95 74 df ff ff    	mov    -0x208c(%ebp),%edx
 804930d:	89 41 0c             	mov    %eax,0xc(%ecx)
 8049310:	8b 02                	mov    (%edx),%eax
 8049312:	89 41 1c             	mov    %eax,0x1c(%ecx)
 8049315:	89 0a                	mov    %ecx,(%edx)
 8049317:	e9 24 ff ff ff       	jmp    8049240 <exit@plt+0x3d4>
 804931c:	e8 6b f8 ff ff       	call   8048b8c <__errno_location@plt>
 8049321:	8b 00                	mov    (%eax),%eax
 8049323:	89 04 24             	mov    %eax,(%esp)
 8049326:	e8 91 f8 ff ff       	call   8048bbc <strerror@plt>
 804932b:	c7 44 24 08 05 00 00 	movl   $0x5,0x8(%esp)
 8049332:	00 
 8049333:	c7 44 24 04 20 cf 04 	movl   $0x804cf20,0x4(%esp)
 804933a:	08 
 804933b:	c7 04 24 00 00 00 00 	movl   $0x0,(%esp)
 8049342:	89 c3                	mov    %eax,%ebx
 8049344:	e8 63 f9 ff ff       	call   8048cac <dcgettext@plt>
 8049349:	89 5c 24 0c          	mov    %ebx,0xc(%esp)
 804934d:	c7 44 24 04 01 00 00 	movl   $0x1,0x4(%esp)
 8049354:	00 
 8049355:	89 44 24 08          	mov    %eax,0x8(%esp)
 8049359:	a1 10 f2 04 08       	mov    0x804f210,%eax
 804935e:	89 04 24             	mov    %eax,(%esp)
 8049361:	e8 76 f8 ff ff       	call   8048bdc <__fprintf_chk@plt>
 8049366:	66 90                	xchg   %ax,%ax
 8049368:	8b 45 e4             	mov    -0x1c(%ebp),%eax
 804936b:	65 33 05 14 00 00 00 	xor    %gs:0x14,%eax
 8049372:	75 1f                	jne    8049393 <exit@plt+0x527>
 8049374:	81 c4 9c 20 00 00    	add    $0x209c,%esp
 804937a:	5b                   	pop    %ebx
 804937b:	5e                   	pop    %esi
 804937c:	5f                   	pop    %edi
 804937d:	5d                   	pop    %ebp
 804937e:	c3                   	ret    
 804937f:	90                   	nop
 8049380:	8b 85 e0 df ff ff    	mov    -0x2020(%ebp),%eax
 8049386:	89 04 24             	mov    %eax,(%esp)
 8049389:	e8 fe f8 ff ff       	call   8048c8c <free@plt>
 804938e:	e9 ad fe ff ff       	jmp    8049240 <exit@plt+0x3d4>
 8049393:	e8 24 fa ff ff       	call   8048dbc <__stack_chk_fail@plt>
 8049398:	90                   	nop
 8049399:	8d b4 26 00 00 00 00 	lea    0x0(%esi,%eiz,1),%esi
 80493a0:	55                   	push   %ebp
 80493a1:	89 e5                	mov    %esp,%ebp
 80493a3:	83 ec 18             	sub    $0x18,%esp
 80493a6:	85 c0                	test   %eax,%eax
 80493a8:	74 21                	je     80493cb <exit@plt+0x55f>
 80493aa:	89 44 24 0c          	mov    %eax,0xc(%esp)
 80493ae:	a1 10 f2 04 08       	mov    0x804f210,%eax
 80493b3:	c7 44 24 08 57 cb 04 	movl   $0x804cb57,0x8(%esp)
 80493ba:	08 
 80493bb:	c7 44 24 04 01 00 00 	movl   $0x1,0x4(%esp)
 80493c2:	00 
 80493c3:	89 04 24             	mov    %eax,(%esp)
 80493c6:	e8 11 f8 ff ff       	call   8048bdc <__fprintf_chk@plt>
 80493cb:	c7 44 24 08 05 00 00 	movl   $0x5,0x8(%esp)
 80493d2:	00 
 80493d3:	c7 44 24 04 60 cf 04 	movl   $0x804cf60,0x4(%esp)
 80493da:	08 
 80493db:	c7 04 24 00 00 00 00 	movl   $0x0,(%esp)
 80493e2:	e8 c5 f8 ff ff       	call   8048cac <dcgettext@plt>
 80493e7:	c7 44 24 04 01 00 00 	movl   $0x1,0x4(%esp)
 80493ee:	00 
 80493ef:	89 44 24 08          	mov    %eax,0x8(%esp)
 80493f3:	a1 10 f2 04 08       	mov    0x804f210,%eax
 80493f8:	89 04 24             	mov    %eax,(%esp)
 80493fb:	e8 dc f7 ff ff       	call   8048bdc <__fprintf_chk@plt>
 8049400:	c7 44 24 08 05 00 00 	movl   $0x5,0x8(%esp)
 8049407:	00 
 8049408:	c7 44 24 04 c8 d2 04 	movl   $0x804d2c8,0x4(%esp)
 804940f:	08 
 8049410:	c7 04 24 00 00 00 00 	movl   $0x0,(%esp)
 8049417:	e8 90 f8 ff ff       	call   8048cac <dcgettext@plt>
 804941c:	c7 44 24 04 01 00 00 	movl   $0x1,0x4(%esp)
 8049423:	00 
 8049424:	89 44 24 08          	mov    %eax,0x8(%esp)
 8049428:	a1 10 f2 04 08       	mov    0x804f210,%eax
 804942d:	89 04 24             	mov    %eax,(%esp)
 8049430:	e8 a7 f7 ff ff       	call   8048bdc <__fprintf_chk@plt>
 8049435:	c7 44 24 08 05 00 00 	movl   $0x5,0x8(%esp)
 804943c:	00 
 804943d:	c7 44 24 04 2c d3 04 	movl   $0x804d32c,0x4(%esp)
 8049444:	08 
 8049445:	c7 04 24 00 00 00 00 	movl   $0x0,(%esp)
 804944c:	e8 5b f8 ff ff       	call   8048cac <dcgettext@plt>
 8049451:	c7 44 24 04 01 00 00 	movl   $0x1,0x4(%esp)
 8049458:	00 
 8049459:	89 44 24 08          	mov    %eax,0x8(%esp)
 804945d:	a1 10 f2 04 08       	mov    0x804f210,%eax
 8049462:	89 04 24             	mov    %eax,(%esp)
 8049465:	e8 72 f7 ff ff       	call   8048bdc <__fprintf_chk@plt>
 804946a:	c7 04 24 01 00 00 00 	movl   $0x1,(%esp)
 8049471:	e8 f6 f9 ff ff       	call   8048e6c <exit@plt>
 8049476:	8d 76 00             	lea    0x0(%esi),%esi
 8049479:	8d bc 27 00 00 00 00 	lea    0x0(%edi,%eiz,1),%edi
 8049480:	55                   	push   %ebp
 8049481:	89 e5                	mov    %esp,%ebp
 8049483:	53                   	push   %ebx
 8049484:	83 ec 74             	sub    $0x74,%esp
 8049487:	c7 44 24 08 00 00 00 	movl   $0x0,0x8(%esp)
 804948e:	00 
 804948f:	c7 44 24 04 02 00 00 	movl   $0x2,0x4(%esp)
 8049496:	00 
 8049497:	c7 04 24 02 00 00 00 	movl   $0x2,(%esp)
 804949e:	e8 49 f8 ff ff       	call   8048cec <socket@plt>
 80494a3:	85 c0                	test   %eax,%eax
 80494a5:	89 c3                	mov    %eax,%ebx
 80494a7:	78 6f                	js     8049518 <exit@plt+0x6ac>
 80494a9:	8d 45 98             	lea    -0x68(%ebp),%eax
 80494ac:	89 44 24 08          	mov    %eax,0x8(%esp)
 80494b0:	89 5c 24 04          	mov    %ebx,0x4(%esp)
 80494b4:	c7 04 24 03 00 00 00 	movl   $0x3,(%esp)
 80494bb:	e8 1c f9 ff ff       	call   8048ddc <__fxstat64@plt>
 80494c0:	85 c0                	test   %eax,%eax
 80494c2:	0f 84 98 00 00 00    	je     8049560 <exit@plt+0x6f4>
 80494c8:	c7 44 24 08 05 00 00 	movl   $0x5,0x8(%esp)
 80494cf:	00 
 80494d0:	c7 44 24 04 b0 d3 04 	movl   $0x804d3b0,0x4(%esp)
 80494d7:	08 
 80494d8:	c7 04 24 00 00 00 00 	movl   $0x0,(%esp)
 80494df:	e8 c8 f7 ff ff       	call   8048cac <dcgettext@plt>
 80494e4:	c7 44 24 04 01 00 00 	movl   $0x1,0x4(%esp)
 80494eb:	00 
 80494ec:	89 44 24 08          	mov    %eax,0x8(%esp)
 80494f0:	a1 10 f2 04 08       	mov    0x804f210,%eax
 80494f5:	89 04 24             	mov    %eax,(%esp)
 80494f8:	e8 df f6 ff ff       	call   8048bdc <__fprintf_chk@plt>
 80494fd:	89 1c 24             	mov    %ebx,(%esp)
 8049500:	e8 97 f8 ff ff       	call   8048d9c <close@plt>
 8049505:	83 c4 74             	add    $0x74,%esp
 8049508:	b8 ff ff ff ff       	mov    $0xffffffff,%eax
 804950d:	ba ff ff ff ff       	mov    $0xffffffff,%edx
 8049512:	5b                   	pop    %ebx
 8049513:	5d                   	pop    %ebp
 8049514:	c3                   	ret    
 8049515:	8d 76 00             	lea    0x0(%esi),%esi
 8049518:	c7 44 24 08 05 00 00 	movl   $0x5,0x8(%esp)
 804951f:	00 
 8049520:	c7 44 24 04 90 d3 04 	movl   $0x804d390,0x4(%esp)
 8049527:	08 
 8049528:	c7 04 24 00 00 00 00 	movl   $0x0,(%esp)
 804952f:	e8 78 f7 ff ff       	call   8048cac <dcgettext@plt>
 8049534:	c7 44 24 04 01 00 00 	movl   $0x1,0x4(%esp)
 804953b:	00 
 804953c:	89 44 24 08          	mov    %eax,0x8(%esp)
 8049540:	a1 10 f2 04 08       	mov    0x804f210,%eax
 8049545:	89 04 24             	mov    %eax,(%esp)
 8049548:	e8 8f f6 ff ff       	call   8048bdc <__fprintf_chk@plt>
 804954d:	83 c4 74             	add    $0x74,%esp
 8049550:	b8 ff ff ff ff       	mov    $0xffffffff,%eax
 8049555:	ba ff ff ff ff       	mov    $0xffffffff,%edx
 804955a:	5b                   	pop    %ebx
 804955b:	5d                   	pop    %ebp
 804955c:	c3                   	ret    
 804955d:	8d 76 00             	lea    0x0(%esi),%esi
 8049560:	89 1c 24             	mov    %ebx,(%esp)
 8049563:	e8 34 f8 ff ff       	call   8048d9c <close@plt>
 8049568:	8b 45 98             	mov    -0x68(%ebp),%eax
 804956b:	8b 55 9c             	mov    -0x64(%ebp),%edx
 804956e:	83 c4 74             	add    $0x74,%esp
 8049571:	5b                   	pop    %ebx
 8049572:	5d                   	pop    %ebp
 8049573:	c3                   	ret    
 8049574:	8d b6 00 00 00 00    	lea    0x0(%esi),%esi
 804957a:	8d bf 00 00 00 00    	lea    0x0(%edi),%edi
 8049580:	55                   	push   %ebp
 8049581:	89 e5                	mov    %esp,%ebp
 8049583:	57                   	push   %edi
 8049584:	56                   	push   %esi
 8049585:	53                   	push   %ebx
 8049586:	83 ec 2c             	sub    $0x2c,%esp
 8049589:	8b 5d 10             	mov    0x10(%ebp),%ebx
 804958c:	e8 ef fe ff ff       	call   8049480 <exit@plt+0x614>
 8049591:	85 db                	test   %ebx,%ebx
 8049593:	89 45 e0             	mov    %eax,-0x20(%ebp)
 8049596:	89 55 e4             	mov    %edx,-0x1c(%ebp)
 8049599:	74 60                	je     80495fb <exit@plt+0x78f>
 804959b:	8b 45 08             	mov    0x8(%ebp),%eax
 804959e:	89 da                	mov    %ebx,%edx
 80495a0:	8b 70 08             	mov    0x8(%eax),%esi
 80495a3:	89 c3                	mov    %eax,%ebx
 80495a5:	8b 78 0c             	mov    0xc(%eax),%edi
 80495a8:	eb 0d                	jmp    80495b7 <exit@plt+0x74b>
 80495aa:	8d b6 00 00 00 00    	lea    0x0(%esi),%esi
 80495b0:	8b 52 1c             	mov    0x1c(%edx),%edx
 80495b3:	85 d2                	test   %edx,%edx
 80495b5:	74 44                	je     80495fb <exit@plt+0x78f>
 80495b7:	8b 4a 18             	mov    0x18(%edx),%ecx
 80495ba:	8b 42 14             	mov    0x14(%edx),%eax
 80495bd:	31 f9                	xor    %edi,%ecx
 80495bf:	31 f0                	xor    %esi,%eax
 80495c1:	09 c1                	or     %eax,%ecx
 80495c3:	75 eb                	jne    80495b0 <exit@plt+0x744>
 80495c5:	8b 42 04             	mov    0x4(%edx),%eax
 80495c8:	8b 4a 08             	mov    0x8(%edx),%ecx
 80495cb:	33 4b 64             	xor    0x64(%ebx),%ecx
 80495ce:	33 43 60             	xor    0x60(%ebx),%eax
 80495d1:	09 c1                	or     %eax,%ecx
 80495d3:	75 db                	jne    80495b0 <exit@plt+0x744>
 80495d5:	8b 42 0c             	mov    0xc(%edx),%eax
 80495d8:	8b 52 10             	mov    0x10(%edx),%edx
 80495db:	89 44 24 08          	mov    %eax,0x8(%esp)
 80495df:	8b 45 e0             	mov    -0x20(%ebp),%eax
 80495e2:	89 54 24 0c          	mov    %edx,0xc(%esp)
 80495e6:	8b 55 e4             	mov    -0x1c(%ebp),%edx
 80495e9:	89 04 24             	mov    %eax,(%esp)
 80495ec:	8b 45 0c             	mov    0xc(%ebp),%eax
 80495ef:	89 54 24 04          	mov    %edx,0x4(%esp)
 80495f3:	8b 55 08             	mov    0x8(%ebp),%edx
 80495f6:	e8 45 f9 ff ff       	call   8048f40 <exit@plt+0xd4>
 80495fb:	83 c4 2c             	add    $0x2c,%esp
 80495fe:	31 c0                	xor    %eax,%eax
 8049600:	5b                   	pop    %ebx
 8049601:	5e                   	pop    %esi
 8049602:	5f                   	pop    %edi
 8049603:	5d                   	pop    %ebp
 8049604:	c3                   	ret    
 8049605:	8d 74 26 00          	lea    0x0(%esi,%eiz,1),%esi
 8049609:	8d bc 27 00 00 00 00 	lea    0x0(%edi,%eiz,1),%edi
 8049610:	55                   	push   %ebp
 8049611:	89 e5                	mov    %esp,%ebp
 8049613:	57                   	push   %edi
 8049614:	56                   	push   %esi
 8049615:	53                   	push   %ebx
 8049616:	81 ec 3c 20 00 00    	sub    $0x203c,%esp
 804961c:	c7 44 24 04 b7 cd 04 	movl   $0x804cdb7,0x4(%esp)
 8049623:	08 
 8049624:	8d b5 e4 df ff ff    	lea    -0x201c(%ebp),%esi
 804962a:	89 85 d0 df ff ff    	mov    %eax,-0x2030(%ebp)
 8049630:	c7 04 24 84 cb 04 08 	movl   $0x804cb84,(%esp)
 8049637:	65 a1 14 00 00 00    	mov    %gs:0x14,%eax
 804963d:	89 45 e4             	mov    %eax,-0x1c(%ebp)
 8049640:	31 c0                	xor    %eax,%eax
 8049642:	e8 05 f6 ff ff       	call   8048c4c <fopen64@plt>
 8049647:	85 c0                	test   %eax,%eax
 8049649:	89 85 d4 df ff ff    	mov    %eax,-0x202c(%ebp)
 804964f:	0f 84 a8 00 00 00    	je     80496fd <exit@plt+0x891>
 8049655:	8d 76 00             	lea    0x0(%esi),%esi
 8049658:	8b 85 d4 df ff ff    	mov    -0x202c(%ebp),%eax
 804965e:	c7 44 24 04 00 20 00 	movl   $0x2000,0x4(%esp)
 8049665:	00 
 8049666:	89 34 24             	mov    %esi,(%esp)
 8049669:	89 44 24 08          	mov    %eax,0x8(%esp)
 804966d:	e8 ca f5 ff ff       	call   8048c3c <fgets@plt>
 8049672:	85 c0                	test   %eax,%eax
 8049674:	74 62                	je     80496d8 <exit@plt+0x86c>
 8049676:	c7 44 24 04 20 00 00 	movl   $0x20,0x4(%esp)
 804967d:	00 
 804967e:	89 34 24             	mov    %esi,(%esp)
 8049681:	e8 a6 f5 ff ff       	call   8048c2c <strchr@plt>
 8049686:	85 c0                	test   %eax,%eax
 8049688:	74 ce                	je     8049658 <exit@plt+0x7ec>
 804968a:	8d 78 01             	lea    0x1(%eax),%edi
 804968d:	c7 44 24 04 20 00 00 	movl   $0x20,0x4(%esp)
 8049694:	00 
 8049695:	89 3c 24             	mov    %edi,(%esp)
 8049698:	e8 8f f5 ff ff       	call   8048c2c <strchr@plt>
 804969d:	85 c0                	test   %eax,%eax
 804969f:	74 b7                	je     8049658 <exit@plt+0x7ec>
 80496a1:	c6 00 00             	movb   $0x0,(%eax)
 80496a4:	c7 04 24 08 00 00 00 	movl   $0x8,(%esp)
 80496ab:	e8 fc f6 ff ff       	call   8048dac <malloc@plt>
 80496b0:	85 c0                	test   %eax,%eax
 80496b2:	89 c3                	mov    %eax,%ebx
 80496b4:	74 a2                	je     8049658 <exit@plt+0x7ec>
 80496b6:	89 3c 24             	mov    %edi,(%esp)
 80496b9:	e8 9e f7 ff ff       	call   8048e5c <__strdup@plt>
 80496be:	85 c0                	test   %eax,%eax
 80496c0:	89 03                	mov    %eax,(%ebx)
 80496c2:	74 94                	je     8049658 <exit@plt+0x7ec>
 80496c4:	8b 95 d0 df ff ff    	mov    -0x2030(%ebp),%edx
 80496ca:	8b 02                	mov    (%edx),%eax
 80496cc:	89 43 04             	mov    %eax,0x4(%ebx)
 80496cf:	89 1a                	mov    %ebx,(%edx)
 80496d1:	eb 85                	jmp    8049658 <exit@plt+0x7ec>
 80496d3:	90                   	nop
 80496d4:	8d 74 26 00          	lea    0x0(%esi,%eiz,1),%esi
 80496d8:	8b 95 d4 df ff ff    	mov    -0x202c(%ebp),%edx
 80496de:	89 14 24             	mov    %edx,(%esp)
 80496e1:	e8 36 f6 ff ff       	call   8048d1c <fclose@plt>
 80496e6:	8b 45 e4             	mov    -0x1c(%ebp),%eax
 80496e9:	65 33 05 14 00 00 00 	xor    %gs:0x14,%eax
 80496f0:	75 32                	jne    8049724 <exit@plt+0x8b8>
 80496f2:	81 c4 3c 20 00 00    	add    $0x203c,%esp
 80496f8:	5b                   	pop    %ebx
 80496f9:	5e                   	pop    %esi
 80496fa:	5f                   	pop    %edi
 80496fb:	5d                   	pop    %ebp
 80496fc:	c3                   	ret    
 80496fd:	a1 10 f2 04 08       	mov    0x804f210,%eax
 8049702:	c7 44 24 0c 84 cb 04 	movl   $0x804cb84,0xc(%esp)
 8049709:	08 
 804970a:	c7 44 24 08 91 cb 04 	movl   $0x804cb91,0x8(%esp)
 8049711:	08 
 8049712:	c7 44 24 04 01 00 00 	movl   $0x1,0x4(%esp)
 8049719:	00 
 804971a:	89 04 24             	mov    %eax,(%esp)
 804971d:	e8 ba f4 ff ff       	call   8048bdc <__fprintf_chk@plt>
 8049722:	eb c2                	jmp    80496e6 <exit@plt+0x87a>
 8049724:	e8 93 f6 ff ff       	call   8048dbc <__stack_chk_fail@plt>
 8049729:	8d b4 26 00 00 00 00 	lea    0x0(%esi,%eiz,1),%esi
 8049730:	55                   	push   %ebp
 8049731:	89 e5                	mov    %esp,%ebp
 8049733:	53                   	push   %ebx
 8049734:	81 ec 54 01 00 00    	sub    $0x154,%esp
 804973a:	8d 9d 2c ff ff ff    	lea    -0xd4(%ebp),%ebx
 8049740:	65 8b 15 14 00 00 00 	mov    %gs:0x14,%edx
 8049747:	89 55 f4             	mov    %edx,-0xc(%ebp)
 804974a:	31 d2                	xor    %edx,%edx
 804974c:	89 44 24 14          	mov    %eax,0x14(%esp)
 8049750:	c7 44 24 10 a1 cb 04 	movl   $0x804cba1,0x10(%esp)
 8049757:	08 
 8049758:	c7 44 24 0c c8 00 00 	movl   $0xc8,0xc(%esp)
 804975f:	00 
 8049760:	c7 44 24 08 01 00 00 	movl   $0x1,0x8(%esp)
 8049767:	00 
 8049768:	c7 44 24 04 c8 00 00 	movl   $0xc8,0x4(%esp)
 804976f:	00 
 8049770:	89 1c 24             	mov    %ebx,(%esp)
 8049773:	e8 a4 f6 ff ff       	call   8048e1c <__snprintf_chk@plt>
 8049778:	85 c0                	test   %eax,%eax
 804977a:	78 2c                	js     80497a8 <exit@plt+0x93c>
 804977c:	8d 85 cc fe ff ff    	lea    -0x134(%ebp),%eax
 8049782:	89 44 24 08          	mov    %eax,0x8(%esp)
 8049786:	89 5c 24 04          	mov    %ebx,0x4(%esp)
 804978a:	c7 04 24 03 00 00 00 	movl   $0x3,(%esp)
 8049791:	e8 76 f4 ff ff       	call   8048c0c <__xstat64@plt>
 8049796:	85 c0                	test   %eax,%eax
 8049798:	75 0e                	jne    80497a8 <exit@plt+0x93c>
 804979a:	8b 85 e4 fe ff ff    	mov    -0x11c(%ebp),%eax
 80497a0:	eb 08                	jmp    80497aa <exit@plt+0x93e>
 80497a2:	8d b6 00 00 00 00    	lea    0x0(%esi),%esi
 80497a8:	31 c0                	xor    %eax,%eax
 80497aa:	8b 55 f4             	mov    -0xc(%ebp),%edx
 80497ad:	65 33 15 14 00 00 00 	xor    %gs:0x14,%edx
 80497b4:	75 09                	jne    80497bf <exit@plt+0x953>
 80497b6:	81 c4 54 01 00 00    	add    $0x154,%esp
 80497bc:	5b                   	pop    %ebx
 80497bd:	5d                   	pop    %ebp
 80497be:	c3                   	ret    
 80497bf:	e8 f8 f5 ff ff       	call   8048dbc <__stack_chk_fail@plt>
 80497c4:	8d b6 00 00 00 00    	lea    0x0(%esi),%esi
 80497ca:	8d bf 00 00 00 00    	lea    0x0(%edi),%edi
 80497d0:	55                   	push   %ebp
 80497d1:	89 e5                	mov    %esp,%ebp
 80497d3:	81 ec 48 01 00 00    	sub    $0x148,%esp
 80497d9:	c7 04 24 60 00 00 00 	movl   $0x60,(%esp)
 80497e0:	89 5d f4             	mov    %ebx,-0xc(%ebp)
 80497e3:	89 c3                	mov    %eax,%ebx
 80497e5:	89 75 f8             	mov    %esi,-0x8(%ebp)
 80497e8:	89 7d fc             	mov    %edi,-0x4(%ebp)
 80497eb:	89 d7                	mov    %edx,%edi
 80497ed:	65 a1 14 00 00 00    	mov    %gs:0x14,%eax
 80497f3:	89 45 e4             	mov    %eax,-0x1c(%ebp)
 80497f6:	31 c0                	xor    %eax,%eax
 80497f8:	e8 af f5 ff ff       	call   8048dac <malloc@plt>
 80497fd:	85 c0                	test   %eax,%eax
 80497ff:	89 c6                	mov    %eax,%esi
 8049801:	75 1d                	jne    8049820 <exit@plt+0x9b4>
 8049803:	8b 55 e4             	mov    -0x1c(%ebp),%edx
 8049806:	65 33 15 14 00 00 00 	xor    %gs:0x14,%edx
 804980d:	89 f0                	mov    %esi,%eax
 804980f:	75 62                	jne    8049873 <exit@plt+0xa07>
 8049811:	8b 5d f4             	mov    -0xc(%ebp),%ebx
 8049814:	8b 75 f8             	mov    -0x8(%ebp),%esi
 8049817:	8b 7d fc             	mov    -0x4(%ebp),%edi
 804981a:	89 ec                	mov    %ebp,%esp
 804981c:	5d                   	pop    %ebp
 804981d:	c3                   	ret    
 804981e:	66 90                	xchg   %ax,%ax
 8049820:	89 5c 24 14          	mov    %ebx,0x14(%esp)
 8049824:	8d 9d e4 fe ff ff    	lea    -0x11c(%ebp),%ebx
 804982a:	89 7c 24 18          	mov    %edi,0x18(%esp)
 804982e:	c7 44 24 10 aa cb 04 	movl   $0x804cbaa,0x10(%esp)
 8049835:	08 
 8049836:	c7 44 24 0c 00 01 00 	movl   $0x100,0xc(%esp)
 804983d:	00 
 804983e:	c7 44 24 08 01 00 00 	movl   $0x1,0x8(%esp)
 8049845:	00 
 8049846:	c7 44 24 04 00 01 00 	movl   $0x100,0x4(%esp)
 804984d:	00 
 804984e:	89 1c 24             	mov    %ebx,(%esp)
 8049851:	e8 c6 f5 ff ff       	call   8048e1c <__snprintf_chk@plt>
 8049856:	89 74 24 08          	mov    %esi,0x8(%esp)
 804985a:	89 5c 24 04          	mov    %ebx,0x4(%esp)
 804985e:	c7 04 24 03 00 00 00 	movl   $0x3,(%esp)
 8049865:	e8 a2 f3 ff ff       	call   8048c0c <__xstat64@plt>
 804986a:	83 f8 01             	cmp    $0x1,%eax
 804986d:	19 c0                	sbb    %eax,%eax
 804986f:	21 c6                	and    %eax,%esi
 8049871:	eb 90                	jmp    8049803 <exit@plt+0x997>
 8049873:	e8 44 f5 ff ff       	call   8048dbc <__stack_chk_fail@plt>
 8049878:	90                   	nop
 8049879:	8d b4 26 00 00 00 00 	lea    0x0(%esi,%eiz,1),%esi
 8049880:	55                   	push   %ebp
 8049881:	89 e5                	mov    %esp,%ebp
 8049883:	57                   	push   %edi
 8049884:	31 ff                	xor    %edi,%edi
 8049886:	56                   	push   %esi
 8049887:	53                   	push   %ebx
 8049888:	89 d3                	mov    %edx,%ebx
 804988a:	81 ec bc 00 00 00    	sub    $0xbc,%esp
 8049890:	0f b6 55 08          	movzbl 0x8(%ebp),%edx
 8049894:	89 85 74 ff ff ff    	mov    %eax,-0x8c(%ebp)
 804989a:	8b b5 74 ff ff ff    	mov    -0x8c(%ebp),%esi
 80498a0:	65 a1 14 00 00 00    	mov    %gs:0x14,%eax
 80498a6:	89 45 e4             	mov    %eax,-0x1c(%ebp)
 80498a9:	31 c0                	xor    %eax,%eax
 80498ab:	8b 46 68             	mov    0x68(%esi),%eax
 80498ae:	85 c0                	test   %eax,%eax
 80498b0:	75 0f                	jne    80498c1 <exit@plt+0xa55>
 80498b2:	eb 34                	jmp    80498e8 <exit@plt+0xa7c>
 80498b4:	8d 74 26 00          	lea    0x0(%esi,%eiz,1),%esi
 80498b8:	89 c7                	mov    %eax,%edi
 80498ba:	8b 40 14             	mov    0x14(%eax),%eax
 80498bd:	85 c0                	test   %eax,%eax
 80498bf:	74 27                	je     80498e8 <exit@plt+0xa7c>
 80498c1:	39 18                	cmp    %ebx,(%eax)
 80498c3:	75 f3                	jne    80498b8 <exit@plt+0xa4c>
 80498c5:	08 50 08             	or     %dl,0x8(%eax)
 80498c8:	8b 75 e4             	mov    -0x1c(%ebp),%esi
 80498cb:	65 33 35 14 00 00 00 	xor    %gs:0x14,%esi
 80498d2:	0f 85 04 02 00 00    	jne    8049adc <exit@plt+0xc70>
 80498d8:	81 c4 bc 00 00 00    	add    $0xbc,%esp
 80498de:	5b                   	pop    %ebx
 80498df:	5e                   	pop    %esi
 80498e0:	5f                   	pop    %edi
 80498e1:	5d                   	pop    %ebp
 80498e2:	c3                   	ret    
 80498e3:	90                   	nop
 80498e4:	8d 74 26 00          	lea    0x0(%esi,%eiz,1),%esi
 80498e8:	88 95 60 ff ff ff    	mov    %dl,-0xa0(%ebp)
 80498ee:	89 8d 64 ff ff ff    	mov    %ecx,-0x9c(%ebp)
 80498f4:	c7 04 24 18 00 00 00 	movl   $0x18,(%esp)
 80498fb:	e8 ac f4 ff ff       	call   8048dac <malloc@plt>
 8049900:	0f b6 95 60 ff ff ff 	movzbl -0xa0(%ebp),%edx
 8049907:	8b 8d 64 ff ff ff    	mov    -0x9c(%ebp),%ecx
 804990d:	85 c0                	test   %eax,%eax
 804990f:	89 c6                	mov    %eax,%esi
 8049911:	0f 84 8e 00 00 00    	je     80499a5 <exit@plt+0xb39>
 8049917:	89 18                	mov    %ebx,(%eax)
 8049919:	89 48 04             	mov    %ecx,0x4(%eax)
 804991c:	88 50 08             	mov    %dl,0x8(%eax)
 804991f:	c6 40 09 00          	movb   $0x0,0x9(%eax)
 8049923:	c7 40 14 00 00 00 00 	movl   $0x0,0x14(%eax)
 804992a:	c7 40 10 00 00 00 00 	movl   $0x0,0x10(%eax)
 8049931:	8d 85 78 ff ff ff    	lea    -0x88(%ebp),%eax
 8049937:	89 5c 24 0c          	mov    %ebx,0xc(%esp)
 804993b:	c7 44 24 08 b6 cb 04 	movl   $0x804cbb6,0x8(%esp)
 8049942:	08 
 8049943:	c7 44 24 04 01 00 00 	movl   $0x1,0x4(%esp)
 804994a:	00 
 804994b:	89 04 24             	mov    %eax,(%esp)
 804994e:	e8 69 f3 ff ff       	call   8048cbc <__asprintf_chk@plt>
 8049953:	85 c0                	test   %eax,%eax
 8049955:	7e 39                	jle    8049990 <exit@plt+0xb24>
 8049957:	8b 85 78 ff ff ff    	mov    -0x88(%ebp),%eax
 804995d:	c7 44 24 04 b7 cd 04 	movl   $0x804cdb7,0x4(%esp)
 8049964:	08 
 8049965:	89 04 24             	mov    %eax,(%esp)
 8049968:	e8 df f2 ff ff       	call   8048c4c <fopen64@plt>
 804996d:	85 c0                	test   %eax,%eax
 804996f:	74 1f                	je     8049990 <exit@plt+0xb24>
 8049971:	8d 9d 7f ff ff ff    	lea    -0x81(%ebp),%ebx
 8049977:	89 5c 24 08          	mov    %ebx,0x8(%esp)
 804997b:	c7 44 24 04 c4 cb 04 	movl   $0x804cbc4,0x4(%esp)
 8049982:	08 
 8049983:	89 04 24             	mov    %eax,(%esp)
 8049986:	e8 71 f4 ff ff       	call   8048dfc <fscanf@plt>
 804998b:	83 f8 01             	cmp    $0x1,%eax
 804998e:	74 67                	je     80499f7 <exit@plt+0xb8b>
 8049990:	85 ff                	test   %edi,%edi
 8049992:	0f 84 00 01 00 00    	je     8049a98 <exit@plt+0xc2c>
 8049998:	89 77 14             	mov    %esi,0x14(%edi)
 804999b:	90                   	nop
 804999c:	8d 74 26 00          	lea    0x0(%esi,%eiz,1),%esi
 80499a0:	e9 23 ff ff ff       	jmp    80498c8 <exit@plt+0xa5c>
 80499a5:	8d 76 00             	lea    0x0(%esi),%esi
 80499a8:	e8 df f1 ff ff       	call   8048b8c <__errno_location@plt>
 80499ad:	8b 00                	mov    (%eax),%eax
 80499af:	89 04 24             	mov    %eax,(%esp)
 80499b2:	e8 05 f2 ff ff       	call   8048bbc <strerror@plt>
 80499b7:	c7 44 24 08 05 00 00 	movl   $0x5,0x8(%esp)
 80499be:	00 
 80499bf:	c7 44 24 04 d8 d3 04 	movl   $0x804d3d8,0x4(%esp)
 80499c6:	08 
 80499c7:	c7 04 24 00 00 00 00 	movl   $0x0,(%esp)
 80499ce:	89 c3                	mov    %eax,%ebx
 80499d0:	e8 d7 f2 ff ff       	call   8048cac <dcgettext@plt>
 80499d5:	89 5c 24 0c          	mov    %ebx,0xc(%esp)
 80499d9:	c7 44 24 04 01 00 00 	movl   $0x1,0x4(%esp)
 80499e0:	00 
 80499e1:	89 44 24 08          	mov    %eax,0x8(%esp)
 80499e5:	a1 10 f2 04 08       	mov    0x804f210,%eax
 80499ea:	89 04 24             	mov    %eax,(%esp)
 80499ed:	e8 ea f1 ff ff       	call   8048bdc <__fprintf_chk@plt>
 80499f2:	e9 d1 fe ff ff       	jmp    80498c8 <exit@plt+0xa5c>
 80499f7:	c7 04 24 11 00 00 00 	movl   $0x11,(%esp)
 80499fe:	e8 a9 f3 ff ff       	call   8048dac <malloc@plt>
 8049a03:	31 d2                	xor    %edx,%edx
 8049a05:	85 c0                	test   %eax,%eax
 8049a07:	89 85 70 ff ff ff    	mov    %eax,-0x90(%ebp)
 8049a0d:	89 46 10             	mov    %eax,0x10(%esi)
 8049a10:	0f 84 7a ff ff ff    	je     8049990 <exit@plt+0xb24>
 8049a16:	89 bd 68 ff ff ff    	mov    %edi,-0x98(%ebp)
 8049a1c:	89 df                	mov    %ebx,%edi
 8049a1e:	89 b5 6c ff ff ff    	mov    %esi,-0x94(%ebp)
 8049a24:	89 d6                	mov    %edx,%esi
 8049a26:	eb 23                	jmp    8049a4b <exit@plt+0xbdf>
 8049a28:	8b 85 70 ff ff ff    	mov    -0x90(%ebp),%eax
 8049a2e:	88 1c 30             	mov    %bl,(%eax,%esi,1)
 8049a31:	83 c6 01             	add    $0x1,%esi
 8049a34:	83 fe 0f             	cmp    $0xf,%esi
 8049a37:	7f 6d                	jg     8049aa6 <exit@plt+0xc3a>
 8049a39:	8b 85 6c ff ff ff    	mov    -0x94(%ebp),%eax
 8049a3f:	83 c7 01             	add    $0x1,%edi
 8049a42:	8b 40 10             	mov    0x10(%eax),%eax
 8049a45:	89 85 70 ff ff ff    	mov    %eax,-0x90(%ebp)
 8049a4b:	0f b6 1f             	movzbl (%edi),%ebx
 8049a4e:	84 db                	test   %bl,%bl
 8049a50:	74 7a                	je     8049acc <exit@plt+0xc60>
 8049a52:	e8 a5 f2 ff ff       	call   8048cfc <__ctype_b_loc@plt>
 8049a57:	0f be d3             	movsbl %bl,%edx
 8049a5a:	8b 00                	mov    (%eax),%eax
 8049a5c:	f6 44 50 01 40       	testb  $0x40,0x1(%eax,%edx,2)
 8049a61:	75 c5                	jne    8049a28 <exit@plt+0xbbc>
 8049a63:	83 fe 0b             	cmp    $0xb,%esi
 8049a66:	7f cc                	jg     8049a34 <exit@plt+0xbc8>
 8049a68:	8b 85 70 ff ff ff    	mov    -0x90(%ebp),%eax
 8049a6e:	89 54 24 10          	mov    %edx,0x10(%esp)
 8049a72:	c7 44 24 0c d2 cb 04 	movl   $0x804cbd2,0xc(%esp)
 8049a79:	08 
 8049a7a:	c7 44 24 08 ff ff ff 	movl   $0xffffffff,0x8(%esp)
 8049a81:	ff 
 8049a82:	01 f0                	add    %esi,%eax
 8049a84:	c7 44 24 04 01 00 00 	movl   $0x1,0x4(%esp)
 8049a8b:	00 
 8049a8c:	89 04 24             	mov    %eax,(%esp)
 8049a8f:	e8 78 f3 ff ff       	call   8048e0c <__sprintf_chk@plt>
 8049a94:	01 c6                	add    %eax,%esi
 8049a96:	eb 9c                	jmp    8049a34 <exit@plt+0xbc8>
 8049a98:	8b 85 74 ff ff ff    	mov    -0x8c(%ebp),%eax
 8049a9e:	89 70 68             	mov    %esi,0x68(%eax)
 8049aa1:	e9 22 fe ff ff       	jmp    80498c8 <exit@plt+0xa5c>
 8049aa6:	89 f2                	mov    %esi,%edx
 8049aa8:	8b b5 6c ff ff ff    	mov    -0x94(%ebp),%esi
 8049aae:	8b bd 68 ff ff ff    	mov    -0x98(%ebp),%edi
 8049ab4:	8b 46 10             	mov    0x10(%esi),%eax
 8049ab7:	89 85 70 ff ff ff    	mov    %eax,-0x90(%ebp)
 8049abd:	8b 85 70 ff ff ff    	mov    -0x90(%ebp),%eax
 8049ac3:	c6 04 10 00          	movb   $0x0,(%eax,%edx,1)
 8049ac7:	e9 c4 fe ff ff       	jmp    8049990 <exit@plt+0xb24>
 8049acc:	89 f2                	mov    %esi,%edx
 8049ace:	8b bd 68 ff ff ff    	mov    -0x98(%ebp),%edi
 8049ad4:	8b b5 6c ff ff ff    	mov    -0x94(%ebp),%esi
 8049ada:	eb e1                	jmp    8049abd <exit@plt+0xc51>
 8049adc:	e8 db f2 ff ff       	call   8048dbc <__stack_chk_fail@plt>
 8049ae1:	eb 0d                	jmp    8049af0 <exit@plt+0xc84>
 8049ae3:	90                   	nop
 8049ae4:	90                   	nop
 8049ae5:	90                   	nop
 8049ae6:	90                   	nop
 8049ae7:	90                   	nop
 8049ae8:	90                   	nop
 8049ae9:	90                   	nop
 8049aea:	90                   	nop
 8049aeb:	90                   	nop
 8049aec:	90                   	nop
 8049aed:	90                   	nop
 8049aee:	90                   	nop
 8049aef:	90                   	nop
 8049af0:	55                   	push   %ebp
 8049af1:	89 e5                	mov    %esp,%ebp
 8049af3:	57                   	push   %edi
 8049af4:	56                   	push   %esi
 8049af5:	53                   	push   %ebx
 8049af6:	81 ec 1c 01 00 00    	sub    $0x11c,%esp
 8049afc:	89 85 24 ff ff ff    	mov    %eax,-0xdc(%ebp)
 8049b02:	8b 45 18             	mov    0x18(%ebp),%eax
 8049b05:	89 95 14 ff ff ff    	mov    %edx,-0xec(%ebp)
 8049b0b:	89 8d 18 ff ff ff    	mov    %ecx,-0xe8(%ebp)
 8049b11:	c7 04 24 c8 00 00 00 	movl   $0xc8,(%esp)
 8049b18:	89 85 10 ff ff ff    	mov    %eax,-0xf0(%ebp)
 8049b1e:	8b 45 1c             	mov    0x1c(%ebp),%eax
 8049b21:	89 85 0c ff ff ff    	mov    %eax,-0xf4(%ebp)
 8049b27:	0f b6 45 10          	movzbl 0x10(%ebp),%eax
 8049b2b:	88 85 23 ff ff ff    	mov    %al,-0xdd(%ebp)
 8049b31:	e8 76 f2 ff ff       	call   8048dac <malloc@plt>
 8049b36:	85 c0                	test   %eax,%eax
 8049b38:	89 c3                	mov    %eax,%ebx
 8049b3a:	0f 84 d8 01 00 00    	je     8049d18 <exit@plt+0xeac>
 8049b40:	c7 04 24 c8 00 00 00 	movl   $0xc8,(%esp)
 8049b47:	e8 60 f2 ff ff       	call   8048dac <malloc@plt>
 8049b4c:	85 c0                	test   %eax,%eax
 8049b4e:	89 c7                	mov    %eax,%edi
 8049b50:	0f 84 c2 01 00 00    	je     8049d18 <exit@plt+0xeac>
 8049b56:	8b 85 14 ff ff ff    	mov    -0xec(%ebp),%eax
 8049b5c:	c7 44 24 10 aa cb 04 	movl   $0x804cbaa,0x10(%esp)
 8049b63:	08 
 8049b64:	c7 44 24 0c c8 00 00 	movl   $0xc8,0xc(%esp)
 8049b6b:	00 
 8049b6c:	c7 44 24 08 01 00 00 	movl   $0x1,0x8(%esp)
 8049b73:	00 
 8049b74:	89 44 24 18          	mov    %eax,0x18(%esp)
 8049b78:	8b 85 24 ff ff ff    	mov    -0xdc(%ebp),%eax
 8049b7e:	c7 44 24 04 c8 00 00 	movl   $0xc8,0x4(%esp)
 8049b85:	00 
 8049b86:	89 1c 24             	mov    %ebx,(%esp)
 8049b89:	89 44 24 14          	mov    %eax,0x14(%esp)
 8049b8d:	e8 8a f2 ff ff       	call   8048e1c <__snprintf_chk@plt>
 8049b92:	89 1c 24             	mov    %ebx,(%esp)
 8049b95:	e8 42 f1 ff ff       	call   8048cdc <opendir@plt>
 8049b9a:	85 c0                	test   %eax,%eax
 8049b9c:	89 c6                	mov    %eax,%esi
 8049b9e:	0f 84 74 01 00 00    	je     8049d18 <exit@plt+0xeac>
 8049ba4:	0f be 85 23 ff ff ff 	movsbl -0xdd(%ebp),%eax
 8049bab:	89 85 1c ff ff ff    	mov    %eax,-0xe4(%ebp)
 8049bb1:	8d b4 26 00 00 00 00 	lea    0x0(%esi,%eiz,1),%esi
 8049bb8:	89 34 24             	mov    %esi,(%esp)
 8049bbb:	e8 6c f1 ff ff       	call   8048d2c <readdir64@plt>
 8049bc0:	85 c0                	test   %eax,%eax
 8049bc2:	0f 84 48 01 00 00    	je     8049d10 <exit@plt+0xea4>
 8049bc8:	0f b6 50 13          	movzbl 0x13(%eax),%edx
 8049bcc:	83 ea 30             	sub    $0x30,%edx
 8049bcf:	80 fa 09             	cmp    $0x9,%dl
 8049bd2:	77 e4                	ja     8049bb8 <exit@plt+0xd4c>
 8049bd4:	83 c0 13             	add    $0x13,%eax
 8049bd7:	89 44 24 1c          	mov    %eax,0x1c(%esp)
 8049bdb:	8b 85 14 ff ff ff    	mov    -0xec(%ebp),%eax
 8049be1:	c7 44 24 10 d8 cb 04 	movl   $0x804cbd8,0x10(%esp)
 8049be8:	08 
 8049be9:	c7 44 24 0c c8 00 00 	movl   $0xc8,0xc(%esp)
 8049bf0:	00 
 8049bf1:	c7 44 24 08 01 00 00 	movl   $0x1,0x8(%esp)
 8049bf8:	00 
 8049bf9:	89 44 24 18          	mov    %eax,0x18(%esp)
 8049bfd:	8b 85 24 ff ff ff    	mov    -0xdc(%ebp),%eax
 8049c03:	c7 44 24 04 c8 00 00 	movl   $0xc8,0x4(%esp)
 8049c0a:	00 
 8049c0b:	89 3c 24             	mov    %edi,(%esp)
 8049c0e:	89 44 24 14          	mov    %eax,0x14(%esp)
 8049c12:	e8 05 f2 ff ff       	call   8048e1c <__snprintf_chk@plt>
 8049c17:	8d 45 88             	lea    -0x78(%ebp),%eax
 8049c1a:	89 44 24 08          	mov    %eax,0x8(%esp)
 8049c1e:	89 7c 24 04          	mov    %edi,0x4(%esp)
 8049c22:	c7 04 24 03 00 00 00 	movl   $0x3,(%esp)
 8049c29:	e8 de ef ff ff       	call   8048c0c <__xstat64@plt>
 8049c2e:	85 c0                	test   %eax,%eax
 8049c30:	0f 85 42 01 00 00    	jne    8049d78 <exit@plt+0xf0c>
 8049c36:	8b 95 0c ff ff ff    	mov    -0xf4(%ebp),%edx
 8049c3c:	8b 85 10 ff ff ff    	mov    -0xf0(%ebp),%eax
 8049c42:	33 55 8c             	xor    -0x74(%ebp),%edx
 8049c45:	33 45 88             	xor    -0x78(%ebp),%eax
 8049c48:	09 c2                	or     %eax,%edx
 8049c4a:	0f 84 80 01 00 00    	je     8049dd0 <exit@plt+0xf64>
 8049c50:	8b 9d 18 ff ff ff    	mov    -0xe8(%ebp),%ebx
 8049c56:	85 db                	test   %ebx,%ebx
 8049c58:	75 0d                	jne    8049c67 <exit@plt+0xdfb>
 8049c5a:	eb 48                	jmp    8049ca4 <exit@plt+0xe38>
 8049c5c:	8d 74 26 00          	lea    0x0(%esi,%eiz,1),%esi
 8049c60:	8b 5b 0c             	mov    0xc(%ebx),%ebx
 8049c63:	85 db                	test   %ebx,%ebx
 8049c65:	74 3d                	je     8049ca4 <exit@plt+0xe38>
 8049c67:	8b 45 88             	mov    -0x78(%ebp),%eax
 8049c6a:	8b 55 8c             	mov    -0x74(%ebp),%edx
 8049c6d:	33 53 08             	xor    0x8(%ebx),%edx
 8049c70:	33 43 04             	xor    0x4(%ebx),%eax
 8049c73:	09 c2                	or     %eax,%edx
 8049c75:	75 e9                	jne    8049c60 <exit@plt+0xdf4>
 8049c77:	80 bd 23 ff ff ff 04 	cmpb   $0x4,-0xdd(%ebp)
 8049c7e:	0f 84 a4 00 00 00    	je     8049d28 <exit@plt+0xebc>
 8049c84:	8b 85 1c ff ff ff    	mov    -0xe4(%ebp),%eax
 8049c8a:	8b 4d 0c             	mov    0xc(%ebp),%ecx
 8049c8d:	8b 95 24 ff ff ff    	mov    -0xdc(%ebp),%edx
 8049c93:	89 04 24             	mov    %eax,(%esp)
 8049c96:	8b 03                	mov    (%ebx),%eax
 8049c98:	e8 e3 fb ff ff       	call   8049880 <exit@plt+0xa14>
 8049c9d:	8b 5b 0c             	mov    0xc(%ebx),%ebx
 8049ca0:	85 db                	test   %ebx,%ebx
 8049ca2:	75 c3                	jne    8049c67 <exit@plt+0xdfb>
 8049ca4:	8b 45 08             	mov    0x8(%ebp),%eax
 8049ca7:	85 c0                	test   %eax,%eax
 8049ca9:	0f 84 09 ff ff ff    	je     8049bb8 <exit@plt+0xd4c>
 8049caf:	8b 5d 08             	mov    0x8(%ebp),%ebx
 8049cb2:	eb 0f                	jmp    8049cc3 <exit@plt+0xe57>
 8049cb4:	8d 74 26 00          	lea    0x0(%esi,%eiz,1),%esi
 8049cb8:	8b 5b 14             	mov    0x14(%ebx),%ebx
 8049cbb:	85 db                	test   %ebx,%ebx
 8049cbd:	0f 84 f5 fe ff ff    	je     8049bb8 <exit@plt+0xd4c>
 8049cc3:	8b 45 88             	mov    -0x78(%ebp),%eax
 8049cc6:	8b 55 8c             	mov    -0x74(%ebp),%edx
 8049cc9:	33 53 08             	xor    0x8(%ebx),%edx
 8049ccc:	33 43 04             	xor    0x4(%ebx),%eax
 8049ccf:	09 c2                	or     %eax,%edx
 8049cd1:	75 e5                	jne    8049cb8 <exit@plt+0xe4c>
 8049cd3:	8b 45 e0             	mov    -0x20(%ebp),%eax
 8049cd6:	8b 55 e4             	mov    -0x1c(%ebp),%edx
 8049cd9:	33 53 10             	xor    0x10(%ebx),%edx
 8049cdc:	33 43 0c             	xor    0xc(%ebx),%eax
 8049cdf:	09 c2                	or     %eax,%edx
 8049ce1:	75 d5                	jne    8049cb8 <exit@plt+0xe4c>
 8049ce3:	80 bd 23 ff ff ff 04 	cmpb   $0x4,-0xdd(%ebp)
 8049cea:	0f 84 40 01 00 00    	je     8049e30 <exit@plt+0xfc4>
 8049cf0:	8b 85 1c ff ff ff    	mov    -0xe4(%ebp),%eax
 8049cf6:	8b 4d 0c             	mov    0xc(%ebp),%ecx
 8049cf9:	8b 95 24 ff ff ff    	mov    -0xdc(%ebp),%edx
 8049cff:	89 04 24             	mov    %eax,(%esp)
 8049d02:	8b 03                	mov    (%ebx),%eax
 8049d04:	e8 77 fb ff ff       	call   8049880 <exit@plt+0xa14>
 8049d09:	eb ad                	jmp    8049cb8 <exit@plt+0xe4c>
 8049d0b:	90                   	nop
 8049d0c:	8d 74 26 00          	lea    0x0(%esi,%eiz,1),%esi
 8049d10:	89 34 24             	mov    %esi,(%esp)
 8049d13:	e8 74 f0 ff ff       	call   8048d8c <closedir@plt>
 8049d18:	81 c4 1c 01 00 00    	add    $0x11c,%esp
 8049d1e:	5b                   	pop    %ebx
 8049d1f:	5e                   	pop    %esi
 8049d20:	5f                   	pop    %edi
 8049d21:	5d                   	pop    %ebp
 8049d22:	c3                   	ret    
 8049d23:	90                   	nop
 8049d24:	8d 74 26 00          	lea    0x0(%esi,%eiz,1),%esi
 8049d28:	8d 85 28 ff ff ff    	lea    -0xd8(%ebp),%eax
 8049d2e:	89 44 24 08          	mov    %eax,0x8(%esp)
 8049d32:	89 7c 24 04          	mov    %edi,0x4(%esp)
 8049d36:	c7 04 24 03 00 00 00 	movl   $0x3,(%esp)
 8049d3d:	e8 5a ef ff ff       	call   8048c9c <__lxstat64@plt>
 8049d42:	85 c0                	test   %eax,%eax
 8049d44:	0f 85 3a ff ff ff    	jne    8049c84 <exit@plt+0xe18>
 8049d4a:	80 bd 38 ff ff ff 00 	cmpb   $0x0,-0xc8(%ebp)
 8049d51:	0f 89 2d ff ff ff    	jns    8049c84 <exit@plt+0xe18>
 8049d57:	c7 04 24 24 00 00 00 	movl   $0x24,(%esp)
 8049d5e:	8b 4d 0c             	mov    0xc(%ebp),%ecx
 8049d61:	8b 95 24 ff ff ff    	mov    -0xdc(%ebp),%edx
 8049d67:	8b 03                	mov    (%ebx),%eax
 8049d69:	e8 12 fb ff ff       	call   8049880 <exit@plt+0xa14>
 8049d6e:	e9 ed fe ff ff       	jmp    8049c60 <exit@plt+0xdf4>
 8049d73:	90                   	nop
 8049d74:	8d 74 26 00          	lea    0x0(%esi,%eiz,1),%esi
 8049d78:	e8 0f ee ff ff       	call   8048b8c <__errno_location@plt>
 8049d7d:	8b 00                	mov    (%eax),%eax
 8049d7f:	89 04 24             	mov    %eax,(%esp)
 8049d82:	e8 35 ee ff ff       	call   8048bbc <strerror@plt>
 8049d87:	c7 44 24 08 05 00 00 	movl   $0x5,0x8(%esp)
 8049d8e:	00 
 8049d8f:	c7 44 24 04 e7 cb 04 	movl   $0x804cbe7,0x4(%esp)
 8049d96:	08 
 8049d97:	c7 04 24 00 00 00 00 	movl   $0x0,(%esp)
 8049d9e:	89 c3                	mov    %eax,%ebx
 8049da0:	e8 07 ef ff ff       	call   8048cac <dcgettext@plt>
 8049da5:	89 5c 24 10          	mov    %ebx,0x10(%esp)
 8049da9:	89 7c 24 0c          	mov    %edi,0xc(%esp)
 8049dad:	c7 44 24 04 01 00 00 	movl   $0x1,0x4(%esp)
 8049db4:	00 
 8049db5:	89 44 24 08          	mov    %eax,0x8(%esp)
 8049db9:	a1 10 f2 04 08       	mov    0x804f210,%eax
 8049dbe:	89 04 24             	mov    %eax,(%esp)
 8049dc1:	e8 16 ee ff ff       	call   8048bdc <__fprintf_chk@plt>
 8049dc6:	e9 ed fd ff ff       	jmp    8049bb8 <exit@plt+0xd4c>
 8049dcb:	90                   	nop
 8049dcc:	8d 74 26 00          	lea    0x0(%esi,%eiz,1),%esi
 8049dd0:	8b 55 14             	mov    0x14(%ebp),%edx
 8049dd3:	85 d2                	test   %edx,%edx
 8049dd5:	0f 84 75 fe ff ff    	je     8049c50 <exit@plt+0xde4>
 8049ddb:	8b 45 e0             	mov    -0x20(%ebp),%eax
 8049dde:	8b 5d e4             	mov    -0x1c(%ebp),%ebx
 8049de1:	89 85 08 ff ff ff    	mov    %eax,-0xf8(%ebp)
 8049de7:	8b 45 14             	mov    0x14(%ebp),%eax
 8049dea:	8b 8d 08 ff ff ff    	mov    -0xf8(%ebp),%ecx
 8049df0:	89 da                	mov    %ebx,%edx
 8049df2:	33 48 0c             	xor    0xc(%eax),%ecx
 8049df5:	33 50 10             	xor    0x10(%eax),%edx
 8049df8:	09 ca                	or     %ecx,%edx
 8049dfa:	0f 84 86 00 00 00    	je     8049e86 <exit@plt+0x101a>
 8049e00:	89 b5 04 ff ff ff    	mov    %esi,-0xfc(%ebp)
 8049e06:	8b b5 08 ff ff ff    	mov    -0xf8(%ebp),%esi
 8049e0c:	eb 10                	jmp    8049e1e <exit@plt+0xfb2>
 8049e0e:	66 90                	xchg   %ax,%ax
 8049e10:	8b 48 10             	mov    0x10(%eax),%ecx
 8049e13:	8b 50 0c             	mov    0xc(%eax),%edx
 8049e16:	31 d9                	xor    %ebx,%ecx
 8049e18:	31 f2                	xor    %esi,%edx
 8049e1a:	09 d1                	or     %edx,%ecx
 8049e1c:	74 62                	je     8049e80 <exit@plt+0x1014>
 8049e1e:	8b 40 1c             	mov    0x1c(%eax),%eax
 8049e21:	85 c0                	test   %eax,%eax
 8049e23:	75 eb                	jne    8049e10 <exit@plt+0xfa4>
 8049e25:	8b b5 04 ff ff ff    	mov    -0xfc(%ebp),%esi
 8049e2b:	e9 20 fe ff ff       	jmp    8049c50 <exit@plt+0xde4>
 8049e30:	8d 85 28 ff ff ff    	lea    -0xd8(%ebp),%eax
 8049e36:	89 44 24 08          	mov    %eax,0x8(%esp)
 8049e3a:	89 7c 24 04          	mov    %edi,0x4(%esp)
 8049e3e:	c7 04 24 03 00 00 00 	movl   $0x3,(%esp)
 8049e45:	e8 52 ee ff ff       	call   8048c9c <__lxstat64@plt>
 8049e4a:	85 c0                	test   %eax,%eax
 8049e4c:	0f 85 9e fe ff ff    	jne    8049cf0 <exit@plt+0xe84>
 8049e52:	80 bd 38 ff ff ff 00 	cmpb   $0x0,-0xc8(%ebp)
 8049e59:	0f 89 91 fe ff ff    	jns    8049cf0 <exit@plt+0xe84>
 8049e5f:	c7 04 24 24 00 00 00 	movl   $0x24,(%esp)
 8049e66:	8b 4d 0c             	mov    0xc(%ebp),%ecx
 8049e69:	8b 95 24 ff ff ff    	mov    -0xdc(%ebp),%edx
 8049e6f:	8b 03                	mov    (%ebx),%eax
 8049e71:	e8 0a fa ff ff       	call   8049880 <exit@plt+0xa14>
 8049e76:	e9 3d fe ff ff       	jmp    8049cb8 <exit@plt+0xe4c>
 8049e7b:	90                   	nop
 8049e7c:	8d 74 26 00          	lea    0x0(%esi,%eiz,1),%esi
 8049e80:	8b b5 04 ff ff ff    	mov    -0xfc(%ebp),%esi
 8049e86:	8b 50 04             	mov    0x4(%eax),%edx
 8049e89:	8b 48 08             	mov    0x8(%eax),%ecx
 8049e8c:	89 55 e0             	mov    %edx,-0x20(%ebp)
 8049e8f:	89 4d e4             	mov    %ecx,-0x1c(%ebp)
 8049e92:	8b 50 18             	mov    0x18(%eax),%edx
 8049e95:	8b 40 14             	mov    0x14(%eax),%eax
 8049e98:	89 55 8c             	mov    %edx,-0x74(%ebp)
 8049e9b:	89 45 88             	mov    %eax,-0x78(%ebp)
 8049e9e:	e9 ad fd ff ff       	jmp    8049c50 <exit@plt+0xde4>
 8049ea3:	8d b6 00 00 00 00    	lea    0x0(%esi),%esi
 8049ea9:	8d bc 27 00 00 00 00 	lea    0x0(%edi,%eiz,1),%edi
 8049eb0:	55                   	push   %ebp
 8049eb1:	89 e5                	mov    %esp,%ebp
 8049eb3:	57                   	push   %edi
 8049eb4:	56                   	push   %esi
 8049eb5:	53                   	push   %ebx
 8049eb6:	81 ec 9c 21 00 00    	sub    $0x219c,%esp
 8049ebc:	8b 45 08             	mov    0x8(%ebp),%eax
 8049ebf:	8b 55 0c             	mov    0xc(%ebp),%edx
 8049ec2:	8d 9d de fe ff ff    	lea    -0x122(%ebp),%ebx
 8049ec8:	c7 44 24 10 00 cc 04 	movl   $0x804cc00,0x10(%esp)
 8049ecf:	08 
 8049ed0:	c7 44 24 0c c8 00 00 	movl   $0xc8,0xc(%esp)
 8049ed7:	00 
 8049ed8:	89 85 b0 de ff ff    	mov    %eax,-0x2150(%ebp)
 8049ede:	8b 45 14             	mov    0x14(%ebp),%eax
 8049ee1:	89 95 9c de ff ff    	mov    %edx,-0x2164(%ebp)
 8049ee7:	8b 55 18             	mov    0x18(%ebp),%edx
 8049eea:	c7 44 24 08 01 00 00 	movl   $0x1,0x8(%esp)
 8049ef1:	00 
 8049ef2:	c7 44 24 04 c8 00 00 	movl   $0xc8,0x4(%esp)
 8049ef9:	00 
 8049efa:	89 85 a8 de ff ff    	mov    %eax,-0x2158(%ebp)
 8049f00:	8b 45 10             	mov    0x10(%ebp),%eax
 8049f03:	89 95 ac de ff ff    	mov    %edx,-0x2154(%ebp)
 8049f09:	89 1c 24             	mov    %ebx,(%esp)
 8049f0c:	65 8b 15 14 00 00 00 	mov    %gs:0x14,%edx
 8049f13:	89 55 e4             	mov    %edx,-0x1c(%ebp)
 8049f16:	31 d2                	xor    %edx,%edx
 8049f18:	89 44 24 14          	mov    %eax,0x14(%esp)
 8049f1c:	e8 fb ee ff ff       	call   8048e1c <__snprintf_chk@plt>
 8049f21:	85 c0                	test   %eax,%eax
 8049f23:	0f 88 df 01 00 00    	js     804a108 <exit@plt+0x129c>
 8049f29:	c7 44 24 04 b7 cd 04 	movl   $0x804cdb7,0x4(%esp)
 8049f30:	08 
 8049f31:	89 1c 24             	mov    %ebx,(%esp)
 8049f34:	e8 13 ed ff ff       	call   8048c4c <fopen64@plt>
 8049f39:	85 c0                	test   %eax,%eax
 8049f3b:	89 85 b4 de ff ff    	mov    %eax,-0x214c(%ebp)
 8049f41:	0f 84 c1 01 00 00    	je     804a108 <exit@plt+0x129c>
 8049f47:	90                   	nop
 8049f48:	8b 95 b4 de ff ff    	mov    -0x214c(%ebp),%edx
 8049f4e:	8d 85 de de ff ff    	lea    -0x2122(%ebp),%eax
 8049f54:	c7 44 24 04 00 20 00 	movl   $0x2000,0x4(%esp)
 8049f5b:	00 
 8049f5c:	89 04 24             	mov    %eax,(%esp)
 8049f5f:	89 54 24 08          	mov    %edx,0x8(%esp)
 8049f63:	e8 d4 ec ff ff       	call   8048c3c <fgets@plt>
 8049f68:	85 c0                	test   %eax,%eax
 8049f6a:	0f 84 98 01 00 00    	je     804a108 <exit@plt+0x129c>
 8049f70:	8d 85 d0 de ff ff    	lea    -0x2130(%ebp),%eax
 8049f76:	89 44 24 20          	mov    %eax,0x20(%esp)
 8049f7a:	8d 85 cc de ff ff    	lea    -0x2134(%ebp),%eax
 8049f80:	8d 95 d4 de ff ff    	lea    -0x212c(%ebp),%edx
 8049f86:	89 44 24 18          	mov    %eax,0x18(%esp)
 8049f8a:	8d 85 c4 de ff ff    	lea    -0x213c(%ebp),%eax
 8049f90:	89 54 24 1c          	mov    %edx,0x1c(%esp)
 8049f94:	8d 95 c8 de ff ff    	lea    -0x2138(%ebp),%edx
 8049f9a:	89 44 24 10          	mov    %eax,0x10(%esp)
 8049f9e:	8d 85 c0 de ff ff    	lea    -0x2140(%ebp),%eax
 8049fa4:	89 54 24 14          	mov    %edx,0x14(%esp)
 8049fa8:	8d 95 de de ff ff    	lea    -0x2122(%ebp),%edx
 8049fae:	89 44 24 0c          	mov    %eax,0xc(%esp)
 8049fb2:	8d 85 d8 de ff ff    	lea    -0x2128(%ebp),%eax
 8049fb8:	89 44 24 08          	mov    %eax,0x8(%esp)
 8049fbc:	c7 44 24 04 08 d4 04 	movl   $0x804d408,0x4(%esp)
 8049fc3:	08 
 8049fc4:	89 14 24             	mov    %edx,(%esp)
 8049fc7:	e8 20 ee ff ff       	call   8048dec <sscanf@plt>
 8049fcc:	83 f8 07             	cmp    $0x7,%eax
 8049fcf:	0f 85 73 ff ff ff    	jne    8049f48 <exit@plt+0x10dc>
 8049fd5:	8b 85 d0 de ff ff    	mov    -0x2130(%ebp),%eax
 8049fdb:	31 d2                	xor    %edx,%edx
 8049fdd:	89 95 a4 de ff ff    	mov    %edx,-0x215c(%ebp)
 8049fe3:	8d 55 a6             	lea    -0x5a(%ebp),%edx
 8049fe6:	c7 44 24 0c 2e 00 00 	movl   $0x2e,0xc(%esp)
 8049fed:	00 
 8049fee:	89 54 24 08          	mov    %edx,0x8(%esp)
 8049ff2:	89 85 a0 de ff ff    	mov    %eax,-0x2160(%ebp)
 8049ff8:	8b 85 c0 de ff ff    	mov    -0x2140(%ebp),%eax
 8049ffe:	c7 04 24 0a 00 00 00 	movl   $0xa,(%esp)
 804a005:	89 45 d4             	mov    %eax,-0x2c(%ebp)
 804a008:	8b 85 c4 de ff ff    	mov    -0x213c(%ebp),%eax
 804a00e:	89 45 d8             	mov    %eax,-0x28(%ebp)
 804a011:	8b 85 c8 de ff ff    	mov    -0x2138(%ebp),%eax
 804a017:	89 45 dc             	mov    %eax,-0x24(%ebp)
 804a01a:	8b 85 cc de ff ff    	mov    -0x2134(%ebp),%eax
 804a020:	89 45 e0             	mov    %eax,-0x20(%ebp)
 804a023:	8d 45 d4             	lea    -0x2c(%ebp),%eax
 804a026:	89 85 94 de ff ff    	mov    %eax,-0x216c(%ebp)
 804a02c:	89 44 24 04          	mov    %eax,0x4(%esp)
 804a030:	e8 67 eb ff ff       	call   8048b9c <inet_ntop@plt>
 804a035:	8b 8d 9c de ff ff    	mov    -0x2164(%ebp),%ecx
 804a03b:	85 c9                	test   %ecx,%ecx
 804a03d:	0f 84 05 ff ff ff    	je     8049f48 <exit@plt+0x10dc>
 804a043:	8b 9d 9c de ff ff    	mov    -0x2164(%ebp),%ebx
 804a049:	eb 18                	jmp    804a063 <exit@plt+0x11f7>
 804a04b:	90                   	nop
 804a04c:	8d 74 26 00          	lea    0x0(%esi,%eiz,1),%esi
 804a050:	3b 85 d8 de ff ff    	cmp    -0x2128(%ebp),%eax
 804a056:	74 40                	je     804a098 <exit@plt+0x122c>
 804a058:	8b 5b 1c             	mov    0x1c(%ebx),%ebx
 804a05b:	85 db                	test   %ebx,%ebx
 804a05d:	0f 84 e5 fe ff ff    	je     8049f48 <exit@plt+0x10dc>
 804a063:	8d 53 0c             	lea    0xc(%ebx),%edx
 804a066:	8d 45 a6             	lea    -0x5a(%ebp),%eax
 804a069:	89 54 24 04          	mov    %edx,0x4(%esp)
 804a06d:	89 95 98 de ff ff    	mov    %edx,-0x2168(%ebp)
 804a073:	c7 44 24 0c 2e 00 00 	movl   $0x2e,0xc(%esp)
 804a07a:	00 
 804a07b:	89 44 24 08          	mov    %eax,0x8(%esp)
 804a07f:	c7 04 24 0a 00 00 00 	movl   $0xa,(%esp)
 804a086:	e8 11 eb ff ff       	call   8048b9c <inet_ntop@plt>
 804a08b:	8b 43 04             	mov    0x4(%ebx),%eax
 804a08e:	8b 95 98 de ff ff    	mov    -0x2168(%ebp),%edx
 804a094:	85 c0                	test   %eax,%eax
 804a096:	75 b8                	jne    804a050 <exit@plt+0x11e4>
 804a098:	8b 43 08             	mov    0x8(%ebx),%eax
 804a09b:	85 c0                	test   %eax,%eax
 804a09d:	74 08                	je     804a0a7 <exit@plt+0x123b>
 804a09f:	3b 85 d4 de ff ff    	cmp    -0x212c(%ebp),%eax
 804a0a5:	75 b1                	jne    804a058 <exit@plt+0x11ec>
 804a0a7:	89 d6                	mov    %edx,%esi
 804a0a9:	bf 00 f2 04 08       	mov    $0x804f200,%edi
 804a0ae:	b9 10 00 00 00       	mov    $0x10,%ecx
 804a0b3:	f3 a6                	repz cmpsb %es:(%edi),%ds:(%esi)
 804a0b5:	74 11                	je     804a0c8 <exit@plt+0x125c>
 804a0b7:	8b bd 94 de ff ff    	mov    -0x216c(%ebp),%edi
 804a0bd:	89 d6                	mov    %edx,%esi
 804a0bf:	b9 10 00 00 00       	mov    $0x10,%ecx
 804a0c4:	f3 a6                	repz cmpsb %es:(%edi),%ds:(%esi)
 804a0c6:	75 90                	jne    804a058 <exit@plt+0x11ec>
 804a0c8:	8b 85 a0 de ff ff    	mov    -0x2160(%ebp),%eax
 804a0ce:	8b 95 a4 de ff ff    	mov    -0x215c(%ebp),%edx
 804a0d4:	89 44 24 08          	mov    %eax,0x8(%esp)
 804a0d8:	8b 85 a8 de ff ff    	mov    -0x2158(%ebp),%eax
 804a0de:	89 54 24 0c          	mov    %edx,0xc(%esp)
 804a0e2:	8b 95 ac de ff ff    	mov    -0x2154(%ebp),%edx
 804a0e8:	89 04 24             	mov    %eax,(%esp)
 804a0eb:	8b 85 b0 de ff ff    	mov    -0x2150(%ebp),%eax
 804a0f1:	89 54 24 04          	mov    %edx,0x4(%esp)
 804a0f5:	8b 13                	mov    (%ebx),%edx
 804a0f7:	e8 44 ee ff ff       	call   8048f40 <exit@plt+0xd4>
 804a0fc:	e9 57 ff ff ff       	jmp    804a058 <exit@plt+0x11ec>
 804a101:	8d b4 26 00 00 00 00 	lea    0x0(%esi,%eiz,1),%esi
 804a108:	8b 55 e4             	mov    -0x1c(%ebp),%edx
 804a10b:	65 33 15 14 00 00 00 	xor    %gs:0x14,%edx
 804a112:	75 0d                	jne    804a121 <exit@plt+0x12b5>
 804a114:	81 c4 9c 21 00 00    	add    $0x219c,%esp
 804a11a:	5b                   	pop    %ebx
 804a11b:	5e                   	pop    %esi
 804a11c:	5f                   	pop    %edi
 804a11d:	5d                   	pop    %ebp
 804a11e:	66 90                	xchg   %ax,%ax
 804a120:	c3                   	ret    
 804a121:	e8 96 ec ff ff       	call   8048dbc <__stack_chk_fail@plt>
 804a126:	8d 76 00             	lea    0x0(%esi),%esi
 804a129:	8d bc 27 00 00 00 00 	lea    0x0(%edi,%eiz,1),%edi
 804a130:	55                   	push   %ebp
 804a131:	89 e5                	mov    %esp,%ebp
 804a133:	57                   	push   %edi
 804a134:	56                   	push   %esi
 804a135:	53                   	push   %ebx
 804a136:	81 ec 4c 21 00 00    	sub    $0x214c,%esp
 804a13c:	8b 45 08             	mov    0x8(%ebp),%eax
 804a13f:	8b 55 0c             	mov    0xc(%ebp),%edx
 804a142:	8d 9d 1c ff ff ff    	lea    -0xe4(%ebp),%ebx
 804a148:	c7 44 24 10 0e cc 04 	movl   $0x804cc0e,0x10(%esp)
 804a14f:	08 
 804a150:	c7 44 24 0c c8 00 00 	movl   $0xc8,0xc(%esp)
 804a157:	00 
 804a158:	89 85 f4 de ff ff    	mov    %eax,-0x210c(%ebp)
 804a15e:	8b 45 14             	mov    0x14(%ebp),%eax
 804a161:	89 95 e4 de ff ff    	mov    %edx,-0x211c(%ebp)
 804a167:	8b 55 18             	mov    0x18(%ebp),%edx
 804a16a:	c7 44 24 08 01 00 00 	movl   $0x1,0x8(%esp)
 804a171:	00 
 804a172:	c7 44 24 04 c8 00 00 	movl   $0xc8,0x4(%esp)
 804a179:	00 
 804a17a:	89 85 e8 de ff ff    	mov    %eax,-0x2118(%ebp)
 804a180:	8b 45 10             	mov    0x10(%ebp),%eax
 804a183:	89 95 ec de ff ff    	mov    %edx,-0x2114(%ebp)
 804a189:	89 1c 24             	mov    %ebx,(%esp)
 804a18c:	65 8b 15 14 00 00 00 	mov    %gs:0x14,%edx
 804a193:	89 55 e4             	mov    %edx,-0x1c(%ebp)
 804a196:	31 d2                	xor    %edx,%edx
 804a198:	89 44 24 14          	mov    %eax,0x14(%esp)
 804a19c:	e8 7b ec ff ff       	call   8048e1c <__snprintf_chk@plt>
 804a1a1:	85 c0                	test   %eax,%eax
 804a1a3:	0f 88 8f 01 00 00    	js     804a338 <exit@plt+0x14cc>
 804a1a9:	c7 44 24 04 b7 cd 04 	movl   $0x804cdb7,0x4(%esp)
 804a1b0:	08 
 804a1b1:	89 1c 24             	mov    %ebx,(%esp)
 804a1b4:	e8 93 ea ff ff       	call   8048c4c <fopen64@plt>
 804a1b9:	85 c0                	test   %eax,%eax
 804a1bb:	89 85 04 df ff ff    	mov    %eax,-0x20fc(%ebp)
 804a1c1:	0f 84 21 01 00 00    	je     804a2e8 <exit@plt+0x147c>
 804a1c7:	8d 85 10 df ff ff    	lea    -0x20f0(%ebp),%eax
 804a1cd:	89 85 d4 de ff ff    	mov    %eax,-0x212c(%ebp)
 804a1d3:	90                   	nop
 804a1d4:	8d 74 26 00          	lea    0x0(%esi,%eiz,1),%esi
 804a1d8:	8b 95 04 df ff ff    	mov    -0x20fc(%ebp),%edx
 804a1de:	8d 85 1c df ff ff    	lea    -0x20e4(%ebp),%eax
 804a1e4:	c7 44 24 04 00 20 00 	movl   $0x2000,0x4(%esp)
 804a1eb:	00 
 804a1ec:	89 04 24             	mov    %eax,(%esp)
 804a1ef:	89 54 24 08          	mov    %edx,0x8(%esp)
 804a1f3:	e8 44 ea ff ff       	call   8048c3c <fgets@plt>
 804a1f8:	85 c0                	test   %eax,%eax
 804a1fa:	0f 84 38 01 00 00    	je     804a338 <exit@plt+0x14cc>
 804a200:	8d 95 0c df ff ff    	lea    -0x20f4(%ebp),%edx
 804a206:	89 54 24 14          	mov    %edx,0x14(%esp)
 804a20a:	8d 85 14 df ff ff    	lea    -0x20ec(%ebp),%eax
 804a210:	8d 95 10 df ff ff    	lea    -0x20f0(%ebp),%edx
 804a216:	89 44 24 10          	mov    %eax,0x10(%esp)
 804a21a:	8d 85 18 df ff ff    	lea    -0x20e8(%ebp),%eax
 804a220:	89 54 24 0c          	mov    %edx,0xc(%esp)
 804a224:	8d 95 1c df ff ff    	lea    -0x20e4(%ebp),%edx
 804a22a:	89 44 24 08          	mov    %eax,0x8(%esp)
 804a22e:	c7 44 24 04 74 d4 04 	movl   $0x804d474,0x4(%esp)
 804a235:	08 
 804a236:	89 14 24             	mov    %edx,(%esp)
 804a239:	e8 ae eb ff ff       	call   8048dec <sscanf@plt>
 804a23e:	83 f8 04             	cmp    $0x4,%eax
 804a241:	75 95                	jne    804a1d8 <exit@plt+0x136c>
 804a243:	8b bd e4 de ff ff    	mov    -0x211c(%ebp),%edi
 804a249:	31 d2                	xor    %edx,%edx
 804a24b:	8b 85 0c df ff ff    	mov    -0x20f4(%ebp),%eax
 804a251:	89 95 fc de ff ff    	mov    %edx,-0x2104(%ebp)
 804a257:	85 ff                	test   %edi,%edi
 804a259:	89 85 f8 de ff ff    	mov    %eax,-0x2108(%ebp)
 804a25f:	0f 84 73 ff ff ff    	je     804a1d8 <exit@plt+0x136c>
 804a265:	8b 9d e4 de ff ff    	mov    -0x211c(%ebp),%ebx
 804a26b:	eb 16                	jmp    804a283 <exit@plt+0x1417>
 804a26d:	8d 76 00             	lea    0x0(%esi),%esi
 804a270:	3b 85 18 df ff ff    	cmp    -0x20e8(%ebp),%eax
 804a276:	74 12                	je     804a28a <exit@plt+0x141e>
 804a278:	8b 5b 10             	mov    0x10(%ebx),%ebx
 804a27b:	85 db                	test   %ebx,%ebx
 804a27d:	0f 84 55 ff ff ff    	je     804a1d8 <exit@plt+0x136c>
 804a283:	8b 43 04             	mov    0x4(%ebx),%eax
 804a286:	85 c0                	test   %eax,%eax
 804a288:	75 e6                	jne    804a270 <exit@plt+0x1404>
 804a28a:	8b 43 08             	mov    0x8(%ebx),%eax
 804a28d:	85 c0                	test   %eax,%eax
 804a28f:	74 08                	je     804a299 <exit@plt+0x142d>
 804a291:	3b 85 14 df ff ff    	cmp    -0x20ec(%ebp),%eax
 804a297:	75 df                	jne    804a278 <exit@plt+0x140c>
 804a299:	8b 73 0c             	mov    0xc(%ebx),%esi
 804a29c:	85 f6                	test   %esi,%esi
 804a29e:	74 12                	je     804a2b2 <exit@plt+0x1446>
 804a2a0:	8b bd d4 de ff ff    	mov    -0x212c(%ebp),%edi
 804a2a6:	8d 73 0c             	lea    0xc(%ebx),%esi
 804a2a9:	b9 04 00 00 00       	mov    $0x4,%ecx
 804a2ae:	f3 a6                	repz cmpsb %es:(%edi),%ds:(%esi)
 804a2b0:	75 c6                	jne    804a278 <exit@plt+0x140c>
 804a2b2:	8b 85 f8 de ff ff    	mov    -0x2108(%ebp),%eax
 804a2b8:	8b 95 fc de ff ff    	mov    -0x2104(%ebp),%edx
 804a2be:	89 44 24 08          	mov    %eax,0x8(%esp)
 804a2c2:	8b 85 e8 de ff ff    	mov    -0x2118(%ebp),%eax
 804a2c8:	89 54 24 0c          	mov    %edx,0xc(%esp)
 804a2cc:	8b 95 ec de ff ff    	mov    -0x2114(%ebp),%edx
 804a2d2:	89 04 24             	mov    %eax,(%esp)
 804a2d5:	8b 85 f4 de ff ff    	mov    -0x210c(%ebp),%eax
 804a2db:	89 54 24 04          	mov    %edx,0x4(%esp)
 804a2df:	8b 13                	mov    (%ebx),%edx
 804a2e1:	e8 5a ec ff ff       	call   8048f40 <exit@plt+0xd4>
 804a2e6:	eb 90                	jmp    804a278 <exit@plt+0x140c>
 804a2e8:	e8 9f e8 ff ff       	call   8048b8c <__errno_location@plt>
 804a2ed:	8b 00                	mov    (%eax),%eax
 804a2ef:	89 04 24             	mov    %eax,(%esp)
 804a2f2:	e8 c5 e8 ff ff       	call   8048bbc <strerror@plt>
 804a2f7:	c7 44 24 08 05 00 00 	movl   $0x5,0x8(%esp)
 804a2fe:	00 
 804a2ff:	c7 44 24 04 50 d4 04 	movl   $0x804d450,0x4(%esp)
 804a306:	08 
 804a307:	c7 04 24 00 00 00 00 	movl   $0x0,(%esp)
 804a30e:	89 c6                	mov    %eax,%esi
 804a310:	e8 97 e9 ff ff       	call   8048cac <dcgettext@plt>
 804a315:	89 74 24 10          	mov    %esi,0x10(%esp)
 804a319:	89 5c 24 0c          	mov    %ebx,0xc(%esp)
 804a31d:	c7 44 24 04 01 00 00 	movl   $0x1,0x4(%esp)
 804a324:	00 
 804a325:	89 44 24 08          	mov    %eax,0x8(%esp)
 804a329:	a1 10 f2 04 08       	mov    0x804f210,%eax
 804a32e:	89 04 24             	mov    %eax,(%esp)
 804a331:	e8 a6 e8 ff ff       	call   8048bdc <__fprintf_chk@plt>
 804a336:	66 90                	xchg   %ax,%ax
 804a338:	8b 55 e4             	mov    -0x1c(%ebp),%edx
 804a33b:	65 33 15 14 00 00 00 	xor    %gs:0x14,%edx
 804a342:	75 0b                	jne    804a34f <exit@plt+0x14e3>
 804a344:	81 c4 4c 21 00 00    	add    $0x214c,%esp
 804a34a:	5b                   	pop    %ebx
 804a34b:	5e                   	pop    %esi
 804a34c:	5f                   	pop    %edi
 804a34d:	5d                   	pop    %ebp
 804a34e:	c3                   	ret    
 804a34f:	e8 68 ea ff ff       	call   8048dbc <__stack_chk_fail@plt>
 804a354:	8d b6 00 00 00 00    	lea    0x0(%esi),%esi
 804a35a:	8d bf 00 00 00 00    	lea    0x0(%edi),%edi
 804a360:	55                   	push   %ebp
 804a361:	89 e5                	mov    %esp,%ebp
 804a363:	83 ec 28             	sub    $0x28,%esp
 804a366:	89 5d f4             	mov    %ebx,-0xc(%ebp)
 804a369:	89 c3                	mov    %eax,%ebx
 804a36b:	89 7d fc             	mov    %edi,-0x4(%ebp)
 804a36e:	89 cf                	mov    %ecx,%edi
 804a370:	89 75 f8             	mov    %esi,-0x8(%ebp)
 804a373:	8b 30                	mov    (%eax),%esi
 804a375:	c7 04 24 20 00 00 00 	movl   $0x20,(%esp)
 804a37c:	e8 2b ea ff ff       	call   8048dac <malloc@plt>
 804a381:	85 c0                	test   %eax,%eax
 804a383:	74 2b                	je     804a3b0 <exit@plt+0x1544>
 804a385:	8b 55 08             	mov    0x8(%ebp),%edx
 804a388:	89 38                	mov    %edi,(%eax)
 804a38a:	89 50 04             	mov    %edx,0x4(%eax)
 804a38d:	8b 55 0c             	mov    0xc(%ebp),%edx
 804a390:	89 50 08             	mov    %edx,0x8(%eax)
 804a393:	8b 55 10             	mov    0x10(%ebp),%edx
 804a396:	89 50 0c             	mov    %edx,0xc(%eax)
 804a399:	8b 55 14             	mov    0x14(%ebp),%edx
 804a39c:	89 50 10             	mov    %edx,0x10(%eax)
 804a39f:	8b 55 18             	mov    0x18(%ebp),%edx
 804a3a2:	89 50 14             	mov    %edx,0x14(%eax)
 804a3a5:	8b 55 1c             	mov    0x1c(%ebp),%edx
 804a3a8:	89 70 1c             	mov    %esi,0x1c(%eax)
 804a3ab:	89 50 18             	mov    %edx,0x18(%eax)
 804a3ae:	89 03                	mov    %eax,(%ebx)
 804a3b0:	8b 5d f4             	mov    -0xc(%ebp),%ebx
 804a3b3:	8b 75 f8             	mov    -0x8(%ebp),%esi
 804a3b6:	8b 7d fc             	mov    -0x4(%ebp),%edi
 804a3b9:	89 ec                	mov    %ebp,%esp
 804a3bb:	5d                   	pop    %ebp
 804a3bc:	c3                   	ret    
 804a3bd:	8d 76 00             	lea    0x0(%esi),%esi
 804a3c0:	55                   	push   %ebp
 804a3c1:	89 e5                	mov    %esp,%ebp
 804a3c3:	57                   	push   %edi
 804a3c4:	56                   	push   %esi
 804a3c5:	53                   	push   %ebx
 804a3c6:	81 ec ec 00 00 00    	sub    $0xec,%esp
 804a3cc:	8b 5d 08             	mov    0x8(%ebp),%ebx
 804a3cf:	8b 45 14             	mov    0x14(%ebp),%eax
 804a3d2:	8b 55 18             	mov    0x18(%ebp),%edx
 804a3d5:	8b 33                	mov    (%ebx),%esi
 804a3d7:	c7 44 24 04 2f 00 00 	movl   $0x2f,0x4(%esp)
 804a3de:	00 
 804a3df:	89 85 54 ff ff ff    	mov    %eax,-0xac(%ebp)
 804a3e5:	89 95 50 ff ff ff    	mov    %edx,-0xb0(%ebp)
 804a3eb:	89 34 24             	mov    %esi,(%esp)
 804a3ee:	65 a1 14 00 00 00    	mov    %gs:0x14,%eax
 804a3f4:	89 45 e4             	mov    %eax,-0x1c(%ebp)
 804a3f7:	31 c0                	xor    %eax,%eax
 804a3f9:	e8 2e e8 ff ff       	call   8048c2c <strchr@plt>
 804a3fe:	85 c0                	test   %eax,%eax
 804a400:	89 c7                	mov    %eax,%edi
 804a402:	75 24                	jne    804a428 <exit@plt+0x15bc>
 804a404:	b8 ff ff ff ff       	mov    $0xffffffff,%eax
 804a409:	8b 55 e4             	mov    -0x1c(%ebp),%edx
 804a40c:	65 33 15 14 00 00 00 	xor    %gs:0x14,%edx
 804a413:	0f 85 e8 05 00 00    	jne    804aa01 <exit@plt+0x1b95>
 804a419:	81 c4 ec 00 00 00    	add    $0xec,%esp
 804a41f:	5b                   	pop    %ebx
 804a420:	5e                   	pop    %esi
 804a421:	5f                   	pop    %edi
 804a422:	5d                   	pop    %ebp
 804a423:	c3                   	ret    
 804a424:	8d 74 26 00          	lea    0x0(%esi,%eiz,1),%esi
 804a428:	8d 50 01             	lea    0x1(%eax),%edx
 804a42b:	31 c0                	xor    %eax,%eax
 804a42d:	89 95 44 ff ff ff    	mov    %edx,-0xbc(%ebp)
 804a433:	8d 55 80             	lea    -0x80(%ebp),%edx
 804a436:	80 7f 01 00          	cmpb   $0x0,0x1(%edi)
 804a43a:	75 16                	jne    804a452 <exit@plt+0x15e6>
 804a43c:	eb c6                	jmp    804a404 <exit@plt+0x1598>
 804a43e:	66 90                	xchg   %ax,%ax
 804a440:	80 f9 2f             	cmp    $0x2f,%cl
 804a443:	74 15                	je     804a45a <exit@plt+0x15ee>
 804a445:	88 0c 02             	mov    %cl,(%edx,%eax,1)
 804a448:	83 c0 01             	add    $0x1,%eax
 804a44b:	83 f8 63             	cmp    $0x63,%eax
 804a44e:	66 90                	xchg   %ax,%ax
 804a450:	74 08                	je     804a45a <exit@plt+0x15ee>
 804a452:	0f b6 0c 06          	movzbl (%esi,%eax,1),%ecx
 804a456:	84 c9                	test   %cl,%cl
 804a458:	75 e6                	jne    804a440 <exit@plt+0x15d4>
 804a45a:	89 14 24             	mov    %edx,(%esp)
 804a45d:	c7 44 24 04 2c 00 00 	movl   $0x2c,0x4(%esp)
 804a464:	00 
 804a465:	c6 44 05 80 00       	movb   $0x0,-0x80(%ebp,%eax,1)
 804a46a:	89 95 2c ff ff ff    	mov    %edx,-0xd4(%ebp)
 804a470:	e8 b7 e7 ff ff       	call   8048c2c <strchr@plt>
 804a475:	8b 95 2c ff ff ff    	mov    -0xd4(%ebp),%edx
 804a47b:	85 c0                	test   %eax,%eax
 804a47d:	89 c6                	mov    %eax,%esi
 804a47f:	0f 84 95 04 00 00    	je     804a91a <exit@plt+0x1aae>
 804a485:	31 c9                	xor    %ecx,%ecx
 804a487:	39 d0                	cmp    %edx,%eax
 804a489:	74 0d                	je     804a498 <exit@plt+0x162c>
 804a48b:	c6 00 00             	movb   $0x0,(%eax)
 804a48e:	89 14 24             	mov    %edx,(%esp)
 804a491:	e8 c6 e9 ff ff       	call   8048e5c <__strdup@plt>
 804a496:	89 c1                	mov    %eax,%ecx
 804a498:	c7 85 4c ff ff ff 00 	movl   $0x0,-0xb4(%ebp)
 804a49f:	00 00 00 
 804a4a2:	8d 56 01             	lea    0x1(%esi),%edx
 804a4a5:	c7 85 48 ff ff ff 00 	movl   $0x0,-0xb8(%ebp)
 804a4ac:	00 00 00 
 804a4af:	80 7e 01 00          	cmpb   $0x0,0x1(%esi)
 804a4b3:	74 5c                	je     804a511 <exit@plt+0x16a5>
 804a4b5:	89 14 24             	mov    %edx,(%esp)
 804a4b8:	c7 44 24 04 2c 00 00 	movl   $0x2c,0x4(%esp)
 804a4bf:	00 
 804a4c0:	89 95 2c ff ff ff    	mov    %edx,-0xd4(%ebp)
 804a4c6:	89 8d 30 ff ff ff    	mov    %ecx,-0xd0(%ebp)
 804a4cc:	e8 5b e7 ff ff       	call   8048c2c <strchr@plt>
 804a4d1:	8b 95 2c ff ff ff    	mov    -0xd4(%ebp),%edx
 804a4d7:	8b 8d 30 ff ff ff    	mov    -0xd0(%ebp),%ecx
 804a4dd:	89 95 48 ff ff ff    	mov    %edx,-0xb8(%ebp)
 804a4e3:	85 c0                	test   %eax,%eax
 804a4e5:	74 2a                	je     804a511 <exit@plt+0x16a5>
 804a4e7:	39 d0                	cmp    %edx,%eax
 804a4e9:	c7 85 48 ff ff ff 00 	movl   $0x0,-0xb8(%ebp)
 804a4f0:	00 00 00 
 804a4f3:	74 09                	je     804a4fe <exit@plt+0x1692>
 804a4f5:	c6 00 00             	movb   $0x0,(%eax)
 804a4f8:	89 95 48 ff ff ff    	mov    %edx,-0xb8(%ebp)
 804a4fe:	80 78 01 01          	cmpb   $0x1,0x1(%eax)
 804a502:	8d 50 01             	lea    0x1(%eax),%edx
 804a505:	19 c0                	sbb    %eax,%eax
 804a507:	f7 d0                	not    %eax
 804a509:	21 c2                	and    %eax,%edx
 804a50b:	89 95 4c ff ff ff    	mov    %edx,-0xb4(%ebp)
 804a511:	8d b5 5c ff ff ff    	lea    -0xa4(%ebp),%esi
 804a517:	31 c0                	xor    %eax,%eax
 804a519:	c7 04 06 00 00 00 00 	movl   $0x0,(%esi,%eax,1)
 804a520:	83 c0 04             	add    $0x4,%eax
 804a523:	83 f8 20             	cmp    $0x20,%eax
 804a526:	72 f1                	jb     804a519 <exit@plt+0x16ad>
 804a528:	8b 45 0c             	mov    0xc(%ebp),%eax
 804a52b:	85 c0                	test   %eax,%eax
 804a52d:	0f 84 64 02 00 00    	je     804a797 <exit@plt+0x192b>
 804a533:	c7 85 60 ff ff ff 0a 	movl   $0xa,-0xa0(%ebp)
 804a53a:	00 00 00 
 804a53d:	0f b6 47 01          	movzbl 0x1(%edi),%eax
 804a541:	3a 05 dc cc 04 08    	cmp    0x804ccdc,%al
 804a547:	0f 85 3b 02 00 00    	jne    804a788 <exit@plt+0x191c>
 804a54d:	8b 95 44 ff ff ff    	mov    -0xbc(%ebp),%edx
 804a553:	0f b6 42 01          	movzbl 0x1(%edx),%eax
 804a557:	3a 05 dd cc 04 08    	cmp    0x804ccdd,%al
 804a55d:	0f 85 25 02 00 00    	jne    804a788 <exit@plt+0x191c>
 804a563:	0f b6 42 02          	movzbl 0x2(%edx),%eax
 804a567:	3a 05 de cc 04 08    	cmp    0x804ccde,%al
 804a56d:	0f 85 15 02 00 00    	jne    804a788 <exit@plt+0x191c>
 804a573:	0f b6 42 03          	movzbl 0x3(%edx),%eax
 804a577:	3a 05 df cc 04 08    	cmp    0x804ccdf,%al
 804a57d:	0f 85 05 02 00 00    	jne    804a788 <exit@plt+0x191c>
 804a583:	c7 85 64 ff ff ff 01 	movl   $0x1,-0x9c(%ebp)
 804a58a:	00 00 00 
 804a58d:	85 c9                	test   %ecx,%ecx
 804a58f:	66 c7 85 42 ff ff ff 	movw   $0x0,-0xbe(%ebp)
 804a596:	00 00 
 804a598:	0f 84 c4 00 00 00    	je     804a662 <exit@plt+0x17f6>
 804a59e:	8d 85 7c ff ff ff    	lea    -0x84(%ebp),%eax
 804a5a4:	89 4c 24 04          	mov    %ecx,0x4(%esp)
 804a5a8:	89 8d 30 ff ff ff    	mov    %ecx,-0xd0(%ebp)
 804a5ae:	89 44 24 0c          	mov    %eax,0xc(%esp)
 804a5b2:	89 74 24 08          	mov    %esi,0x8(%esp)
 804a5b6:	c7 04 24 00 00 00 00 	movl   $0x0,(%esp)
 804a5bd:	e8 4a e7 ff ff       	call   8048d0c <getaddrinfo@plt>
 804a5c2:	8b 8d 30 ff ff ff    	mov    -0xd0(%ebp),%ecx
 804a5c8:	85 c0                	test   %eax,%eax
 804a5ca:	0f 85 40 02 00 00    	jne    804a810 <exit@plt+0x19a4>
 804a5d0:	8b 85 7c ff ff ff    	mov    -0x84(%ebp),%eax
 804a5d6:	85 c0                	test   %eax,%eax
 804a5d8:	0f 84 26 fe ff ff    	je     804a404 <exit@plt+0x1598>
 804a5de:	8b 78 04             	mov    0x4(%eax),%edi
 804a5e1:	83 ff 02             	cmp    $0x2,%edi
 804a5e4:	74 5a                	je     804a640 <exit@plt+0x17d4>
 804a5e6:	83 ff 0a             	cmp    $0xa,%edi
 804a5e9:	74 55                	je     804a640 <exit@plt+0x17d4>
 804a5eb:	c7 44 24 08 05 00 00 	movl   $0x5,0x8(%esp)
 804a5f2:	00 
 804a5f3:	c7 44 24 04 1b cc 04 	movl   $0x804cc1b,0x4(%esp)
 804a5fa:	08 
 804a5fb:	c7 04 24 00 00 00 00 	movl   $0x0,(%esp)
 804a602:	e8 a5 e6 ff ff       	call   8048cac <dcgettext@plt>
 804a607:	89 7c 24 0c          	mov    %edi,0xc(%esp)
 804a60b:	c7 44 24 04 01 00 00 	movl   $0x1,0x4(%esp)
 804a612:	00 
 804a613:	89 44 24 08          	mov    %eax,0x8(%esp)
 804a617:	a1 10 f2 04 08       	mov    0x804f210,%eax
 804a61c:	89 04 24             	mov    %eax,(%esp)
 804a61f:	e8 b8 e5 ff ff       	call   8048bdc <__fprintf_chk@plt>
 804a624:	8b 85 7c ff ff ff    	mov    -0x84(%ebp),%eax
 804a62a:	89 04 24             	mov    %eax,(%esp)
 804a62d:	e8 9a e5 ff ff       	call   8048bcc <freeaddrinfo@plt>
 804a632:	b8 ff ff ff ff       	mov    $0xffffffff,%eax
 804a637:	e9 cd fd ff ff       	jmp    804a409 <exit@plt+0x159d>
 804a63c:	8d 74 26 00          	lea    0x0(%esi,%eiz,1),%esi
 804a640:	8b 50 14             	mov    0x14(%eax),%edx
 804a643:	89 8d 30 ff ff ff    	mov    %ecx,-0xd0(%ebp)
 804a649:	0f b7 52 02          	movzwl 0x2(%edx),%edx
 804a64d:	89 04 24             	mov    %eax,(%esp)
 804a650:	66 89 95 42 ff ff ff 	mov    %dx,-0xbe(%ebp)
 804a657:	e8 70 e5 ff ff       	call   8048bcc <freeaddrinfo@plt>
 804a65c:	8b 8d 30 ff ff ff    	mov    -0xd0(%ebp),%ecx
 804a662:	89 0c 24             	mov    %ecx,(%esp)
 804a665:	e8 22 e6 ff ff       	call   8048c8c <free@plt>
 804a66a:	8b 95 48 ff ff ff    	mov    -0xb8(%ebp),%edx
 804a670:	8b 85 4c ff ff ff    	mov    -0xb4(%ebp),%eax
 804a676:	c7 85 7c ff ff ff 00 	movl   $0x0,-0x84(%ebp)
 804a67d:	00 00 00 
 804a680:	85 d2                	test   %edx,%edx
 804a682:	0f 94 85 41 ff ff ff 	sete   -0xbf(%ebp)
 804a689:	85 c0                	test   %eax,%eax
 804a68b:	0f 84 dd 01 00 00    	je     804a86e <exit@plt+0x1a02>
 804a691:	8d 85 7c ff ff ff    	lea    -0x84(%ebp),%eax
 804a697:	8b 95 48 ff ff ff    	mov    -0xb8(%ebp),%edx
 804a69d:	89 44 24 0c          	mov    %eax,0xc(%esp)
 804a6a1:	8b 85 4c ff ff ff    	mov    -0xb4(%ebp),%eax
 804a6a7:	89 74 24 08          	mov    %esi,0x8(%esp)
 804a6ab:	89 14 24             	mov    %edx,(%esp)
 804a6ae:	89 44 24 04          	mov    %eax,0x4(%esp)
 804a6b2:	e8 55 e6 ff ff       	call   8048d0c <getaddrinfo@plt>
 804a6b7:	89 c2                	mov    %eax,%edx
 804a6b9:	b8 01 00 00 00       	mov    $0x1,%eax
 804a6be:	85 d2                	test   %edx,%edx
 804a6c0:	0f 85 43 fd ff ff    	jne    804a409 <exit@plt+0x159d>
 804a6c6:	8b b5 7c ff ff ff    	mov    -0x84(%ebp),%esi
 804a6cc:	85 f6                	test   %esi,%esi
 804a6ce:	0f 84 93 01 00 00    	je     804a867 <exit@plt+0x19fb>
 804a6d4:	0f b7 85 42 ff ff ff 	movzwl -0xbe(%ebp),%eax
 804a6db:	66 c1 c8 08          	ror    $0x8,%ax
 804a6df:	0f b7 d0             	movzwl %ax,%edx
 804a6e2:	89 95 3c ff ff ff    	mov    %edx,-0xc4(%ebp)
 804a6e8:	89 95 34 ff ff ff    	mov    %edx,-0xcc(%ebp)
 804a6ee:	66 89 85 3a ff ff ff 	mov    %ax,-0xc6(%ebp)
 804a6f5:	eb 15                	jmp    804a70c <exit@plt+0x18a0>
 804a6f7:	90                   	nop
 804a6f8:	83 f8 0a             	cmp    $0xa,%eax
 804a6fb:	0f 84 af 00 00 00    	je     804a7b0 <exit@plt+0x1944>
 804a701:	8b 76 1c             	mov    0x1c(%esi),%esi
 804a704:	85 f6                	test   %esi,%esi
 804a706:	0f 84 5b 01 00 00    	je     804a867 <exit@plt+0x19fb>
 804a70c:	8b 46 04             	mov    0x4(%esi),%eax
 804a70f:	83 f8 02             	cmp    $0x2,%eax
 804a712:	75 e4                	jne    804a6f8 <exit@plt+0x188c>
 804a714:	80 bd 41 ff ff ff 00 	cmpb   $0x0,-0xbf(%ebp)
 804a71b:	8b 46 14             	mov    0x14(%esi),%eax
 804a71e:	0f 85 19 02 00 00    	jne    804a93d <exit@plt+0x1ad1>
 804a724:	8b 50 04             	mov    0x4(%eax),%edx
 804a727:	0f b7 78 02          	movzwl 0x2(%eax),%edi
 804a72b:	8b 85 54 ff ff ff    	mov    -0xac(%ebp),%eax
 804a731:	66 c1 cf 08          	ror    $0x8,%di
 804a735:	89 95 48 ff ff ff    	mov    %edx,-0xb8(%ebp)
 804a73b:	8b 00                	mov    (%eax),%eax
 804a73d:	c7 04 24 14 00 00 00 	movl   $0x14,(%esp)
 804a744:	89 85 4c ff ff ff    	mov    %eax,-0xb4(%ebp)
 804a74a:	e8 5d e6 ff ff       	call   8048dac <malloc@plt>
 804a74f:	85 c0                	test   %eax,%eax
 804a751:	74 ae                	je     804a701 <exit@plt+0x1895>
 804a753:	0f b7 95 3a ff ff ff 	movzwl -0xc6(%ebp),%edx
 804a75a:	0f b7 ff             	movzwl %di,%edi
 804a75d:	89 18                	mov    %ebx,(%eax)
 804a75f:	89 78 08             	mov    %edi,0x8(%eax)
 804a762:	89 50 04             	mov    %edx,0x4(%eax)
 804a765:	8b 95 48 ff ff ff    	mov    -0xb8(%ebp),%edx
 804a76b:	89 50 0c             	mov    %edx,0xc(%eax)
 804a76e:	8b 95 4c ff ff ff    	mov    -0xb4(%ebp),%edx
 804a774:	89 50 10             	mov    %edx,0x10(%eax)
 804a777:	8b 95 54 ff ff ff    	mov    -0xac(%ebp),%edx
 804a77d:	89 02                	mov    %eax,(%edx)
 804a77f:	eb 80                	jmp    804a701 <exit@plt+0x1895>
 804a781:	8d b4 26 00 00 00 00 	lea    0x0(%esi,%eiz,1),%esi
 804a788:	c7 85 64 ff ff ff 02 	movl   $0x2,-0x9c(%ebp)
 804a78f:	00 00 00 
 804a792:	e9 f6 fd ff ff       	jmp    804a58d <exit@plt+0x1721>
 804a797:	83 7d 10 01          	cmpl   $0x1,0x10(%ebp)
 804a79b:	19 c0                	sbb    %eax,%eax
 804a79d:	f7 d0                	not    %eax
 804a79f:	83 e0 02             	and    $0x2,%eax
 804a7a2:	89 85 60 ff ff ff    	mov    %eax,-0xa0(%ebp)
 804a7a8:	e9 90 fd ff ff       	jmp    804a53d <exit@plt+0x16d1>
 804a7ad:	8d 76 00             	lea    0x0(%esi),%esi
 804a7b0:	80 bd 41 ff ff ff 00 	cmpb   $0x0,-0xbf(%ebp)
 804a7b7:	8b 46 14             	mov    0x14(%esi),%eax
 804a7ba:	0f 85 e9 01 00 00    	jne    804a9a9 <exit@plt+0x1b3d>
 804a7c0:	8b 48 08             	mov    0x8(%eax),%ecx
 804a7c3:	0f b7 50 02          	movzwl 0x2(%eax),%edx
 804a7c7:	66 c1 ca 08          	ror    $0x8,%dx
 804a7cb:	0f b7 d2             	movzwl %dx,%edx
 804a7ce:	89 4c 24 08          	mov    %ecx,0x8(%esp)
 804a7d2:	8b 48 0c             	mov    0xc(%eax),%ecx
 804a7d5:	89 4c 24 0c          	mov    %ecx,0xc(%esp)
 804a7d9:	8b 48 10             	mov    0x10(%eax),%ecx
 804a7dc:	89 4c 24 10          	mov    %ecx,0x10(%esp)
 804a7e0:	8b 40 14             	mov    0x14(%eax),%eax
 804a7e3:	89 d9                	mov    %ebx,%ecx
 804a7e5:	89 54 24 04          	mov    %edx,0x4(%esp)
 804a7e9:	8b 95 3c ff ff ff    	mov    -0xc4(%ebp),%edx
 804a7ef:	89 44 24 14          	mov    %eax,0x14(%esp)
 804a7f3:	8b 85 50 ff ff ff    	mov    -0xb0(%ebp),%eax
 804a7f9:	89 14 24             	mov    %edx,(%esp)
 804a7fc:	8b 95 44 ff ff ff    	mov    -0xbc(%ebp),%edx
 804a802:	e8 59 fb ff ff       	call   804a360 <exit@plt+0x14f4>
 804a807:	e9 f5 fe ff ff       	jmp    804a701 <exit@plt+0x1895>
 804a80c:	8d 74 26 00          	lea    0x0(%esi,%eiz,1),%esi
 804a810:	89 04 24             	mov    %eax,(%esp)
 804a813:	e8 44 e5 ff ff       	call   8048d5c <gai_strerror@plt>
 804a818:	c7 44 24 08 05 00 00 	movl   $0x5,0x8(%esp)
 804a81f:	00 
 804a820:	c7 44 24 04 b0 d4 04 	movl   $0x804d4b0,0x4(%esp)
 804a827:	08 
 804a828:	c7 04 24 00 00 00 00 	movl   $0x0,(%esp)
 804a82f:	89 c3                	mov    %eax,%ebx
 804a831:	e8 76 e4 ff ff       	call   8048cac <dcgettext@plt>
 804a836:	8b 8d 30 ff ff ff    	mov    -0xd0(%ebp),%ecx
 804a83c:	89 5c 24 10          	mov    %ebx,0x10(%esp)
 804a840:	c7 44 24 04 01 00 00 	movl   $0x1,0x4(%esp)
 804a847:	00 
 804a848:	89 4c 24 0c          	mov    %ecx,0xc(%esp)
 804a84c:	89 44 24 08          	mov    %eax,0x8(%esp)
 804a850:	a1 10 f2 04 08       	mov    0x804f210,%eax
 804a855:	89 04 24             	mov    %eax,(%esp)
 804a858:	e8 7f e3 ff ff       	call   8048bdc <__fprintf_chk@plt>
 804a85d:	b8 ff ff ff ff       	mov    $0xffffffff,%eax
 804a862:	e9 a2 fb ff ff       	jmp    804a409 <exit@plt+0x159d>
 804a867:	31 c0                	xor    %eax,%eax
 804a869:	e9 9b fb ff ff       	jmp    804a409 <exit@plt+0x159d>
 804a86e:	80 bd 41 ff ff ff 00 	cmpb   $0x0,-0xbf(%ebp)
 804a875:	0f 84 16 fe ff ff    	je     804a691 <exit@plt+0x1825>
 804a87b:	8b 85 54 ff ff ff    	mov    -0xac(%ebp),%eax
 804a881:	0f b7 b5 42 ff ff ff 	movzwl -0xbe(%ebp),%esi
 804a888:	66 c1 ce 08          	ror    $0x8,%si
 804a88c:	8b 38                	mov    (%eax),%edi
 804a88e:	c7 04 24 14 00 00 00 	movl   $0x14,(%esp)
 804a895:	e8 12 e5 ff ff       	call   8048dac <malloc@plt>
 804a89a:	85 c0                	test   %eax,%eax
 804a89c:	74 21                	je     804a8bf <exit@plt+0x1a53>
 804a89e:	8b 95 54 ff ff ff    	mov    -0xac(%ebp),%edx
 804a8a4:	0f b7 f6             	movzwl %si,%esi
 804a8a7:	89 78 10             	mov    %edi,0x10(%eax)
 804a8aa:	89 18                	mov    %ebx,(%eax)
 804a8ac:	89 70 04             	mov    %esi,0x4(%eax)
 804a8af:	c7 40 08 00 00 00 00 	movl   $0x0,0x8(%eax)
 804a8b6:	c7 40 0c 00 00 00 00 	movl   $0x0,0xc(%eax)
 804a8bd:	89 02                	mov    %eax,(%edx)
 804a8bf:	8b 15 00 f2 04 08    	mov    0x804f200,%edx
 804a8c5:	89 d9                	mov    %ebx,%ecx
 804a8c7:	0f b7 85 42 ff ff ff 	movzwl -0xbe(%ebp),%eax
 804a8ce:	66 c1 c8 08          	ror    $0x8,%ax
 804a8d2:	0f b7 c0             	movzwl %ax,%eax
 804a8d5:	89 54 24 08          	mov    %edx,0x8(%esp)
 804a8d9:	8b 15 04 f2 04 08    	mov    0x804f204,%edx
 804a8df:	89 04 24             	mov    %eax,(%esp)
 804a8e2:	8b 85 50 ff ff ff    	mov    -0xb0(%ebp),%eax
 804a8e8:	c7 44 24 04 00 00 00 	movl   $0x0,0x4(%esp)
 804a8ef:	00 
 804a8f0:	89 54 24 0c          	mov    %edx,0xc(%esp)
 804a8f4:	8b 15 08 f2 04 08    	mov    0x804f208,%edx
 804a8fa:	89 54 24 10          	mov    %edx,0x10(%esp)
 804a8fe:	8b 15 0c f2 04 08    	mov    0x804f20c,%edx
 804a904:	89 54 24 14          	mov    %edx,0x14(%esp)
 804a908:	8b 95 44 ff ff ff    	mov    -0xbc(%ebp),%edx
 804a90e:	e8 4d fa ff ff       	call   804a360 <exit@plt+0x14f4>
 804a913:	31 c0                	xor    %eax,%eax
 804a915:	e9 ef fa ff ff       	jmp    804a409 <exit@plt+0x159d>
 804a91a:	89 14 24             	mov    %edx,(%esp)
 804a91d:	e8 3a e5 ff ff       	call   8048e5c <__strdup@plt>
 804a922:	c7 85 4c ff ff ff 00 	movl   $0x0,-0xb4(%ebp)
 804a929:	00 00 00 
 804a92c:	c7 85 48 ff ff ff 00 	movl   $0x0,-0xb8(%ebp)
 804a933:	00 00 00 
 804a936:	89 c1                	mov    %eax,%ecx
 804a938:	e9 d4 fb ff ff       	jmp    804a511 <exit@plt+0x16a5>
 804a93d:	0f b7 50 02          	movzwl 0x2(%eax),%edx
 804a941:	8b 85 54 ff ff ff    	mov    -0xac(%ebp),%eax
 804a947:	66 c1 ca 08          	ror    $0x8,%dx
 804a94b:	0f b7 bd 42 ff ff ff 	movzwl -0xbe(%ebp),%edi
 804a952:	89 95 2c ff ff ff    	mov    %edx,-0xd4(%ebp)
 804a958:	8b 00                	mov    (%eax),%eax
 804a95a:	c7 04 24 14 00 00 00 	movl   $0x14,(%esp)
 804a961:	66 c1 cf 08          	ror    $0x8,%di
 804a965:	89 85 4c ff ff ff    	mov    %eax,-0xb4(%ebp)
 804a96b:	e8 3c e4 ff ff       	call   8048dac <malloc@plt>
 804a970:	8b 95 2c ff ff ff    	mov    -0xd4(%ebp),%edx
 804a976:	85 c0                	test   %eax,%eax
 804a978:	0f 84 83 fd ff ff    	je     804a701 <exit@plt+0x1895>
 804a97e:	0f b7 d2             	movzwl %dx,%edx
 804a981:	0f b7 ff             	movzwl %di,%edi
 804a984:	89 50 08             	mov    %edx,0x8(%eax)
 804a987:	8b 95 4c ff ff ff    	mov    -0xb4(%ebp),%edx
 804a98d:	89 18                	mov    %ebx,(%eax)
 804a98f:	89 78 04             	mov    %edi,0x4(%eax)
 804a992:	c7 40 0c 00 00 00 00 	movl   $0x0,0xc(%eax)
 804a999:	89 50 10             	mov    %edx,0x10(%eax)
 804a99c:	8b 95 54 ff ff ff    	mov    -0xac(%ebp),%edx
 804a9a2:	89 02                	mov    %eax,(%edx)
 804a9a4:	e9 58 fd ff ff       	jmp    804a701 <exit@plt+0x1895>
 804a9a9:	8b 15 00 f2 04 08    	mov    0x804f200,%edx
 804a9af:	89 d9                	mov    %ebx,%ecx
 804a9b1:	0f b7 40 02          	movzwl 0x2(%eax),%eax
 804a9b5:	66 c1 c8 08          	ror    $0x8,%ax
 804a9b9:	0f b7 c0             	movzwl %ax,%eax
 804a9bc:	89 54 24 08          	mov    %edx,0x8(%esp)
 804a9c0:	8b 15 04 f2 04 08    	mov    0x804f204,%edx
 804a9c6:	89 44 24 04          	mov    %eax,0x4(%esp)
 804a9ca:	8b 85 34 ff ff ff    	mov    -0xcc(%ebp),%eax
 804a9d0:	89 54 24 0c          	mov    %edx,0xc(%esp)
 804a9d4:	8b 15 08 f2 04 08    	mov    0x804f208,%edx
 804a9da:	89 04 24             	mov    %eax,(%esp)
 804a9dd:	8b 85 50 ff ff ff    	mov    -0xb0(%ebp),%eax
 804a9e3:	89 54 24 10          	mov    %edx,0x10(%esp)
 804a9e7:	8b 15 0c f2 04 08    	mov    0x804f20c,%edx
 804a9ed:	89 54 24 14          	mov    %edx,0x14(%esp)
 804a9f1:	8b 95 44 ff ff ff    	mov    -0xbc(%ebp),%edx
 804a9f7:	e8 64 f9 ff ff       	call   804a360 <exit@plt+0x14f4>
 804a9fc:	e9 00 fd ff ff       	jmp    804a701 <exit@plt+0x1895>
 804aa01:	e8 b6 e3 ff ff       	call   8048dbc <__stack_chk_fail@plt>
 804aa06:	8d 76 00             	lea    0x0(%esi),%esi
 804aa09:	8d bc 27 00 00 00 00 	lea    0x0(%edi,%eiz,1),%edi
 804aa10:	55                   	push   %ebp
 804aa11:	89 e5                	mov    %esp,%ebp
 804aa13:	57                   	push   %edi
 804aa14:	56                   	push   %esi
 804aa15:	53                   	push   %ebx
 804aa16:	81 ec 1c 21 00 00    	sub    $0x211c,%esp
 804aa1c:	89 85 fc de ff ff    	mov    %eax,-0x2104(%ebp)
 804aa22:	8d 9d 1c ff ff ff    	lea    -0xe4(%ebp),%ebx
 804aa28:	65 a1 14 00 00 00    	mov    %gs:0x14,%eax
 804aa2e:	89 45 e4             	mov    %eax,-0x1c(%ebp)
 804aa31:	31 c0                	xor    %eax,%eax
 804aa33:	8b 85 fc de ff ff    	mov    -0x2104(%ebp),%eax
 804aa39:	8d b5 1c df ff ff    	lea    -0x20e4(%ebp),%esi
 804aa3f:	89 95 00 df ff ff    	mov    %edx,-0x2100(%ebp)
 804aa45:	89 8d f8 de ff ff    	mov    %ecx,-0x2108(%ebp)
 804aa4b:	c7 44 24 18 35 cc 04 	movl   $0x804cc35,0x18(%esp)
 804aa52:	08 
 804aa53:	89 44 24 14          	mov    %eax,0x14(%esp)
 804aa57:	c7 44 24 10 aa cb 04 	movl   $0x804cbaa,0x10(%esp)
 804aa5e:	08 
 804aa5f:	c7 44 24 0c c8 00 00 	movl   $0xc8,0xc(%esp)
 804aa66:	00 
 804aa67:	c7 44 24 08 01 00 00 	movl   $0x1,0x8(%esp)
 804aa6e:	00 
 804aa6f:	c7 44 24 04 c8 00 00 	movl   $0xc8,0x4(%esp)
 804aa76:	00 
 804aa77:	89 1c 24             	mov    %ebx,(%esp)
 804aa7a:	e8 9d e3 ff ff       	call   8048e1c <__snprintf_chk@plt>
 804aa7f:	c7 44 24 04 b7 cd 04 	movl   $0x804cdb7,0x4(%esp)
 804aa86:	08 
 804aa87:	89 1c 24             	mov    %ebx,(%esp)
 804aa8a:	e8 bd e1 ff ff       	call   8048c4c <fopen64@plt>
 804aa8f:	85 c0                	test   %eax,%eax
 804aa91:	89 85 04 df ff ff    	mov    %eax,-0x20fc(%ebp)
 804aa97:	0f 84 e9 00 00 00    	je     804ab86 <exit@plt+0x1d1a>
 804aa9d:	8d 76 00             	lea    0x0(%esi),%esi
 804aaa0:	8b 85 04 df ff ff    	mov    -0x20fc(%ebp),%eax
 804aaa6:	c7 44 24 04 00 20 00 	movl   $0x2000,0x4(%esp)
 804aaad:	00 
 804aaae:	89 34 24             	mov    %esi,(%esp)
 804aab1:	89 44 24 08          	mov    %eax,0x8(%esp)
 804aab5:	e8 82 e1 ff ff       	call   8048c3c <fgets@plt>
 804aaba:	85 c0                	test   %eax,%eax
 804aabc:	0f 84 b6 00 00 00    	je     804ab78 <exit@plt+0x1d0c>
 804aac2:	8d 85 08 df ff ff    	lea    -0x20f8(%ebp),%eax
 804aac8:	89 44 24 10          	mov    %eax,0x10(%esp)
 804aacc:	8d 85 14 df ff ff    	lea    -0x20ec(%ebp),%eax
 804aad2:	89 44 24 0c          	mov    %eax,0xc(%esp)
 804aad6:	8d 85 18 df ff ff    	lea    -0x20e8(%ebp),%eax
 804aadc:	89 44 24 08          	mov    %eax,0x8(%esp)
 804aae0:	c7 44 24 04 3a cc 04 	movl   $0x804cc3a,0x4(%esp)
 804aae7:	08 
 804aae8:	89 34 24             	mov    %esi,(%esp)
 804aaeb:	e8 fc e2 ff ff       	call   8048dec <sscanf@plt>
 804aaf0:	83 f8 03             	cmp    $0x3,%eax
 804aaf3:	75 ab                	jne    804aaa0 <exit@plt+0x1c34>
 804aaf5:	8b bd 18 df ff ff    	mov    -0x20e8(%ebp),%edi
 804aafb:	8b 8d 00 df ff ff    	mov    -0x2100(%ebp),%ecx
 804ab01:	c1 e7 08             	shl    $0x8,%edi
 804ab04:	03 bd 14 df ff ff    	add    -0x20ec(%ebp),%edi
 804ab0a:	85 c9                	test   %ecx,%ecx
 804ab0c:	74 3a                	je     804ab48 <exit@plt+0x1cdc>
 804ab0e:	8b 9d 00 df ff ff    	mov    -0x2100(%ebp),%ebx
 804ab14:	eb 09                	jmp    804ab1f <exit@plt+0x1cb3>
 804ab16:	66 90                	xchg   %ax,%ax
 804ab18:	8b 5b 0c             	mov    0xc(%ebx),%ebx
 804ab1b:	85 db                	test   %ebx,%ebx
 804ab1d:	74 29                	je     804ab48 <exit@plt+0x1cdc>
 804ab1f:	8b 43 04             	mov    0x4(%ebx),%eax
 804ab22:	31 f8                	xor    %edi,%eax
 804ab24:	0b 43 08             	or     0x8(%ebx),%eax
 804ab27:	75 ef                	jne    804ab18 <exit@plt+0x1cac>
 804ab29:	c7 04 24 10 00 00 00 	movl   $0x10,(%esp)
 804ab30:	8b 4d 08             	mov    0x8(%ebp),%ecx
 804ab33:	8b 03                	mov    (%ebx),%eax
 804ab35:	8b 95 fc de ff ff    	mov    -0x2104(%ebp),%edx
 804ab3b:	e8 40 ed ff ff       	call   8049880 <exit@plt+0xa14>
 804ab40:	8b 5b 0c             	mov    0xc(%ebx),%ebx
 804ab43:	85 db                	test   %ebx,%ebx
 804ab45:	75 d8                	jne    804ab1f <exit@plt+0x1cb3>
 804ab47:	90                   	nop
 804ab48:	8b 95 f8 de ff ff    	mov    -0x2108(%ebp),%edx
 804ab4e:	85 d2                	test   %edx,%edx
 804ab50:	0f 84 4a ff ff ff    	je     804aaa0 <exit@plt+0x1c34>
 804ab56:	8b 9d f8 de ff ff    	mov    -0x2108(%ebp),%ebx
 804ab5c:	8b 43 04             	mov    0x4(%ebx),%eax
 804ab5f:	31 f8                	xor    %edi,%eax
 804ab61:	0b 43 08             	or     0x8(%ebx),%eax
 804ab64:	74 3c                	je     804aba2 <exit@plt+0x1d36>
 804ab66:	8b 5b 14             	mov    0x14(%ebx),%ebx
 804ab69:	85 db                	test   %ebx,%ebx
 804ab6b:	75 ef                	jne    804ab5c <exit@plt+0x1cf0>
 804ab6d:	e9 2e ff ff ff       	jmp    804aaa0 <exit@plt+0x1c34>
 804ab72:	8d b6 00 00 00 00    	lea    0x0(%esi),%esi
 804ab78:	8b 85 04 df ff ff    	mov    -0x20fc(%ebp),%eax
 804ab7e:	89 04 24             	mov    %eax,(%esp)
 804ab81:	e8 96 e1 ff ff       	call   8048d1c <fclose@plt>
 804ab86:	8b 45 e4             	mov    -0x1c(%ebp),%eax
 804ab89:	65 33 05 14 00 00 00 	xor    %gs:0x14,%eax
 804ab90:	75 0b                	jne    804ab9d <exit@plt+0x1d31>
 804ab92:	81 c4 1c 21 00 00    	add    $0x211c,%esp
 804ab98:	5b                   	pop    %ebx
 804ab99:	5e                   	pop    %esi
 804ab9a:	5f                   	pop    %edi
 804ab9b:	5d                   	pop    %ebp
 804ab9c:	c3                   	ret    
 804ab9d:	e8 1a e2 ff ff       	call   8048dbc <__stack_chk_fail@plt>
 804aba2:	8b 43 0c             	mov    0xc(%ebx),%eax
 804aba5:	8b 53 10             	mov    0x10(%ebx),%edx
 804aba8:	33 95 0c df ff ff    	xor    -0x20f4(%ebp),%edx
 804abae:	33 85 08 df ff ff    	xor    -0x20f8(%ebp),%eax
 804abb4:	09 c2                	or     %eax,%edx
 804abb6:	75 ae                	jne    804ab66 <exit@plt+0x1cfa>
 804abb8:	c7 04 24 10 00 00 00 	movl   $0x10,(%esp)
 804abbf:	8b 4d 08             	mov    0x8(%ebp),%ecx
 804abc2:	8b 95 fc de ff ff    	mov    -0x2104(%ebp),%edx
 804abc8:	8b 03                	mov    (%ebx),%eax
 804abca:	e8 b1 ec ff ff       	call   8049880 <exit@plt+0xa14>
 804abcf:	eb 95                	jmp    804ab66 <exit@plt+0x1cfa>
 804abd1:	eb 0d                	jmp    804abe0 <exit@plt+0x1d74>
 804abd3:	90                   	nop
 804abd4:	90                   	nop
 804abd5:	90                   	nop
 804abd6:	90                   	nop
 804abd7:	90                   	nop
 804abd8:	90                   	nop
 804abd9:	90                   	nop
 804abda:	90                   	nop
 804abdb:	90                   	nop
 804abdc:	90                   	nop
 804abdd:	90                   	nop
 804abde:	90                   	nop
 804abdf:	90                   	nop
 804abe0:	55                   	push   %ebp
 804abe1:	89 e5                	mov    %esp,%ebp
 804abe3:	57                   	push   %edi
 804abe4:	89 cf                	mov    %ecx,%edi
 804abe6:	56                   	push   %esi
 804abe7:	53                   	push   %ebx
 804abe8:	89 c3                	mov    %eax,%ebx
 804abea:	83 ec 2c             	sub    $0x2c,%esp
 804abed:	8b 40 68             	mov    0x68(%eax),%eax
 804abf0:	85 c0                	test   %eax,%eax
 804abf2:	74 1c                	je     804ac10 <exit@plt+0x1da4>
 804abf4:	eb 09                	jmp    804abff <exit@plt+0x1d93>
 804abf6:	66 90                	xchg   %ax,%ax
 804abf8:	8b 40 14             	mov    0x14(%eax),%eax
 804abfb:	85 c0                	test   %eax,%eax
 804abfd:	74 11                	je     804ac10 <exit@plt+0x1da4>
 804abff:	38 50 09             	cmp    %dl,0x9(%eax)
 804ac02:	75 f4                	jne    804abf8 <exit@plt+0x1d8c>
 804ac04:	83 c4 2c             	add    $0x2c,%esp
 804ac07:	5b                   	pop    %ebx
 804ac08:	5e                   	pop    %esi
 804ac09:	5f                   	pop    %edi
 804ac0a:	5d                   	pop    %ebp
 804ac0b:	c3                   	ret    
 804ac0c:	8d 74 26 00          	lea    0x0(%esi,%eiz,1),%esi
 804ac10:	c7 04 24 18 00 00 00 	movl   $0x18,(%esp)
 804ac17:	88 55 e4             	mov    %dl,-0x1c(%ebp)
 804ac1a:	e8 8d e1 ff ff       	call   8048dac <malloc@plt>
 804ac1f:	0f b6 55 e4          	movzbl -0x1c(%ebp),%edx
 804ac23:	85 c0                	test   %eax,%eax
 804ac25:	89 c6                	mov    %eax,%esi
 804ac27:	74 30                	je     804ac59 <exit@plt+0x1ded>
 804ac29:	c6 40 08 00          	movb   $0x0,0x8(%eax)
 804ac2d:	88 50 09             	mov    %dl,0x9(%eax)
 804ac30:	c7 00 00 00 00 00    	movl   $0x0,(%eax)
 804ac36:	c7 40 04 00 00 00 00 	movl   $0x0,0x4(%eax)
 804ac3d:	8b 43 68             	mov    0x68(%ebx),%eax
 804ac40:	89 46 14             	mov    %eax,0x14(%esi)
 804ac43:	89 73 68             	mov    %esi,0x68(%ebx)
 804ac46:	89 3c 24             	mov    %edi,(%esp)
 804ac49:	e8 0e e2 ff ff       	call   8048e5c <__strdup@plt>
 804ac4e:	89 46 10             	mov    %eax,0x10(%esi)
 804ac51:	83 c4 2c             	add    $0x2c,%esp
 804ac54:	5b                   	pop    %ebx
 804ac55:	5e                   	pop    %esi
 804ac56:	5f                   	pop    %edi
 804ac57:	5d                   	pop    %ebp
 804ac58:	c3                   	ret    
 804ac59:	e8 2e df ff ff       	call   8048b8c <__errno_location@plt>
 804ac5e:	8b 00                	mov    (%eax),%eax
 804ac60:	89 04 24             	mov    %eax,(%esp)
 804ac63:	e8 54 df ff ff       	call   8048bbc <strerror@plt>
 804ac68:	c7 44 24 08 05 00 00 	movl   $0x5,0x8(%esp)
 804ac6f:	00 
 804ac70:	c7 44 24 04 d8 d3 04 	movl   $0x804d3d8,0x4(%esp)
 804ac77:	08 
 804ac78:	c7 04 24 00 00 00 00 	movl   $0x0,(%esp)
 804ac7f:	89 c3                	mov    %eax,%ebx
 804ac81:	e8 26 e0 ff ff       	call   8048cac <dcgettext@plt>
 804ac86:	89 5c 24 0c          	mov    %ebx,0xc(%esp)
 804ac8a:	c7 44 24 04 01 00 00 	movl   $0x1,0x4(%esp)
 804ac91:	00 
 804ac92:	89 44 24 08          	mov    %eax,0x8(%esp)
 804ac96:	a1 10 f2 04 08       	mov    0x804f210,%eax
 804ac9b:	89 04 24             	mov    %eax,(%esp)
 804ac9e:	e8 39 df ff ff       	call   8048bdc <__fprintf_chk@plt>
 804aca3:	e9 5c ff ff ff       	jmp    804ac04 <exit@plt+0x1d98>
 804aca8:	90                   	nop
 804aca9:	8d b4 26 00 00 00 00 	lea    0x0(%esi,%eiz,1),%esi
 804acb0:	55                   	push   %ebp
 804acb1:	89 e5                	mov    %esp,%ebp
 804acb3:	57                   	push   %edi
 804acb4:	56                   	push   %esi
 804acb5:	53                   	push   %ebx
 804acb6:	81 ec 9c 20 00 00    	sub    $0x209c,%esp
 804acbc:	c7 44 24 04 b7 cd 04 	movl   $0x804cdb7,0x4(%esp)
 804acc3:	08 
 804acc4:	8d b5 e4 df ff ff    	lea    -0x201c(%ebp),%esi
 804acca:	65 a1 14 00 00 00    	mov    %gs:0x14,%eax
 804acd0:	89 45 e4             	mov    %eax,-0x1c(%ebp)
 804acd3:	31 c0                	xor    %eax,%eax
 804acd5:	89 95 74 df ff ff    	mov    %edx,-0x208c(%ebp)
 804acdb:	89 8d 70 df ff ff    	mov    %ecx,-0x2090(%ebp)
 804ace1:	c7 04 24 51 cc 04 08 	movl   $0x804cc51,(%esp)
 804ace8:	e8 5f df ff ff       	call   8048c4c <fopen64@plt>
 804aced:	85 c0                	test   %eax,%eax
 804acef:	89 c7                	mov    %eax,%edi
 804acf1:	0f 84 31 01 00 00    	je     804ae28 <exit@plt+0x1fbc>
 804acf7:	90                   	nop
 804acf8:	89 7c 24 08          	mov    %edi,0x8(%esp)
 804acfc:	c7 44 24 04 00 20 00 	movl   $0x2000,0x4(%esp)
 804ad03:	00 
 804ad04:	89 34 24             	mov    %esi,(%esp)
 804ad07:	e8 30 df ff ff       	call   8048c3c <fgets@plt>
 804ad0c:	85 c0                	test   %eax,%eax
 804ad0e:	0f 84 14 01 00 00    	je     804ae28 <exit@plt+0x1fbc>
 804ad14:	0f b6 85 e4 df ff ff 	movzbl -0x201c(%ebp),%eax
 804ad1b:	3c 23                	cmp    $0x23,%al
 804ad1d:	74 d9                	je     804acf8 <exit@plt+0x1e8c>
 804ad1f:	84 c0                	test   %al,%al
 804ad21:	74 d5                	je     804acf8 <exit@plt+0x1e8c>
 804ad23:	3c 20                	cmp    $0x20,%al
 804ad25:	0f 84 16 01 00 00    	je     804ae41 <exit@plt+0x1fd5>
 804ad2b:	3c 09                	cmp    $0x9,%al
 804ad2d:	8d 76 00             	lea    0x0(%esi),%esi
 804ad30:	0f 84 0b 01 00 00    	je     804ae41 <exit@plt+0x1fd5>
 804ad36:	89 f2                	mov    %esi,%edx
 804ad38:	eb 0a                	jmp    804ad44 <exit@plt+0x1ed8>
 804ad3a:	8d b6 00 00 00 00    	lea    0x0(%esi),%esi
 804ad40:	3c 09                	cmp    $0x9,%al
 804ad42:	74 0e                	je     804ad52 <exit@plt+0x1ee6>
 804ad44:	83 c2 01             	add    $0x1,%edx
 804ad47:	0f b6 02             	movzbl (%edx),%eax
 804ad4a:	84 c0                	test   %al,%al
 804ad4c:	74 aa                	je     804acf8 <exit@plt+0x1e8c>
 804ad4e:	3c 20                	cmp    $0x20,%al
 804ad50:	75 ee                	jne    804ad40 <exit@plt+0x1ed4>
 804ad52:	85 d2                	test   %edx,%edx
 804ad54:	74 a2                	je     804acf8 <exit@plt+0x1e8c>
 804ad56:	c6 02 00             	movb   $0x0,(%edx)
 804ad59:	8d 85 84 df ff ff    	lea    -0x207c(%ebp),%eax
 804ad5f:	89 44 24 08          	mov    %eax,0x8(%esp)
 804ad63:	89 74 24 04          	mov    %esi,0x4(%esp)
 804ad67:	c7 04 24 03 00 00 00 	movl   $0x3,(%esp)
 804ad6e:	e8 99 de ff ff       	call   8048c0c <__xstat64@plt>
 804ad73:	85 c0                	test   %eax,%eax
 804ad75:	75 81                	jne    804acf8 <exit@plt+0x1e8c>
 804ad77:	8b 85 70 df ff ff    	mov    -0x2090(%ebp),%eax
 804ad7d:	85 c0                	test   %eax,%eax
 804ad7f:	74 47                	je     804adc8 <exit@plt+0x1f5c>
 804ad81:	8b 9d 70 df ff ff    	mov    -0x2090(%ebp),%ebx
 804ad87:	eb 0e                	jmp    804ad97 <exit@plt+0x1f2b>
 804ad89:	8d b4 26 00 00 00 00 	lea    0x0(%esi,%eiz,1),%esi
 804ad90:	8b 5b 0c             	mov    0xc(%ebx),%ebx
 804ad93:	85 db                	test   %ebx,%ebx
 804ad95:	74 31                	je     804adc8 <exit@plt+0x1f5c>
 804ad97:	8b 85 84 df ff ff    	mov    -0x207c(%ebp),%eax
 804ad9d:	8b 95 88 df ff ff    	mov    -0x2078(%ebp),%edx
 804ada3:	33 53 08             	xor    0x8(%ebx),%edx
 804ada6:	33 43 04             	xor    0x4(%ebx),%eax
 804ada9:	09 c2                	or     %eax,%edx
 804adab:	75 e3                	jne    804ad90 <exit@plt+0x1f24>
 804adad:	8b 03                	mov    (%ebx),%eax
 804adaf:	89 f1                	mov    %esi,%ecx
 804adb1:	ba 02 00 00 00       	mov    $0x2,%edx
 804adb6:	e8 25 fe ff ff       	call   804abe0 <exit@plt+0x1d74>
 804adbb:	8b 5b 0c             	mov    0xc(%ebx),%ebx
 804adbe:	85 db                	test   %ebx,%ebx
 804adc0:	75 d5                	jne    804ad97 <exit@plt+0x1f2b>
 804adc2:	8d b6 00 00 00 00    	lea    0x0(%esi),%esi
 804adc8:	8b 9d 74 df ff ff    	mov    -0x208c(%ebp),%ebx
 804adce:	85 db                	test   %ebx,%ebx
 804add0:	0f 84 22 ff ff ff    	je     804acf8 <exit@plt+0x1e8c>
 804add6:	8b 9d 74 df ff ff    	mov    -0x208c(%ebp),%ebx
 804addc:	eb 0d                	jmp    804adeb <exit@plt+0x1f7f>
 804adde:	66 90                	xchg   %ax,%ax
 804ade0:	8b 5b 14             	mov    0x14(%ebx),%ebx
 804ade3:	85 db                	test   %ebx,%ebx
 804ade5:	0f 84 0d ff ff ff    	je     804acf8 <exit@plt+0x1e8c>
 804adeb:	8b 85 84 df ff ff    	mov    -0x207c(%ebp),%eax
 804adf1:	8b 95 88 df ff ff    	mov    -0x2078(%ebp),%edx
 804adf7:	33 53 08             	xor    0x8(%ebx),%edx
 804adfa:	33 43 04             	xor    0x4(%ebx),%eax
 804adfd:	09 c2                	or     %eax,%edx
 804adff:	75 df                	jne    804ade0 <exit@plt+0x1f74>
 804ae01:	8b 85 dc df ff ff    	mov    -0x2024(%ebp),%eax
 804ae07:	8b 95 e0 df ff ff    	mov    -0x2020(%ebp),%edx
 804ae0d:	33 53 10             	xor    0x10(%ebx),%edx
 804ae10:	33 43 0c             	xor    0xc(%ebx),%eax
 804ae13:	09 c2                	or     %eax,%edx
 804ae15:	75 c9                	jne    804ade0 <exit@plt+0x1f74>
 804ae17:	8b 03                	mov    (%ebx),%eax
 804ae19:	89 f1                	mov    %esi,%ecx
 804ae1b:	ba 02 00 00 00       	mov    $0x2,%edx
 804ae20:	e8 bb fd ff ff       	call   804abe0 <exit@plt+0x1d74>
 804ae25:	eb b9                	jmp    804ade0 <exit@plt+0x1f74>
 804ae27:	90                   	nop
 804ae28:	8b 45 e4             	mov    -0x1c(%ebp),%eax
 804ae2b:	65 33 05 14 00 00 00 	xor    %gs:0x14,%eax
 804ae32:	75 14                	jne    804ae48 <exit@plt+0x1fdc>
 804ae34:	81 c4 9c 20 00 00    	add    $0x209c,%esp
 804ae3a:	5b                   	pop    %ebx
 804ae3b:	5e                   	pop    %esi
 804ae3c:	5f                   	pop    %edi
 804ae3d:	5d                   	pop    %ebp
 804ae3e:	66 90                	xchg   %ax,%ax
 804ae40:	c3                   	ret    
 804ae41:	89 f2                	mov    %esi,%edx
 804ae43:	e9 0e ff ff ff       	jmp    804ad56 <exit@plt+0x1eea>
 804ae48:	e8 6f df ff ff       	call   8048dbc <__stack_chk_fail@plt>
 804ae4d:	8d 76 00             	lea    0x0(%esi),%esi
 804ae50:	55                   	push   %ebp
 804ae51:	89 e5                	mov    %esp,%ebp
 804ae53:	57                   	push   %edi
 804ae54:	56                   	push   %esi
 804ae55:	53                   	push   %ebx
 804ae56:	81 ec 9c 20 00 00    	sub    $0x209c,%esp
 804ae5c:	c7 44 24 04 b7 cd 04 	movl   $0x804cdb7,0x4(%esp)
 804ae63:	08 
 804ae64:	8d b5 e4 df ff ff    	lea    -0x201c(%ebp),%esi
 804ae6a:	65 a1 14 00 00 00    	mov    %gs:0x14,%eax
 804ae70:	89 45 e4             	mov    %eax,-0x1c(%ebp)
 804ae73:	31 c0                	xor    %eax,%eax
 804ae75:	89 95 74 df ff ff    	mov    %edx,-0x208c(%ebp)
 804ae7b:	89 8d 70 df ff ff    	mov    %ecx,-0x2090(%ebp)
 804ae81:	c7 04 24 66 cc 04 08 	movl   $0x804cc66,(%esp)
 804ae88:	e8 bf dd ff ff       	call   8048c4c <fopen64@plt>
 804ae8d:	85 c0                	test   %eax,%eax
 804ae8f:	89 c7                	mov    %eax,%edi
 804ae91:	0f 84 10 01 00 00    	je     804afa7 <exit@plt+0x213b>
 804ae97:	90                   	nop
 804ae98:	89 7c 24 08          	mov    %edi,0x8(%esp)
 804ae9c:	c7 44 24 04 00 20 00 	movl   $0x2000,0x4(%esp)
 804aea3:	00 
 804aea4:	89 34 24             	mov    %esi,(%esp)
 804aea7:	e8 90 dd ff ff       	call   8048c3c <fgets@plt>
 804aeac:	85 c0                	test   %eax,%eax
 804aeae:	0f 84 1c 01 00 00    	je     804afd0 <exit@plt+0x2164>
 804aeb4:	c7 44 24 04 20 00 00 	movl   $0x20,0x4(%esp)
 804aebb:	00 
 804aebc:	89 34 24             	mov    %esi,(%esp)
 804aebf:	e8 68 dd ff ff       	call   8048c2c <strchr@plt>
 804aec4:	85 c0                	test   %eax,%eax
 804aec6:	74 d0                	je     804ae98 <exit@plt+0x202c>
 804aec8:	80 78 01 20          	cmpb   $0x20,0x1(%eax)
 804aecc:	c6 00 00             	movb   $0x0,(%eax)
 804aecf:	8d 50 01             	lea    0x1(%eax),%edx
 804aed2:	75 0c                	jne    804aee0 <exit@plt+0x2074>
 804aed4:	8d 74 26 00          	lea    0x0(%esi,%eiz,1),%esi
 804aed8:	83 c2 01             	add    $0x1,%edx
 804aedb:	80 3a 20             	cmpb   $0x20,(%edx)
 804aede:	74 f8                	je     804aed8 <exit@plt+0x206c>
 804aee0:	8d 85 84 df ff ff    	lea    -0x207c(%ebp),%eax
 804aee6:	89 44 24 08          	mov    %eax,0x8(%esp)
 804aeea:	89 74 24 04          	mov    %esi,0x4(%esp)
 804aeee:	c7 04 24 03 00 00 00 	movl   $0x3,(%esp)
 804aef5:	e8 12 dd ff ff       	call   8048c0c <__xstat64@plt>
 804aefa:	85 c0                	test   %eax,%eax
 804aefc:	75 9a                	jne    804ae98 <exit@plt+0x202c>
 804aefe:	8b 8d 70 df ff ff    	mov    -0x2090(%ebp),%ecx
 804af04:	85 c9                	test   %ecx,%ecx
 804af06:	74 40                	je     804af48 <exit@plt+0x20dc>
 804af08:	8b 9d 70 df ff ff    	mov    -0x2090(%ebp),%ebx
 804af0e:	eb 07                	jmp    804af17 <exit@plt+0x20ab>
 804af10:	8b 5b 0c             	mov    0xc(%ebx),%ebx
 804af13:	85 db                	test   %ebx,%ebx
 804af15:	74 31                	je     804af48 <exit@plt+0x20dc>
 804af17:	8b 85 84 df ff ff    	mov    -0x207c(%ebp),%eax
 804af1d:	8b 95 88 df ff ff    	mov    -0x2078(%ebp),%edx
 804af23:	33 53 08             	xor    0x8(%ebx),%edx
 804af26:	33 43 04             	xor    0x4(%ebx),%eax
 804af29:	09 c2                	or     %eax,%edx
 804af2b:	75 e3                	jne    804af10 <exit@plt+0x20a4>
 804af2d:	8b 03                	mov    (%ebx),%eax
 804af2f:	89 f1                	mov    %esi,%ecx
 804af31:	ba 03 00 00 00       	mov    $0x3,%edx
 804af36:	e8 a5 fc ff ff       	call   804abe0 <exit@plt+0x1d74>
 804af3b:	8b 5b 0c             	mov    0xc(%ebx),%ebx
 804af3e:	85 db                	test   %ebx,%ebx
 804af40:	75 d5                	jne    804af17 <exit@plt+0x20ab>
 804af42:	8d b6 00 00 00 00    	lea    0x0(%esi),%esi
 804af48:	8b 95 74 df ff ff    	mov    -0x208c(%ebp),%edx
 804af4e:	85 d2                	test   %edx,%edx
 804af50:	0f 84 42 ff ff ff    	je     804ae98 <exit@plt+0x202c>
 804af56:	8b 9d 74 df ff ff    	mov    -0x208c(%ebp),%ebx
 804af5c:	eb 0d                	jmp    804af6b <exit@plt+0x20ff>
 804af5e:	66 90                	xchg   %ax,%ax
 804af60:	8b 5b 14             	mov    0x14(%ebx),%ebx
 804af63:	85 db                	test   %ebx,%ebx
 804af65:	0f 84 2d ff ff ff    	je     804ae98 <exit@plt+0x202c>
 804af6b:	8b 85 84 df ff ff    	mov    -0x207c(%ebp),%eax
 804af71:	8b 95 88 df ff ff    	mov    -0x2078(%ebp),%edx
 804af77:	33 53 08             	xor    0x8(%ebx),%edx
 804af7a:	33 43 04             	xor    0x4(%ebx),%eax
 804af7d:	09 c2                	or     %eax,%edx
 804af7f:	75 df                	jne    804af60 <exit@plt+0x20f4>
 804af81:	8b 85 dc df ff ff    	mov    -0x2024(%ebp),%eax
 804af87:	8b 95 e0 df ff ff    	mov    -0x2020(%ebp),%edx
 804af8d:	33 53 10             	xor    0x10(%ebx),%edx
 804af90:	33 43 0c             	xor    0xc(%ebx),%eax
 804af93:	09 c2                	or     %eax,%edx
 804af95:	75 c9                	jne    804af60 <exit@plt+0x20f4>
 804af97:	8b 03                	mov    (%ebx),%eax
 804af99:	89 f1                	mov    %esi,%ecx
 804af9b:	ba 03 00 00 00       	mov    $0x3,%edx
 804afa0:	e8 3b fc ff ff       	call   804abe0 <exit@plt+0x1d74>
 804afa5:	eb b9                	jmp    804af60 <exit@plt+0x20f4>
 804afa7:	a1 10 f2 04 08       	mov    0x804f210,%eax
 804afac:	c7 44 24 0c 66 cc 04 	movl   $0x804cc66,0xc(%esp)
 804afb3:	08 
 804afb4:	c7 44 24 08 91 cb 04 	movl   $0x804cb91,0x8(%esp)
 804afbb:	08 
 804afbc:	c7 44 24 04 01 00 00 	movl   $0x1,0x4(%esp)
 804afc3:	00 
 804afc4:	89 04 24             	mov    %eax,(%esp)
 804afc7:	e8 10 dc ff ff       	call   8048bdc <__fprintf_chk@plt>
 804afcc:	8d 74 26 00          	lea    0x0(%esi,%eiz,1),%esi
 804afd0:	8b 45 e4             	mov    -0x1c(%ebp),%eax
 804afd3:	65 33 05 14 00 00 00 	xor    %gs:0x14,%eax
 804afda:	75 0b                	jne    804afe7 <exit@plt+0x217b>
 804afdc:	81 c4 9c 20 00 00    	add    $0x209c,%esp
 804afe2:	5b                   	pop    %ebx
 804afe3:	5e                   	pop    %esi
 804afe4:	5f                   	pop    %edi
 804afe5:	5d                   	pop    %ebp
 804afe6:	c3                   	ret    
 804afe7:	e8 d0 dd ff ff       	call   8048dbc <__stack_chk_fail@plt>
 804afec:	8d 74 26 00          	lea    0x0(%esi,%eiz,1),%esi
 804aff0:	55                   	push   %ebp
 804aff1:	89 e5                	mov    %esp,%ebp
 804aff3:	57                   	push   %edi
 804aff4:	56                   	push   %esi
 804aff5:	53                   	push   %ebx
 804aff6:	81 ec 9c 20 00 00    	sub    $0x209c,%esp
 804affc:	c7 44 24 04 b7 cd 04 	movl   $0x804cdb7,0x4(%esp)
 804b003:	08 
 804b004:	8d bd e4 df ff ff    	lea    -0x201c(%ebp),%edi
 804b00a:	65 a1 14 00 00 00    	mov    %gs:0x14,%eax
 804b010:	89 45 e4             	mov    %eax,-0x1c(%ebp)
 804b013:	31 c0                	xor    %eax,%eax
 804b015:	89 95 70 df ff ff    	mov    %edx,-0x2090(%ebp)
 804b01b:	89 8d 6c df ff ff    	mov    %ecx,-0x2094(%ebp)
 804b021:	c7 04 24 84 cb 04 08 	movl   $0x804cb84,(%esp)
 804b028:	e8 1f dc ff ff       	call   8048c4c <fopen64@plt>
 804b02d:	85 c0                	test   %eax,%eax
 804b02f:	89 85 74 df ff ff    	mov    %eax,-0x208c(%ebp)
 804b035:	0f 84 1c 01 00 00    	je     804b157 <exit@plt+0x22eb>
 804b03b:	90                   	nop
 804b03c:	8d 74 26 00          	lea    0x0(%esi,%eiz,1),%esi
 804b040:	8b 85 74 df ff ff    	mov    -0x208c(%ebp),%eax
 804b046:	c7 44 24 04 00 20 00 	movl   $0x2000,0x4(%esp)
 804b04d:	00 
 804b04e:	89 3c 24             	mov    %edi,(%esp)
 804b051:	89 44 24 08          	mov    %eax,0x8(%esp)
 804b055:	e8 e2 db ff ff       	call   8048c3c <fgets@plt>
 804b05a:	85 c0                	test   %eax,%eax
 804b05c:	0f 84 1e 01 00 00    	je     804b180 <exit@plt+0x2314>
 804b062:	c7 44 24 04 20 00 00 	movl   $0x20,0x4(%esp)
 804b069:	00 
 804b06a:	89 3c 24             	mov    %edi,(%esp)
 804b06d:	e8 ba db ff ff       	call   8048c2c <strchr@plt>
 804b072:	85 c0                	test   %eax,%eax
 804b074:	74 ca                	je     804b040 <exit@plt+0x21d4>
 804b076:	8d 70 01             	lea    0x1(%eax),%esi
 804b079:	c7 44 24 04 20 00 00 	movl   $0x20,0x4(%esp)
 804b080:	00 
 804b081:	89 34 24             	mov    %esi,(%esp)
 804b084:	e8 a3 db ff ff       	call   8048c2c <strchr@plt>
 804b089:	85 c0                	test   %eax,%eax
 804b08b:	74 b3                	je     804b040 <exit@plt+0x21d4>
 804b08d:	c6 00 00             	movb   $0x0,(%eax)
 804b090:	8d 85 84 df ff ff    	lea    -0x207c(%ebp),%eax
 804b096:	89 44 24 08          	mov    %eax,0x8(%esp)
 804b09a:	89 74 24 04          	mov    %esi,0x4(%esp)
 804b09e:	c7 04 24 03 00 00 00 	movl   $0x3,(%esp)
 804b0a5:	e8 62 db ff ff       	call   8048c0c <__xstat64@plt>
 804b0aa:	85 c0                	test   %eax,%eax
 804b0ac:	75 92                	jne    804b040 <exit@plt+0x21d4>
 804b0ae:	8b 85 6c df ff ff    	mov    -0x2094(%ebp),%eax
 804b0b4:	85 c0                	test   %eax,%eax
 804b0b6:	74 40                	je     804b0f8 <exit@plt+0x228c>
 804b0b8:	8b 9d 6c df ff ff    	mov    -0x2094(%ebp),%ebx
 804b0be:	eb 07                	jmp    804b0c7 <exit@plt+0x225b>
 804b0c0:	8b 5b 0c             	mov    0xc(%ebx),%ebx
 804b0c3:	85 db                	test   %ebx,%ebx
 804b0c5:	74 31                	je     804b0f8 <exit@plt+0x228c>
 804b0c7:	8b 85 84 df ff ff    	mov    -0x207c(%ebp),%eax
 804b0cd:	8b 95 88 df ff ff    	mov    -0x2078(%ebp),%edx
 804b0d3:	33 53 08             	xor    0x8(%ebx),%edx
 804b0d6:	33 43 04             	xor    0x4(%ebx),%eax
 804b0d9:	09 c2                	or     %eax,%edx
 804b0db:	75 e3                	jne    804b0c0 <exit@plt+0x2254>
 804b0dd:	8b 03                	mov    (%ebx),%eax
 804b0df:	89 f1                	mov    %esi,%ecx
 804b0e1:	ba 01 00 00 00       	mov    $0x1,%edx
 804b0e6:	e8 f5 fa ff ff       	call   804abe0 <exit@plt+0x1d74>
 804b0eb:	8b 5b 0c             	mov    0xc(%ebx),%ebx
 804b0ee:	85 db                	test   %ebx,%ebx
 804b0f0:	75 d5                	jne    804b0c7 <exit@plt+0x225b>
 804b0f2:	8d b6 00 00 00 00    	lea    0x0(%esi),%esi
 804b0f8:	8b 9d 70 df ff ff    	mov    -0x2090(%ebp),%ebx
 804b0fe:	85 db                	test   %ebx,%ebx
 804b100:	0f 84 3a ff ff ff    	je     804b040 <exit@plt+0x21d4>
 804b106:	8b 9d 70 df ff ff    	mov    -0x2090(%ebp),%ebx
 804b10c:	eb 0d                	jmp    804b11b <exit@plt+0x22af>
 804b10e:	66 90                	xchg   %ax,%ax
 804b110:	8b 5b 14             	mov    0x14(%ebx),%ebx
 804b113:	85 db                	test   %ebx,%ebx
 804b115:	0f 84 25 ff ff ff    	je     804b040 <exit@plt+0x21d4>
 804b11b:	8b 85 84 df ff ff    	mov    -0x207c(%ebp),%eax
 804b121:	8b 95 88 df ff ff    	mov    -0x2078(%ebp),%edx
 804b127:	33 53 08             	xor    0x8(%ebx),%edx
 804b12a:	33 43 04             	xor    0x4(%ebx),%eax
 804b12d:	09 c2                	or     %eax,%edx
 804b12f:	75 df                	jne    804b110 <exit@plt+0x22a4>
 804b131:	8b 85 dc df ff ff    	mov    -0x2024(%ebp),%eax
 804b137:	8b 95 e0 df ff ff    	mov    -0x2020(%ebp),%edx
 804b13d:	33 53 10             	xor    0x10(%ebx),%edx
 804b140:	33 43 0c             	xor    0xc(%ebx),%eax
 804b143:	09 c2                	or     %eax,%edx
 804b145:	75 c9                	jne    804b110 <exit@plt+0x22a4>
 804b147:	8b 03                	mov    (%ebx),%eax
 804b149:	89 f1                	mov    %esi,%ecx
 804b14b:	ba 01 00 00 00       	mov    $0x1,%edx
 804b150:	e8 8b fa ff ff       	call   804abe0 <exit@plt+0x1d74>
 804b155:	eb b9                	jmp    804b110 <exit@plt+0x22a4>
 804b157:	a1 10 f2 04 08       	mov    0x804f210,%eax
 804b15c:	c7 44 24 0c 84 cb 04 	movl   $0x804cb84,0xc(%esp)
 804b163:	08 
 804b164:	c7 44 24 08 91 cb 04 	movl   $0x804cb91,0x8(%esp)
 804b16b:	08 
 804b16c:	c7 44 24 04 01 00 00 	movl   $0x1,0x4(%esp)
 804b173:	00 
 804b174:	89 04 24             	mov    %eax,(%esp)
 804b177:	e8 60 da ff ff       	call   8048bdc <__fprintf_chk@plt>
 804b17c:	8d 74 26 00          	lea    0x0(%esi,%eiz,1),%esi
 804b180:	8b 45 e4             	mov    -0x1c(%ebp),%eax
 804b183:	65 33 05 14 00 00 00 	xor    %gs:0x14,%eax
 804b18a:	75 0b                	jne    804b197 <exit@plt+0x232b>
 804b18c:	81 c4 9c 20 00 00    	add    $0x209c,%esp
 804b192:	5b                   	pop    %ebx
 804b193:	5e                   	pop    %esi
 804b194:	5f                   	pop    %edi
 804b195:	5d                   	pop    %ebp
 804b196:	c3                   	ret    
 804b197:	e8 20 dc ff ff       	call   8048dbc <__stack_chk_fail@plt>
 804b19c:	8d 74 26 00          	lea    0x0(%esi,%eiz,1),%esi
 804b1a0:	55                   	push   %ebp
 804b1a1:	b9 38 00 00 00       	mov    $0x38,%ecx
 804b1a6:	89 e5                	mov    %esp,%ebp
 804b1a8:	83 e4 f0             	and    $0xfffffff0,%esp
 804b1ab:	57                   	push   %edi
 804b1ac:	56                   	push   %esi
 804b1ad:	be 60 d7 04 08       	mov    $0x804d760,%esi
 804b1b2:	53                   	push   %ebx
 804b1b3:	81 ec 94 01 00 00    	sub    $0x194,%esp
 804b1b9:	8d 84 24 84 00 00 00 	lea    0x84(%esp),%eax
 804b1c0:	89 c7                	mov    %eax,%edi
 804b1c2:	f3 a5                	rep movsl %ds:(%esi),%es:(%edi)
 804b1c4:	c7 84 24 88 01 00 00 	movl   $0x0,0x188(%esp)
 804b1cb:	00 00 00 00 
 804b1cf:	c7 84 24 84 01 00 00 	movl   $0x0,0x184(%esp)
 804b1d6:	00 00 00 00 
 804b1da:	c7 84 24 80 01 00 00 	movl   $0x0,0x180(%esp)
 804b1e1:	00 00 00 00 
 804b1e5:	c7 84 24 7c 01 00 00 	movl   $0x0,0x17c(%esp)
 804b1ec:	00 00 00 00 
 804b1f0:	c7 84 24 78 01 00 00 	movl   $0x0,0x178(%esp)
 804b1f7:	00 00 00 00 
 804b1fb:	c7 84 24 74 01 00 00 	movl   $0x0,0x174(%esp)
 804b202:	00 00 00 00 
 804b206:	c7 84 24 70 01 00 00 	movl   $0x0,0x170(%esp)
 804b20d:	00 00 00 00 
 804b211:	c7 84 24 6c 01 00 00 	movl   $0x0,0x16c(%esp)
 804b218:	00 00 00 00 
 804b21c:	89 44 24 2c          	mov    %eax,0x2c(%esp)
 804b220:	c7 44 24 04 54 cd 04 	movl   $0x804cd54,0x4(%esp)
 804b227:	08 
 804b228:	c7 04 24 06 00 00 00 	movl   $0x6,(%esp)
 804b22f:	e8 38 db ff ff       	call   8048d6c <setlocale@plt>
 804b234:	c7 44 24 04 72 cc 04 	movl   $0x804cc72,0x4(%esp)
 804b23b:	08 
 804b23c:	c7 04 24 84 cc 04 08 	movl   $0x804cc84,(%esp)
 804b243:	e8 24 da ff ff       	call   8048c6c <bindtextdomain@plt>
 804b248:	c7 04 24 84 cc 04 08 	movl   $0x804cc84,(%esp)
 804b24f:	e8 78 db ff ff       	call   8048dcc <textdomain@plt>
 804b254:	e8 27 e2 ff ff       	call   8049480 <exit@plt+0x614>
 804b259:	89 44 24 48          	mov    %eax,0x48(%esp)
 804b25d:	8d 84 24 84 01 00 00 	lea    0x184(%esp),%eax
 804b264:	89 54 24 4c          	mov    %edx,0x4c(%esp)
 804b268:	89 04 24             	mov    %eax,(%esp)
 804b26b:	e8 80 df ff ff       	call   80491f0 <exit@plt+0x384>
 804b270:	83 7d 08 01          	cmpl   $0x1,0x8(%ebp)
 804b274:	0f 8e fd 14 00 00    	jle    804c777 <exit@plt+0x390b>
 804b27a:	c7 44 24 7c 01 00 00 	movl   $0x1,0x7c(%esp)
 804b281:	00 
 804b282:	c7 44 24 74 00 00 00 	movl   $0x0,0x74(%esp)
 804b289:	00 
 804b28a:	c7 44 24 68 00 00 00 	movl   $0x0,0x68(%esp)
 804b291:	00 
 804b292:	c6 44 24 60 00       	movb   $0x0,0x60(%esp)
 804b297:	c7 44 24 5c 00 00 00 	movl   $0x0,0x5c(%esp)
 804b29e:	00 
 804b29f:	c7 44 24 58 00 00 00 	movl   $0x0,0x58(%esp)
 804b2a6:	00 
 804b2a7:	c7 44 24 54 09 00 00 	movl   $0x9,0x54(%esp)
 804b2ae:	00 
 804b2af:	c6 44 24 78 00       	movb   $0x0,0x78(%esp)
 804b2b4:	8d 74 26 00          	lea    0x0(%esi,%eiz,1),%esi
 804b2b8:	8b 54 24 7c          	mov    0x7c(%esp),%edx
 804b2bc:	8b 4d 0c             	mov    0xc(%ebp),%ecx
 804b2bf:	8b 1c 91             	mov    (%ecx,%edx,4),%ebx
 804b2c2:	80 3b 2d             	cmpb   $0x2d,(%ebx)
 804b2c5:	0f 85 bd 03 00 00    	jne    804b688 <exit@plt+0x281c>
 804b2cb:	8d 43 01             	lea    0x1(%ebx),%eax
 804b2ce:	89 de                	mov    %ebx,%esi
 804b2d0:	89 44 24 64          	mov    %eax,0x64(%esp)
 804b2d4:	0f b6 53 01          	movzbl 0x1(%ebx),%edx
 804b2d8:	80 fa 2d             	cmp    $0x2d,%dl
 804b2db:	0f 84 17 03 00 00    	je     804b5f8 <exit@plt+0x278c>
 804b2e1:	31 db                	xor    %ebx,%ebx
 804b2e3:	84 d2                	test   %dl,%dl
 804b2e5:	74 61                	je     804b348 <exit@plt+0x24dc>
 804b2e7:	85 db                	test   %ebx,%ebx
 804b2e9:	75 5d                	jne    804b348 <exit@plt+0x24dc>
 804b2eb:	8d 42 cc             	lea    -0x34(%edx),%eax
 804b2ee:	3c 42                	cmp    $0x42,%al
 804b2f0:	0f 86 72 06 00 00    	jbe    804b968 <exit@plt+0x2afc>
 804b2f6:	88 54 24 3c          	mov    %dl,0x3c(%esp)
 804b2fa:	e8 fd d9 ff ff       	call   8048cfc <__ctype_b_loc@plt>
 804b2ff:	0f b6 54 24 3c       	movzbl 0x3c(%esp),%edx
 804b304:	0f be d2             	movsbl %dl,%edx
 804b307:	8b 00                	mov    (%eax),%eax
 804b309:	0f b7 04 50          	movzwl (%eax,%edx,2),%eax
 804b30d:	f6 c4 09             	test   $0x9,%ah
 804b310:	0f 84 2f 15 00 00    	je     804c845 <exit@plt+0x39d9>
 804b316:	8b 55 0c             	mov    0xc(%ebp),%edx
 804b319:	bb 01 00 00 00       	mov    $0x1,%ebx
 804b31e:	8b 4c 24 64          	mov    0x64(%esp),%ecx
 804b322:	8b 02                	mov    (%edx),%eax
 804b324:	89 0c 24             	mov    %ecx,(%esp)
 804b327:	89 44 24 04          	mov    %eax,0x4(%esp)
 804b32b:	e8 b0 15 00 00       	call   804c8e0 <exit@plt+0x3a74>
 804b330:	89 44 24 54          	mov    %eax,0x54(%esp)
 804b334:	83 c6 01             	add    $0x1,%esi
 804b337:	0f b6 56 01          	movzbl 0x1(%esi),%edx
 804b33b:	90                   	nop
 804b33c:	8d 74 26 00          	lea    0x0(%esi,%eiz,1),%esi
 804b340:	84 d2                	test   %dl,%dl
 804b342:	75 a3                	jne    804b2e7 <exit@plt+0x247b>
 804b344:	8d 74 26 00          	lea    0x0(%esi,%eiz,1),%esi
 804b348:	83 44 24 7c 01       	addl   $0x1,0x7c(%esp)
 804b34d:	8b 54 24 7c          	mov    0x7c(%esp),%edx
 804b351:	39 55 08             	cmp    %edx,0x8(%ebp)
 804b354:	0f 8f 5e ff ff ff    	jg     804b2b8 <exit@plt+0x244c>
 804b35a:	8b 44 24 68          	mov    0x68(%esp),%eax
 804b35e:	85 c0                	test   %eax,%eax
 804b360:	0f 84 8b 14 00 00    	je     804c7f1 <exit@plt+0x3985>
 804b366:	0f b6 4c 24 5c       	movzbl 0x5c(%esp),%ecx
 804b36b:	0f b6 44 24 58       	movzbl 0x58(%esp),%eax
 804b370:	0f b6 5c 24 78       	movzbl 0x78(%esp),%ebx
 804b375:	21 c1                	and    %eax,%ecx
 804b377:	83 e3 20             	and    $0x20,%ebx
 804b37a:	89 ce                	mov    %ecx,%esi
 804b37c:	85 db                	test   %ebx,%ebx
 804b37e:	74 10                	je     804b390 <exit@plt+0x2524>
 804b380:	80 64 24 78 be       	andb   $0xbe,0x78(%esp)
 804b385:	f6 44 24 78 02       	testb  $0x2,0x78(%esp)
 804b38a:	0f 85 78 13 00 00    	jne    804c708 <exit@plt+0x389c>
 804b390:	89 f0                	mov    %esi,%eax
 804b392:	84 c0                	test   %al,%al
 804b394:	0f 85 0a 13 00 00    	jne    804c6a4 <exit@plt+0x3838>
 804b39a:	8b 7c 24 58          	mov    0x58(%esp),%edi
 804b39e:	85 ff                	test   %edi,%edi
 804b3a0:	75 6c                	jne    804b40e <exit@plt+0x25a2>
 804b3a2:	8b 84 24 7c 01 00 00 	mov    0x17c(%esp),%eax
 804b3a9:	85 c0                	test   %eax,%eax
 804b3ab:	74 2b                	je     804b3d8 <exit@plt+0x256c>
 804b3ad:	8b 54 24 48          	mov    0x48(%esp),%edx
 804b3b1:	8b 4c 24 4c          	mov    0x4c(%esp),%ecx
 804b3b5:	89 44 24 04          	mov    %eax,0x4(%esp)
 804b3b9:	8d 84 24 6c 01 00 00 	lea    0x16c(%esp),%eax
 804b3c0:	c7 44 24 08 dc cc 04 	movl   $0x804ccdc,0x8(%esp)
 804b3c7:	08 
 804b3c8:	89 54 24 0c          	mov    %edx,0xc(%esp)
 804b3cc:	89 4c 24 10          	mov    %ecx,0x10(%esp)
 804b3d0:	89 04 24             	mov    %eax,(%esp)
 804b3d3:	e8 58 ed ff ff       	call   804a130 <exit@plt+0x12c4>
 804b3d8:	8b 84 24 78 01 00 00 	mov    0x178(%esp),%eax
 804b3df:	85 c0                	test   %eax,%eax
 804b3e1:	74 2b                	je     804b40e <exit@plt+0x25a2>
 804b3e3:	8b 54 24 48          	mov    0x48(%esp),%edx
 804b3e7:	8b 4c 24 4c          	mov    0x4c(%esp),%ecx
 804b3eb:	89 44 24 04          	mov    %eax,0x4(%esp)
 804b3ef:	8d 84 24 6c 01 00 00 	lea    0x16c(%esp),%eax
 804b3f6:	c7 44 24 08 e3 cc 04 	movl   $0x804cce3,0x8(%esp)
 804b3fd:	08 
 804b3fe:	89 54 24 0c          	mov    %edx,0xc(%esp)
 804b402:	89 4c 24 10          	mov    %ecx,0x10(%esp)
 804b406:	89 04 24             	mov    %eax,(%esp)
 804b409:	e8 22 ed ff ff       	call   804a130 <exit@plt+0x12c4>
 804b40e:	8b 74 24 5c          	mov    0x5c(%esp),%esi
 804b412:	85 f6                	test   %esi,%esi
 804b414:	75 6c                	jne    804b482 <exit@plt+0x2616>
 804b416:	8b 84 24 74 01 00 00 	mov    0x174(%esp),%eax
 804b41d:	85 c0                	test   %eax,%eax
 804b41f:	74 2b                	je     804b44c <exit@plt+0x25e0>
 804b421:	8b 54 24 48          	mov    0x48(%esp),%edx
 804b425:	8b 4c 24 4c          	mov    0x4c(%esp),%ecx
 804b429:	89 44 24 04          	mov    %eax,0x4(%esp)
 804b42d:	8d 84 24 6c 01 00 00 	lea    0x16c(%esp),%eax
 804b434:	c7 44 24 08 dc cc 04 	movl   $0x804ccdc,0x8(%esp)
 804b43b:	08 
 804b43c:	89 54 24 0c          	mov    %edx,0xc(%esp)
 804b440:	89 4c 24 10          	mov    %ecx,0x10(%esp)
 804b444:	89 04 24             	mov    %eax,(%esp)
 804b447:	e8 64 ea ff ff       	call   8049eb0 <exit@plt+0x1044>
 804b44c:	8b 84 24 70 01 00 00 	mov    0x170(%esp),%eax
 804b453:	85 c0                	test   %eax,%eax
 804b455:	74 2b                	je     804b482 <exit@plt+0x2616>
 804b457:	8b 54 24 48          	mov    0x48(%esp),%edx
 804b45b:	8b 4c 24 4c          	mov    0x4c(%esp),%ecx
 804b45f:	89 44 24 04          	mov    %eax,0x4(%esp)
 804b463:	8d 84 24 6c 01 00 00 	lea    0x16c(%esp),%eax
 804b46a:	c7 44 24 08 e3 cc 04 	movl   $0x804cce3,0x8(%esp)
 804b471:	08 
 804b472:	89 54 24 0c          	mov    %edx,0xc(%esp)
 804b476:	89 4c 24 10          	mov    %ecx,0x10(%esp)
 804b47a:	89 04 24             	mov    %eax,(%esp)
 804b47d:	e8 2e ea ff ff       	call   8049eb0 <exit@plt+0x1044>
 804b482:	8b 8c 24 84 01 00 00 	mov    0x184(%esp),%ecx
 804b489:	8b 84 24 88 01 00 00 	mov    0x188(%esp),%eax
 804b490:	8b 94 24 6c 01 00 00 	mov    0x16c(%esp),%edx
 804b497:	c7 04 24 c8 00 00 00 	movl   $0xc8,(%esp)
 804b49e:	89 4c 24 5c          	mov    %ecx,0x5c(%esp)
 804b4a2:	89 44 24 60          	mov    %eax,0x60(%esp)
 804b4a6:	89 54 24 64          	mov    %edx,0x64(%esp)
 804b4aa:	e8 fd d8 ff ff       	call   8048dac <malloc@plt>
 804b4af:	85 c0                	test   %eax,%eax
 804b4b1:	0f 84 eb 07 00 00    	je     804bca2 <exit@plt+0x2e36>
 804b4b7:	c7 04 24 c8 00 00 00 	movl   $0xc8,(%esp)
 804b4be:	e8 e9 d8 ff ff       	call   8048dac <malloc@plt>
 804b4c3:	85 c0                	test   %eax,%eax
 804b4c5:	0f 84 d7 07 00 00    	je     804bca2 <exit@plt+0x2e36>
 804b4cb:	c7 04 24 e7 cc 04 08 	movl   $0x804cce7,(%esp)
 804b4d2:	e8 05 d8 ff ff       	call   8048cdc <opendir@plt>
 804b4d7:	85 c0                	test   %eax,%eax
 804b4d9:	89 44 24 70          	mov    %eax,0x70(%esp)
 804b4dd:	0f 84 9f 13 00 00    	je     804c882 <exit@plt+0x3a16>
 804b4e3:	e8 c4 d6 ff ff       	call   8048bac <getpid@plt>
 804b4e8:	89 44 24 58          	mov    %eax,0x58(%esp)
 804b4ec:	8d 74 26 00          	lea    0x0(%esi,%eiz,1),%esi
 804b4f0:	8b 4c 24 70          	mov    0x70(%esp),%ecx
 804b4f4:	89 0c 24             	mov    %ecx,(%esp)
 804b4f7:	e8 30 d8 ff ff       	call   8048d2c <readdir64@plt>
 804b4fc:	85 c0                	test   %eax,%eax
 804b4fe:	0f 84 92 07 00 00    	je     804bc96 <exit@plt+0x2e2a>
 804b504:	0f b6 50 13          	movzbl 0x13(%eax),%edx
 804b508:	83 ea 30             	sub    $0x30,%edx
 804b50b:	80 fa 09             	cmp    $0x9,%dl
 804b50e:	77 e0                	ja     804b4f0 <exit@plt+0x2684>
 804b510:	83 c0 13             	add    $0x13,%eax
 804b513:	c7 44 24 08 0a 00 00 	movl   $0xa,0x8(%esp)
 804b51a:	00 
 804b51b:	c7 44 24 04 00 00 00 	movl   $0x0,0x4(%esp)
 804b522:	00 
 804b523:	89 04 24             	mov    %eax,(%esp)
 804b526:	e8 51 d7 ff ff       	call   8048c7c <strtol@plt>
 804b52b:	39 44 24 58          	cmp    %eax,0x58(%esp)
 804b52f:	89 44 24 74          	mov    %eax,0x74(%esp)
 804b533:	74 bb                	je     804b4f0 <exit@plt+0x2684>
 804b535:	e8 f6 e1 ff ff       	call   8049730 <exit@plt+0x8c4>
 804b53a:	ba ed cc 04 08       	mov    $0x804cced,%edx
 804b53f:	89 44 24 6c          	mov    %eax,0x6c(%esp)
 804b543:	8b 44 24 74          	mov    0x74(%esp),%eax
 804b547:	e8 84 e2 ff ff       	call   80497d0 <exit@plt+0x964>
 804b54c:	ba f2 cc 04 08       	mov    $0x804ccf2,%edx
 804b551:	89 c6                	mov    %eax,%esi
 804b553:	8b 44 24 74          	mov    0x74(%esp),%eax
 804b557:	e8 74 e2 ff ff       	call   80497d0 <exit@plt+0x964>
 804b55c:	ba f6 cc 04 08       	mov    $0x804ccf6,%edx
 804b561:	89 44 24 7c          	mov    %eax,0x7c(%esp)
 804b565:	8b 44 24 74          	mov    0x74(%esp),%eax
 804b569:	e8 62 e2 ff ff       	call   80497d0 <exit@plt+0x964>
 804b56e:	8b 5c 24 60          	mov    0x60(%esp),%ebx
 804b572:	85 db                	test   %ebx,%ebx
 804b574:	89 c7                	mov    %eax,%edi
 804b576:	0f 84 89 06 00 00    	je     804bc05 <exit@plt+0x2d99>
 804b57c:	8b 5c 24 60          	mov    0x60(%esp),%ebx
 804b580:	eb 47                	jmp    804b5c9 <exit@plt+0x275d>
 804b582:	8d b6 00 00 00 00    	lea    0x0(%esi),%esi
 804b588:	85 f6                	test   %esi,%esi
 804b58a:	74 13                	je     804b59f <exit@plt+0x2733>
 804b58c:	8b 06                	mov    (%esi),%eax
 804b58e:	8b 56 04             	mov    0x4(%esi),%edx
 804b591:	33 53 08             	xor    0x8(%ebx),%edx
 804b594:	33 43 04             	xor    0x4(%ebx),%eax
 804b597:	09 c2                	or     %eax,%edx
 804b599:	0f 84 2a 06 00 00    	je     804bbc9 <exit@plt+0x2d5d>
 804b59f:	8b 4c 24 7c          	mov    0x7c(%esp),%ecx
 804b5a3:	85 c9                	test   %ecx,%ecx
 804b5a5:	74 17                	je     804b5be <exit@plt+0x2752>
 804b5a7:	8b 4c 24 7c          	mov    0x7c(%esp),%ecx
 804b5ab:	8b 01                	mov    (%ecx),%eax
 804b5ad:	8b 51 04             	mov    0x4(%ecx),%edx
 804b5b0:	33 53 08             	xor    0x8(%ebx),%edx
 804b5b3:	33 43 04             	xor    0x4(%ebx),%eax
 804b5b6:	09 c2                	or     %eax,%edx
 804b5b8:	0f 84 26 06 00 00    	je     804bbe4 <exit@plt+0x2d78>
 804b5be:	8b 5b 0c             	mov    0xc(%ebx),%ebx
 804b5c1:	85 db                	test   %ebx,%ebx
 804b5c3:	0f 84 3c 06 00 00    	je     804bc05 <exit@plt+0x2d99>
 804b5c9:	85 ff                	test   %edi,%edi
 804b5cb:	74 bb                	je     804b588 <exit@plt+0x271c>
 804b5cd:	8b 07                	mov    (%edi),%eax
 804b5cf:	8b 57 04             	mov    0x4(%edi),%edx
 804b5d2:	33 53 08             	xor    0x8(%ebx),%edx
 804b5d5:	33 43 04             	xor    0x4(%ebx),%eax
 804b5d8:	09 c2                	or     %eax,%edx
 804b5da:	75 ac                	jne    804b588 <exit@plt+0x271c>
 804b5dc:	c7 04 24 02 00 00 00 	movl   $0x2,(%esp)
 804b5e3:	8b 4c 24 6c          	mov    0x6c(%esp),%ecx
 804b5e7:	8b 54 24 74          	mov    0x74(%esp),%edx
 804b5eb:	8b 03                	mov    (%ebx),%eax
 804b5ed:	e8 8e e2 ff ff       	call   8049880 <exit@plt+0xa14>
 804b5f2:	eb 94                	jmp    804b588 <exit@plt+0x271c>
 804b5f4:	8d 74 26 00          	lea    0x0(%esi,%eiz,1),%esi
 804b5f8:	80 7b 02 00          	cmpb   $0x0,0x2(%ebx)
 804b5fc:	8d 7b 02             	lea    0x2(%ebx),%edi
 804b5ff:	0f 84 55 fd ff ff    	je     804b35a <exit@plt+0x24ee>
 804b605:	8b 84 24 84 00 00 00 	mov    0x84(%esp),%eax
 804b60c:	85 c0                	test   %eax,%eax
 804b60e:	0f 84 50 11 00 00    	je     804c764 <exit@plt+0x38f8>
 804b614:	8d b4 24 84 00 00 00 	lea    0x84(%esp),%esi
 804b61b:	eb 10                	jmp    804b62d <exit@plt+0x27c1>
 804b61d:	8d 76 00             	lea    0x0(%esi),%esi
 804b620:	83 c6 10             	add    $0x10,%esi
 804b623:	8b 06                	mov    (%esi),%eax
 804b625:	85 c0                	test   %eax,%eax
 804b627:	0f 84 7b 03 00 00    	je     804b9a8 <exit@plt+0x2b3c>
 804b62d:	89 44 24 04          	mov    %eax,0x4(%esp)
 804b631:	89 3c 24             	mov    %edi,(%esp)
 804b634:	e8 13 d8 ff ff       	call   8048e4c <strcmp@plt>
 804b639:	85 c0                	test   %eax,%eax
 804b63b:	75 e3                	jne    804b620 <exit@plt+0x27b4>
 804b63d:	0f be 46 0c          	movsbl 0xc(%esi),%eax
 804b641:	8d bc 24 8d 01 00 00 	lea    0x18d(%esp),%edi
 804b648:	c7 44 24 0c 8b cc 04 	movl   $0x804cc8b,0xc(%esp)
 804b64f:	08 
 804b650:	c7 44 24 08 03 00 00 	movl   $0x3,0x8(%esp)
 804b657:	00 
 804b658:	c7 44 24 04 01 00 00 	movl   $0x1,0x4(%esp)
 804b65f:	00 
 804b660:	89 44 24 10          	mov    %eax,0x10(%esp)
 804b664:	89 3c 24             	mov    %edi,(%esp)
 804b667:	e8 a0 d7 ff ff       	call   8048e0c <__sprintf_chk@plt>
 804b66c:	8b 36                	mov    (%esi),%esi
 804b66e:	85 f6                	test   %esi,%esi
 804b670:	0f 84 39 03 00 00    	je     804b9af <exit@plt+0x2b43>
 804b676:	0f b6 94 24 8e 01 00 	movzbl 0x18e(%esp),%edx
 804b67d:	00 
 804b67e:	89 fe                	mov    %edi,%esi
 804b680:	e9 5c fc ff ff       	jmp    804b2e1 <exit@plt+0x2475>
 804b685:	8d 76 00             	lea    0x0(%esi),%esi
 804b688:	c7 04 24 70 00 00 00 	movl   $0x70,(%esp)
 804b68f:	e8 18 d7 ff ff       	call   8048dac <malloc@plt>
 804b694:	85 c0                	test   %eax,%eax
 804b696:	0f 84 ac fc ff ff    	je     804b348 <exit@plt+0x24dc>
 804b69c:	0f b6 4c 24 60       	movzbl 0x60(%esp),%ecx
 804b6a1:	c7 40 6c 00 00 00 00 	movl   $0x0,0x6c(%eax)
 804b6a8:	88 48 04             	mov    %cl,0x4(%eax)
 804b6ab:	c7 44 24 04 2f 00 00 	movl   $0x2f,0x4(%esp)
 804b6b2:	00 
 804b6b3:	89 1c 24             	mov    %ebx,(%esp)
 804b6b6:	89 44 24 3c          	mov    %eax,0x3c(%esp)
 804b6ba:	e8 6d d5 ff ff       	call   8048c2c <strchr@plt>
 804b6bf:	8b 54 24 3c          	mov    0x3c(%esp),%edx
 804b6c3:	85 c0                	test   %eax,%eax
 804b6c5:	89 44 24 70          	mov    %eax,0x70(%esp)
 804b6c9:	74 53                	je     804b71e <exit@plt+0x28b2>
 804b6cb:	39 d8                	cmp    %ebx,%eax
 804b6cd:	74 4f                	je     804b71e <exit@plt+0x28b2>
 804b6cf:	0f b6 78 01          	movzbl 0x1(%eax),%edi
 804b6d3:	89 c6                	mov    %eax,%esi
 804b6d5:	0f b6 0d dc cc 04 08 	movzbl 0x804ccdc,%ecx
 804b6dc:	83 c6 01             	add    $0x1,%esi
 804b6df:	39 cf                	cmp    %ecx,%edi
 804b6e1:	0f 85 e1 00 00 00    	jne    804b7c8 <exit@plt+0x295c>
 804b6e7:	0f b6 4e 01          	movzbl 0x1(%esi),%ecx
 804b6eb:	3a 0d dd cc 04 08    	cmp    0x804ccdd,%cl
 804b6f1:	0f 85 d1 00 00 00    	jne    804b7c8 <exit@plt+0x295c>
 804b6f7:	0f b6 4e 02          	movzbl 0x2(%esi),%ecx
 804b6fb:	3a 0d de cc 04 08    	cmp    0x804ccde,%cl
 804b701:	0f 85 c1 00 00 00    	jne    804b7c8 <exit@plt+0x295c>
 804b707:	0f b6 4e 03          	movzbl 0x3(%esi),%ecx
 804b70b:	3a 0d df cc 04 08    	cmp    0x804ccdf,%cl
 804b711:	0f 85 b1 00 00 00    	jne    804b7c8 <exit@plt+0x295c>
 804b717:	c6 42 04 01          	movb   $0x1,0x4(%edx)
 804b71b:	c6 00 00             	movb   $0x0,(%eax)
 804b71e:	0f b6 7c 24 78       	movzbl 0x78(%esp),%edi
 804b723:	c7 42 68 00 00 00 00 	movl   $0x0,0x68(%edx)
 804b72a:	f7 c7 84 00 00 00    	test   $0x84,%edi
 804b730:	74 0a                	je     804b73c <exit@plt+0x28d0>
 804b732:	80 7a 04 00          	cmpb   $0x0,0x4(%edx)
 804b736:	0f 85 3c 02 00 00    	jne    804b978 <exit@plt+0x2b0c>
 804b73c:	80 7c 24 78 00       	cmpb   $0x0,0x78(%esp)
 804b741:	0f 88 a9 01 00 00    	js     804b8f0 <exit@plt+0x2a84>
 804b747:	0f b6 42 04          	movzbl 0x4(%edx),%eax
 804b74b:	3c 01                	cmp    $0x1,%al
 804b74d:	0f 84 55 01 00 00    	je     804b8a8 <exit@plt+0x2a3c>
 804b753:	3c 02                	cmp    $0x2,%al
 804b755:	0f 84 d5 00 00 00    	je     804b830 <exit@plt+0x29c4>
 804b75b:	89 54 24 3c          	mov    %edx,0x3c(%esp)
 804b75f:	89 1c 24             	mov    %ebx,(%esp)
 804b762:	e8 f5 d6 ff ff       	call   8048e5c <__strdup@plt>
 804b767:	8b 54 24 3c          	mov    0x3c(%esp),%edx
 804b76b:	89 02                	mov    %eax,(%edx)
 804b76d:	8d 84 24 6c 01 00 00 	lea    0x16c(%esp),%eax
 804b774:	89 14 24             	mov    %edx,(%esp)
 804b777:	89 44 24 04          	mov    %eax,0x4(%esp)
 804b77b:	e8 60 d9 ff ff       	call   80490e0 <exit@plt+0x274>
 804b780:	8b 54 24 3c          	mov    0x3c(%esp),%edx
 804b784:	85 c0                	test   %eax,%eax
 804b786:	0f 84 94 02 00 00    	je     804ba20 <exit@plt+0x2bb4>
 804b78c:	8b 5c 24 68          	mov    0x68(%esp),%ebx
 804b790:	85 db                	test   %ebx,%ebx
 804b792:	0f 84 02 01 00 00    	je     804b89a <exit@plt+0x2a2e>
 804b798:	8b 4c 24 74          	mov    0x74(%esp),%ecx
 804b79c:	85 c9                	test   %ecx,%ecx
 804b79e:	74 07                	je     804b7a7 <exit@plt+0x293b>
 804b7a0:	8b 44 24 74          	mov    0x74(%esp),%eax
 804b7a4:	89 50 6c             	mov    %edx,0x6c(%eax)
 804b7a7:	83 44 24 7c 01       	addl   $0x1,0x7c(%esp)
 804b7ac:	89 54 24 74          	mov    %edx,0x74(%esp)
 804b7b0:	8b 54 24 7c          	mov    0x7c(%esp),%edx
 804b7b4:	39 55 08             	cmp    %edx,0x8(%ebp)
 804b7b7:	0f 8f fb fa ff ff    	jg     804b2b8 <exit@plt+0x244c>
 804b7bd:	e9 98 fb ff ff       	jmp    804b35a <exit@plt+0x24ee>
 804b7c2:	8d b6 00 00 00 00    	lea    0x0(%esi),%esi
 804b7c8:	0f b6 0d e3 cc 04 08 	movzbl 0x804cce3,%ecx
 804b7cf:	39 cf                	cmp    %ecx,%edi
 804b7d1:	75 35                	jne    804b808 <exit@plt+0x299c>
 804b7d3:	0f b6 4e 01          	movzbl 0x1(%esi),%ecx
 804b7d7:	3a 0d e4 cc 04 08    	cmp    0x804cce4,%cl
 804b7dd:	75 29                	jne    804b808 <exit@plt+0x299c>
 804b7df:	0f b6 4e 02          	movzbl 0x2(%esi),%ecx
 804b7e3:	3a 0d e5 cc 04 08    	cmp    0x804cce5,%cl
 804b7e9:	75 1d                	jne    804b808 <exit@plt+0x299c>
 804b7eb:	0f b6 4e 03          	movzbl 0x3(%esi),%ecx
 804b7ef:	3a 0d e6 cc 04 08    	cmp    0x804cce6,%cl
 804b7f5:	75 11                	jne    804b808 <exit@plt+0x299c>
 804b7f7:	c6 42 04 02          	movb   $0x2,0x4(%edx)
 804b7fb:	8b 44 24 70          	mov    0x70(%esp),%eax
 804b7ff:	c6 00 00             	movb   $0x0,(%eax)
 804b802:	e9 17 ff ff ff       	jmp    804b71e <exit@plt+0x28b2>
 804b807:	90                   	nop
 804b808:	bf a6 cc 04 08       	mov    $0x804cca6,%edi
 804b80d:	b9 05 00 00 00       	mov    $0x5,%ecx
 804b812:	f3 a6                	repz cmpsb %es:(%edi),%ds:(%esi)
 804b814:	0f 85 04 ff ff ff    	jne    804b71e <exit@plt+0x28b2>
 804b81a:	c6 42 04 00          	movb   $0x0,0x4(%edx)
 804b81e:	8b 4c 24 70          	mov    0x70(%esp),%ecx
 804b822:	c6 01 00             	movb   $0x0,(%ecx)
 804b825:	e9 f4 fe ff ff       	jmp    804b71e <exit@plt+0x28b2>
 804b82a:	8d b6 00 00 00 00    	lea    0x0(%esi),%esi
 804b830:	89 14 24             	mov    %edx,(%esp)
 804b833:	89 54 24 3c          	mov    %edx,0x3c(%esp)
 804b837:	89 5c 24 0c          	mov    %ebx,0xc(%esp)
 804b83b:	c7 44 24 08 e0 cc 04 	movl   $0x804cce0,0x8(%esp)
 804b842:	08 
 804b843:	c7 44 24 04 01 00 00 	movl   $0x1,0x4(%esp)
 804b84a:	00 
 804b84b:	e8 6c d4 ff ff       	call   8048cbc <__asprintf_chk@plt>
 804b850:	8b 54 24 3c          	mov    0x3c(%esp),%edx
 804b854:	85 c0                	test   %eax,%eax
 804b856:	0f 8e 30 ff ff ff    	jle    804b78c <exit@plt+0x2920>
 804b85c:	8d 84 24 70 01 00 00 	lea    0x170(%esp),%eax
 804b863:	89 44 24 10          	mov    %eax,0x10(%esp)
 804b867:	8d 84 24 78 01 00 00 	lea    0x178(%esp),%eax
 804b86e:	89 44 24 0c          	mov    %eax,0xc(%esp)
 804b872:	8b 44 24 5c          	mov    0x5c(%esp),%eax
 804b876:	8b 4c 24 58          	mov    0x58(%esp),%ecx
 804b87a:	89 14 24             	mov    %edx,(%esp)
 804b87d:	89 44 24 08          	mov    %eax,0x8(%esp)
 804b881:	89 4c 24 04          	mov    %ecx,0x4(%esp)
 804b885:	e8 36 eb ff ff       	call   804a3c0 <exit@plt+0x1554>
 804b88a:	8b 5c 24 68          	mov    0x68(%esp),%ebx
 804b88e:	8b 54 24 3c          	mov    0x3c(%esp),%edx
 804b892:	85 db                	test   %ebx,%ebx
 804b894:	0f 85 fe fe ff ff    	jne    804b798 <exit@plt+0x292c>
 804b89a:	89 54 24 68          	mov    %edx,0x68(%esp)
 804b89e:	e9 f5 fe ff ff       	jmp    804b798 <exit@plt+0x292c>
 804b8a3:	90                   	nop
 804b8a4:	8d 74 26 00          	lea    0x0(%esi,%eiz,1),%esi
 804b8a8:	89 14 24             	mov    %edx,(%esp)
 804b8ab:	89 54 24 3c          	mov    %edx,0x3c(%esp)
 804b8af:	89 5c 24 0c          	mov    %ebx,0xc(%esp)
 804b8b3:	c7 44 24 08 d9 cc 04 	movl   $0x804ccd9,0x8(%esp)
 804b8ba:	08 
 804b8bb:	c7 44 24 04 01 00 00 	movl   $0x1,0x4(%esp)
 804b8c2:	00 
 804b8c3:	e8 f4 d3 ff ff       	call   8048cbc <__asprintf_chk@plt>
 804b8c8:	8b 54 24 3c          	mov    0x3c(%esp),%edx
 804b8cc:	85 c0                	test   %eax,%eax
 804b8ce:	0f 8e b8 fe ff ff    	jle    804b78c <exit@plt+0x2920>
 804b8d4:	8d 84 24 74 01 00 00 	lea    0x174(%esp),%eax
 804b8db:	8d 8c 24 7c 01 00 00 	lea    0x17c(%esp),%ecx
 804b8e2:	89 44 24 10          	mov    %eax,0x10(%esp)
 804b8e6:	89 4c 24 0c          	mov    %ecx,0xc(%esp)
 804b8ea:	eb 86                	jmp    804b872 <exit@plt+0x2a06>
 804b8ec:	8d 74 26 00          	lea    0x0(%esi,%eiz,1),%esi
 804b8f0:	80 3b 00             	cmpb   $0x0,(%ebx)
 804b8f3:	0f 84 08 01 00 00    	je     804ba01 <exit@plt+0x2b95>
 804b8f9:	89 d8                	mov    %ebx,%eax
 804b8fb:	eb 05                	jmp    804b902 <exit@plt+0x2a96>
 804b8fd:	8d 76 00             	lea    0x0(%esi),%esi
 804b900:	89 c8                	mov    %ecx,%eax
 804b902:	80 78 01 00          	cmpb   $0x0,0x1(%eax)
 804b906:	8d 48 01             	lea    0x1(%eax),%ecx
 804b909:	75 f5                	jne    804b900 <exit@plt+0x2a94>
 804b90b:	80 38 2f             	cmpb   $0x2f,(%eax)
 804b90e:	74 13                	je     804b923 <exit@plt+0x2ab7>
 804b910:	eb 15                	jmp    804b927 <exit@plt+0x2abb>
 804b912:	8d b6 00 00 00 00    	lea    0x0(%esi),%esi
 804b918:	c6 00 00             	movb   $0x0,(%eax)
 804b91b:	83 e8 01             	sub    $0x1,%eax
 804b91e:	80 38 2f             	cmpb   $0x2f,(%eax)
 804b921:	75 04                	jne    804b927 <exit@plt+0x2abb>
 804b923:	39 c3                	cmp    %eax,%ebx
 804b925:	72 f1                	jb     804b918 <exit@plt+0x2aac>
 804b927:	8b b4 24 80 01 00 00 	mov    0x180(%esp),%esi
 804b92e:	85 f6                	test   %esi,%esi
 804b930:	0f 84 cb 00 00 00    	je     804ba01 <exit@plt+0x2b95>
 804b936:	89 54 24 64          	mov    %edx,0x64(%esp)
 804b93a:	eb 0f                	jmp    804b94b <exit@plt+0x2adf>
 804b93c:	8d 74 26 00          	lea    0x0(%esi,%eiz,1),%esi
 804b940:	8b 76 04             	mov    0x4(%esi),%esi
 804b943:	85 f6                	test   %esi,%esi
 804b945:	0f 84 b2 00 00 00    	je     804b9fd <exit@plt+0x2b91>
 804b94b:	8b 06                	mov    (%esi),%eax
 804b94d:	89 5c 24 04          	mov    %ebx,0x4(%esp)
 804b951:	89 04 24             	mov    %eax,(%esp)
 804b954:	e8 f3 d4 ff ff       	call   8048e4c <strcmp@plt>
 804b959:	85 c0                	test   %eax,%eax
 804b95b:	75 e3                	jne    804b940 <exit@plt+0x2ad4>
 804b95d:	8b 54 24 64          	mov    0x64(%esp),%edx
 804b961:	e9 e1 fd ff ff       	jmp    804b747 <exit@plt+0x28db>
 804b966:	66 90                	xchg   %ax,%ax
 804b968:	0f b6 c0             	movzbl %al,%eax
 804b96b:	ff 24 85 40 d6 04 08 	jmp    *0x804d640(,%eax,4)
 804b972:	8d b6 00 00 00 00    	lea    0x0(%esi),%esi
 804b978:	89 54 24 3c          	mov    %edx,0x3c(%esp)
 804b97c:	c7 44 24 08 05 00 00 	movl   $0x5,0x8(%esp)
 804b983:	00 
 804b984:	c7 44 24 04 fc d4 04 	movl   $0x804d4fc,0x4(%esp)
 804b98b:	08 
 804b98c:	c7 04 24 00 00 00 00 	movl   $0x0,(%esp)
 804b993:	e8 14 d3 ff ff       	call   8048cac <dcgettext@plt>
 804b998:	e8 03 da ff ff       	call   80493a0 <exit@plt+0x534>
 804b99d:	8b 54 24 3c          	mov    0x3c(%esp),%edx
 804b9a1:	e9 96 fd ff ff       	jmp    804b73c <exit@plt+0x28d0>
 804b9a6:	66 90                	xchg   %ax,%ax
 804b9a8:	8d bc 24 8d 01 00 00 	lea    0x18d(%esp),%edi
 804b9af:	8b 55 0c             	mov    0xc(%ebp),%edx
 804b9b2:	8b 32                	mov    (%edx),%esi
 804b9b4:	c7 44 24 08 05 00 00 	movl   $0x5,0x8(%esp)
 804b9bb:	00 
 804b9bc:	c7 44 24 04 8f cc 04 	movl   $0x804cc8f,0x4(%esp)
 804b9c3:	08 
 804b9c4:	c7 04 24 00 00 00 00 	movl   $0x0,(%esp)
 804b9cb:	e8 dc d2 ff ff       	call   8048cac <dcgettext@plt>
 804b9d0:	89 5c 24 10          	mov    %ebx,0x10(%esp)
 804b9d4:	89 74 24 0c          	mov    %esi,0xc(%esp)
 804b9d8:	c7 44 24 04 01 00 00 	movl   $0x1,0x4(%esp)
 804b9df:	00 
 804b9e0:	89 44 24 08          	mov    %eax,0x8(%esp)
 804b9e4:	a1 10 f2 04 08       	mov    0x804f210,%eax
 804b9e9:	89 04 24             	mov    %eax,(%esp)
 804b9ec:	e8 eb d1 ff ff       	call   8048bdc <__fprintf_chk@plt>
 804b9f1:	31 c0                	xor    %eax,%eax
 804b9f3:	e8 a8 d9 ff ff       	call   80493a0 <exit@plt+0x534>
 804b9f8:	e9 79 fc ff ff       	jmp    804b676 <exit@plt+0x280a>
 804b9fd:	8b 54 24 64          	mov    0x64(%esp),%edx
 804ba01:	89 14 24             	mov    %edx,(%esp)
 804ba04:	e8 83 d2 ff ff       	call   8048c8c <free@plt>
 804ba09:	83 44 24 7c 01       	addl   $0x1,0x7c(%esp)
 804ba0e:	8b 54 24 7c          	mov    0x7c(%esp),%edx
 804ba12:	39 55 08             	cmp    %edx,0x8(%ebp)
 804ba15:	0f 8f 9d f8 ff ff    	jg     804b2b8 <exit@plt+0x244c>
 804ba1b:	e9 3a f9 ff ff       	jmp    804b35a <exit@plt+0x24ee>
 804ba20:	8b 84 24 84 01 00 00 	mov    0x184(%esp),%eax
 804ba27:	8d 8c 24 6c 01 00 00 	lea    0x16c(%esp),%ecx
 804ba2e:	89 14 24             	mov    %edx,(%esp)
 804ba31:	89 4c 24 04          	mov    %ecx,0x4(%esp)
 804ba35:	89 44 24 08          	mov    %eax,0x8(%esp)
 804ba39:	e8 42 db ff ff       	call   8049580 <exit@plt+0x714>
 804ba3e:	83 e7 04             	and    $0x4,%edi
 804ba41:	8b 54 24 3c          	mov    0x3c(%esp),%edx
 804ba45:	0f 84 41 fd ff ff    	je     804b78c <exit@plt+0x2920>
 804ba4b:	0f be 44 24 78       	movsbl 0x78(%esp),%eax
 804ba50:	89 14 24             	mov    %edx,(%esp)
 804ba53:	89 44 24 08          	mov    %eax,0x8(%esp)
 804ba57:	8d 84 24 88 01 00 00 	lea    0x188(%esp),%eax
 804ba5e:	89 44 24 04          	mov    %eax,0x4(%esp)
 804ba62:	e8 49 d5 ff ff       	call   8048fb0 <exit@plt+0x144>
 804ba67:	8b 54 24 3c          	mov    0x3c(%esp),%edx
 804ba6b:	e9 1c fd ff ff       	jmp    804b78c <exit@plt+0x2920>
 804ba70:	80 4c 24 78 04       	orb    $0x4,0x78(%esp)
 804ba75:	83 c6 01             	add    $0x1,%esi
 804ba78:	0f b6 56 01          	movzbl 0x1(%esi),%edx
 804ba7c:	e9 bf f8 ff ff       	jmp    804b340 <exit@plt+0x24d4>
 804ba81:	80 4c 24 78 40       	orb    $0x40,0x78(%esp)
 804ba86:	83 c6 01             	add    $0x1,%esi
 804ba89:	0f b6 56 01          	movzbl 0x1(%esi),%edx
 804ba8d:	e9 ae f8 ff ff       	jmp    804b340 <exit@plt+0x24d4>
 804ba92:	80 4c 24 78 20       	orb    $0x20,0x78(%esp)
 804ba97:	83 c6 01             	add    $0x1,%esi
 804ba9a:	0f b6 56 01          	movzbl 0x1(%esi),%edx
 804ba9e:	e9 9d f8 ff ff       	jmp    804b340 <exit@plt+0x24d4>
 804baa3:	83 44 24 7c 01       	addl   $0x1,0x7c(%esp)
 804baa8:	8b 4c 24 7c          	mov    0x7c(%esp),%ecx
 804baac:	39 4d 08             	cmp    %ecx,0x8(%ebp)
 804baaf:	0f 8e 54 0d 00 00    	jle    804c809 <exit@plt+0x399d>
 804bab5:	8b 54 24 7c          	mov    0x7c(%esp),%edx
 804bab9:	8b 4d 0c             	mov    0xc(%ebp),%ecx
 804babc:	8b 04 91             	mov    (%ecx,%edx,4),%eax
 804babf:	0f b6 0d dc cc 04 08 	movzbl 0x804ccdc,%ecx
 804bac6:	0f b6 10             	movzbl (%eax),%edx
 804bac9:	39 ca                	cmp    %ecx,%edx
 804bacb:	0f 85 f9 0b 00 00    	jne    804c6ca <exit@plt+0x385e>
 804bad1:	0f b6 48 01          	movzbl 0x1(%eax),%ecx
 804bad5:	3a 0d dd cc 04 08    	cmp    0x804ccdd,%cl
 804badb:	0f 85 e9 0b 00 00    	jne    804c6ca <exit@plt+0x385e>
 804bae1:	0f b6 48 02          	movzbl 0x2(%eax),%ecx
 804bae5:	3a 0d de cc 04 08    	cmp    0x804ccde,%cl
 804baeb:	0f 85 d9 0b 00 00    	jne    804c6ca <exit@plt+0x385e>
 804baf1:	0f b6 48 03          	movzbl 0x3(%eax),%ecx
 804baf5:	3a 0d df cc 04 08    	cmp    0x804ccdf,%cl
 804bafb:	0f 85 c9 0b 00 00    	jne    804c6ca <exit@plt+0x385e>
 804bb01:	bb 01 00 00 00       	mov    $0x1,%ebx
 804bb06:	c6 44 24 60 01       	movb   $0x1,0x60(%esp)
 804bb0b:	e9 24 f8 ff ff       	jmp    804b334 <exit@plt+0x24c8>
 804bb10:	8d 84 24 80 01 00 00 	lea    0x180(%esp),%eax
 804bb17:	83 c6 01             	add    $0x1,%esi
 804bb1a:	80 4c 24 78 80       	orb    $0x80,0x78(%esp)
 804bb1f:	e8 ec da ff ff       	call   8049610 <exit@plt+0x7a4>
 804bb24:	0f b6 56 01          	movzbl 0x1(%esi),%edx
 804bb28:	e9 13 f8 ff ff       	jmp    804b340 <exit@plt+0x24d4>
 804bb2d:	83 c6 01             	add    $0x1,%esi
 804bb30:	c7 44 24 5c 01 00 00 	movl   $0x1,0x5c(%esp)
 804bb37:	00 
 804bb38:	0f b6 56 01          	movzbl 0x1(%esi),%edx
 804bb3c:	e9 ff f7 ff ff       	jmp    804b340 <exit@plt+0x24d4>
 804bb41:	83 c6 01             	add    $0x1,%esi
 804bb44:	c7 44 24 58 01 00 00 	movl   $0x1,0x58(%esp)
 804bb4b:	00 
 804bb4c:	0f b6 56 01          	movzbl 0x1(%esi),%edx
 804bb50:	e9 eb f7 ff ff       	jmp    804b340 <exit@plt+0x24d4>
 804bb55:	e8 66 0e 00 00       	call   804c9c0 <exit@plt+0x3b54>
 804bb5a:	31 c0                	xor    %eax,%eax
 804bb5c:	81 c4 94 01 00 00    	add    $0x194,%esp
 804bb62:	5b                   	pop    %ebx
 804bb63:	5e                   	pop    %esi
 804bb64:	5f                   	pop    %edi
 804bb65:	89 ec                	mov    %ebp,%esp
 804bb67:	5d                   	pop    %ebp
 804bb68:	c3                   	ret    
 804bb69:	80 4c 24 78 08       	orb    $0x8,0x78(%esp)
 804bb6e:	83 c6 01             	add    $0x1,%esi
 804bb71:	0f b6 56 01          	movzbl 0x1(%esi),%edx
 804bb75:	e9 c6 f7 ff ff       	jmp    804b340 <exit@plt+0x24d4>
 804bb7a:	80 4c 24 78 10       	orb    $0x10,0x78(%esp)
 804bb7f:	83 c6 01             	add    $0x1,%esi
 804bb82:	0f b6 56 01          	movzbl 0x1(%esi),%edx
 804bb86:	e9 b5 f7 ff ff       	jmp    804b340 <exit@plt+0x24d4>
 804bb8b:	31 c0                	xor    %eax,%eax
 804bb8d:	83 c6 01             	add    $0x1,%esi
 804bb90:	e8 0b d8 ff ff       	call   80493a0 <exit@plt+0x534>
 804bb95:	0f b6 56 01          	movzbl 0x1(%esi),%edx
 804bb99:	e9 a2 f7 ff ff       	jmp    804b340 <exit@plt+0x24d4>
 804bb9e:	80 4c 24 78 01       	orb    $0x1,0x78(%esp)
 804bba3:	83 c6 01             	add    $0x1,%esi
 804bba6:	0f b6 56 01          	movzbl 0x1(%esi),%edx
 804bbaa:	e9 91 f7 ff ff       	jmp    804b340 <exit@plt+0x24d4>
 804bbaf:	80 4c 24 78 02       	orb    $0x2,0x78(%esp)
 804bbb4:	83 c6 01             	add    $0x1,%esi
 804bbb7:	0f b6 56 01          	movzbl 0x1(%esi),%edx
 804bbbb:	e9 80 f7 ff ff       	jmp    804b340 <exit@plt+0x24d4>
 804bbc0:	e8 6b d4 ff ff       	call   8049030 <exit@plt+0x1c4>
 804bbc5:	31 c0                	xor    %eax,%eax
 804bbc7:	eb 93                	jmp    804bb5c <exit@plt+0x2cf0>
 804bbc9:	c7 04 24 08 00 00 00 	movl   $0x8,(%esp)
 804bbd0:	8b 4c 24 6c          	mov    0x6c(%esp),%ecx
 804bbd4:	8b 54 24 74          	mov    0x74(%esp),%edx
 804bbd8:	8b 03                	mov    (%ebx),%eax
 804bbda:	e8 a1 dc ff ff       	call   8049880 <exit@plt+0xa14>
 804bbdf:	e9 bb f9 ff ff       	jmp    804b59f <exit@plt+0x2733>
 804bbe4:	c7 04 24 01 00 00 00 	movl   $0x1,(%esp)
 804bbeb:	8b 4c 24 6c          	mov    0x6c(%esp),%ecx
 804bbef:	8b 03                	mov    (%ebx),%eax
 804bbf1:	8b 54 24 74          	mov    0x74(%esp),%edx
 804bbf5:	e8 86 dc ff ff       	call   8049880 <exit@plt+0xa14>
 804bbfa:	8b 5b 0c             	mov    0xc(%ebx),%ebx
 804bbfd:	85 db                	test   %ebx,%ebx
 804bbff:	0f 85 c4 f9 ff ff    	jne    804b5c9 <exit@plt+0x275d>
 804bc05:	8b 54 24 64          	mov    0x64(%esp),%edx
 804bc09:	85 d2                	test   %edx,%edx
 804bc0b:	0f 84 64 09 00 00    	je     804c575 <exit@plt+0x3709>
 804bc11:	8b 5c 24 64          	mov    0x64(%esp),%ebx
 804bc15:	eb 44                	jmp    804bc5b <exit@plt+0x2def>
 804bc17:	90                   	nop
 804bc18:	85 f6                	test   %esi,%esi
 804bc1a:	74 13                	je     804bc2f <exit@plt+0x2dc3>
 804bc1c:	8b 06                	mov    (%esi),%eax
 804bc1e:	8b 56 04             	mov    0x4(%esi),%edx
 804bc21:	33 53 08             	xor    0x8(%ebx),%edx
 804bc24:	33 43 04             	xor    0x4(%ebx),%eax
 804bc27:	09 c2                	or     %eax,%edx
 804bc29:	0f 84 e1 08 00 00    	je     804c510 <exit@plt+0x36a4>
 804bc2f:	8b 44 24 7c          	mov    0x7c(%esp),%eax
 804bc33:	85 c0                	test   %eax,%eax
 804bc35:	74 19                	je     804bc50 <exit@plt+0x2de4>
 804bc37:	8b 54 24 7c          	mov    0x7c(%esp),%edx
 804bc3b:	8b 02                	mov    (%edx),%eax
 804bc3d:	89 d1                	mov    %edx,%ecx
 804bc3f:	8b 52 04             	mov    0x4(%edx),%edx
 804bc42:	33 53 08             	xor    0x8(%ebx),%edx
 804bc45:	33 43 04             	xor    0x4(%ebx),%eax
 804bc48:	09 c2                	or     %eax,%edx
 804bc4a:	0f 84 f0 08 00 00    	je     804c540 <exit@plt+0x36d4>
 804bc50:	8b 5b 14             	mov    0x14(%ebx),%ebx
 804bc53:	85 db                	test   %ebx,%ebx
 804bc55:	0f 84 1a 09 00 00    	je     804c575 <exit@plt+0x3709>
 804bc5b:	85 ff                	test   %edi,%edi
 804bc5d:	74 b9                	je     804bc18 <exit@plt+0x2dac>
 804bc5f:	8b 07                	mov    (%edi),%eax
 804bc61:	8b 57 04             	mov    0x4(%edi),%edx
 804bc64:	33 53 08             	xor    0x8(%ebx),%edx
 804bc67:	33 43 04             	xor    0x4(%ebx),%eax
 804bc6a:	09 c2                	or     %eax,%edx
 804bc6c:	75 aa                	jne    804bc18 <exit@plt+0x2dac>
 804bc6e:	8b 47 58             	mov    0x58(%edi),%eax
 804bc71:	8b 57 5c             	mov    0x5c(%edi),%edx
 804bc74:	33 53 10             	xor    0x10(%ebx),%edx
 804bc77:	33 43 0c             	xor    0xc(%ebx),%eax
 804bc7a:	09 c2                	or     %eax,%edx
 804bc7c:	75 9a                	jne    804bc18 <exit@plt+0x2dac>
 804bc7e:	c7 04 24 02 00 00 00 	movl   $0x2,(%esp)
 804bc85:	8b 4c 24 6c          	mov    0x6c(%esp),%ecx
 804bc89:	8b 54 24 74          	mov    0x74(%esp),%edx
 804bc8d:	8b 03                	mov    (%ebx),%eax
 804bc8f:	e8 ec db ff ff       	call   8049880 <exit@plt+0xa14>
 804bc94:	eb 82                	jmp    804bc18 <exit@plt+0x2dac>
 804bc96:	8b 44 24 70          	mov    0x70(%esp),%eax
 804bc9a:	89 04 24             	mov    %eax,(%esp)
 804bc9d:	e8 ea d0 ff ff       	call   8048d8c <closedir@plt>
 804bca2:	8b 8c 24 88 01 00 00 	mov    0x188(%esp),%ecx
 804bca9:	8b 94 24 6c 01 00 00 	mov    0x16c(%esp),%edx
 804bcb0:	8b 44 24 68          	mov    0x68(%esp),%eax
 804bcb4:	e8 f7 ef ff ff       	call   804acb0 <exit@plt+0x1e44>
 804bcb9:	8b 8c 24 88 01 00 00 	mov    0x188(%esp),%ecx
 804bcc0:	8b 94 24 6c 01 00 00 	mov    0x16c(%esp),%edx
 804bcc7:	8b 44 24 68          	mov    0x68(%esp),%eax
 804bccb:	e8 20 f3 ff ff       	call   804aff0 <exit@plt+0x2184>
 804bcd0:	8b 44 24 68          	mov    0x68(%esp),%eax
 804bcd4:	8b 8c 24 88 01 00 00 	mov    0x188(%esp),%ecx
 804bcdb:	8b 94 24 6c 01 00 00 	mov    0x16c(%esp),%edx
 804bce2:	e8 69 f1 ff ff       	call   804ae50 <exit@plt+0x1fe4>
 804bce7:	8b 7c 24 68          	mov    0x68(%esp),%edi
 804bceb:	b8 01 00 00 00       	mov    $0x1,%eax
 804bcf0:	85 ff                	test   %edi,%edi
 804bcf2:	0f 84 64 fe ff ff    	je     804bb5c <exit@plt+0x2cf0>
 804bcf8:	0f b6 54 24 78       	movzbl 0x78(%esp),%edx
 804bcfd:	31 ff                	xor    %edi,%edi
 804bcff:	c7 44 24 6c 00 00 00 	movl   $0x0,0x6c(%esp)
 804bd06:	00 
 804bd07:	c7 44 24 48 00 00 00 	movl   $0x0,0x48(%esp)
 804bd0e:	00 
 804bd0f:	c7 44 24 70 00 00 00 	movl   $0x0,0x70(%esp)
 804bd16:	00 
 804bd17:	89 54 24 64          	mov    %edx,0x64(%esp)
 804bd1b:	8b 4c 24 64          	mov    0x64(%esp),%ecx
 804bd1f:	83 e2 20             	and    $0x20,%edx
 804bd22:	89 54 24 60          	mov    %edx,0x60(%esp)
 804bd26:	8b 44 24 64          	mov    0x64(%esp),%eax
 804bd2a:	8b 54 24 64          	mov    0x64(%esp),%edx
 804bd2e:	c6 44 24 43 00       	movb   $0x0,0x43(%esp)
 804bd33:	83 e1 08             	and    $0x8,%ecx
 804bd36:	89 4c 24 5c          	mov    %ecx,0x5c(%esp)
 804bd3a:	8b 4c 24 64          	mov    0x64(%esp),%ecx
 804bd3e:	83 e0 02             	and    $0x2,%eax
 804bd41:	83 e2 41             	and    $0x41,%edx
 804bd44:	89 44 24 58          	mov    %eax,0x58(%esp)
 804bd48:	89 54 24 7c          	mov    %edx,0x7c(%esp)
 804bd4c:	83 e1 40             	and    $0x40,%ecx
 804bd4f:	89 4c 24 74          	mov    %ecx,0x74(%esp)
 804bd53:	eb 35                	jmp    804bd8a <exit@plt+0x2f1e>
 804bd55:	8d 76 00             	lea    0x0(%esi),%esi
 804bd58:	8b 44 24 68          	mov    0x68(%esp),%eax
 804bd5c:	8b 58 68             	mov    0x68(%eax),%ebx
 804bd5f:	85 db                	test   %ebx,%ebx
 804bd61:	74 08                	je     804bd6b <exit@plt+0x2eff>
 804bd63:	c7 44 24 70 01 00 00 	movl   $0x1,0x70(%esp)
 804bd6a:	00 
 804bd6b:	8b 4c 24 5c          	mov    0x5c(%esp),%ecx
 804bd6f:	85 c9                	test   %ecx,%ecx
 804bd71:	0f 85 49 03 00 00    	jne    804c0c0 <exit@plt+0x3254>
 804bd77:	8b 4c 24 68          	mov    0x68(%esp),%ecx
 804bd7b:	8b 49 6c             	mov    0x6c(%ecx),%ecx
 804bd7e:	85 c9                	test   %ecx,%ecx
 804bd80:	89 4c 24 68          	mov    %ecx,0x68(%esp)
 804bd84:	0f 84 92 04 00 00    	je     804c21c <exit@plt+0x33b0>
 804bd8a:	8b 74 24 60          	mov    0x60(%esp),%esi
 804bd8e:	85 f6                	test   %esi,%esi
 804bd90:	75 c6                	jne    804bd58 <exit@plt+0x2eec>
 804bd92:	8b 4c 24 58          	mov    0x58(%esp),%ecx
 804bd96:	85 c9                	test   %ecx,%ecx
 804bd98:	0f 85 a2 06 00 00    	jne    804c440 <exit@plt+0x35d4>
 804bd9e:	f6 44 24 64 01       	testb  $0x1,0x64(%esp)
 804bda3:	0f 84 ac 06 00 00    	je     804c455 <exit@plt+0x35e9>
 804bda9:	8b 54 24 68          	mov    0x68(%esp),%edx
 804bdad:	b8 01 00 00 00       	mov    $0x1,%eax
 804bdb2:	be 01 00 00 00       	mov    $0x1,%esi
 804bdb7:	c7 44 24 48 01 00 00 	movl   $0x1,0x48(%esp)
 804bdbe:	00 
 804bdbf:	8b 52 68             	mov    0x68(%edx),%edx
 804bdc2:	85 d2                	test   %edx,%edx
 804bdc4:	0f 84 8d 09 00 00    	je     804c757 <exit@plt+0x38eb>
 804bdca:	80 7c 24 43 00       	cmpb   $0x0,0x43(%esp)
 804bdcf:	75 08                	jne    804bdd9 <exit@plt+0x2f6d>
 804bdd1:	85 c0                	test   %eax,%eax
 804bdd3:	0f 85 7c 08 00 00    	jne    804c655 <exit@plt+0x37e9>
 804bdd9:	8b 54 24 68          	mov    0x68(%esp),%edx
 804bddd:	8b 02                	mov    (%edx),%eax
 804bddf:	c7 44 24 08 06 cd 04 	movl   $0x804cd06,0x8(%esp)
 804bde6:	08 
 804bde7:	c7 44 24 04 01 00 00 	movl   $0x1,0x4(%esp)
 804bdee:	00 
 804bdef:	89 44 24 0c          	mov    %eax,0xc(%esp)
 804bdf3:	a1 10 f2 04 08       	mov    0x804f210,%eax
 804bdf8:	89 04 24             	mov    %eax,(%esp)
 804bdfb:	e8 dc cd ff ff       	call   8048bdc <__fprintf_chk@plt>
 804be00:	8b 4c 24 68          	mov    0x68(%esp),%ecx
 804be04:	8b 01                	mov    (%ecx),%eax
 804be06:	89 04 24             	mov    %eax,(%esp)
 804be09:	e8 2e cf ff ff       	call   8048d3c <strlen@plt>
 804be0e:	8b 74 24 64          	mov    0x64(%esp),%esi
 804be12:	83 e6 01             	and    $0x1,%esi
 804be15:	83 c0 01             	add    $0x1,%eax
 804be18:	89 44 24 6c          	mov    %eax,0x6c(%esp)
 804be1c:	8b 44 24 68          	mov    0x68(%esp),%eax
 804be20:	8b 58 68             	mov    0x68(%eax),%ebx
 804be23:	85 db                	test   %ebx,%ebx
 804be25:	0f 84 4c 02 00 00    	je     804c077 <exit@plt+0x320b>
 804be2b:	8b 4c 24 6c          	mov    0x6c(%esp),%ecx
 804be2f:	ba 01 00 00 00       	mov    $0x1,%edx
 804be34:	8b 44 24 70          	mov    0x70(%esp),%eax
 804be38:	85 f6                	test   %esi,%esi
 804be3a:	75 0a                	jne    804be46 <exit@plt+0x2fda>
 804be3c:	80 7b 09 00          	cmpb   $0x0,0x9(%ebx)
 804be40:	0f 85 1e 02 00 00    	jne    804c064 <exit@plt+0x31f8>
 804be46:	8b 44 24 7c          	mov    0x7c(%esp),%eax
 804be4a:	85 c0                	test   %eax,%eax
 804be4c:	74 2b                	je     804be79 <exit@plt+0x300d>
 804be4e:	85 ff                	test   %edi,%edi
 804be50:	0f 84 f6 05 00 00    	je     804c44c <exit@plt+0x35e0>
 804be56:	8b 43 04             	mov    0x4(%ebx),%eax
 804be59:	39 47 08             	cmp    %eax,0x8(%edi)
 804be5c:	74 1b                	je     804be79 <exit@plt+0x300d>
 804be5e:	88 54 24 3c          	mov    %dl,0x3c(%esp)
 804be62:	89 4c 24 38          	mov    %ecx,0x38(%esp)
 804be66:	89 04 24             	mov    %eax,(%esp)
 804be69:	e8 de ce ff ff       	call   8048d4c <getpwuid@plt>
 804be6e:	8b 4c 24 38          	mov    0x38(%esp),%ecx
 804be72:	0f b6 54 24 3c       	movzbl 0x3c(%esp),%edx
 804be77:	89 c7                	mov    %eax,%edi
 804be79:	83 f9 14             	cmp    $0x14,%ecx
 804be7c:	7e 08                	jle    804be86 <exit@plt+0x301a>
 804be7e:	85 f6                	test   %esi,%esi
 804be80:	0f 85 62 04 00 00    	jne    804c2e8 <exit@plt+0x347c>
 804be86:	84 d2                	test   %dl,%dl
 804be88:	75 08                	jne    804be92 <exit@plt+0x3026>
 804be8a:	85 f6                	test   %esi,%esi
 804be8c:	8d 74 26 00          	lea    0x0(%esi,%eiz,1),%esi
 804be90:	74 60                	je     804bef2 <exit@plt+0x3086>
 804be92:	83 f9 13             	cmp    $0x13,%ecx
 804be95:	7f 2c                	jg     804bec3 <exit@plt+0x3057>
 804be97:	89 7c 24 78          	mov    %edi,0x78(%esp)
 804be9b:	89 df                	mov    %ebx,%edi
 804be9d:	89 cb                	mov    %ecx,%ebx
 804be9f:	90                   	nop
 804bea0:	a1 10 f2 04 08       	mov    0x804f210,%eax
 804bea5:	83 c3 01             	add    $0x1,%ebx
 804bea8:	c7 04 24 20 00 00 00 	movl   $0x20,(%esp)
 804beaf:	89 44 24 04          	mov    %eax,0x4(%esp)
 804beb3:	e8 74 cf ff ff       	call   8048e2c <_IO_putc@plt>
 804beb8:	83 fb 13             	cmp    $0x13,%ebx
 804bebb:	7e e3                	jle    804bea0 <exit@plt+0x3034>
 804bebd:	89 fb                	mov    %edi,%ebx
 804bebf:	8b 7c 24 78          	mov    0x78(%esp),%edi
 804bec3:	85 f6                	test   %esi,%esi
 804bec5:	74 2b                	je     804bef2 <exit@plt+0x3086>
 804bec7:	85 ff                	test   %edi,%edi
 804bec9:	0f 84 b9 04 00 00    	je     804c388 <exit@plt+0x351c>
 804becf:	8b 07                	mov    (%edi),%eax
 804bed1:	89 44 24 0c          	mov    %eax,0xc(%esp)
 804bed5:	a1 10 f2 04 08       	mov    0x804f210,%eax
 804beda:	c7 44 24 08 14 cd 04 	movl   $0x804cd14,0x8(%esp)
 804bee1:	08 
 804bee2:	c7 44 24 04 01 00 00 	movl   $0x1,0x4(%esp)
 804bee9:	00 
 804beea:	89 04 24             	mov    %eax,(%esp)
 804beed:	e8 ea cc ff ff       	call   8048bdc <__fprintf_chk@plt>
 804bef2:	80 7b 09 00          	cmpb   $0x0,0x9(%ebx)
 804bef6:	0f 85 6c 03 00 00    	jne    804c268 <exit@plt+0x33fc>
 804befc:	8b 03                	mov    (%ebx),%eax
 804befe:	c7 44 24 04 1b cd 04 	movl   $0x804cd1b,0x4(%esp)
 804bf05:	08 
 804bf06:	c7 04 24 01 00 00 00 	movl   $0x1,(%esp)
 804bf0d:	89 44 24 08          	mov    %eax,0x8(%esp)
 804bf11:	e8 06 cd ff ff       	call   8048c1c <__printf_chk@plt>
 804bf16:	a1 20 f2 04 08       	mov    0x804f220,%eax
 804bf1b:	89 04 24             	mov    %eax,(%esp)
 804bf1e:	e8 a9 cd ff ff       	call   8048ccc <fflush@plt>
 804bf23:	85 f6                	test   %esi,%esi
 804bf25:	0f 84 05 03 00 00    	je     804c230 <exit@plt+0x33c4>
 804bf2b:	0f b6 43 09          	movzbl 0x9(%ebx),%eax
 804bf2f:	3c 02                	cmp    $0x2,%al
 804bf31:	0f 84 01 04 00 00    	je     804c338 <exit@plt+0x34cc>
 804bf37:	3c 03                	cmp    $0x3,%al
 804bf39:	0f 84 d1 03 00 00    	je     804c310 <exit@plt+0x34a4>
 804bf3f:	3c 01                	cmp    $0x1,%al
 804bf41:	0f 84 19 04 00 00    	je     804c360 <exit@plt+0x34f4>
 804bf47:	0f be 53 08          	movsbl 0x8(%ebx),%edx
 804bf4b:	89 d0                	mov    %edx,%eax
 804bf4d:	89 d1                	mov    %edx,%ecx
 804bf4f:	83 e0 12             	and    $0x12,%eax
 804bf52:	83 f8 10             	cmp    $0x10,%eax
 804bf55:	0f 94 c0             	sete   %al
 804bf58:	83 e1 02             	and    $0x2,%ecx
 804bf5b:	0f b6 c0             	movzbl %al,%eax
 804bf5e:	83 e8 01             	sub    $0x1,%eax
 804bf61:	83 e0 c1             	and    $0xffffffc1,%eax
 804bf64:	83 c0 6d             	add    $0x6d,%eax
 804bf67:	83 f9 01             	cmp    $0x1,%ecx
 804bf6a:	19 c9                	sbb    %ecx,%ecx
 804bf6c:	83 e1 c9             	and    $0xffffffc9,%ecx
 804bf6f:	83 c1 65             	add    $0x65,%ecx
 804bf72:	89 4c 24 78          	mov    %ecx,0x78(%esp)
 804bf76:	89 d1                	mov    %edx,%ecx
 804bf78:	83 e1 01             	and    $0x1,%ecx
 804bf7b:	83 f9 01             	cmp    $0x1,%ecx
 804bf7e:	19 c9                	sbb    %ecx,%ecx
 804bf80:	83 e1 cb             	and    $0xffffffcb,%ecx
 804bf83:	83 c1 63             	add    $0x63,%ecx
 804bf86:	89 4c 24 70          	mov    %ecx,0x70(%esp)
 804bf8a:	89 d1                	mov    %edx,%ecx
 804bf8c:	83 e1 08             	and    $0x8,%ecx
 804bf8f:	83 f9 01             	cmp    $0x1,%ecx
 804bf92:	19 c9                	sbb    %ecx,%ecx
 804bf94:	83 e1 bc             	and    $0xffffffbc,%ecx
 804bf97:	83 c1 72             	add    $0x72,%ecx
 804bf9a:	f6 c2 04             	test   $0x4,%dl
 804bf9d:	89 4c 24 6c          	mov    %ecx,0x6c(%esp)
 804bfa1:	b9 2e 00 00 00       	mov    $0x2e,%ecx
 804bfa6:	74 0e                	je     804bfb6 <exit@plt+0x314a>
 804bfa8:	83 e2 20             	and    $0x20,%edx
 804bfab:	83 fa 01             	cmp    $0x1,%edx
 804bfae:	19 c9                	sbb    %ecx,%ecx
 804bfb0:	83 e1 20             	and    $0x20,%ecx
 804bfb3:	83 c1 46             	add    $0x46,%ecx
 804bfb6:	89 44 24 1c          	mov    %eax,0x1c(%esp)
 804bfba:	8b 44 24 78          	mov    0x78(%esp),%eax
 804bfbe:	8b 54 24 70          	mov    0x70(%esp),%edx
 804bfc2:	89 4c 24 0c          	mov    %ecx,0xc(%esp)
 804bfc6:	c7 44 24 08 3e cd 04 	movl   $0x804cd3e,0x8(%esp)
 804bfcd:	08 
 804bfce:	89 44 24 18          	mov    %eax,0x18(%esp)
 804bfd2:	8b 44 24 6c          	mov    0x6c(%esp),%eax
 804bfd6:	89 54 24 14          	mov    %edx,0x14(%esp)
 804bfda:	c7 44 24 04 01 00 00 	movl   $0x1,0x4(%esp)
 804bfe1:	00 
 804bfe2:	89 44 24 10          	mov    %eax,0x10(%esp)
 804bfe6:	a1 10 f2 04 08       	mov    0x804f210,%eax
 804bfeb:	89 04 24             	mov    %eax,(%esp)
 804bfee:	e8 e9 cb ff ff       	call   8048bdc <__fprintf_chk@plt>
 804bff3:	90                   	nop
 804bff4:	8d 74 26 00          	lea    0x0(%esi,%eiz,1),%esi
 804bff8:	8b 54 24 74          	mov    0x74(%esp),%edx
 804bffc:	85 d2                	test   %edx,%edx
 804bffe:	74 2b                	je     804c02b <exit@plt+0x31bf>
 804c000:	85 ff                	test   %edi,%edi
 804c002:	0f 84 a8 03 00 00    	je     804c3b0 <exit@plt+0x3544>
 804c008:	8b 07                	mov    (%edi),%eax
 804c00a:	c7 44 24 08 4b cd 04 	movl   $0x804cd4b,0x8(%esp)
 804c011:	08 
 804c012:	c7 44 24 04 01 00 00 	movl   $0x1,0x4(%esp)
 804c019:	00 
 804c01a:	89 44 24 0c          	mov    %eax,0xc(%esp)
 804c01e:	a1 10 f2 04 08       	mov    0x804f210,%eax
 804c023:	89 04 24             	mov    %eax,(%esp)
 804c026:	e8 b1 cb ff ff       	call   8048bdc <__fprintf_chk@plt>
 804c02b:	85 f6                	test   %esi,%esi
 804c02d:	74 2c                	je     804c05b <exit@plt+0x31ef>
 804c02f:	8b 43 10             	mov    0x10(%ebx),%eax
 804c032:	85 c0                	test   %eax,%eax
 804c034:	0f 84 be 03 00 00    	je     804c3f8 <exit@plt+0x358c>
 804c03a:	89 44 24 0c          	mov    %eax,0xc(%esp)
 804c03e:	a1 10 f2 04 08       	mov    0x804f210,%eax
 804c043:	c7 44 24 08 57 cb 04 	movl   $0x804cb57,0x8(%esp)
 804c04a:	08 
 804c04b:	c7 44 24 04 01 00 00 	movl   $0x1,0x4(%esp)
 804c052:	00 
 804c053:	89 04 24             	mov    %eax,(%esp)
 804c056:	e8 81 cb ff ff       	call   8048bdc <__fprintf_chk@plt>
 804c05b:	b8 01 00 00 00       	mov    $0x1,%eax
 804c060:	31 c9                	xor    %ecx,%ecx
 804c062:	31 d2                	xor    %edx,%edx
 804c064:	8b 5b 14             	mov    0x14(%ebx),%ebx
 804c067:	85 db                	test   %ebx,%ebx
 804c069:	0f 85 c9 fd ff ff    	jne    804be38 <exit@plt+0x2fcc>
 804c06f:	89 4c 24 6c          	mov    %ecx,0x6c(%esp)
 804c073:	89 44 24 70          	mov    %eax,0x70(%esp)
 804c077:	85 f6                	test   %esi,%esi
 804c079:	0f 84 a9 03 00 00    	je     804c428 <exit@plt+0x35bc>
 804c07f:	8b 54 24 68          	mov    0x68(%esp),%edx
 804c083:	8b 42 68             	mov    0x68(%edx),%eax
 804c086:	85 c0                	test   %eax,%eax
 804c088:	0f 85 dd fc ff ff    	jne    804bd6b <exit@plt+0x2eff>
 804c08e:	66 90                	xchg   %ax,%ax
 804c090:	8b 5c 24 58          	mov    0x58(%esp),%ebx
 804c094:	85 db                	test   %ebx,%ebx
 804c096:	0f 84 cf fc ff ff    	je     804bd6b <exit@plt+0x2eff>
 804c09c:	a1 10 f2 04 08       	mov    0x804f210,%eax
 804c0a1:	c7 04 24 0a 00 00 00 	movl   $0xa,(%esp)
 804c0a8:	89 44 24 04          	mov    %eax,0x4(%esp)
 804c0ac:	e8 7b cd ff ff       	call   8048e2c <_IO_putc@plt>
 804c0b1:	8b 4c 24 5c          	mov    0x5c(%esp),%ecx
 804c0b5:	85 c9                	test   %ecx,%ecx
 804c0b7:	0f 84 ba fc ff ff    	je     804bd77 <exit@plt+0x2f0b>
 804c0bd:	8d 76 00             	lea    0x0(%esi),%esi
 804c0c0:	8b 4c 24 68          	mov    0x68(%esp),%ecx
 804c0c4:	8b 59 68             	mov    0x68(%ecx),%ebx
 804c0c7:	e8 e0 ca ff ff       	call   8048bac <getpid@plt>
 804c0cc:	85 db                	test   %ebx,%ebx
 804c0ce:	0f 84 a3 fc ff ff    	je     804bd77 <exit@plt+0x2f0b>
 804c0d4:	8b 54 24 64          	mov    0x64(%esp),%edx
 804c0d8:	89 7c 24 44          	mov    %edi,0x44(%esp)
 804c0dc:	89 c7                	mov    %eax,%edi
 804c0de:	83 e2 10             	and    $0x10,%edx
 804c0e1:	89 54 24 78          	mov    %edx,0x78(%esp)
 804c0e5:	8d 76 00             	lea    0x0(%esi),%esi
 804c0e8:	8b 33                	mov    (%ebx),%esi
 804c0ea:	39 f7                	cmp    %esi,%edi
 804c0ec:	0f 84 08 01 00 00    	je     804c1fa <exit@plt+0x338e>
 804c0f2:	80 7b 09 00          	cmpb   $0x0,0x9(%ebx)
 804c0f6:	0f 85 fe 00 00 00    	jne    804c1fa <exit@plt+0x338e>
 804c0fc:	8b 54 24 78          	mov    0x78(%esp),%edx
 804c100:	85 d2                	test   %edx,%edx
 804c102:	0f 84 da 00 00 00    	je     804c1e2 <exit@plt+0x3376>
 804c108:	a1 20 f2 04 08       	mov    0x804f220,%eax
 804c10d:	c7 84 24 68 01 00 00 	movl   $0x0,0x168(%esp)
 804c114:	00 00 00 00 
 804c118:	c7 84 24 64 01 00 00 	movl   $0x0,0x164(%esp)
 804c11f:	00 00 00 00 
 804c123:	89 04 24             	mov    %eax,(%esp)
 804c126:	e8 a1 cb ff ff       	call   8048ccc <fflush@plt>
 804c12b:	90                   	nop
 804c12c:	8d 74 26 00          	lea    0x0(%esi,%eiz,1),%esi
 804c130:	c7 44 24 08 05 00 00 	movl   $0x5,0x8(%esp)
 804c137:	00 
 804c138:	c7 44 24 04 55 cd 04 	movl   $0x804cd55,0x4(%esp)
 804c13f:	08 
 804c140:	c7 04 24 00 00 00 00 	movl   $0x0,(%esp)
 804c147:	e8 60 cb ff ff       	call   8048cac <dcgettext@plt>
 804c14c:	89 74 24 0c          	mov    %esi,0xc(%esp)
 804c150:	c7 44 24 04 01 00 00 	movl   $0x1,0x4(%esp)
 804c157:	00 
 804c158:	89 44 24 08          	mov    %eax,0x8(%esp)
 804c15c:	a1 10 f2 04 08       	mov    0x804f210,%eax
 804c161:	89 04 24             	mov    %eax,(%esp)
 804c164:	e8 73 ca ff ff       	call   8048bdc <__fprintf_chk@plt>
 804c169:	a1 10 f2 04 08       	mov    0x804f210,%eax
 804c16e:	89 04 24             	mov    %eax,(%esp)
 804c171:	e8 56 cb ff ff       	call   8048ccc <fflush@plt>
 804c176:	a1 14 f2 04 08       	mov    0x804f214,%eax
 804c17b:	8d 8c 24 68 01 00 00 	lea    0x168(%esp),%ecx
 804c182:	c7 44 24 08 0a 00 00 	movl   $0xa,0x8(%esp)
 804c189:	00 
 804c18a:	89 4c 24 04          	mov    %ecx,0x4(%esp)
 804c18e:	89 44 24 0c          	mov    %eax,0xc(%esp)
 804c192:	8d 84 24 64 01 00 00 	lea    0x164(%esp),%eax
 804c199:	89 04 24             	mov    %eax,(%esp)
 804c19c:	e8 5b ca ff ff       	call   8048bfc <__getdelim@plt>
 804c1a1:	85 c0                	test   %eax,%eax
 804c1a3:	78 55                	js     804c1fa <exit@plt+0x338e>
 804c1a5:	8b 84 24 64 01 00 00 	mov    0x164(%esp),%eax
 804c1ac:	80 38 0a             	cmpb   $0xa,(%eax)
 804c1af:	0f 84 49 03 00 00    	je     804c4fe <exit@plt+0x3692>
 804c1b5:	89 04 24             	mov    %eax,(%esp)
 804c1b8:	e8 bf cb ff ff       	call   8048d7c <rpmatch@plt>
 804c1bd:	85 c0                	test   %eax,%eax
 804c1bf:	0f 88 6b ff ff ff    	js     804c130 <exit@plt+0x32c4>
 804c1c5:	8b 94 24 64 01 00 00 	mov    0x164(%esp),%edx
 804c1cc:	89 44 24 3c          	mov    %eax,0x3c(%esp)
 804c1d0:	89 14 24             	mov    %edx,(%esp)
 804c1d3:	e8 b4 ca ff ff       	call   8048c8c <free@plt>
 804c1d8:	8b 44 24 3c          	mov    0x3c(%esp),%eax
 804c1dc:	85 c0                	test   %eax,%eax
 804c1de:	74 1a                	je     804c1fa <exit@plt+0x338e>
 804c1e0:	8b 33                	mov    (%ebx),%esi
 804c1e2:	8b 54 24 54          	mov    0x54(%esp),%edx
 804c1e6:	89 34 24             	mov    %esi,(%esp)
 804c1e9:	89 54 24 04          	mov    %edx,0x4(%esp)
 804c1ed:	e8 4a cc ff ff       	call   8048e3c <kill@plt>
 804c1f2:	85 c0                	test   %eax,%eax
 804c1f4:	0f 88 a7 02 00 00    	js     804c4a1 <exit@plt+0x3635>
 804c1fa:	8b 5b 14             	mov    0x14(%ebx),%ebx
 804c1fd:	85 db                	test   %ebx,%ebx
 804c1ff:	0f 85 e3 fe ff ff    	jne    804c0e8 <exit@plt+0x327c>
 804c205:	8b 4c 24 68          	mov    0x68(%esp),%ecx
 804c209:	8b 7c 24 44          	mov    0x44(%esp),%edi
 804c20d:	8b 49 6c             	mov    0x6c(%ecx),%ecx
 804c210:	85 c9                	test   %ecx,%ecx
 804c212:	89 4c 24 68          	mov    %ecx,0x68(%esp)
 804c216:	0f 85 6e fb ff ff    	jne    804bd8a <exit@plt+0x2f1e>
 804c21c:	31 c0                	xor    %eax,%eax
 804c21e:	83 7c 24 70 01       	cmpl   $0x1,0x70(%esp)
 804c223:	0f 95 c0             	setne  %al
 804c226:	e9 31 f9 ff ff       	jmp    804bb5c <exit@plt+0x2cf0>
 804c22b:	90                   	nop
 804c22c:	8d 74 26 00          	lea    0x0(%esi,%eiz,1),%esi
 804c230:	0f be 43 08          	movsbl 0x8(%ebx),%eax
 804c234:	a8 08                	test   $0x8,%al
 804c236:	0f 85 8c 00 00 00    	jne    804c2c8 <exit@plt+0x345c>
 804c23c:	a8 01                	test   $0x1,%al
 804c23e:	75 68                	jne    804c2a8 <exit@plt+0x343c>
 804c240:	a8 02                	test   $0x2,%al
 804c242:	75 44                	jne    804c288 <exit@plt+0x341c>
 804c244:	a8 10                	test   $0x10,%al
 804c246:	0f 84 ac fd ff ff    	je     804bff8 <exit@plt+0x318c>
 804c24c:	a1 10 f2 04 08       	mov    0x804f210,%eax
 804c251:	c7 04 24 6d 00 00 00 	movl   $0x6d,(%esp)
 804c258:	89 44 24 04          	mov    %eax,0x4(%esp)
 804c25c:	e8 cb cb ff ff       	call   8048e2c <_IO_putc@plt>
 804c261:	e9 92 fd ff ff       	jmp    804bff8 <exit@plt+0x318c>
 804c266:	66 90                	xchg   %ax,%ax
 804c268:	c7 44 24 04 1f cd 04 	movl   $0x804cd1f,0x4(%esp)
 804c26f:	08 
 804c270:	c7 04 24 01 00 00 00 	movl   $0x1,(%esp)
 804c277:	e8 a0 c9 ff ff       	call   8048c1c <__printf_chk@plt>
 804c27c:	e9 95 fc ff ff       	jmp    804bf16 <exit@plt+0x30aa>
 804c281:	8d b4 26 00 00 00 00 	lea    0x0(%esi,%eiz,1),%esi
 804c288:	a1 10 f2 04 08       	mov    0x804f210,%eax
 804c28d:	c7 04 24 65 00 00 00 	movl   $0x65,(%esp)
 804c294:	89 44 24 04          	mov    %eax,0x4(%esp)
 804c298:	e8 8f cb ff ff       	call   8048e2c <_IO_putc@plt>
 804c29d:	e9 56 fd ff ff       	jmp    804bff8 <exit@plt+0x318c>
 804c2a2:	8d b6 00 00 00 00    	lea    0x0(%esi),%esi
 804c2a8:	a1 10 f2 04 08       	mov    0x804f210,%eax
 804c2ad:	c7 04 24 63 00 00 00 	movl   $0x63,(%esp)
 804c2b4:	89 44 24 04          	mov    %eax,0x4(%esp)
 804c2b8:	e8 6f cb ff ff       	call   8048e2c <_IO_putc@plt>
 804c2bd:	0f be 43 08          	movsbl 0x8(%ebx),%eax
 804c2c1:	e9 7a ff ff ff       	jmp    804c240 <exit@plt+0x33d4>
 804c2c6:	66 90                	xchg   %ax,%ax
 804c2c8:	a1 10 f2 04 08       	mov    0x804f210,%eax
 804c2cd:	c7 04 24 72 00 00 00 	movl   $0x72,(%esp)
 804c2d4:	89 44 24 04          	mov    %eax,0x4(%esp)
 804c2d8:	e8 4f cb ff ff       	call   8048e2c <_IO_putc@plt>
 804c2dd:	0f be 43 08          	movsbl 0x8(%ebx),%eax
 804c2e1:	e9 56 ff ff ff       	jmp    804c23c <exit@plt+0x33d0>
 804c2e6:	66 90                	xchg   %ax,%ax
 804c2e8:	a1 10 f2 04 08       	mov    0x804f210,%eax
 804c2ed:	88 54 24 3c          	mov    %dl,0x3c(%esp)
 804c2f1:	c7 04 24 0a 00 00 00 	movl   $0xa,(%esp)
 804c2f8:	89 44 24 04          	mov    %eax,0x4(%esp)
 804c2fc:	e8 2b cb ff ff       	call   8048e2c <_IO_putc@plt>
 804c301:	31 c9                	xor    %ecx,%ecx
 804c303:	0f b6 54 24 3c       	movzbl 0x3c(%esp),%edx
 804c308:	e9 79 fb ff ff       	jmp    804be86 <exit@plt+0x301a>
 804c30d:	8d 76 00             	lea    0x0(%esi),%esi
 804c310:	a1 10 f2 04 08       	mov    0x804f210,%eax
 804c315:	c7 44 24 08 36 cd 04 	movl   $0x804cd36,0x8(%esp)
 804c31c:	08 
 804c31d:	c7 44 24 04 01 00 00 	movl   $0x1,0x4(%esp)
 804c324:	00 
 804c325:	89 04 24             	mov    %eax,(%esp)
 804c328:	e8 af c8 ff ff       	call   8048bdc <__fprintf_chk@plt>
 804c32d:	e9 c6 fc ff ff       	jmp    804bff8 <exit@plt+0x318c>
 804c332:	8d b6 00 00 00 00    	lea    0x0(%esi),%esi
 804c338:	a1 10 f2 04 08       	mov    0x804f210,%eax
 804c33d:	c7 44 24 08 26 cd 04 	movl   $0x804cd26,0x8(%esp)
 804c344:	08 
 804c345:	c7 44 24 04 01 00 00 	movl   $0x1,0x4(%esp)
 804c34c:	00 
 804c34d:	89 04 24             	mov    %eax,(%esp)
 804c350:	e8 87 c8 ff ff       	call   8048bdc <__fprintf_chk@plt>
 804c355:	e9 9e fc ff ff       	jmp    804bff8 <exit@plt+0x318c>
 804c35a:	8d b6 00 00 00 00    	lea    0x0(%esi),%esi
 804c360:	a1 10 f2 04 08       	mov    0x804f210,%eax
 804c365:	c7 44 24 08 2e cd 04 	movl   $0x804cd2e,0x8(%esp)
 804c36c:	08 
 804c36d:	c7 44 24 04 01 00 00 	movl   $0x1,0x4(%esp)
 804c374:	00 
 804c375:	89 04 24             	mov    %eax,(%esp)
 804c378:	e8 5f c8 ff ff       	call   8048bdc <__fprintf_chk@plt>
 804c37d:	e9 76 fc ff ff       	jmp    804bff8 <exit@plt+0x318c>
 804c382:	8d b6 00 00 00 00    	lea    0x0(%esi),%esi
 804c388:	c7 44 24 08 05 00 00 	movl   $0x5,0x8(%esp)
 804c38f:	00 
 804c390:	c7 44 24 04 0a cd 04 	movl   $0x804cd0a,0x4(%esp)
 804c397:	08 
 804c398:	c7 04 24 00 00 00 00 	movl   $0x0,(%esp)
 804c39f:	e8 08 c9 ff ff       	call   8048cac <dcgettext@plt>
 804c3a4:	e9 28 fb ff ff       	jmp    804bed1 <exit@plt+0x3065>
 804c3a9:	8d b4 26 00 00 00 00 	lea    0x0(%esi,%eiz,1),%esi
 804c3b0:	c7 44 24 08 05 00 00 	movl   $0x5,0x8(%esp)
 804c3b7:	00 
 804c3b8:	c7 44 24 04 0a cd 04 	movl   $0x804cd0a,0x4(%esp)
 804c3bf:	08 
 804c3c0:	c7 04 24 00 00 00 00 	movl   $0x0,(%esp)
 804c3c7:	e8 e0 c8 ff ff       	call   8048cac <dcgettext@plt>
 804c3cc:	c7 44 24 08 14 cd 04 	movl   $0x804cd14,0x8(%esp)
 804c3d3:	08 
 804c3d4:	c7 44 24 04 01 00 00 	movl   $0x1,0x4(%esp)
 804c3db:	00 
 804c3dc:	89 44 24 0c          	mov    %eax,0xc(%esp)
 804c3e0:	a1 10 f2 04 08       	mov    0x804f210,%eax
 804c3e5:	89 04 24             	mov    %eax,(%esp)
 804c3e8:	e8 ef c7 ff ff       	call   8048bdc <__fprintf_chk@plt>
 804c3ed:	e9 39 fc ff ff       	jmp    804c02b <exit@plt+0x31bf>
 804c3f2:	8d b6 00 00 00 00    	lea    0x0(%esi),%esi
 804c3f8:	a1 10 f2 04 08       	mov    0x804f210,%eax
 804c3fd:	c7 44 24 08 50 cd 04 	movl   $0x804cd50,0x8(%esp)
 804c404:	08 
 804c405:	c7 44 24 04 01 00 00 	movl   $0x1,0x4(%esp)
 804c40c:	00 
 804c40d:	89 04 24             	mov    %eax,(%esp)
 804c410:	e8 c7 c7 ff ff       	call   8048bdc <__fprintf_chk@plt>
 804c415:	b8 01 00 00 00       	mov    $0x1,%eax
 804c41a:	31 c9                	xor    %ecx,%ecx
 804c41c:	31 d2                	xor    %edx,%edx
 804c41e:	e9 41 fc ff ff       	jmp    804c064 <exit@plt+0x31f8>
 804c423:	90                   	nop
 804c424:	8d 74 26 00          	lea    0x0(%esi,%eiz,1),%esi
 804c428:	8b 74 24 48          	mov    0x48(%esp),%esi
 804c42c:	85 f6                	test   %esi,%esi
 804c42e:	0f 84 5c fc ff ff    	je     804c090 <exit@plt+0x3224>
 804c434:	e9 63 fc ff ff       	jmp    804c09c <exit@plt+0x3230>
 804c439:	8d b4 26 00 00 00 00 	lea    0x0(%esi,%eiz,1),%esi
 804c440:	8b 44 24 64          	mov    0x64(%esp),%eax
 804c444:	83 e0 01             	and    $0x1,%eax
 804c447:	e9 7e f9 ff ff       	jmp    804bdca <exit@plt+0x2f5e>
 804c44c:	8b 43 04             	mov    0x4(%ebx),%eax
 804c44f:	90                   	nop
 804c450:	e9 09 fa ff ff       	jmp    804be5e <exit@plt+0x2ff2>
 804c455:	8b 4c 24 68          	mov    0x68(%esp),%ecx
 804c459:	8b 59 68             	mov    0x68(%ecx),%ebx
 804c45c:	85 db                	test   %ebx,%ebx
 804c45e:	0f 84 f1 02 00 00    	je     804c755 <exit@plt+0x38e9>
 804c464:	80 7b 09 00          	cmpb   $0x0,0x9(%ebx)
 804c468:	89 d8                	mov    %ebx,%eax
 804c46a:	75 1a                	jne    804c486 <exit@plt+0x361a>
 804c46c:	e9 c5 03 00 00       	jmp    804c836 <exit@plt+0x39ca>
 804c471:	8d b4 26 00 00 00 00 	lea    0x0(%esi,%eiz,1),%esi
 804c478:	80 78 09 00          	cmpb   $0x0,0x9(%eax)
 804c47c:	8d 74 26 00          	lea    0x0(%esi,%eiz,1),%esi
 804c480:	0f 84 b0 03 00 00    	je     804c836 <exit@plt+0x39ca>
 804c486:	8b 40 14             	mov    0x14(%eax),%eax
 804c489:	85 c0                	test   %eax,%eax
 804c48b:	90                   	nop
 804c48c:	8d 74 26 00          	lea    0x0(%esi,%eiz,1),%esi
 804c490:	75 e6                	jne    804c478 <exit@plt+0x360c>
 804c492:	c7 44 24 48 00 00 00 	movl   $0x0,0x48(%esp)
 804c499:	00 
 804c49a:	31 f6                	xor    %esi,%esi
 804c49c:	e9 8a f9 ff ff       	jmp    804be2b <exit@plt+0x2fbf>
 804c4a1:	e8 e6 c6 ff ff       	call   8048b8c <__errno_location@plt>
 804c4a6:	8b 00                	mov    (%eax),%eax
 804c4a8:	89 04 24             	mov    %eax,(%esp)
 804c4ab:	e8 0c c7 ff ff       	call   8048bbc <strerror@plt>
 804c4b0:	8b 13                	mov    (%ebx),%edx
 804c4b2:	c7 44 24 08 05 00 00 	movl   $0x5,0x8(%esp)
 804c4b9:	00 
 804c4ba:	c7 44 24 04 0c d6 04 	movl   $0x804d60c,0x4(%esp)
 804c4c1:	08 
 804c4c2:	c7 04 24 00 00 00 00 	movl   $0x0,(%esp)
 804c4c9:	89 54 24 3c          	mov    %edx,0x3c(%esp)
 804c4cd:	89 c6                	mov    %eax,%esi
 804c4cf:	e8 d8 c7 ff ff       	call   8048cac <dcgettext@plt>
 804c4d4:	8b 54 24 3c          	mov    0x3c(%esp),%edx
 804c4d8:	89 74 24 10          	mov    %esi,0x10(%esp)
 804c4dc:	c7 44 24 04 01 00 00 	movl   $0x1,0x4(%esp)
 804c4e3:	00 
 804c4e4:	89 54 24 0c          	mov    %edx,0xc(%esp)
 804c4e8:	89 44 24 08          	mov    %eax,0x8(%esp)
 804c4ec:	a1 10 f2 04 08       	mov    0x804f210,%eax
 804c4f1:	89 04 24             	mov    %eax,(%esp)
 804c4f4:	e8 e3 c6 ff ff       	call   8048bdc <__fprintf_chk@plt>
 804c4f9:	e9 fc fc ff ff       	jmp    804c1fa <exit@plt+0x338e>
 804c4fe:	89 04 24             	mov    %eax,(%esp)
 804c501:	e8 86 c7 ff ff       	call   8048c8c <free@plt>
 804c506:	e9 ef fc ff ff       	jmp    804c1fa <exit@plt+0x338e>
 804c50b:	90                   	nop
 804c50c:	8d 74 26 00          	lea    0x0(%esi,%eiz,1),%esi
 804c510:	8b 46 58             	mov    0x58(%esi),%eax
 804c513:	8b 56 5c             	mov    0x5c(%esi),%edx
 804c516:	33 53 10             	xor    0x10(%ebx),%edx
 804c519:	33 43 0c             	xor    0xc(%ebx),%eax
 804c51c:	09 c2                	or     %eax,%edx
 804c51e:	0f 85 0b f7 ff ff    	jne    804bc2f <exit@plt+0x2dc3>
 804c524:	c7 04 24 08 00 00 00 	movl   $0x8,(%esp)
 804c52b:	8b 4c 24 6c          	mov    0x6c(%esp),%ecx
 804c52f:	8b 54 24 74          	mov    0x74(%esp),%edx
 804c533:	8b 03                	mov    (%ebx),%eax
 804c535:	e8 46 d3 ff ff       	call   8049880 <exit@plt+0xa14>
 804c53a:	e9 f0 f6 ff ff       	jmp    804bc2f <exit@plt+0x2dc3>
 804c53f:	90                   	nop
 804c540:	8b 41 58             	mov    0x58(%ecx),%eax
 804c543:	8b 51 5c             	mov    0x5c(%ecx),%edx
 804c546:	33 53 10             	xor    0x10(%ebx),%edx
 804c549:	33 43 0c             	xor    0xc(%ebx),%eax
 804c54c:	09 c2                	or     %eax,%edx
 804c54e:	0f 85 fc f6 ff ff    	jne    804bc50 <exit@plt+0x2de4>
 804c554:	c7 04 24 01 00 00 00 	movl   $0x1,(%esp)
 804c55b:	8b 4c 24 6c          	mov    0x6c(%esp),%ecx
 804c55f:	8b 03                	mov    (%ebx),%eax
 804c561:	8b 54 24 74          	mov    0x74(%esp),%edx
 804c565:	e8 16 d3 ff ff       	call   8049880 <exit@plt+0xa14>
 804c56a:	8b 5b 14             	mov    0x14(%ebx),%ebx
 804c56d:	85 db                	test   %ebx,%ebx
 804c56f:	0f 85 e6 f6 ff ff    	jne    804bc5b <exit@plt+0x2def>
 804c575:	8b 44 24 48          	mov    0x48(%esp),%eax
 804c579:	8b 54 24 4c          	mov    0x4c(%esp),%edx
 804c57d:	8b 4c 24 6c          	mov    0x6c(%esp),%ecx
 804c581:	c7 44 24 08 10 00 00 	movl   $0x10,0x8(%esp)
 804c588:	00 
 804c589:	89 44 24 10          	mov    %eax,0x10(%esp)
 804c58d:	8b 44 24 64          	mov    0x64(%esp),%eax
 804c591:	89 54 24 14          	mov    %edx,0x14(%esp)
 804c595:	8b 54 24 5c          	mov    0x5c(%esp),%edx
 804c599:	89 4c 24 04          	mov    %ecx,0x4(%esp)
 804c59d:	8b 4c 24 60          	mov    0x60(%esp),%ecx
 804c5a1:	89 04 24             	mov    %eax,(%esp)
 804c5a4:	8b 44 24 74          	mov    0x74(%esp),%eax
 804c5a8:	89 54 24 0c          	mov    %edx,0xc(%esp)
 804c5ac:	ba fa cc 04 08       	mov    $0x804ccfa,%edx
 804c5b1:	e8 3a d5 ff ff       	call   8049af0 <exit@plt+0xc84>
 804c5b6:	8b 4c 24 4c          	mov    0x4c(%esp),%ecx
 804c5ba:	8b 54 24 48          	mov    0x48(%esp),%edx
 804c5be:	8b 44 24 6c          	mov    0x6c(%esp),%eax
 804c5c2:	c7 44 24 08 10 00 00 	movl   $0x10,0x8(%esp)
 804c5c9:	00 
 804c5ca:	89 4c 24 14          	mov    %ecx,0x14(%esp)
 804c5ce:	8b 4c 24 5c          	mov    0x5c(%esp),%ecx
 804c5d2:	89 54 24 10          	mov    %edx,0x10(%esp)
 804c5d6:	8b 54 24 64          	mov    0x64(%esp),%edx
 804c5da:	89 44 24 04          	mov    %eax,0x4(%esp)
 804c5de:	8b 44 24 74          	mov    0x74(%esp),%eax
 804c5e2:	89 4c 24 0c          	mov    %ecx,0xc(%esp)
 804c5e6:	8b 4c 24 60          	mov    0x60(%esp),%ecx
 804c5ea:	89 14 24             	mov    %edx,(%esp)
 804c5ed:	ba fe cc 04 08       	mov    $0x804ccfe,%edx
 804c5f2:	e8 f9 d4 ff ff       	call   8049af0 <exit@plt+0xc84>
 804c5f7:	8b 44 24 48          	mov    0x48(%esp),%eax
 804c5fb:	8b 54 24 4c          	mov    0x4c(%esp),%edx
 804c5ff:	8b 4c 24 6c          	mov    0x6c(%esp),%ecx
 804c603:	c7 44 24 08 04 00 00 	movl   $0x4,0x8(%esp)
 804c60a:	00 
 804c60b:	89 44 24 10          	mov    %eax,0x10(%esp)
 804c60f:	8b 44 24 64          	mov    0x64(%esp),%eax
 804c613:	89 54 24 14          	mov    %edx,0x14(%esp)
 804c617:	8b 54 24 5c          	mov    0x5c(%esp),%edx
 804c61b:	89 4c 24 04          	mov    %ecx,0x4(%esp)
 804c61f:	8b 4c 24 60          	mov    0x60(%esp),%ecx
 804c623:	89 04 24             	mov    %eax,(%esp)
 804c626:	8b 44 24 74          	mov    0x74(%esp),%eax
 804c62a:	89 54 24 0c          	mov    %edx,0xc(%esp)
 804c62e:	ba 03 cd 04 08       	mov    $0x804cd03,%edx
 804c633:	e8 b8 d4 ff ff       	call   8049af0 <exit@plt+0xc84>
 804c638:	8b 54 24 6c          	mov    0x6c(%esp),%edx
 804c63c:	8b 4c 24 64          	mov    0x64(%esp),%ecx
 804c640:	8b 44 24 74          	mov    0x74(%esp),%eax
 804c644:	89 14 24             	mov    %edx,(%esp)
 804c647:	8b 54 24 60          	mov    0x60(%esp),%edx
 804c64b:	e8 c0 e3 ff ff       	call   804aa10 <exit@plt+0x1ba4>
 804c650:	e9 9b ee ff ff       	jmp    804b4f0 <exit@plt+0x2684>
 804c655:	c7 44 24 08 05 00 00 	movl   $0x5,0x8(%esp)
 804c65c:	00 
 804c65d:	c7 44 24 04 e8 d5 04 	movl   $0x804d5e8,0x4(%esp)
 804c664:	08 
 804c665:	c7 04 24 00 00 00 00 	movl   $0x0,(%esp)
 804c66c:	e8 3b c6 ff ff       	call   8048cac <dcgettext@plt>
 804c671:	c7 44 24 10 54 cd 04 	movl   $0x804cd54,0x10(%esp)
 804c678:	08 
 804c679:	c7 44 24 0c 14 00 00 	movl   $0x14,0xc(%esp)
 804c680:	00 
 804c681:	c7 44 24 04 01 00 00 	movl   $0x1,0x4(%esp)
 804c688:	00 
 804c689:	89 44 24 08          	mov    %eax,0x8(%esp)
 804c68d:	a1 10 f2 04 08       	mov    0x804f210,%eax
 804c692:	89 04 24             	mov    %eax,(%esp)
 804c695:	e8 42 c5 ff ff       	call   8048bdc <__fprintf_chk@plt>
 804c69a:	c6 44 24 43 01       	movb   $0x1,0x43(%esp)
 804c69f:	e9 35 f7 ff ff       	jmp    804bdd9 <exit@plt+0x2f6d>
 804c6a4:	c7 44 24 08 05 00 00 	movl   $0x5,0x8(%esp)
 804c6ab:	00 
 804c6ac:	c7 44 24 04 7c d5 04 	movl   $0x804d57c,0x4(%esp)
 804c6b3:	08 
 804c6b4:	c7 04 24 00 00 00 00 	movl   $0x0,(%esp)
 804c6bb:	e8 ec c5 ff ff       	call   8048cac <dcgettext@plt>
 804c6c0:	e8 db cc ff ff       	call   80493a0 <exit@plt+0x534>
 804c6c5:	e9 44 ed ff ff       	jmp    804b40e <exit@plt+0x25a2>
 804c6ca:	0f b6 0d e3 cc 04 08 	movzbl 0x804cce3,%ecx
 804c6d1:	39 ca                	cmp    %ecx,%edx
 804c6d3:	75 59                	jne    804c72e <exit@plt+0x38c2>
 804c6d5:	0f b6 50 01          	movzbl 0x1(%eax),%edx
 804c6d9:	3a 15 e4 cc 04 08    	cmp    0x804cce4,%dl
 804c6df:	75 4d                	jne    804c72e <exit@plt+0x38c2>
 804c6e1:	0f b6 50 02          	movzbl 0x2(%eax),%edx
 804c6e5:	3a 15 e5 cc 04 08    	cmp    0x804cce5,%dl
 804c6eb:	75 41                	jne    804c72e <exit@plt+0x38c2>
 804c6ed:	0f b6 50 03          	movzbl 0x3(%eax),%edx
 804c6f1:	3a 15 e6 cc 04 08    	cmp    0x804cce6,%dl
 804c6f7:	75 35                	jne    804c72e <exit@plt+0x38c2>
 804c6f9:	bb 01 00 00 00       	mov    $0x1,%ebx
 804c6fe:	c6 44 24 60 02       	movb   $0x2,0x60(%esp)
 804c703:	e9 2c ec ff ff       	jmp    804b334 <exit@plt+0x24c8>
 804c708:	c7 44 24 08 05 00 00 	movl   $0x5,0x8(%esp)
 804c70f:	00 
 804c710:	c7 44 24 04 4c d5 04 	movl   $0x804d54c,0x4(%esp)
 804c717:	08 
 804c718:	c7 04 24 00 00 00 00 	movl   $0x0,(%esp)
 804c71f:	e8 88 c5 ff ff       	call   8048cac <dcgettext@plt>
 804c724:	e8 77 cc ff ff       	call   80493a0 <exit@plt+0x534>
 804c729:	e9 62 ec ff ff       	jmp    804b390 <exit@plt+0x2524>
 804c72e:	c7 44 24 04 a6 cc 04 	movl   $0x804cca6,0x4(%esp)
 804c735:	08 
 804c736:	89 04 24             	mov    %eax,(%esp)
 804c739:	e8 0e c7 ff ff       	call   8048e4c <strcmp@plt>
 804c73e:	85 c0                	test   %eax,%eax
 804c740:	0f 85 80 00 00 00    	jne    804c7c6 <exit@plt+0x395a>
 804c746:	bb 01 00 00 00       	mov    $0x1,%ebx
 804c74b:	c6 44 24 60 00       	movb   $0x0,0x60(%esp)
 804c750:	e9 df eb ff ff       	jmp    804b334 <exit@plt+0x24c8>
 804c755:	31 f6                	xor    %esi,%esi
 804c757:	c7 44 24 48 00 00 00 	movl   $0x0,0x48(%esp)
 804c75e:	00 
 804c75f:	e9 13 f9 ff ff       	jmp    804c077 <exit@plt+0x320b>
 804c764:	8d b4 24 84 00 00 00 	lea    0x84(%esp),%esi
 804c76b:	8d bc 24 8d 01 00 00 	lea    0x18d(%esp),%edi
 804c772:	e9 f5 ee ff ff       	jmp    804b66c <exit@plt+0x2800>
 804c777:	31 f6                	xor    %esi,%esi
 804c779:	31 db                	xor    %ebx,%ebx
 804c77b:	c7 44 24 54 09 00 00 	movl   $0x9,0x54(%esp)
 804c782:	00 
 804c783:	c6 44 24 78 00       	movb   $0x0,0x78(%esp)
 804c788:	c7 44 24 58 00 00 00 	movl   $0x0,0x58(%esp)
 804c78f:	00 
 804c790:	c7 44 24 5c 00 00 00 	movl   $0x0,0x5c(%esp)
 804c797:	00 
 804c798:	c7 44 24 08 05 00 00 	movl   $0x5,0x8(%esp)
 804c79f:	00 
 804c7a0:	c7 44 24 04 2c d5 04 	movl   $0x804d52c,0x4(%esp)
 804c7a7:	08 
 804c7a8:	c7 04 24 00 00 00 00 	movl   $0x0,(%esp)
 804c7af:	e8 f8 c4 ff ff       	call   8048cac <dcgettext@plt>
 804c7b4:	e8 e7 cb ff ff       	call   80493a0 <exit@plt+0x534>
 804c7b9:	c7 44 24 68 00 00 00 	movl   $0x0,0x68(%esp)
 804c7c0:	00 
 804c7c1:	e9 b6 eb ff ff       	jmp    804b37c <exit@plt+0x2510>
 804c7c6:	c7 44 24 08 05 00 00 	movl   $0x5,0x8(%esp)
 804c7cd:	00 
 804c7ce:	bb 01 00 00 00       	mov    $0x1,%ebx
 804c7d3:	c7 44 24 04 ab cc 04 	movl   $0x804ccab,0x4(%esp)
 804c7da:	08 
 804c7db:	c7 04 24 00 00 00 00 	movl   $0x0,(%esp)
 804c7e2:	e8 c5 c4 ff ff       	call   8048cac <dcgettext@plt>
 804c7e7:	e8 b4 cb ff ff       	call   80493a0 <exit@plt+0x534>
 804c7ec:	e9 43 eb ff ff       	jmp    804b334 <exit@plt+0x24c8>
 804c7f1:	0f b6 54 24 58       	movzbl 0x58(%esp),%edx
 804c7f6:	0f b6 4c 24 5c       	movzbl 0x5c(%esp),%ecx
 804c7fb:	0f b6 5c 24 78       	movzbl 0x78(%esp),%ebx
 804c800:	21 ca                	and    %ecx,%edx
 804c802:	83 e3 20             	and    $0x20,%ebx
 804c805:	89 d6                	mov    %edx,%esi
 804c807:	eb 8f                	jmp    804c798 <exit@plt+0x392c>
 804c809:	c7 44 24 08 05 00 00 	movl   $0x5,0x8(%esp)
 804c810:	00 
 804c811:	c7 44 24 04 d4 d4 04 	movl   $0x804d4d4,0x4(%esp)
 804c818:	08 
 804c819:	c7 04 24 00 00 00 00 	movl   $0x0,(%esp)
 804c820:	e8 87 c4 ff ff       	call   8048cac <dcgettext@plt>
 804c825:	e8 76 cb ff ff       	call   80493a0 <exit@plt+0x534>
 804c82a:	c7 04 24 01 00 00 00 	movl   $0x1,(%esp)
 804c831:	e8 36 c6 ff ff       	call   8048e6c <exit@plt>
 804c836:	31 c0                	xor    %eax,%eax
 804c838:	c7 44 24 48 01 00 00 	movl   $0x1,0x48(%esp)
 804c83f:	00 
 804c840:	e9 85 f5 ff ff       	jmp    804bdca <exit@plt+0x2f5e>
 804c845:	89 54 24 10          	mov    %edx,0x10(%esp)
 804c849:	8b 55 0c             	mov    0xc(%ebp),%edx
 804c84c:	8b 02                	mov    (%edx),%eax
 804c84e:	c7 44 24 08 c2 cc 04 	movl   $0x804ccc2,0x8(%esp)
 804c855:	08 
 804c856:	c7 44 24 04 01 00 00 	movl   $0x1,0x4(%esp)
 804c85d:	00 
 804c85e:	89 44 24 0c          	mov    %eax,0xc(%esp)
 804c862:	a1 10 f2 04 08       	mov    0x804f210,%eax
 804c867:	89 04 24             	mov    %eax,(%esp)
 804c86a:	e8 6d c3 ff ff       	call   8048bdc <__fprintf_chk@plt>
 804c86f:	31 c0                	xor    %eax,%eax
 804c871:	e8 2a cb ff ff       	call   80493a0 <exit@plt+0x534>
 804c876:	c7 04 24 01 00 00 00 	movl   $0x1,(%esp)
 804c87d:	e8 ea c5 ff ff       	call   8048e6c <exit@plt>
 804c882:	e8 05 c3 ff ff       	call   8048b8c <__errno_location@plt>
 804c887:	8b 00                	mov    (%eax),%eax
 804c889:	89 04 24             	mov    %eax,(%esp)
 804c88c:	e8 2b c3 ff ff       	call   8048bbc <strerror@plt>
 804c891:	c7 44 24 08 05 00 00 	movl   $0x5,0x8(%esp)
 804c898:	00 
 804c899:	c7 44 24 04 c4 d5 04 	movl   $0x804d5c4,0x4(%esp)
 804c8a0:	08 
 804c8a1:	c7 04 24 00 00 00 00 	movl   $0x0,(%esp)
 804c8a8:	89 c3                	mov    %eax,%ebx
 804c8aa:	e8 fd c3 ff ff       	call   8048cac <dcgettext@plt>
 804c8af:	89 5c 24 0c          	mov    %ebx,0xc(%esp)
 804c8b3:	c7 44 24 04 01 00 00 	movl   $0x1,0x4(%esp)
 804c8ba:	00 
 804c8bb:	89 44 24 08          	mov    %eax,0x8(%esp)
 804c8bf:	a1 10 f2 04 08       	mov    0x804f210,%eax
 804c8c4:	89 04 24             	mov    %eax,(%esp)
 804c8c7:	e8 10 c3 ff ff       	call   8048bdc <__fprintf_chk@plt>
 804c8cc:	c7 04 24 01 00 00 00 	movl   $0x1,(%esp)
 804c8d3:	e8 94 c5 ff ff       	call   8048e6c <exit@plt>
 804c8d8:	90                   	nop
 804c8d9:	90                   	nop
 804c8da:	90                   	nop
 804c8db:	90                   	nop
 804c8dc:	90                   	nop
 804c8dd:	90                   	nop
 804c8de:	90                   	nop
 804c8df:	90                   	nop
 804c8e0:	55                   	push   %ebp
 804c8e1:	89 e5                	mov    %esp,%ebp
 804c8e3:	57                   	push   %edi
 804c8e4:	56                   	push   %esi
 804c8e5:	53                   	push   %ebx
 804c8e6:	83 ec 2c             	sub    $0x2c,%esp
 804c8e9:	8b 5d 08             	mov    0x8(%ebp),%ebx
 804c8ec:	e8 0b c4 ff ff       	call   8048cfc <__ctype_b_loc@plt>
 804c8f1:	0f be 13             	movsbl (%ebx),%edx
 804c8f4:	8b 00                	mov    (%eax),%eax
 804c8f6:	f6 44 50 01 08       	testb  $0x8,0x1(%eax,%edx,2)
 804c8fb:	75 53                	jne    804c950 <exit@plt+0x3ae4>
 804c8fd:	be 40 d8 04 08       	mov    $0x804d840,%esi
 804c902:	b9 03 00 00 00       	mov    $0x3,%ecx
 804c907:	89 df                	mov    %ebx,%edi
 804c909:	f3 a6                	repz cmpsb %es:(%edi),%ds:(%esi)
 804c90b:	74 3b                	je     804c948 <exit@plt+0x3adc>
 804c90d:	8b 35 e4 f0 04 08    	mov    0x804f0e4,%esi
 804c913:	85 f6                	test   %esi,%esi
 804c915:	74 59                	je     804c970 <exit@plt+0x3b04>
 804c917:	bf e0 f0 04 08       	mov    $0x804f0e0,%edi
 804c91c:	eb 0c                	jmp    804c92a <exit@plt+0x3abe>
 804c91e:	66 90                	xchg   %ax,%ax
 804c920:	83 c7 08             	add    $0x8,%edi
 804c923:	8b 77 04             	mov    0x4(%edi),%esi
 804c926:	85 f6                	test   %esi,%esi
 804c928:	74 46                	je     804c970 <exit@plt+0x3b04>
 804c92a:	89 5c 24 04          	mov    %ebx,0x4(%esp)
 804c92e:	89 34 24             	mov    %esi,(%esp)
 804c931:	e8 16 c5 ff ff       	call   8048e4c <strcmp@plt>
 804c936:	85 c0                	test   %eax,%eax
 804c938:	75 e6                	jne    804c920 <exit@plt+0x3ab4>
 804c93a:	85 f6                	test   %esi,%esi
 804c93c:	74 32                	je     804c970 <exit@plt+0x3b04>
 804c93e:	8b 07                	mov    (%edi),%eax
 804c940:	83 c4 2c             	add    $0x2c,%esp
 804c943:	5b                   	pop    %ebx
 804c944:	5e                   	pop    %esi
 804c945:	5f                   	pop    %edi
 804c946:	5d                   	pop    %ebp
 804c947:	c3                   	ret    
 804c948:	83 c3 03             	add    $0x3,%ebx
 804c94b:	eb c0                	jmp    804c90d <exit@plt+0x3aa1>
 804c94d:	8d 76 00             	lea    0x0(%esi),%esi
 804c950:	89 1c 24             	mov    %ebx,(%esp)
 804c953:	c7 44 24 08 0a 00 00 	movl   $0xa,0x8(%esp)
 804c95a:	00 
 804c95b:	c7 44 24 04 00 00 00 	movl   $0x0,0x4(%esp)
 804c962:	00 
 804c963:	e8 14 c3 ff ff       	call   8048c7c <strtol@plt>
 804c968:	83 c4 2c             	add    $0x2c,%esp
 804c96b:	5b                   	pop    %ebx
 804c96c:	5e                   	pop    %esi
 804c96d:	5f                   	pop    %edi
 804c96e:	5d                   	pop    %ebp
 804c96f:	c3                   	ret    
 804c970:	c7 44 24 08 05 00 00 	movl   $0x5,0x8(%esp)
 804c977:	00 
 804c978:	c7 44 24 04 e4 d8 04 	movl   $0x804d8e4,0x4(%esp)
 804c97f:	08 
 804c980:	c7 04 24 00 00 00 00 	movl   $0x0,(%esp)
 804c987:	e8 20 c3 ff ff       	call   8048cac <dcgettext@plt>
 804c98c:	8b 55 0c             	mov    0xc(%ebp),%edx
 804c98f:	89 5c 24 0c          	mov    %ebx,0xc(%esp)
 804c993:	c7 44 24 04 01 00 00 	movl   $0x1,0x4(%esp)
 804c99a:	00 
 804c99b:	89 54 24 10          	mov    %edx,0x10(%esp)
 804c99f:	89 44 24 08          	mov    %eax,0x8(%esp)
 804c9a3:	a1 10 f2 04 08       	mov    0x804f210,%eax
 804c9a8:	89 04 24             	mov    %eax,(%esp)
 804c9ab:	e8 2c c2 ff ff       	call   8048bdc <__fprintf_chk@plt>
 804c9b0:	c7 04 24 01 00 00 00 	movl   $0x1,(%esp)
 804c9b7:	e8 b0 c4 ff ff       	call   8048e6c <exit@plt>
 804c9bc:	8d 74 26 00          	lea    0x0(%esi,%eiz,1),%esi
 804c9c0:	55                   	push   %ebp
 804c9c1:	89 e5                	mov    %esp,%ebp
 804c9c3:	56                   	push   %esi
 804c9c4:	53                   	push   %ebx
 804c9c5:	83 ec 10             	sub    $0x10,%esp
 804c9c8:	8b 15 e4 f0 04 08    	mov    0x804f0e4,%edx
 804c9ce:	85 d2                	test   %edx,%edx
 804c9d0:	0f 84 82 00 00 00    	je     804ca58 <exit@plt+0x3bec>
 804c9d6:	bb e0 f0 04 08       	mov    $0x804f0e0,%ebx
 804c9db:	31 f6                	xor    %esi,%esi
 804c9dd:	eb 47                	jmp    804ca26 <exit@plt+0x3bba>
 804c9df:	90                   	nop
 804c9e0:	85 f6                	test   %esi,%esi
 804c9e2:	8b 53 04             	mov    0x4(%ebx),%edx
 804c9e5:	b8 54 cd 04 08       	mov    $0x804cd54,%eax
 804c9ea:	74 05                	je     804c9f1 <exit@plt+0x3b85>
 804c9ec:	b8 3c cd 04 08       	mov    $0x804cd3c,%eax
 804c9f1:	89 54 24 0c          	mov    %edx,0xc(%esp)
 804c9f5:	89 44 24 08          	mov    %eax,0x8(%esp)
 804c9f9:	c7 44 24 04 44 d8 04 	movl   $0x804d844,0x4(%esp)
 804ca00:	08 
 804ca01:	c7 04 24 01 00 00 00 	movl   $0x1,(%esp)
 804ca08:	e8 0f c2 ff ff       	call   8048c1c <__printf_chk@plt>
 804ca0d:	8b 43 04             	mov    0x4(%ebx),%eax
 804ca10:	83 c3 08             	add    $0x8,%ebx
 804ca13:	89 04 24             	mov    %eax,(%esp)
 804ca16:	e8 21 c3 ff ff       	call   8048d3c <strlen@plt>
 804ca1b:	8b 53 04             	mov    0x4(%ebx),%edx
 804ca1e:	85 d2                	test   %edx,%edx
 804ca20:	74 36                	je     804ca58 <exit@plt+0x3bec>
 804ca22:	8d 74 06 01          	lea    0x1(%esi,%eax,1),%esi
 804ca26:	89 14 24             	mov    %edx,(%esp)
 804ca29:	e8 0e c3 ff ff       	call   8048d3c <strlen@plt>
 804ca2e:	8d 44 06 01          	lea    0x1(%esi,%eax,1),%eax
 804ca32:	83 f8 50             	cmp    $0x50,%eax
 804ca35:	76 a9                	jbe    804c9e0 <exit@plt+0x3b74>
 804ca37:	a1 20 f2 04 08       	mov    0x804f220,%eax
 804ca3c:	31 f6                	xor    %esi,%esi
 804ca3e:	c7 04 24 0a 00 00 00 	movl   $0xa,(%esp)
 804ca45:	89 44 24 04          	mov    %eax,0x4(%esp)
 804ca49:	e8 de c3 ff ff       	call   8048e2c <_IO_putc@plt>
 804ca4e:	8b 53 04             	mov    0x4(%ebx),%edx
 804ca51:	b8 54 cd 04 08       	mov    $0x804cd54,%eax
 804ca56:	eb 99                	jmp    804c9f1 <exit@plt+0x3b85>
 804ca58:	a1 20 f2 04 08       	mov    0x804f220,%eax
 804ca5d:	c7 04 24 0a 00 00 00 	movl   $0xa,(%esp)
 804ca64:	89 44 24 04          	mov    %eax,0x4(%esp)
 804ca68:	e8 bf c3 ff ff       	call   8048e2c <_IO_putc@plt>
 804ca6d:	83 c4 10             	add    $0x10,%esp
 804ca70:	5b                   	pop    %ebx
 804ca71:	5e                   	pop    %esi
 804ca72:	5d                   	pop    %ebp
 804ca73:	c3                   	ret    
 804ca74:	90                   	nop
 804ca75:	90                   	nop
 804ca76:	90                   	nop
 804ca77:	90                   	nop
 804ca78:	90                   	nop
 804ca79:	90                   	nop
 804ca7a:	90                   	nop
 804ca7b:	90                   	nop
 804ca7c:	90                   	nop
 804ca7d:	90                   	nop
 804ca7e:	90                   	nop
 804ca7f:	90                   	nop
 804ca80:	55                   	push   %ebp
 804ca81:	89 e5                	mov    %esp,%ebp
 804ca83:	5d                   	pop    %ebp
 804ca84:	c3                   	ret    
 804ca85:	8d 74 26 00          	lea    0x0(%esi,%eiz,1),%esi
 804ca89:	8d bc 27 00 00 00 00 	lea    0x0(%edi,%eiz,1),%edi
 804ca90:	55                   	push   %ebp
 804ca91:	89 e5                	mov    %esp,%ebp
 804ca93:	57                   	push   %edi
 804ca94:	56                   	push   %esi
 804ca95:	53                   	push   %ebx
 804ca96:	e8 4f 00 00 00       	call   804caea <exit@plt+0x3c7e>
 804ca9b:	81 c3 59 25 00 00    	add    $0x2559,%ebx
 804caa1:	83 ec 1c             	sub    $0x1c,%esp
 804caa4:	e8 a3 c0 ff ff       	call   8048b4c <__errno_location@plt-0x40>
 804caa9:	8d bb 18 ff ff ff    	lea    -0xe8(%ebx),%edi
 804caaf:	8d 83 18 ff ff ff    	lea    -0xe8(%ebx),%eax
 804cab5:	29 c7                	sub    %eax,%edi
 804cab7:	c1 ff 02             	sar    $0x2,%edi
 804caba:	85 ff                	test   %edi,%edi
 804cabc:	74 24                	je     804cae2 <exit@plt+0x3c76>
 804cabe:	31 f6                	xor    %esi,%esi
 804cac0:	8b 45 10             	mov    0x10(%ebp),%eax
 804cac3:	89 44 24 08          	mov    %eax,0x8(%esp)
 804cac7:	8b 45 0c             	mov    0xc(%ebp),%eax
 804caca:	89 44 24 04          	mov    %eax,0x4(%esp)
 804cace:	8b 45 08             	mov    0x8(%ebp),%eax
 804cad1:	89 04 24             	mov    %eax,(%esp)
 804cad4:	ff 94 b3 18 ff ff ff 	call   *-0xe8(%ebx,%esi,4)
 804cadb:	83 c6 01             	add    $0x1,%esi
 804cade:	39 fe                	cmp    %edi,%esi
 804cae0:	72 de                	jb     804cac0 <exit@plt+0x3c54>
 804cae2:	83 c4 1c             	add    $0x1c,%esp
 804cae5:	5b                   	pop    %ebx
 804cae6:	5e                   	pop    %esi
 804cae7:	5f                   	pop    %edi
 804cae8:	5d                   	pop    %ebp
 804cae9:	c3                   	ret    
 804caea:	8b 1c 24             	mov    (%esp),%ebx
 804caed:	c3                   	ret    
 804caee:	90                   	nop
 804caef:	90                   	nop
 804caf0:	55                   	push   %ebp
 804caf1:	89 e5                	mov    %esp,%ebp
 804caf3:	53                   	push   %ebx
 804caf4:	83 ec 04             	sub    $0x4,%esp
 804caf7:	a1 0c ef 04 08       	mov    0x804ef0c,%eax
 804cafc:	83 f8 ff             	cmp    $0xffffffff,%eax
 804caff:	74 13                	je     804cb14 <exit@plt+0x3ca8>
 804cb01:	bb 0c ef 04 08       	mov    $0x804ef0c,%ebx
 804cb06:	66 90                	xchg   %ax,%ax
 804cb08:	83 eb 04             	sub    $0x4,%ebx
 804cb0b:	ff d0                	call   *%eax
 804cb0d:	8b 03                	mov    (%ebx),%eax
 804cb0f:	83 f8 ff             	cmp    $0xffffffff,%eax
 804cb12:	75 f4                	jne    804cb08 <exit@plt+0x3c9c>
 804cb14:	83 c4 04             	add    $0x4,%esp
 804cb17:	5b                   	pop    %ebx
 804cb18:	5d                   	pop    %ebp
 804cb19:	c3                   	ret    
 804cb1a:	90                   	nop
 804cb1b:	90                   	nop

Disassembly of section .fini:

0804cb1c <.fini>:
 804cb1c:	55                   	push   %ebp
 804cb1d:	89 e5                	mov    %esp,%ebp
 804cb1f:	53                   	push   %ebx
 804cb20:	83 ec 04             	sub    $0x4,%esp
 804cb23:	e8 00 00 00 00       	call   804cb28 <exit@plt+0x3cbc>
 804cb28:	5b                   	pop    %ebx
 804cb29:	81 c3 cc 24 00 00    	add    $0x24cc,%ebx
 804cb2f:	e8 7c c3 ff ff       	call   8048eb0 <exit@plt+0x44>
 804cb34:	59                   	pop    %ecx
 804cb35:	5b                   	pop    %ebx
 804cb36:	c9                   	leave  
 804cb37:	c3                   	ret    
