
/home/ubuntu/disk/hdd_3/cyr/extract_version/SelectiveTaint/analysis/netstat:     file format elf32-i386


Disassembly of section .init:

08049208 <.init>:
 8049208:	55                   	push   %ebp
 8049209:	89 e5                	mov    %esp,%ebp
 804920b:	53                   	push   %ebx
 804920c:	83 ec 04             	sub    $0x4,%esp
 804920f:	e8 00 00 00 00       	call   8049214 <fileno@plt-0x34>
 8049214:	5b                   	pop    %ebx
 8049215:	81 c3 e0 7d 01 00    	add    $0x17de0,%ebx
 804921b:	8b 93 fc ff ff ff    	mov    -0x4(%ebx),%edx
 8049221:	85 d2                	test   %edx,%edx
 8049223:	74 05                	je     804922a <fileno@plt-0x1e>
 8049225:	e8 fe 00 00 00       	call   8049328 <__gmon_start__@plt>
 804922a:	e8 51 06 00 00       	call   8049880 <geteuid@plt+0xa8>
 804922f:	e8 bc 18 01 00       	call   805aaf0 <geteuid@plt+0x11318>
 8049234:	58                   	pop    %eax
 8049235:	5b                   	pop    %ebx
 8049236:	c9                   	leave  
 8049237:	c3                   	ret    

Disassembly of section .plt:

08049238 <fileno@plt-0x10>:
 8049238:	ff 35 f8 0f 06 08    	pushl  0x8060ff8
 804923e:	ff 25 fc 0f 06 08    	jmp    *0x8060ffc
 8049244:	00 00                	add    %al,(%eax)
	...

08049248 <fileno@plt>:
 8049248:	ff 25 00 10 06 08    	jmp    *0x8061000
 804924e:	68 00 00 00 00       	push   $0x0
 8049253:	e9 e0 ff ff ff       	jmp    8049238 <fileno@plt-0x10>

08049258 <getpagesize@plt>:
 8049258:	ff 25 04 10 06 08    	jmp    *0x8061004
 804925e:	68 08 00 00 00       	push   $0x8
 8049263:	e9 d0 ff ff ff       	jmp    8049238 <fileno@plt-0x10>

08049268 <abort@plt>:
 8049268:	ff 25 08 10 06 08    	jmp    *0x8061008
 804926e:	68 10 00 00 00       	push   $0x10
 8049273:	e9 c0 ff ff ff       	jmp    8049238 <fileno@plt-0x10>

08049278 <__errno_location@plt>:
 8049278:	ff 25 0c 10 06 08    	jmp    *0x806100c
 804927e:	68 18 00 00 00       	push   $0x18
 8049283:	e9 b0 ff ff ff       	jmp    8049238 <fileno@plt-0x10>

08049288 <endservent@plt>:
 8049288:	ff 25 10 10 06 08    	jmp    *0x8061010
 804928e:	68 20 00 00 00       	push   $0x20
 8049293:	e9 a0 ff ff ff       	jmp    8049238 <fileno@plt-0x10>

08049298 <inet_ntop@plt>:
 8049298:	ff 25 14 10 06 08    	jmp    *0x8061014
 804929e:	68 28 00 00 00       	push   $0x28
 80492a3:	e9 90 ff ff ff       	jmp    8049238 <fileno@plt-0x10>

080492a8 <open@plt>:
 80492a8:	ff 25 18 10 06 08    	jmp    *0x8061018
 80492ae:	68 30 00 00 00       	push   $0x30
 80492b3:	e9 80 ff ff ff       	jmp    8049238 <fileno@plt-0x10>

080492b8 <strerror@plt>:
 80492b8:	ff 25 1c 10 06 08    	jmp    *0x806101c
 80492be:	68 38 00 00 00       	push   $0x38
 80492c3:	e9 70 ff ff ff       	jmp    8049238 <fileno@plt-0x10>

080492c8 <qsort@plt>:
 80492c8:	ff 25 20 10 06 08    	jmp    *0x8061020
 80492ce:	68 40 00 00 00       	push   $0x40
 80492d3:	e9 60 ff ff ff       	jmp    8049238 <fileno@plt-0x10>

080492d8 <inet_ntoa@plt>:
 80492d8:	ff 25 24 10 06 08    	jmp    *0x8061024
 80492de:	68 48 00 00 00       	push   $0x48
 80492e3:	e9 50 ff ff ff       	jmp    8049238 <fileno@plt-0x10>

080492e8 <freeaddrinfo@plt>:
 80492e8:	ff 25 28 10 06 08    	jmp    *0x8061028
 80492ee:	68 50 00 00 00       	push   $0x50
 80492f3:	e9 40 ff ff ff       	jmp    8049238 <fileno@plt-0x10>

080492f8 <bsearch@plt>:
 80492f8:	ff 25 2c 10 06 08    	jmp    *0x806102c
 80492fe:	68 58 00 00 00       	push   $0x58
 8049303:	e9 30 ff ff ff       	jmp    8049238 <fileno@plt-0x10>

08049308 <__fprintf_chk@plt>:
 8049308:	ff 25 30 10 06 08    	jmp    *0x8061030
 804930e:	68 60 00 00 00       	push   $0x60
 8049313:	e9 20 ff ff ff       	jmp    8049238 <fileno@plt-0x10>

08049318 <getnetbyaddr@plt>:
 8049318:	ff 25 34 10 06 08    	jmp    *0x8061034
 804931e:	68 68 00 00 00       	push   $0x68
 8049323:	e9 10 ff ff ff       	jmp    8049238 <fileno@plt-0x10>

08049328 <__gmon_start__@plt>:
 8049328:	ff 25 38 10 06 08    	jmp    *0x8061038
 804932e:	68 70 00 00 00       	push   $0x70
 8049333:	e9 00 ff ff ff       	jmp    8049238 <fileno@plt-0x10>

08049338 <realloc@plt>:
 8049338:	ff 25 3c 10 06 08    	jmp    *0x806103c
 804933e:	68 78 00 00 00       	push   $0x78
 8049343:	e9 f0 fe ff ff       	jmp    8049238 <fileno@plt-0x10>

08049348 <rewind@plt>:
 8049348:	ff 25 40 10 06 08    	jmp    *0x8061040
 804934e:	68 80 00 00 00       	push   $0x80
 8049353:	e9 e0 fe ff ff       	jmp    8049238 <fileno@plt-0x10>

08049358 <__printf_chk@plt>:
 8049358:	ff 25 44 10 06 08    	jmp    *0x8061044
 804935e:	68 88 00 00 00       	push   $0x88
 8049363:	e9 d0 fe ff ff       	jmp    8049238 <fileno@plt-0x10>

08049368 <setservent@plt>:
 8049368:	ff 25 48 10 06 08    	jmp    *0x8061048
 804936e:	68 90 00 00 00       	push   $0x90
 8049373:	e9 c0 fe ff ff       	jmp    8049238 <fileno@plt-0x10>

08049378 <strchr@plt>:
 8049378:	ff 25 4c 10 06 08    	jmp    *0x806104c
 804937e:	68 98 00 00 00       	push   $0x98
 8049383:	e9 b0 fe ff ff       	jmp    8049238 <fileno@plt-0x10>

08049388 <calloc@plt>:
 8049388:	ff 25 50 10 06 08    	jmp    *0x8061050
 804938e:	68 a0 00 00 00       	push   $0xa0
 8049393:	e9 a0 fe ff ff       	jmp    8049238 <fileno@plt-0x10>

08049398 <strncpy@plt>:
 8049398:	ff 25 54 10 06 08    	jmp    *0x8061054
 804939e:	68 a8 00 00 00       	push   $0xa8
 80493a3:	e9 90 fe ff ff       	jmp    8049238 <fileno@plt-0x10>

080493a8 <fgets@plt>:
 80493a8:	ff 25 58 10 06 08    	jmp    *0x8061058
 80493ae:	68 b0 00 00 00       	push   $0xb0
 80493b3:	e9 80 fe ff ff       	jmp    8049238 <fileno@plt-0x10>

080493b8 <__libc_start_main@plt>:
 80493b8:	ff 25 5c 10 06 08    	jmp    *0x806105c
 80493be:	68 b8 00 00 00       	push   $0xb8
 80493c3:	e9 70 fe ff ff       	jmp    8049238 <fileno@plt-0x10>

080493c8 <strrchr@plt>:
 80493c8:	ff 25 60 10 06 08    	jmp    *0x8061060
 80493ce:	68 c0 00 00 00       	push   $0xc0
 80493d3:	e9 60 fe ff ff       	jmp    8049238 <fileno@plt-0x10>

080493d8 <uname@plt>:
 80493d8:	ff 25 64 10 06 08    	jmp    *0x8061064
 80493de:	68 c8 00 00 00       	push   $0xc8
 80493e3:	e9 50 fe ff ff       	jmp    8049238 <fileno@plt-0x10>

080493e8 <bindtextdomain@plt>:
 80493e8:	ff 25 68 10 06 08    	jmp    *0x8061068
 80493ee:	68 d0 00 00 00       	push   $0xd0
 80493f3:	e9 40 fe ff ff       	jmp    8049238 <fileno@plt-0x10>

080493f8 <read@plt>:
 80493f8:	ff 25 6c 10 06 08    	jmp    *0x806106c
 80493fe:	68 d8 00 00 00       	push   $0xd8
 8049403:	e9 30 fe ff ff       	jmp    8049238 <fileno@plt-0x10>

08049408 <perror@plt>:
 8049408:	ff 25 70 10 06 08    	jmp    *0x8061070
 804940e:	68 e0 00 00 00       	push   $0xe0
 8049413:	e9 20 fe ff ff       	jmp    8049238 <fileno@plt-0x10>

08049418 <__strcat_chk@plt>:
 8049418:	ff 25 74 10 06 08    	jmp    *0x8061074
 804941e:	68 e8 00 00 00       	push   $0xe8
 8049423:	e9 10 fe ff ff       	jmp    8049238 <fileno@plt-0x10>

08049428 <gettext@plt>:
 8049428:	ff 25 78 10 06 08    	jmp    *0x8061078
 804942e:	68 f0 00 00 00       	push   $0xf0
 8049433:	e9 00 fe ff ff       	jmp    8049238 <fileno@plt-0x10>

08049438 <readdir@plt>:
 8049438:	ff 25 7c 10 06 08    	jmp    *0x806107c
 804943e:	68 f8 00 00 00       	push   $0xf8
 8049443:	e9 f0 fd ff ff       	jmp    8049238 <fileno@plt-0x10>

08049448 <strtol@plt>:
 8049448:	ff 25 80 10 06 08    	jmp    *0x8061080
 804944e:	68 00 01 00 00       	push   $0x100
 8049453:	e9 e0 fd ff ff       	jmp    8049238 <fileno@plt-0x10>

08049458 <__ctype_toupper_loc@plt>:
 8049458:	ff 25 84 10 06 08    	jmp    *0x8061084
 804945e:	68 08 01 00 00       	push   $0x108
 8049463:	e9 d0 fd ff ff       	jmp    8049238 <fileno@plt-0x10>

08049468 <free@plt>:
 8049468:	ff 25 88 10 06 08    	jmp    *0x8061088
 804946e:	68 10 01 00 00       	push   $0x110
 8049473:	e9 c0 fd ff ff       	jmp    8049238 <fileno@plt-0x10>

08049478 <inet_pton@plt>:
 8049478:	ff 25 8c 10 06 08    	jmp    *0x806108c
 804947e:	68 18 01 00 00       	push   $0x118
 8049483:	e9 b0 fd ff ff       	jmp    8049238 <fileno@plt-0x10>

08049488 <access@plt>:
 8049488:	ff 25 90 10 06 08    	jmp    *0x8061090
 804948e:	68 20 01 00 00       	push   $0x120
 8049493:	e9 a0 fd ff ff       	jmp    8049238 <fileno@plt-0x10>

08049498 <opendir@plt>:
 8049498:	ff 25 94 10 06 08    	jmp    *0x8061094
 804949e:	68 28 01 00 00       	push   $0x128
 80494a3:	e9 90 fd ff ff       	jmp    8049238 <fileno@plt-0x10>

080494a8 <getopt_long@plt>:
 80494a8:	ff 25 98 10 06 08    	jmp    *0x8061098
 80494ae:	68 30 01 00 00       	push   $0x130
 80494b3:	e9 80 fd ff ff       	jmp    8049238 <fileno@plt-0x10>

080494b8 <ioctl@plt>:
 80494b8:	ff 25 9c 10 06 08    	jmp    *0x806109c
 80494be:	68 38 01 00 00       	push   $0x138
 80494c3:	e9 70 fd ff ff       	jmp    8049238 <fileno@plt-0x10>

080494c8 <socket@plt>:
 80494c8:	ff 25 a0 10 06 08    	jmp    *0x80610a0
 80494ce:	68 40 01 00 00       	push   $0x140
 80494d3:	e9 60 fd ff ff       	jmp    8049238 <fileno@plt-0x10>

080494d8 <__ctype_b_loc@plt>:
 80494d8:	ff 25 a4 10 06 08    	jmp    *0x80610a4
 80494de:	68 48 01 00 00       	push   $0x148
 80494e3:	e9 50 fd ff ff       	jmp    8049238 <fileno@plt-0x10>

080494e8 <inet_aton@plt>:
 80494e8:	ff 25 a8 10 06 08    	jmp    *0x80610a8
 80494ee:	68 50 01 00 00       	push   $0x150
 80494f3:	e9 40 fd ff ff       	jmp    8049238 <fileno@plt-0x10>

080494f8 <getaddrinfo@plt>:
 80494f8:	ff 25 ac 10 06 08    	jmp    *0x80610ac
 80494fe:	68 58 01 00 00       	push   $0x158
 8049503:	e9 30 fd ff ff       	jmp    8049238 <fileno@plt-0x10>

08049508 <fclose@plt>:
 8049508:	ff 25 b0 10 06 08    	jmp    *0x80610b0
 804950e:	68 60 01 00 00       	push   $0x160
 8049513:	e9 20 fd ff ff       	jmp    8049238 <fileno@plt-0x10>

08049518 <getservent@plt>:
 8049518:	ff 25 b4 10 06 08    	jmp    *0x80610b4
 804951e:	68 68 01 00 00       	push   $0x168
 8049523:	e9 10 fd ff ff       	jmp    8049238 <fileno@plt-0x10>

08049528 <memcpy@plt>:
 8049528:	ff 25 b8 10 06 08    	jmp    *0x80610b8
 804952e:	68 70 01 00 00       	push   $0x170
 8049533:	e9 00 fd ff ff       	jmp    8049238 <fileno@plt-0x10>

08049538 <strtoul@plt>:
 8049538:	ff 25 bc 10 06 08    	jmp    *0x80610bc
 804953e:	68 78 01 00 00       	push   $0x178
 8049543:	e9 f0 fc ff ff       	jmp    8049238 <fileno@plt-0x10>

08049548 <strlen@plt>:
 8049548:	ff 25 c0 10 06 08    	jmp    *0x80610c0
 804954e:	68 80 01 00 00       	push   $0x180
 8049553:	e9 e0 fc ff ff       	jmp    8049238 <fileno@plt-0x10>

08049558 <fopen@plt>:
 8049558:	ff 25 c4 10 06 08    	jmp    *0x80610c4
 804955e:	68 88 01 00 00       	push   $0x188
 8049563:	e9 d0 fc ff ff       	jmp    8049238 <fileno@plt-0x10>

08049568 <getnetbyname@plt>:
 8049568:	ff 25 c8 10 06 08    	jmp    *0x80610c8
 804956e:	68 90 01 00 00       	push   $0x190
 8049573:	e9 c0 fc ff ff       	jmp    8049238 <fileno@plt-0x10>

08049578 <getpwuid@plt>:
 8049578:	ff 25 cc 10 06 08    	jmp    *0x80610cc
 804957e:	68 98 01 00 00       	push   $0x198
 8049583:	e9 b0 fc ff ff       	jmp    8049238 <fileno@plt-0x10>

08049588 <setlocale@plt>:
 8049588:	ff 25 d0 10 06 08    	jmp    *0x80610d0
 804958e:	68 a0 01 00 00       	push   $0x1a0
 8049593:	e9 a0 fc ff ff       	jmp    8049238 <fileno@plt-0x10>

08049598 <__h_errno_location@plt>:
 8049598:	ff 25 d4 10 06 08    	jmp    *0x80610d4
 804959e:	68 a8 01 00 00       	push   $0x1a8
 80495a3:	e9 90 fc ff ff       	jmp    8049238 <fileno@plt-0x10>

080495a8 <feof@plt>:
 80495a8:	ff 25 d8 10 06 08    	jmp    *0x80610d8
 80495ae:	68 b0 01 00 00       	push   $0x1b0
 80495b3:	e9 80 fc ff ff       	jmp    8049238 <fileno@plt-0x10>

080495b8 <strcpy@plt>:
 80495b8:	ff 25 dc 10 06 08    	jmp    *0x80610dc
 80495be:	68 b8 01 00 00       	push   $0x1b8
 80495c3:	e9 70 fc ff ff       	jmp    8049238 <fileno@plt-0x10>

080495c8 <gethostbyaddr@plt>:
 80495c8:	ff 25 e0 10 06 08    	jmp    *0x80610e0
 80495ce:	68 c0 01 00 00       	push   $0x1c0
 80495d3:	e9 60 fc ff ff       	jmp    8049238 <fileno@plt-0x10>

080495d8 <endprotoent@plt>:
 80495d8:	ff 25 e4 10 06 08    	jmp    *0x80610e4
 80495de:	68 c8 01 00 00       	push   $0x1c8
 80495e3:	e9 50 fc ff ff       	jmp    8049238 <fileno@plt-0x10>

080495e8 <__strcpy_chk@plt>:
 80495e8:	ff 25 e8 10 06 08    	jmp    *0x80610e8
 80495ee:	68 d0 01 00 00       	push   $0x1d0
 80495f3:	e9 40 fc ff ff       	jmp    8049238 <fileno@plt-0x10>

080495f8 <closedir@plt>:
 80495f8:	ff 25 ec 10 06 08    	jmp    *0x80610ec
 80495fe:	68 d8 01 00 00       	push   $0x1d8
 8049603:	e9 30 fc ff ff       	jmp    8049238 <fileno@plt-0x10>

08049608 <close@plt>:
 8049608:	ff 25 f0 10 06 08    	jmp    *0x80610f0
 804960e:	68 e0 01 00 00       	push   $0x1e0
 8049613:	e9 20 fc ff ff       	jmp    8049238 <fileno@plt-0x10>

08049618 <fwrite@plt>:
 8049618:	ff 25 f4 10 06 08    	jmp    *0x80610f4
 804961e:	68 e8 01 00 00       	push   $0x1e8
 8049623:	e9 10 fc ff ff       	jmp    8049238 <fileno@plt-0x10>

08049628 <getprotoent@plt>:
 8049628:	ff 25 f8 10 06 08    	jmp    *0x80610f8
 804962e:	68 f0 01 00 00       	push   $0x1f0
 8049633:	e9 00 fc ff ff       	jmp    8049238 <fileno@plt-0x10>

08049638 <strstr@plt>:
 8049638:	ff 25 fc 10 06 08    	jmp    *0x80610fc
 804963e:	68 f8 01 00 00       	push   $0x1f8
 8049643:	e9 f0 fb ff ff       	jmp    8049238 <fileno@plt-0x10>

08049648 <setvbuf@plt>:
 8049648:	ff 25 00 11 06 08    	jmp    *0x8061100
 804964e:	68 00 02 00 00       	push   $0x200
 8049653:	e9 e0 fb ff ff       	jmp    8049238 <fileno@plt-0x10>

08049658 <malloc@plt>:
 8049658:	ff 25 04 11 06 08    	jmp    *0x8061104
 804965e:	68 08 02 00 00       	push   $0x208
 8049663:	e9 d0 fb ff ff       	jmp    8049238 <fileno@plt-0x10>

08049668 <__stack_chk_fail@plt>:
 8049668:	ff 25 08 11 06 08    	jmp    *0x8061108
 804966e:	68 10 02 00 00       	push   $0x210
 8049673:	e9 c0 fb ff ff       	jmp    8049238 <fileno@plt-0x10>

08049678 <rindex@plt>:
 8049678:	ff 25 0c 11 06 08    	jmp    *0x806110c
 804967e:	68 18 02 00 00       	push   $0x218
 8049683:	e9 b0 fb ff ff       	jmp    8049238 <fileno@plt-0x10>

08049688 <setprotoent@plt>:
 8049688:	ff 25 10 11 06 08    	jmp    *0x8061110
 804968e:	68 20 02 00 00       	push   $0x220
 8049693:	e9 a0 fb ff ff       	jmp    8049238 <fileno@plt-0x10>

08049698 <sleep@plt>:
 8049698:	ff 25 14 11 06 08    	jmp    *0x8061114
 804969e:	68 28 02 00 00       	push   $0x228
 80496a3:	e9 90 fb ff ff       	jmp    8049238 <fileno@plt-0x10>

080496a8 <readlink@plt>:
 80496a8:	ff 25 18 11 06 08    	jmp    *0x8061118
 80496ae:	68 30 02 00 00       	push   $0x230
 80496b3:	e9 80 fb ff ff       	jmp    8049238 <fileno@plt-0x10>

080496b8 <getnameinfo@plt>:
 80496b8:	ff 25 1c 11 06 08    	jmp    *0x806111c
 80496be:	68 38 02 00 00       	push   $0x238
 80496c3:	e9 70 fb ff ff       	jmp    8049238 <fileno@plt-0x10>

080496c8 <puts@plt>:
 80496c8:	ff 25 20 11 06 08    	jmp    *0x8061120
 80496ce:	68 40 02 00 00       	push   $0x240
 80496d3:	e9 60 fb ff ff       	jmp    8049238 <fileno@plt-0x10>

080496d8 <textdomain@plt>:
 80496d8:	ff 25 24 11 06 08    	jmp    *0x8061124
 80496de:	68 48 02 00 00       	push   $0x248
 80496e3:	e9 50 fb ff ff       	jmp    8049238 <fileno@plt-0x10>

080496e8 <sscanf@plt>:
 80496e8:	ff 25 28 11 06 08    	jmp    *0x8061128
 80496ee:	68 50 02 00 00       	push   $0x250
 80496f3:	e9 40 fb ff ff       	jmp    8049238 <fileno@plt-0x10>

080496f8 <__fxstat@plt>:
 80496f8:	ff 25 2c 11 06 08    	jmp    *0x806112c
 80496fe:	68 58 02 00 00       	push   $0x258
 8049703:	e9 30 fb ff ff       	jmp    8049238 <fileno@plt-0x10>

08049708 <fscanf@plt>:
 8049708:	ff 25 30 11 06 08    	jmp    *0x8061130
 804970e:	68 60 02 00 00       	push   $0x260
 8049713:	e9 20 fb ff ff       	jmp    8049238 <fileno@plt-0x10>

08049718 <__sprintf_chk@plt>:
 8049718:	ff 25 34 11 06 08    	jmp    *0x8061134
 804971e:	68 68 02 00 00       	push   $0x268
 8049723:	e9 10 fb ff ff       	jmp    8049238 <fileno@plt-0x10>

08049728 <strncmp@plt>:
 8049728:	ff 25 38 11 06 08    	jmp    *0x8061138
 804972e:	68 70 02 00 00       	push   $0x270
 8049733:	e9 00 fb ff ff       	jmp    8049238 <fileno@plt-0x10>

08049738 <index@plt>:
 8049738:	ff 25 3c 11 06 08    	jmp    *0x806113c
 804973e:	68 78 02 00 00       	push   $0x278
 8049743:	e9 f0 fa ff ff       	jmp    8049238 <fileno@plt-0x10>

08049748 <__snprintf_chk@plt>:
 8049748:	ff 25 40 11 06 08    	jmp    *0x8061140
 804974e:	68 80 02 00 00       	push   $0x280
 8049753:	e9 e0 fa ff ff       	jmp    8049238 <fileno@plt-0x10>

08049758 <_IO_putc@plt>:
 8049758:	ff 25 44 11 06 08    	jmp    *0x8061144
 804975e:	68 88 02 00 00       	push   $0x288
 8049763:	e9 d0 fa ff ff       	jmp    8049238 <fileno@plt-0x10>

08049768 <strpbrk@plt>:
 8049768:	ff 25 48 11 06 08    	jmp    *0x8061148
 804976e:	68 90 02 00 00       	push   $0x290
 8049773:	e9 c0 fa ff ff       	jmp    8049238 <fileno@plt-0x10>

08049778 <gethostbyname@plt>:
 8049778:	ff 25 4c 11 06 08    	jmp    *0x806114c
 804977e:	68 98 02 00 00       	push   $0x298
 8049783:	e9 b0 fa ff ff       	jmp    8049238 <fileno@plt-0x10>

08049788 <ferror@plt>:
 8049788:	ff 25 50 11 06 08    	jmp    *0x8061150
 804978e:	68 a0 02 00 00       	push   $0x2a0
 8049793:	e9 a0 fa ff ff       	jmp    8049238 <fileno@plt-0x10>

08049798 <strcmp@plt>:
 8049798:	ff 25 54 11 06 08    	jmp    *0x8061154
 804979e:	68 a8 02 00 00       	push   $0x2a8
 80497a3:	e9 90 fa ff ff       	jmp    8049238 <fileno@plt-0x10>

080497a8 <herror@plt>:
 80497a8:	ff 25 58 11 06 08    	jmp    *0x8061158
 80497ae:	68 b0 02 00 00       	push   $0x2b0
 80497b3:	e9 80 fa ff ff       	jmp    8049238 <fileno@plt-0x10>

080497b8 <__strdup@plt>:
 80497b8:	ff 25 5c 11 06 08    	jmp    *0x806115c
 80497be:	68 b8 02 00 00       	push   $0x2b8
 80497c3:	e9 70 fa ff ff       	jmp    8049238 <fileno@plt-0x10>

080497c8 <exit@plt>:
 80497c8:	ff 25 60 11 06 08    	jmp    *0x8061160
 80497ce:	68 c0 02 00 00       	push   $0x2c0
 80497d3:	e9 60 fa ff ff       	jmp    8049238 <fileno@plt-0x10>

080497d8 <geteuid@plt>:
 80497d8:	ff 25 64 11 06 08    	jmp    *0x8061164
 80497de:	68 c8 02 00 00       	push   $0x2c8
 80497e3:	e9 50 fa ff ff       	jmp    8049238 <fileno@plt-0x10>

Disassembly of section .text:

080497f0 <.text>:
 80497f0:	31 ed                	xor    %ebp,%ebp
 80497f2:	5e                   	pop    %esi
 80497f3:	89 e1                	mov    %esp,%ecx
 80497f5:	83 e4 f0             	and    $0xfffffff0,%esp
 80497f8:	50                   	push   %eax
 80497f9:	54                   	push   %esp
 80497fa:	52                   	push   %edx
 80497fb:	68 80 aa 05 08       	push   $0x805aa80
 8049800:	68 90 aa 05 08       	push   $0x805aa90
 8049805:	51                   	push   %ecx
 8049806:	56                   	push   %esi
 8049807:	68 b0 d4 04 08       	push   $0x804d4b0
 804980c:	e8 a7 fb ff ff       	call   80493b8 <__libc_start_main@plt>
 8049811:	f4                   	hlt    
 8049812:	90                   	nop
 8049813:	90                   	nop
 8049814:	90                   	nop
 8049815:	90                   	nop
 8049816:	90                   	nop
 8049817:	90                   	nop
 8049818:	90                   	nop
 8049819:	90                   	nop
 804981a:	90                   	nop
 804981b:	90                   	nop
 804981c:	90                   	nop
 804981d:	90                   	nop
 804981e:	90                   	nop
 804981f:	90                   	nop
 8049820:	55                   	push   %ebp
 8049821:	89 e5                	mov    %esp,%ebp
 8049823:	53                   	push   %ebx
 8049824:	83 ec 04             	sub    $0x4,%esp
 8049827:	80 3d c4 28 06 08 00 	cmpb   $0x0,0x80628c4
 804982e:	75 3f                	jne    804986f <geteuid@plt+0x97>
 8049830:	a1 c8 28 06 08       	mov    0x80628c8,%eax
 8049835:	bb 18 0f 06 08       	mov    $0x8060f18,%ebx
 804983a:	81 eb 14 0f 06 08    	sub    $0x8060f14,%ebx
 8049840:	c1 fb 02             	sar    $0x2,%ebx
 8049843:	83 eb 01             	sub    $0x1,%ebx
 8049846:	39 d8                	cmp    %ebx,%eax
 8049848:	73 1e                	jae    8049868 <geteuid@plt+0x90>
 804984a:	8d b6 00 00 00 00    	lea    0x0(%esi),%esi
 8049850:	83 c0 01             	add    $0x1,%eax
 8049853:	a3 c8 28 06 08       	mov    %eax,0x80628c8
 8049858:	ff 14 85 14 0f 06 08 	call   *0x8060f14(,%eax,4)
 804985f:	a1 c8 28 06 08       	mov    0x80628c8,%eax
 8049864:	39 d8                	cmp    %ebx,%eax
 8049866:	72 e8                	jb     8049850 <geteuid@plt+0x78>
 8049868:	c6 05 c4 28 06 08 01 	movb   $0x1,0x80628c4
 804986f:	83 c4 04             	add    $0x4,%esp
 8049872:	5b                   	pop    %ebx
 8049873:	5d                   	pop    %ebp
 8049874:	c3                   	ret    
 8049875:	8d 74 26 00          	lea    0x0(%esi,%eiz,1),%esi
 8049879:	8d bc 27 00 00 00 00 	lea    0x0(%edi,%eiz,1),%edi
 8049880:	55                   	push   %ebp
 8049881:	89 e5                	mov    %esp,%ebp
 8049883:	83 ec 18             	sub    $0x18,%esp
 8049886:	a1 1c 0f 06 08       	mov    0x8060f1c,%eax
 804988b:	85 c0                	test   %eax,%eax
 804988d:	74 12                	je     80498a1 <geteuid@plt+0xc9>
 804988f:	b8 00 00 00 00       	mov    $0x0,%eax
 8049894:	85 c0                	test   %eax,%eax
 8049896:	74 09                	je     80498a1 <geteuid@plt+0xc9>
 8049898:	c7 04 24 1c 0f 06 08 	movl   $0x8060f1c,(%esp)
 804989f:	ff d0                	call   *%eax
 80498a1:	c9                   	leave  
 80498a2:	c3                   	ret    
 80498a3:	90                   	nop
 80498a4:	90                   	nop
 80498a5:	90                   	nop
 80498a6:	90                   	nop
 80498a7:	90                   	nop
 80498a8:	90                   	nop
 80498a9:	90                   	nop
 80498aa:	90                   	nop
 80498ab:	90                   	nop
 80498ac:	90                   	nop
 80498ad:	90                   	nop
 80498ae:	90                   	nop
 80498af:	90                   	nop
 80498b0:	55                   	push   %ebp
 80498b1:	89 e5                	mov    %esp,%ebp
 80498b3:	83 ec 18             	sub    $0x18,%esp
 80498b6:	c7 04 24 48 ab 05 08 	movl   $0x805ab48,(%esp)
 80498bd:	e8 66 fb ff ff       	call   8049428 <gettext@plt>
 80498c2:	c7 44 24 04 01 00 00 	movl   $0x1,0x4(%esp)
 80498c9:	00 
 80498ca:	89 44 24 08          	mov    %eax,0x8(%esp)
 80498ce:	a1 80 28 06 08       	mov    0x8062880,%eax
 80498d3:	89 04 24             	mov    %eax,(%esp)
 80498d6:	e8 2d fa ff ff       	call   8049308 <__fprintf_chk@plt>
 80498db:	c7 04 24 98 ab 05 08 	movl   $0x805ab98,(%esp)
 80498e2:	e8 41 fb ff ff       	call   8049428 <gettext@plt>
 80498e7:	c7 44 24 04 01 00 00 	movl   $0x1,0x4(%esp)
 80498ee:	00 
 80498ef:	89 44 24 08          	mov    %eax,0x8(%esp)
 80498f3:	a1 80 28 06 08       	mov    0x8062880,%eax
 80498f8:	89 04 24             	mov    %eax,(%esp)
 80498fb:	e8 08 fa ff ff       	call   8049308 <__fprintf_chk@plt>
 8049900:	c7 04 24 c4 ab 05 08 	movl   $0x805abc4,(%esp)
 8049907:	e8 1c fb ff ff       	call   8049428 <gettext@plt>
 804990c:	c7 44 24 04 01 00 00 	movl   $0x1,0x4(%esp)
 8049913:	00 
 8049914:	89 44 24 08          	mov    %eax,0x8(%esp)
 8049918:	a1 80 28 06 08       	mov    0x8062880,%eax
 804991d:	89 04 24             	mov    %eax,(%esp)
 8049920:	e8 e3 f9 ff ff       	call   8049308 <__fprintf_chk@plt>
 8049925:	c7 04 24 fc ab 05 08 	movl   $0x805abfc,(%esp)
 804992c:	e8 f7 fa ff ff       	call   8049428 <gettext@plt>
 8049931:	c7 44 24 04 01 00 00 	movl   $0x1,0x4(%esp)
 8049938:	00 
 8049939:	89 44 24 08          	mov    %eax,0x8(%esp)
 804993d:	a1 80 28 06 08       	mov    0x8062880,%eax
 8049942:	89 04 24             	mov    %eax,(%esp)
 8049945:	e8 be f9 ff ff       	call   8049308 <__fprintf_chk@plt>
 804994a:	c7 04 24 34 ac 05 08 	movl   $0x805ac34,(%esp)
 8049951:	e8 d2 fa ff ff       	call   8049428 <gettext@plt>
 8049956:	c7 44 24 04 01 00 00 	movl   $0x1,0x4(%esp)
 804995d:	00 
 804995e:	89 44 24 08          	mov    %eax,0x8(%esp)
 8049962:	a1 80 28 06 08       	mov    0x8062880,%eax
 8049967:	89 04 24             	mov    %eax,(%esp)
 804996a:	e8 99 f9 ff ff       	call   8049308 <__fprintf_chk@plt>
 804996f:	c7 04 24 70 ac 05 08 	movl   $0x805ac70,(%esp)
 8049976:	e8 ad fa ff ff       	call   8049428 <gettext@plt>
 804997b:	c7 44 24 04 01 00 00 	movl   $0x1,0x4(%esp)
 8049982:	00 
 8049983:	89 44 24 08          	mov    %eax,0x8(%esp)
 8049987:	a1 80 28 06 08       	mov    0x8062880,%eax
 804998c:	89 04 24             	mov    %eax,(%esp)
 804998f:	e8 74 f9 ff ff       	call   8049308 <__fprintf_chk@plt>
 8049994:	c7 04 24 b8 ac 05 08 	movl   $0x805acb8,(%esp)
 804999b:	e8 88 fa ff ff       	call   8049428 <gettext@plt>
 80499a0:	c7 44 24 04 01 00 00 	movl   $0x1,0x4(%esp)
 80499a7:	00 
 80499a8:	89 44 24 08          	mov    %eax,0x8(%esp)
 80499ac:	a1 80 28 06 08       	mov    0x8062880,%eax
 80499b1:	89 04 24             	mov    %eax,(%esp)
 80499b4:	e8 4f f9 ff ff       	call   8049308 <__fprintf_chk@plt>
 80499b9:	c7 04 24 04 ad 05 08 	movl   $0x805ad04,(%esp)
 80499c0:	e8 63 fa ff ff       	call   8049428 <gettext@plt>
 80499c5:	c7 44 24 04 01 00 00 	movl   $0x1,0x4(%esp)
 80499cc:	00 
 80499cd:	89 44 24 08          	mov    %eax,0x8(%esp)
 80499d1:	a1 80 28 06 08       	mov    0x8062880,%eax
 80499d6:	89 04 24             	mov    %eax,(%esp)
 80499d9:	e8 2a f9 ff ff       	call   8049308 <__fprintf_chk@plt>
 80499de:	c7 04 24 48 ad 05 08 	movl   $0x805ad48,(%esp)
 80499e5:	e8 3e fa ff ff       	call   8049428 <gettext@plt>
 80499ea:	c7 44 24 04 01 00 00 	movl   $0x1,0x4(%esp)
 80499f1:	00 
 80499f2:	89 44 24 08          	mov    %eax,0x8(%esp)
 80499f6:	a1 80 28 06 08       	mov    0x8062880,%eax
 80499fb:	89 04 24             	mov    %eax,(%esp)
 80499fe:	e8 05 f9 ff ff       	call   8049308 <__fprintf_chk@plt>
 8049a03:	c7 04 24 78 ad 05 08 	movl   $0x805ad78,(%esp)
 8049a0a:	e8 19 fa ff ff       	call   8049428 <gettext@plt>
 8049a0f:	c7 44 24 04 01 00 00 	movl   $0x1,0x4(%esp)
 8049a16:	00 
 8049a17:	89 44 24 08          	mov    %eax,0x8(%esp)
 8049a1b:	a1 80 28 06 08       	mov    0x8062880,%eax
 8049a20:	89 04 24             	mov    %eax,(%esp)
 8049a23:	e8 e0 f8 ff ff       	call   8049308 <__fprintf_chk@plt>
 8049a28:	c7 04 24 b8 ad 05 08 	movl   $0x805adb8,(%esp)
 8049a2f:	e8 f4 f9 ff ff       	call   8049428 <gettext@plt>
 8049a34:	c7 44 24 04 01 00 00 	movl   $0x1,0x4(%esp)
 8049a3b:	00 
 8049a3c:	89 44 24 08          	mov    %eax,0x8(%esp)
 8049a40:	a1 80 28 06 08       	mov    0x8062880,%eax
 8049a45:	89 04 24             	mov    %eax,(%esp)
 8049a48:	e8 bb f8 ff ff       	call   8049308 <__fprintf_chk@plt>
 8049a4d:	c7 04 24 f0 ad 05 08 	movl   $0x805adf0,(%esp)
 8049a54:	e8 cf f9 ff ff       	call   8049428 <gettext@plt>
 8049a59:	c7 44 24 04 01 00 00 	movl   $0x1,0x4(%esp)
 8049a60:	00 
 8049a61:	89 44 24 08          	mov    %eax,0x8(%esp)
 8049a65:	a1 80 28 06 08       	mov    0x8062880,%eax
 8049a6a:	89 04 24             	mov    %eax,(%esp)
 8049a6d:	e8 96 f8 ff ff       	call   8049308 <__fprintf_chk@plt>
 8049a72:	c7 04 24 2c ae 05 08 	movl   $0x805ae2c,(%esp)
 8049a79:	e8 aa f9 ff ff       	call   8049428 <gettext@plt>
 8049a7e:	c7 44 24 04 01 00 00 	movl   $0x1,0x4(%esp)
 8049a85:	00 
 8049a86:	89 44 24 08          	mov    %eax,0x8(%esp)
 8049a8a:	a1 80 28 06 08       	mov    0x8062880,%eax
 8049a8f:	89 04 24             	mov    %eax,(%esp)
 8049a92:	e8 71 f8 ff ff       	call   8049308 <__fprintf_chk@plt>
 8049a97:	c7 04 24 68 ae 05 08 	movl   $0x805ae68,(%esp)
 8049a9e:	e8 85 f9 ff ff       	call   8049428 <gettext@plt>
 8049aa3:	c7 44 24 04 01 00 00 	movl   $0x1,0x4(%esp)
 8049aaa:	00 
 8049aab:	89 44 24 08          	mov    %eax,0x8(%esp)
 8049aaf:	a1 80 28 06 08       	mov    0x8062880,%eax
 8049ab4:	89 04 24             	mov    %eax,(%esp)
 8049ab7:	e8 4c f8 ff ff       	call   8049308 <__fprintf_chk@plt>
 8049abc:	c7 04 24 a4 ae 05 08 	movl   $0x805aea4,(%esp)
 8049ac3:	e8 60 f9 ff ff       	call   8049428 <gettext@plt>
 8049ac8:	c7 44 24 04 01 00 00 	movl   $0x1,0x4(%esp)
 8049acf:	00 
 8049ad0:	89 44 24 08          	mov    %eax,0x8(%esp)
 8049ad4:	a1 80 28 06 08       	mov    0x8062880,%eax
 8049ad9:	89 04 24             	mov    %eax,(%esp)
 8049adc:	e8 27 f8 ff ff       	call   8049308 <__fprintf_chk@plt>
 8049ae1:	c7 04 24 e0 ae 05 08 	movl   $0x805aee0,(%esp)
 8049ae8:	e8 3b f9 ff ff       	call   8049428 <gettext@plt>
 8049aed:	c7 44 24 04 01 00 00 	movl   $0x1,0x4(%esp)
 8049af4:	00 
 8049af5:	89 44 24 08          	mov    %eax,0x8(%esp)
 8049af9:	a1 80 28 06 08       	mov    0x8062880,%eax
 8049afe:	89 04 24             	mov    %eax,(%esp)
 8049b01:	e8 02 f8 ff ff       	call   8049308 <__fprintf_chk@plt>
 8049b06:	c7 04 24 24 af 05 08 	movl   $0x805af24,(%esp)
 8049b0d:	e8 16 f9 ff ff       	call   8049428 <gettext@plt>
 8049b12:	c7 44 24 04 01 00 00 	movl   $0x1,0x4(%esp)
 8049b19:	00 
 8049b1a:	89 44 24 08          	mov    %eax,0x8(%esp)
 8049b1e:	a1 80 28 06 08       	mov    0x8062880,%eax
 8049b23:	89 04 24             	mov    %eax,(%esp)
 8049b26:	e8 dd f7 ff ff       	call   8049308 <__fprintf_chk@plt>
 8049b2b:	c7 04 24 6c af 05 08 	movl   $0x805af6c,(%esp)
 8049b32:	e8 f1 f8 ff ff       	call   8049428 <gettext@plt>
 8049b37:	c7 44 24 04 01 00 00 	movl   $0x1,0x4(%esp)
 8049b3e:	00 
 8049b3f:	89 44 24 08          	mov    %eax,0x8(%esp)
 8049b43:	a1 80 28 06 08       	mov    0x8062880,%eax
 8049b48:	89 04 24             	mov    %eax,(%esp)
 8049b4b:	e8 b8 f7 ff ff       	call   8049308 <__fprintf_chk@plt>
 8049b50:	c7 04 24 a4 af 05 08 	movl   $0x805afa4,(%esp)
 8049b57:	e8 cc f8 ff ff       	call   8049428 <gettext@plt>
 8049b5c:	c7 44 24 04 01 00 00 	movl   $0x1,0x4(%esp)
 8049b63:	00 
 8049b64:	89 44 24 08          	mov    %eax,0x8(%esp)
 8049b68:	a1 80 28 06 08       	mov    0x8062880,%eax
 8049b6d:	89 04 24             	mov    %eax,(%esp)
 8049b70:	e8 93 f7 ff ff       	call   8049308 <__fprintf_chk@plt>
 8049b75:	c7 04 24 e8 af 05 08 	movl   $0x805afe8,(%esp)
 8049b7c:	e8 a7 f8 ff ff       	call   8049428 <gettext@plt>
 8049b81:	c7 44 24 04 01 00 00 	movl   $0x1,0x4(%esp)
 8049b88:	00 
 8049b89:	89 44 24 08          	mov    %eax,0x8(%esp)
 8049b8d:	a1 80 28 06 08       	mov    0x8062880,%eax
 8049b92:	89 04 24             	mov    %eax,(%esp)
 8049b95:	e8 6e f7 ff ff       	call   8049308 <__fprintf_chk@plt>
 8049b9a:	c7 04 24 34 b0 05 08 	movl   $0x805b034,(%esp)
 8049ba1:	e8 82 f8 ff ff       	call   8049428 <gettext@plt>
 8049ba6:	c7 44 24 04 01 00 00 	movl   $0x1,0x4(%esp)
 8049bad:	00 
 8049bae:	89 44 24 08          	mov    %eax,0x8(%esp)
 8049bb2:	a1 80 28 06 08       	mov    0x8062880,%eax
 8049bb7:	89 04 24             	mov    %eax,(%esp)
 8049bba:	e8 49 f7 ff ff       	call   8049308 <__fprintf_chk@plt>
 8049bbf:	c7 04 24 68 b0 05 08 	movl   $0x805b068,(%esp)
 8049bc6:	e8 5d f8 ff ff       	call   8049428 <gettext@plt>
 8049bcb:	c7 44 24 04 01 00 00 	movl   $0x1,0x4(%esp)
 8049bd2:	00 
 8049bd3:	89 44 24 08          	mov    %eax,0x8(%esp)
 8049bd7:	a1 80 28 06 08       	mov    0x8062880,%eax
 8049bdc:	89 04 24             	mov    %eax,(%esp)
 8049bdf:	e8 24 f7 ff ff       	call   8049308 <__fprintf_chk@plt>
 8049be4:	c7 04 24 b8 b0 05 08 	movl   $0x805b0b8,(%esp)
 8049beb:	e8 38 f8 ff ff       	call   8049428 <gettext@plt>
 8049bf0:	c7 44 24 04 01 00 00 	movl   $0x1,0x4(%esp)
 8049bf7:	00 
 8049bf8:	89 44 24 08          	mov    %eax,0x8(%esp)
 8049bfc:	a1 80 28 06 08       	mov    0x8062880,%eax
 8049c01:	89 04 24             	mov    %eax,(%esp)
 8049c04:	e8 ff f6 ff ff       	call   8049308 <__fprintf_chk@plt>
 8049c09:	c7 04 24 00 b1 05 08 	movl   $0x805b100,(%esp)
 8049c10:	e8 13 f8 ff ff       	call   8049428 <gettext@plt>
 8049c15:	c7 44 24 04 01 00 00 	movl   $0x1,0x4(%esp)
 8049c1c:	00 
 8049c1d:	89 44 24 08          	mov    %eax,0x8(%esp)
 8049c21:	a1 80 28 06 08       	mov    0x8062880,%eax
 8049c26:	89 04 24             	mov    %eax,(%esp)
 8049c29:	e8 da f6 ff ff       	call   8049308 <__fprintf_chk@plt>
 8049c2e:	c7 04 24 50 b1 05 08 	movl   $0x805b150,(%esp)
 8049c35:	e8 ee f7 ff ff       	call   8049428 <gettext@plt>
 8049c3a:	c7 44 24 0c 11 ba 05 	movl   $0x805ba11,0xc(%esp)
 8049c41:	08 
 8049c42:	c7 44 24 04 01 00 00 	movl   $0x1,0x4(%esp)
 8049c49:	00 
 8049c4a:	89 44 24 08          	mov    %eax,0x8(%esp)
 8049c4e:	a1 80 28 06 08       	mov    0x8062880,%eax
 8049c53:	89 04 24             	mov    %eax,(%esp)
 8049c56:	e8 ad f6 ff ff       	call   8049308 <__fprintf_chk@plt>
 8049c5b:	c7 04 24 8c b1 05 08 	movl   $0x805b18c,(%esp)
 8049c62:	e8 c1 f7 ff ff       	call   8049428 <gettext@plt>
 8049c67:	c7 44 24 04 01 00 00 	movl   $0x1,0x4(%esp)
 8049c6e:	00 
 8049c6f:	89 44 24 08          	mov    %eax,0x8(%esp)
 8049c73:	a1 80 28 06 08       	mov    0x8062880,%eax
 8049c78:	89 04 24             	mov    %eax,(%esp)
 8049c7b:	e8 88 f6 ff ff       	call   8049308 <__fprintf_chk@plt>
 8049c80:	c7 04 24 01 00 00 00 	movl   $0x1,(%esp)
 8049c87:	e8 d4 56 00 00       	call   804f360 <geteuid@plt+0x5b88>
 8049c8c:	c7 04 24 04 00 00 00 	movl   $0x4,(%esp)
 8049c93:	e8 30 fb ff ff       	call   80497c8 <exit@plt>
 8049c98:	90                   	nop
 8049c99:	8d b4 26 00 00 00 00 	lea    0x0(%esi,%eiz,1),%esi
 8049ca0:	55                   	push   %ebp
 8049ca1:	89 e5                	mov    %esp,%ebp
 8049ca3:	57                   	push   %edi
 8049ca4:	89 cf                	mov    %ecx,%edi
 8049ca6:	56                   	push   %esi
 8049ca7:	89 c6                	mov    %eax,%esi
 8049ca9:	53                   	push   %ebx
 8049caa:	89 d3                	mov    %edx,%ebx
 8049cac:	83 ec 1c             	sub    $0x1c,%esp
 8049caf:	83 3d ac 11 06 08 01 	cmpl   $0x1,0x80611ac
 8049cb6:	7e 68                	jle    8049d20 <geteuid@plt+0x548>
 8049cb8:	f6 05 00 29 06 08 10 	testb  $0x10,0x8062900
 8049cbf:	75 2f                	jne    8049cf0 <geteuid@plt+0x518>
 8049cc1:	89 04 24             	mov    %eax,(%esp)
 8049cc4:	e8 af f8 ff ff       	call   8049578 <getpwuid@plt>
 8049cc9:	85 c0                	test   %eax,%eax
 8049ccb:	74 23                	je     8049cf0 <geteuid@plt+0x518>
 8049ccd:	8b 00                	mov    (%eax),%eax
 8049ccf:	c7 44 24 04 16 ba 05 	movl   $0x805ba16,0x4(%esp)
 8049cd6:	08 
 8049cd7:	c7 04 24 01 00 00 00 	movl   $0x1,(%esp)
 8049cde:	89 44 24 08          	mov    %eax,0x8(%esp)
 8049ce2:	e8 71 f6 ff ff       	call   8049358 <__printf_chk@plt>
 8049ce7:	eb 1f                	jmp    8049d08 <geteuid@plt+0x530>
 8049ce9:	8d b4 26 00 00 00 00 	lea    0x0(%esi,%eiz,1),%esi
 8049cf0:	89 74 24 08          	mov    %esi,0x8(%esp)
 8049cf4:	c7 44 24 04 1e ba 05 	movl   $0x805ba1e,0x4(%esp)
 8049cfb:	08 
 8049cfc:	c7 04 24 01 00 00 00 	movl   $0x1,(%esp)
 8049d03:	e8 50 f6 ff ff       	call   8049358 <__printf_chk@plt>
 8049d08:	89 5c 24 08          	mov    %ebx,0x8(%esp)
 8049d0c:	c7 44 24 04 26 ba 05 	movl   $0x805ba26,0x4(%esp)
 8049d13:	08 
 8049d14:	c7 04 24 01 00 00 00 	movl   $0x1,(%esp)
 8049d1b:	e8 38 f6 ff ff       	call   8049358 <__printf_chk@plt>
 8049d20:	8b 15 24 29 06 08    	mov    0x8062924,%edx
 8049d26:	85 d2                	test   %edx,%edx
 8049d28:	74 54                	je     8049d7e <geteuid@plt+0x5a6>
 8049d2a:	89 d8                	mov    %ebx,%eax
 8049d2c:	ba 9f 6f 4c 9b       	mov    $0x9b4c6f9f,%edx
 8049d31:	f7 e2                	mul    %edx
 8049d33:	89 d8                	mov    %ebx,%eax
 8049d35:	c1 ea 07             	shr    $0x7,%edx
 8049d38:	69 d2 d3 00 00 00    	imul   $0xd3,%edx,%edx
 8049d3e:	29 d0                	sub    %edx,%eax
 8049d40:	8b 04 85 60 29 06 08 	mov    0x8062960(,%eax,4),%eax
 8049d47:	85 c0                	test   %eax,%eax
 8049d49:	75 13                	jne    8049d5e <geteuid@plt+0x586>
 8049d4b:	90                   	nop
 8049d4c:	8d 74 26 00          	lea    0x0(%esi,%eiz,1),%esi
 8049d50:	b8 df f8 05 08       	mov    $0x805f8df,%eax
 8049d55:	eb 0f                	jmp    8049d66 <geteuid@plt+0x58e>
 8049d57:	90                   	nop
 8049d58:	8b 00                	mov    (%eax),%eax
 8049d5a:	85 c0                	test   %eax,%eax
 8049d5c:	74 f2                	je     8049d50 <geteuid@plt+0x578>
 8049d5e:	3b 58 04             	cmp    0x4(%eax),%ebx
 8049d61:	75 f5                	jne    8049d58 <geteuid@plt+0x580>
 8049d63:	83 c0 08             	add    $0x8,%eax
 8049d66:	89 44 24 08          	mov    %eax,0x8(%esp)
 8049d6a:	c7 44 24 04 2e ba 05 	movl   $0x805ba2e,0x4(%esp)
 8049d71:	08 
 8049d72:	c7 04 24 01 00 00 00 	movl   $0x1,(%esp)
 8049d79:	e8 da f5 ff ff       	call   8049358 <__printf_chk@plt>
 8049d7e:	a1 08 29 06 08       	mov    0x8062908,%eax
 8049d83:	85 c0                	test   %eax,%eax
 8049d85:	74 18                	je     8049d9f <geteuid@plt+0x5c7>
 8049d87:	89 7c 24 08          	mov    %edi,0x8(%esp)
 8049d8b:	c7 44 24 04 6f f4 05 	movl   $0x805f46f,0x4(%esp)
 8049d92:	08 
 8049d93:	c7 04 24 01 00 00 00 	movl   $0x1,(%esp)
 8049d9a:	e8 b9 f5 ff ff       	call   8049358 <__printf_chk@plt>
 8049d9f:	a1 a0 28 06 08       	mov    0x80628a0,%eax
 8049da4:	c7 04 24 0a 00 00 00 	movl   $0xa,(%esp)
 8049dab:	89 44 24 04          	mov    %eax,0x4(%esp)
 8049daf:	e8 a4 f9 ff ff       	call   8049758 <_IO_putc@plt>
 8049db4:	83 c4 1c             	add    $0x1c,%esp
 8049db7:	5b                   	pop    %ebx
 8049db8:	5e                   	pop    %esi
 8049db9:	5f                   	pop    %edi
 8049dba:	5d                   	pop    %ebp
 8049dbb:	c3                   	ret    
 8049dbc:	8d 74 26 00          	lea    0x0(%esi,%eiz,1),%esi
 8049dc0:	55                   	push   %ebp
 8049dc1:	89 e5                	mov    %esp,%ebp
 8049dc3:	57                   	push   %edi
 8049dc4:	56                   	push   %esi
 8049dc5:	53                   	push   %ebx
 8049dc6:	81 ec 7c 08 00 00    	sub    $0x87c,%esp
 8049dcc:	65 8b 0d 14 00 00 00 	mov    %gs:0x14,%ecx
 8049dd3:	89 4d e4             	mov    %ecx,-0x1c(%ebp)
 8049dd6:	31 c9                	xor    %ecx,%ecx
 8049dd8:	85 c0                	test   %eax,%eax
 8049dda:	75 1c                	jne    8049df8 <geteuid@plt+0x620>
 8049ddc:	8b 45 e4             	mov    -0x1c(%ebp),%eax
 8049ddf:	65 33 05 14 00 00 00 	xor    %gs:0x14,%eax
 8049de6:	0f 85 ae 08 00 00    	jne    804a69a <geteuid@plt+0xec2>
 8049dec:	81 c4 7c 08 00 00    	add    $0x87c,%esp
 8049df2:	5b                   	pop    %ebx
 8049df3:	5e                   	pop    %esi
 8049df4:	5f                   	pop    %edi
 8049df5:	5d                   	pop    %ebp
 8049df6:	c3                   	ret    
 8049df7:	90                   	nop
 8049df8:	8d 85 2e fc ff ff    	lea    -0x3d2(%ebp),%eax
 8049dfe:	89 44 24 40          	mov    %eax,0x40(%esp)
 8049e02:	8d 85 18 f8 ff ff    	lea    -0x7e8(%ebp),%eax
 8049e08:	89 44 24 3c          	mov    %eax,0x3c(%esp)
 8049e0c:	8d 85 fc f7 ff ff    	lea    -0x804(%ebp),%eax
 8049e12:	89 44 24 38          	mov    %eax,0x38(%esp)
 8049e16:	8d 85 04 f8 ff ff    	lea    -0x7fc(%ebp),%eax
 8049e1c:	89 44 24 34          	mov    %eax,0x34(%esp)
 8049e20:	8d 85 1c f8 ff ff    	lea    -0x7e4(%ebp),%eax
 8049e26:	89 44 24 30          	mov    %eax,0x30(%esp)
 8049e2a:	8d 85 20 f8 ff ff    	lea    -0x7e0(%ebp),%eax
 8049e30:	89 44 24 2c          	mov    %eax,0x2c(%esp)
 8049e34:	8d 85 00 f8 ff ff    	lea    -0x800(%ebp),%eax
 8049e3a:	89 44 24 28          	mov    %eax,0x28(%esp)
 8049e3e:	8d 85 28 f8 ff ff    	lea    -0x7d8(%ebp),%eax
 8049e44:	89 44 24 24          	mov    %eax,0x24(%esp)
 8049e48:	8d 85 24 f8 ff ff    	lea    -0x7dc(%ebp),%eax
 8049e4e:	89 44 24 20          	mov    %eax,0x20(%esp)
 8049e52:	8d 85 08 f8 ff ff    	lea    -0x7f8(%ebp),%eax
 8049e58:	89 44 24 1c          	mov    %eax,0x1c(%esp)
 8049e5c:	8d 85 10 f8 ff ff    	lea    -0x7f0(%ebp),%eax
 8049e62:	89 44 24 18          	mov    %eax,0x18(%esp)
 8049e66:	8d 85 14 f8 ff ff    	lea    -0x7ec(%ebp),%eax
 8049e6c:	89 44 24 10          	mov    %eax,0x10(%esp)
 8049e70:	8d 9d 2e fe ff ff    	lea    -0x1d2(%ebp),%ebx
 8049e76:	8d 85 0c f8 ff ff    	lea    -0x7f4(%ebp),%eax
 8049e7c:	8d b5 ae fe ff ff    	lea    -0x152(%ebp),%esi
 8049e82:	89 14 24             	mov    %edx,(%esp)
 8049e85:	89 74 24 14          	mov    %esi,0x14(%esp)
 8049e89:	89 5c 24 0c          	mov    %ebx,0xc(%esp)
 8049e8d:	89 44 24 08          	mov    %eax,0x8(%esp)
 8049e91:	c7 44 24 04 cc b1 05 	movl   $0x805b1cc,0x4(%esp)
 8049e98:	08 
 8049e99:	e8 4a f8 ff ff       	call   80496e8 <sscanf@plt>
 8049e9e:	89 1c 24             	mov    %ebx,(%esp)
 8049ea1:	89 85 ec f7 ff ff    	mov    %eax,-0x814(%ebp)
 8049ea7:	e8 9c f6 ff ff       	call   8049548 <strlen@plt>
 8049eac:	83 f8 08             	cmp    $0x8,%eax
 8049eaf:	0f 87 fb 03 00 00    	ja     804a2b0 <geteuid@plt+0xad8>
 8049eb5:	8d 45 bc             	lea    -0x44(%ebp),%eax
 8049eb8:	89 44 24 08          	mov    %eax,0x8(%esp)
 8049ebc:	c7 44 24 04 46 ba 05 	movl   $0x805ba46,0x4(%esp)
 8049ec3:	08 
 8049ec4:	89 1c 24             	mov    %ebx,(%esp)
 8049ec7:	e8 1c f8 ff ff       	call   80496e8 <sscanf@plt>
 8049ecc:	8d 45 a0             	lea    -0x60(%ebp),%eax
 8049ecf:	89 44 24 08          	mov    %eax,0x8(%esp)
 8049ed3:	c7 44 24 04 46 ba 05 	movl   $0x805ba46,0x4(%esp)
 8049eda:	08 
 8049edb:	89 34 24             	mov    %esi,(%esp)
 8049ede:	e8 05 f8 ff ff       	call   80496e8 <sscanf@plt>
 8049ee3:	83 bd ec f7 ff ff 0a 	cmpl   $0xa,-0x814(%ebp)
 8049eea:	66 c7 45 b8 02 00    	movw   $0x2,-0x48(%ebp)
 8049ef0:	66 c7 45 9c 02 00    	movw   $0x2,-0x64(%ebp)
 8049ef6:	c7 85 e8 f7 ff ff dd 	movl   $0x805badd,-0x818(%ebp)
 8049efd:	ba 05 08 
 8049f00:	0f 8e ab 04 00 00    	jle    804a3b1 <geteuid@plt+0xbd9>
 8049f06:	0f b7 45 b8          	movzwl -0x48(%ebp),%eax
 8049f0a:	89 04 24             	mov    %eax,(%esp)
 8049f0d:	e8 ce 55 00 00       	call   804f4e0 <geteuid@plt+0x5d08>
 8049f12:	85 c0                	test   %eax,%eax
 8049f14:	89 c7                	mov    %eax,%edi
 8049f16:	0f 84 4c 07 00 00    	je     804a668 <geteuid@plt+0xe90>
 8049f1c:	83 bd 08 f8 ff ff 0a 	cmpl   $0xa,-0x7f8(%ebp)
 8049f23:	0f 84 b7 04 00 00    	je     804a3e0 <geteuid@plt+0xc08>
 8049f29:	a1 00 29 06 08       	mov    0x8062900,%eax
 8049f2e:	8d 55 b8             	lea    -0x48(%ebp),%edx
 8049f31:	89 14 24             	mov    %edx,(%esp)
 8049f34:	89 44 24 04          	mov    %eax,0x4(%esp)
 8049f38:	ff 57 14             	call   *0x14(%edi)
 8049f3b:	c7 44 24 08 80 00 00 	movl   $0x80,0x8(%esp)
 8049f42:	00 
 8049f43:	89 1c 24             	mov    %ebx,(%esp)
 8049f46:	89 44 24 04          	mov    %eax,0x4(%esp)
 8049f4a:	e8 31 e8 00 00       	call   8058780 <geteuid@plt+0xefa8>
 8049f4f:	a1 00 29 06 08       	mov    0x8062900,%eax
 8049f54:	89 44 24 04          	mov    %eax,0x4(%esp)
 8049f58:	8d 45 9c             	lea    -0x64(%ebp),%eax
 8049f5b:	89 04 24             	mov    %eax,(%esp)
 8049f5e:	ff 57 14             	call   *0x14(%edi)
 8049f61:	c7 44 24 08 80 00 00 	movl   $0x80,0x8(%esp)
 8049f68:	00 
 8049f69:	89 34 24             	mov    %esi,(%esp)
 8049f6c:	89 44 24 04          	mov    %eax,0x4(%esp)
 8049f70:	e8 0b e8 00 00       	call   8058780 <geteuid@plt+0xefa8>
 8049f75:	8b 15 f0 28 06 08    	mov    0x80628f0,%edx
 8049f7b:	85 d2                	test   %edx,%edx
 8049f7d:	75 21                	jne    8049fa0 <geteuid@plt+0x7c8>
 8049f7f:	a1 f4 28 06 08       	mov    0x80628f4,%eax
 8049f84:	85 c0                	test   %eax,%eax
 8049f86:	0f 84 84 04 00 00    	je     804a410 <geteuid@plt+0xc38>
 8049f8c:	8b bd 10 f8 ff ff    	mov    -0x7f0(%ebp),%edi
 8049f92:	85 ff                	test   %edi,%edi
 8049f94:	0f 85 42 fe ff ff    	jne    8049ddc <geteuid@plt+0x604>
 8049f9a:	8d b6 00 00 00 00    	lea    0x0(%esi),%esi
 8049fa0:	8b 15 00 29 06 08    	mov    0x8062900,%edx
 8049fa6:	8d bd 2e f8 ff ff    	lea    -0x7d2(%ebp),%edi
 8049fac:	0f b7 85 14 f8 ff ff 	movzwl -0x7ec(%ebp),%eax
 8049fb3:	66 c1 c8 08          	ror    $0x8,%ax
 8049fb7:	0f b7 c0             	movzwl %ax,%eax
 8049fba:	83 e2 08             	and    $0x8,%edx
 8049fbd:	89 54 24 08          	mov    %edx,0x8(%esp)
 8049fc1:	c7 44 24 04 dd ba 05 	movl   $0x805badd,0x4(%esp)
 8049fc8:	08 
 8049fc9:	89 04 24             	mov    %eax,(%esp)
 8049fcc:	e8 0f 64 00 00       	call   80503e0 <geteuid@plt+0x6c08>
 8049fd1:	c7 44 24 10 70 f4 05 	movl   $0x805f470,0x10(%esp)
 8049fd8:	08 
 8049fd9:	c7 44 24 0c 00 04 00 	movl   $0x400,0xc(%esp)
 8049fe0:	00 
 8049fe1:	c7 44 24 08 01 00 00 	movl   $0x1,0x8(%esp)
 8049fe8:	00 
 8049fe9:	c7 44 24 04 00 04 00 	movl   $0x400,0x4(%esp)
 8049ff0:	00 
 8049ff1:	89 3c 24             	mov    %edi,(%esp)
 8049ff4:	89 44 24 14          	mov    %eax,0x14(%esp)
 8049ff8:	e8 4b f7 ff ff       	call   8049748 <__snprintf_chk@plt>
 8049ffd:	8b 15 20 29 06 08    	mov    0x8062920,%edx
 804a003:	85 d2                	test   %edx,%edx
 804a005:	75 28                	jne    804a02f <geteuid@plt+0x857>
 804a007:	89 1c 24             	mov    %ebx,(%esp)
 804a00a:	e8 39 f5 ff ff       	call   8049548 <strlen@plt>
 804a00f:	89 3c 24             	mov    %edi,(%esp)
 804a012:	89 85 ec f7 ff ff    	mov    %eax,-0x814(%ebp)
 804a018:	e8 2b f5 ff ff       	call   8049548 <strlen@plt>
 804a01d:	8b 8d ec f7 ff ff    	mov    -0x814(%ebp),%ecx
 804a023:	8d 14 08             	lea    (%eax,%ecx,1),%edx
 804a026:	83 fa 16             	cmp    $0x16,%edx
 804a029:	0f 87 11 04 00 00    	ja     804a440 <geteuid@plt+0xc68>
 804a02f:	c7 44 24 08 80 00 00 	movl   $0x80,0x8(%esp)
 804a036:	00 
 804a037:	c7 44 24 04 4e bc 05 	movl   $0x805bc4e,0x4(%esp)
 804a03e:	08 
 804a03f:	89 1c 24             	mov    %ebx,(%esp)
 804a042:	e8 d1 f3 ff ff       	call   8049418 <__strcat_chk@plt>
 804a047:	c7 44 24 08 80 00 00 	movl   $0x80,0x8(%esp)
 804a04e:	00 
 804a04f:	89 7c 24 04          	mov    %edi,0x4(%esp)
 804a053:	89 1c 24             	mov    %ebx,(%esp)
 804a056:	e8 bd f3 ff ff       	call   8049418 <__strcat_chk@plt>
 804a05b:	8b 15 00 29 06 08    	mov    0x8062900,%edx
 804a061:	0f b7 85 10 f8 ff ff 	movzwl -0x7f0(%ebp),%eax
 804a068:	66 c1 c8 08          	ror    $0x8,%ax
 804a06c:	0f b7 c0             	movzwl %ax,%eax
 804a06f:	83 e2 08             	and    $0x8,%edx
 804a072:	89 54 24 08          	mov    %edx,0x8(%esp)
 804a076:	c7 44 24 04 dd ba 05 	movl   $0x805badd,0x4(%esp)
 804a07d:	08 
 804a07e:	89 04 24             	mov    %eax,(%esp)
 804a081:	e8 5a 63 00 00       	call   80503e0 <geteuid@plt+0x6c08>
 804a086:	c7 44 24 10 70 f4 05 	movl   $0x805f470,0x10(%esp)
 804a08d:	08 
 804a08e:	c7 44 24 0c 00 04 00 	movl   $0x400,0xc(%esp)
 804a095:	00 
 804a096:	c7 44 24 08 01 00 00 	movl   $0x1,0x8(%esp)
 804a09d:	00 
 804a09e:	c7 44 24 04 00 04 00 	movl   $0x400,0x4(%esp)
 804a0a5:	00 
 804a0a6:	89 3c 24             	mov    %edi,(%esp)
 804a0a9:	89 44 24 14          	mov    %eax,0x14(%esp)
 804a0ad:	e8 96 f6 ff ff       	call   8049748 <__snprintf_chk@plt>
 804a0b2:	a1 20 29 06 08       	mov    0x8062920,%eax
 804a0b7:	85 c0                	test   %eax,%eax
 804a0b9:	75 28                	jne    804a0e3 <geteuid@plt+0x90b>
 804a0bb:	89 34 24             	mov    %esi,(%esp)
 804a0be:	e8 85 f4 ff ff       	call   8049548 <strlen@plt>
 804a0c3:	89 3c 24             	mov    %edi,(%esp)
 804a0c6:	89 85 ec f7 ff ff    	mov    %eax,-0x814(%ebp)
 804a0cc:	e8 77 f4 ff ff       	call   8049548 <strlen@plt>
 804a0d1:	8b 8d ec f7 ff ff    	mov    -0x814(%ebp),%ecx
 804a0d7:	8d 14 08             	lea    (%eax,%ecx,1),%edx
 804a0da:	83 fa 16             	cmp    $0x16,%edx
 804a0dd:	0f 87 45 03 00 00    	ja     804a428 <geteuid@plt+0xc50>
 804a0e3:	c7 44 24 08 80 00 00 	movl   $0x80,0x8(%esp)
 804a0ea:	00 
 804a0eb:	c7 44 24 04 4e bc 05 	movl   $0x805bc4e,0x4(%esp)
 804a0f2:	08 
 804a0f3:	89 34 24             	mov    %esi,(%esp)
 804a0f6:	e8 1d f3 ff ff       	call   8049418 <__strcat_chk@plt>
 804a0fb:	c7 44 24 08 80 00 00 	movl   $0x80,0x8(%esp)
 804a102:	00 
 804a103:	89 7c 24 04          	mov    %edi,0x4(%esp)
 804a107:	89 34 24             	mov    %esi,(%esp)
 804a10a:	e8 09 f3 ff ff       	call   8049418 <__strcat_chk@plt>
 804a10f:	8d 8d 2e ff ff ff    	lea    -0xd2(%ebp),%ecx
 804a115:	89 8d ec f7 ff ff    	mov    %ecx,-0x814(%ebp)
 804a11b:	8b 0d 08 29 06 08    	mov    0x8062908,%ecx
 804a121:	c6 85 2e ff ff ff 00 	movb   $0x0,-0xd2(%ebp)
 804a128:	85 c9                	test   %ecx,%ecx
 804a12a:	0f 84 d0 00 00 00    	je     804a200 <geteuid@plt+0xa28>
 804a130:	8b bd 00 f8 ff ff    	mov    -0x800(%ebp),%edi
 804a136:	83 ff 01             	cmp    $0x1,%edi
 804a139:	0f 84 99 04 00 00    	je     804a5d8 <geteuid@plt+0xe00>
 804a13f:	0f 8e 13 03 00 00    	jle    804a458 <geteuid@plt+0xc80>
 804a145:	83 ff 02             	cmp    $0x2,%edi
 804a148:	0f 84 fa 03 00 00    	je     804a548 <geteuid@plt+0xd70>
 804a14e:	83 ff 03             	cmp    $0x3,%edi
 804a151:	8d b4 26 00 00 00 00 	lea    0x0(%esi,%eiz,1),%esi
 804a158:	0f 84 5d 03 00 00    	je     804a4bb <geteuid@plt+0xce3>
 804a15e:	8b 95 1c f8 ff ff    	mov    -0x7e4(%ebp),%edx
 804a164:	8b 85 20 f8 ff ff    	mov    -0x7e0(%ebp),%eax
 804a16a:	8b 8d fc f7 ff ff    	mov    -0x804(%ebp),%ecx
 804a170:	c7 04 24 bc ba 05 08 	movl   $0x805babc,(%esp)
 804a177:	89 95 ec f7 ff ff    	mov    %edx,-0x814(%ebp)
 804a17d:	31 d2                	xor    %edx,%edx
 804a17f:	89 85 f0 f7 ff ff    	mov    %eax,-0x810(%ebp)
 804a185:	89 95 f4 f7 ff ff    	mov    %edx,-0x80c(%ebp)
 804a18b:	df ad f0 f7 ff ff    	fildll -0x810(%ebp)
 804a191:	d8 35 28 c4 05 08    	fdivs  0x805c428
 804a197:	89 8d e0 f7 ff ff    	mov    %ecx,-0x820(%ebp)
 804a19d:	dd 9d c8 f7 ff ff    	fstpl  -0x838(%ebp)
 804a1a3:	e8 80 f2 ff ff       	call   8049428 <gettext@plt>
 804a1a8:	8b 8d e0 f7 ff ff    	mov    -0x820(%ebp),%ecx
 804a1ae:	89 7c 24 14          	mov    %edi,0x14(%esp)
 804a1b2:	c7 44 24 0c 40 00 00 	movl   $0x40,0xc(%esp)
 804a1b9:	00 
 804a1ba:	c7 44 24 08 01 00 00 	movl   $0x1,0x8(%esp)
 804a1c1:	00 
 804a1c2:	89 4c 24 24          	mov    %ecx,0x24(%esp)
 804a1c6:	8b 8d ec f7 ff ff    	mov    -0x814(%ebp),%ecx
 804a1cc:	c7 44 24 04 40 00 00 	movl   $0x40,0x4(%esp)
 804a1d3:	00 
 804a1d4:	dd 85 c8 f7 ff ff    	fldl   -0x838(%ebp)
 804a1da:	89 44 24 10          	mov    %eax,0x10(%esp)
 804a1de:	8d 85 2e ff ff ff    	lea    -0xd2(%ebp),%eax
 804a1e4:	89 4c 24 20          	mov    %ecx,0x20(%esp)
 804a1e8:	dd 5c 24 18          	fstpl  0x18(%esp)
 804a1ec:	89 85 ec f7 ff ff    	mov    %eax,-0x814(%ebp)
 804a1f2:	89 04 24             	mov    %eax,(%esp)
 804a1f5:	e8 4e f5 ff ff       	call   8049748 <__snprintf_chk@plt>
 804a1fa:	8d b6 00 00 00 00    	lea    0x0(%esi),%esi
 804a200:	8b 85 08 f8 ff ff    	mov    -0x7f8(%ebp),%eax
 804a206:	8b 04 85 c0 c3 05 08 	mov    0x805c3c0(,%eax,4),%eax
 804a20d:	89 04 24             	mov    %eax,(%esp)
 804a210:	e8 13 f2 ff ff       	call   8049428 <gettext@plt>
 804a215:	89 34 24             	mov    %esi,(%esp)
 804a218:	89 85 e4 f7 ff ff    	mov    %eax,-0x81c(%ebp)
 804a21e:	e8 25 f3 ff ff       	call   8049548 <strlen@plt>
 804a223:	83 f8 16             	cmp    $0x16,%eax
 804a226:	89 c7                	mov    %eax,%edi
 804a228:	77 05                	ja     804a22f <geteuid@plt+0xa57>
 804a22a:	bf 17 00 00 00       	mov    $0x17,%edi
 804a22f:	89 1c 24             	mov    %ebx,(%esp)
 804a232:	e8 11 f3 ff ff       	call   8049548 <strlen@plt>
 804a237:	83 f8 16             	cmp    $0x16,%eax
 804a23a:	77 05                	ja     804a241 <geteuid@plt+0xa69>
 804a23c:	b8 17 00 00 00       	mov    $0x17,%eax
 804a241:	89 44 24 14          	mov    %eax,0x14(%esp)
 804a245:	8b 85 24 f8 ff ff    	mov    -0x7dc(%ebp),%eax
 804a24b:	8b 95 e4 f7 ff ff    	mov    -0x81c(%ebp),%edx
 804a251:	8b 8d e8 f7 ff ff    	mov    -0x818(%ebp),%ecx
 804a257:	89 74 24 20          	mov    %esi,0x20(%esp)
 804a25b:	89 44 24 10          	mov    %eax,0x10(%esp)
 804a25f:	8b 85 28 f8 ff ff    	mov    -0x7d8(%ebp),%eax
 804a265:	89 54 24 24          	mov    %edx,0x24(%esp)
 804a269:	89 4c 24 08          	mov    %ecx,0x8(%esp)
 804a26d:	89 7c 24 1c          	mov    %edi,0x1c(%esp)
 804a271:	89 5c 24 18          	mov    %ebx,0x18(%esp)
 804a275:	89 44 24 0c          	mov    %eax,0xc(%esp)
 804a279:	c7 44 24 04 48 b2 05 	movl   $0x805b248,0x4(%esp)
 804a280:	08 
 804a281:	c7 04 24 01 00 00 00 	movl   $0x1,(%esp)
 804a288:	e8 cb f0 ff ff       	call   8049358 <__printf_chk@plt>
 804a28d:	8b 8d ec f7 ff ff    	mov    -0x814(%ebp),%ecx
 804a293:	8b 95 18 f8 ff ff    	mov    -0x7e8(%ebp),%edx
 804a299:	8b 85 04 f8 ff ff    	mov    -0x7fc(%ebp),%eax
 804a29f:	e8 fc f9 ff ff       	call   8049ca0 <geteuid@plt+0x4c8>
 804a2a4:	e9 33 fb ff ff       	jmp    8049ddc <geteuid@plt+0x604>
 804a2a9:	8d b4 26 00 00 00 00 	lea    0x0(%esi,%eiz,1),%esi
 804a2b0:	8d 45 d8             	lea    -0x28(%ebp),%eax
 804a2b3:	8d 55 e0             	lea    -0x20(%ebp),%edx
 804a2b6:	8d 4d dc             	lea    -0x24(%ebp),%ecx
 804a2b9:	89 44 24 0c          	mov    %eax,0xc(%esp)
 804a2bd:	8d 45 d4             	lea    -0x2c(%ebp),%eax
 804a2c0:	89 54 24 14          	mov    %edx,0x14(%esp)
 804a2c4:	8d bd 6e ff ff ff    	lea    -0x92(%ebp),%edi
 804a2ca:	89 4c 24 10          	mov    %ecx,0x10(%esp)
 804a2ce:	89 95 dc f7 ff ff    	mov    %edx,-0x824(%ebp)
 804a2d4:	89 8d e0 f7 ff ff    	mov    %ecx,-0x820(%ebp)
 804a2da:	89 44 24 08          	mov    %eax,0x8(%esp)
 804a2de:	c7 44 24 04 35 ba 05 	movl   $0x805ba35,0x4(%esp)
 804a2e5:	08 
 804a2e6:	89 1c 24             	mov    %ebx,(%esp)
 804a2e9:	e8 fa f3 ff ff       	call   80496e8 <sscanf@plt>
 804a2ee:	8d 45 d4             	lea    -0x2c(%ebp),%eax
 804a2f1:	c7 44 24 0c 2e 00 00 	movl   $0x2e,0xc(%esp)
 804a2f8:	00 
 804a2f9:	89 7c 24 08          	mov    %edi,0x8(%esp)
 804a2fd:	89 44 24 04          	mov    %eax,0x4(%esp)
 804a301:	c7 04 24 0a 00 00 00 	movl   $0xa,(%esp)
 804a308:	e8 8b ef ff ff       	call   8049298 <inet_ntop@plt>
 804a30d:	8d 45 b8             	lea    -0x48(%ebp),%eax
 804a310:	89 44 24 08          	mov    %eax,0x8(%esp)
 804a314:	89 7c 24 04          	mov    %edi,0x4(%esp)
 804a318:	c7 04 24 01 00 00 00 	movl   $0x1,(%esp)
 804a31f:	ff 15 58 22 06 08    	call   *0x8062258
 804a325:	8b 95 dc f7 ff ff    	mov    -0x824(%ebp),%edx
 804a32b:	8b 8d e0 f7 ff ff    	mov    -0x820(%ebp),%ecx
 804a331:	c7 44 24 04 35 ba 05 	movl   $0x805ba35,0x4(%esp)
 804a338:	08 
 804a339:	89 34 24             	mov    %esi,(%esp)
 804a33c:	89 54 24 14          	mov    %edx,0x14(%esp)
 804a340:	8d 55 d8             	lea    -0x28(%ebp),%edx
 804a343:	89 4c 24 10          	mov    %ecx,0x10(%esp)
 804a347:	8d 4d d4             	lea    -0x2c(%ebp),%ecx
 804a34a:	89 54 24 0c          	mov    %edx,0xc(%esp)
 804a34e:	89 4c 24 08          	mov    %ecx,0x8(%esp)
 804a352:	e8 91 f3 ff ff       	call   80496e8 <sscanf@plt>
 804a357:	8d 45 d4             	lea    -0x2c(%ebp),%eax
 804a35a:	c7 44 24 0c 2e 00 00 	movl   $0x2e,0xc(%esp)
 804a361:	00 
 804a362:	89 7c 24 08          	mov    %edi,0x8(%esp)
 804a366:	89 44 24 04          	mov    %eax,0x4(%esp)
 804a36a:	c7 04 24 0a 00 00 00 	movl   $0xa,(%esp)
 804a371:	e8 22 ef ff ff       	call   8049298 <inet_ntop@plt>
 804a376:	8d 45 9c             	lea    -0x64(%ebp),%eax
 804a379:	89 44 24 08          	mov    %eax,0x8(%esp)
 804a37d:	89 7c 24 04          	mov    %edi,0x4(%esp)
 804a381:	c7 04 24 01 00 00 00 	movl   $0x1,(%esp)
 804a388:	ff 15 58 22 06 08    	call   *0x8062258
 804a38e:	83 bd ec f7 ff ff 0a 	cmpl   $0xa,-0x814(%ebp)
 804a395:	66 c7 45 b8 0a 00    	movw   $0xa,-0x48(%ebp)
 804a39b:	66 c7 45 9c 0a 00    	movw   $0xa,-0x64(%ebp)
 804a3a1:	c7 85 e8 f7 ff ff f9 	movl   $0x805baf9,-0x818(%ebp)
 804a3a8:	ba 05 08 
 804a3ab:	0f 8f 55 fb ff ff    	jg     8049f06 <geteuid@plt+0x72e>
 804a3b1:	c7 04 24 49 ba 05 08 	movl   $0x805ba49,(%esp)
 804a3b8:	e8 6b f0 ff ff       	call   8049428 <gettext@plt>
 804a3bd:	c7 44 24 04 01 00 00 	movl   $0x1,0x4(%esp)
 804a3c4:	00 
 804a3c5:	89 44 24 08          	mov    %eax,0x8(%esp)
 804a3c9:	a1 80 28 06 08       	mov    0x8062880,%eax
 804a3ce:	89 04 24             	mov    %eax,(%esp)
 804a3d1:	e8 32 ef ff ff       	call   8049308 <__fprintf_chk@plt>
 804a3d6:	e9 01 fa ff ff       	jmp    8049ddc <geteuid@plt+0x604>
 804a3db:	90                   	nop
 804a3dc:	8d 74 26 00          	lea    0x0(%esi,%eiz,1),%esi
 804a3e0:	c7 85 20 f8 ff ff 00 	movl   $0x0,-0x7e0(%ebp)
 804a3e7:	00 00 00 
 804a3ea:	c7 85 1c f8 ff ff 00 	movl   $0x0,-0x7e4(%ebp)
 804a3f1:	00 00 00 
 804a3f4:	c7 85 28 f8 ff ff 00 	movl   $0x0,-0x7d8(%ebp)
 804a3fb:	00 00 00 
 804a3fe:	c7 85 24 f8 ff ff 00 	movl   $0x0,-0x7dc(%ebp)
 804a405:	00 00 00 
 804a408:	e9 1c fb ff ff       	jmp    8049f29 <geteuid@plt+0x751>
 804a40d:	8d 76 00             	lea    0x0(%esi),%esi
 804a410:	8b 8d 10 f8 ff ff    	mov    -0x7f0(%ebp),%ecx
 804a416:	85 c9                	test   %ecx,%ecx
 804a418:	0f 85 82 fb ff ff    	jne    8049fa0 <geteuid@plt+0x7c8>
 804a41e:	e9 b9 f9 ff ff       	jmp    8049ddc <geteuid@plt+0x604>
 804a423:	90                   	nop
 804a424:	8d 74 26 00          	lea    0x0(%esi,%eiz,1),%esi
 804a428:	8d 55 e8             	lea    -0x18(%ebp),%edx
 804a42b:	29 c2                	sub    %eax,%edx
 804a42d:	c6 82 dc fe ff ff 00 	movb   $0x0,-0x124(%edx)
 804a434:	e9 aa fc ff ff       	jmp    804a0e3 <geteuid@plt+0x90b>
 804a439:	8d b4 26 00 00 00 00 	lea    0x0(%esi,%eiz,1),%esi
 804a440:	8d 55 e8             	lea    -0x18(%ebp),%edx
 804a443:	29 c2                	sub    %eax,%edx
 804a445:	c6 82 5c fe ff ff 00 	movb   $0x0,-0x1a4(%edx)
 804a44c:	e9 de fb ff ff       	jmp    804a02f <geteuid@plt+0x857>
 804a451:	8d b4 26 00 00 00 00 	lea    0x0(%esi,%eiz,1),%esi
 804a458:	85 ff                	test   %edi,%edi
 804a45a:	0f 85 fe fc ff ff    	jne    804a15e <geteuid@plt+0x986>
 804a460:	8b 95 1c f8 ff ff    	mov    -0x7e4(%ebp),%edx
 804a466:	8b bd fc f7 ff ff    	mov    -0x804(%ebp),%edi
 804a46c:	c7 04 24 67 ba 05 08 	movl   $0x805ba67,(%esp)
 804a473:	89 95 dc f7 ff ff    	mov    %edx,-0x824(%ebp)
 804a479:	e8 aa ef ff ff       	call   8049428 <gettext@plt>
 804a47e:	8b 95 dc f7 ff ff    	mov    -0x824(%ebp),%edx
 804a484:	89 7c 24 18          	mov    %edi,0x18(%esp)
 804a488:	c7 44 24 0c 40 00 00 	movl   $0x40,0xc(%esp)
 804a48f:	00 
 804a490:	c7 44 24 08 01 00 00 	movl   $0x1,0x8(%esp)
 804a497:	00 
 804a498:	89 54 24 14          	mov    %edx,0x14(%esp)
 804a49c:	c7 44 24 04 40 00 00 	movl   $0x40,0x4(%esp)
 804a4a3:	00 
 804a4a4:	89 44 24 10          	mov    %eax,0x10(%esp)
 804a4a8:	8b 85 ec f7 ff ff    	mov    -0x814(%ebp),%eax
 804a4ae:	89 04 24             	mov    %eax,(%esp)
 804a4b1:	e8 92 f2 ff ff       	call   8049748 <__snprintf_chk@plt>
 804a4b6:	e9 45 fd ff ff       	jmp    804a200 <geteuid@plt+0xa28>
 804a4bb:	8b 85 20 f8 ff ff    	mov    -0x7e0(%ebp),%eax
 804a4c1:	31 d2                	xor    %edx,%edx
 804a4c3:	89 95 f4 f7 ff ff    	mov    %edx,-0x80c(%ebp)
 804a4c9:	8b 8d 1c f8 ff ff    	mov    -0x7e4(%ebp),%ecx
 804a4cf:	8b bd fc f7 ff ff    	mov    -0x804(%ebp),%edi
 804a4d5:	c7 04 24 a4 ba 05 08 	movl   $0x805baa4,(%esp)
 804a4dc:	89 85 f0 f7 ff ff    	mov    %eax,-0x810(%ebp)
 804a4e2:	df ad f0 f7 ff ff    	fildll -0x810(%ebp)
 804a4e8:	d8 35 28 c4 05 08    	fdivs  0x805c428
 804a4ee:	89 8d e0 f7 ff ff    	mov    %ecx,-0x820(%ebp)
 804a4f4:	dd 9d c8 f7 ff ff    	fstpl  -0x838(%ebp)
 804a4fa:	e8 29 ef ff ff       	call   8049428 <gettext@plt>
 804a4ff:	8b 8d e0 f7 ff ff    	mov    -0x820(%ebp),%ecx
 804a505:	89 7c 24 20          	mov    %edi,0x20(%esp)
 804a509:	c7 44 24 0c 40 00 00 	movl   $0x40,0xc(%esp)
 804a510:	00 
 804a511:	c7 44 24 08 01 00 00 	movl   $0x1,0x8(%esp)
 804a518:	00 
 804a519:	89 4c 24 1c          	mov    %ecx,0x1c(%esp)
 804a51d:	c7 44 24 04 40 00 00 	movl   $0x40,0x4(%esp)
 804a524:	00 
 804a525:	89 44 24 10          	mov    %eax,0x10(%esp)
 804a529:	8b 85 ec f7 ff ff    	mov    -0x814(%ebp),%eax
 804a52f:	dd 85 c8 f7 ff ff    	fldl   -0x838(%ebp)
 804a535:	dd 5c 24 14          	fstpl  0x14(%esp)
 804a539:	89 04 24             	mov    %eax,(%esp)
 804a53c:	e8 07 f2 ff ff       	call   8049748 <__snprintf_chk@plt>
 804a541:	e9 ba fc ff ff       	jmp    804a200 <geteuid@plt+0xa28>
 804a546:	66 90                	xchg   %ax,%ax
 804a548:	8b 85 20 f8 ff ff    	mov    -0x7e0(%ebp),%eax
 804a54e:	31 d2                	xor    %edx,%edx
 804a550:	89 95 f4 f7 ff ff    	mov    %edx,-0x80c(%ebp)
 804a556:	8b 8d 1c f8 ff ff    	mov    -0x7e4(%ebp),%ecx
 804a55c:	8b bd fc f7 ff ff    	mov    -0x804(%ebp),%edi
 804a562:	c7 04 24 8b ba 05 08 	movl   $0x805ba8b,(%esp)
 804a569:	89 85 f0 f7 ff ff    	mov    %eax,-0x810(%ebp)
 804a56f:	df ad f0 f7 ff ff    	fildll -0x810(%ebp)
 804a575:	d8 35 28 c4 05 08    	fdivs  0x805c428
 804a57b:	89 8d e0 f7 ff ff    	mov    %ecx,-0x820(%ebp)
 804a581:	dd 9d c8 f7 ff ff    	fstpl  -0x838(%ebp)
 804a587:	e8 9c ee ff ff       	call   8049428 <gettext@plt>
 804a58c:	8b 8d e0 f7 ff ff    	mov    -0x820(%ebp),%ecx
 804a592:	89 7c 24 20          	mov    %edi,0x20(%esp)
 804a596:	c7 44 24 0c 40 00 00 	movl   $0x40,0xc(%esp)
 804a59d:	00 
 804a59e:	c7 44 24 08 01 00 00 	movl   $0x1,0x8(%esp)
 804a5a5:	00 
 804a5a6:	89 4c 24 1c          	mov    %ecx,0x1c(%esp)
 804a5aa:	8b 8d ec f7 ff ff    	mov    -0x814(%ebp),%ecx
 804a5b0:	c7 44 24 04 40 00 00 	movl   $0x40,0x4(%esp)
 804a5b7:	00 
 804a5b8:	dd 85 c8 f7 ff ff    	fldl   -0x838(%ebp)
 804a5be:	dd 5c 24 14          	fstpl  0x14(%esp)
 804a5c2:	89 44 24 10          	mov    %eax,0x10(%esp)
 804a5c6:	89 0c 24             	mov    %ecx,(%esp)
 804a5c9:	e8 7a f1 ff ff       	call   8049748 <__snprintf_chk@plt>
 804a5ce:	e9 2d fc ff ff       	jmp    804a200 <geteuid@plt+0xa28>
 804a5d3:	90                   	nop
 804a5d4:	8d 74 26 00          	lea    0x0(%esi,%eiz,1),%esi
 804a5d8:	8b 85 20 f8 ff ff    	mov    -0x7e0(%ebp),%eax
 804a5de:	31 d2                	xor    %edx,%edx
 804a5e0:	89 95 f4 f7 ff ff    	mov    %edx,-0x80c(%ebp)
 804a5e6:	8b 8d 1c f8 ff ff    	mov    -0x7e4(%ebp),%ecx
 804a5ec:	8b bd fc f7 ff ff    	mov    -0x804(%ebp),%edi
 804a5f2:	c7 04 24 79 ba 05 08 	movl   $0x805ba79,(%esp)
 804a5f9:	89 85 f0 f7 ff ff    	mov    %eax,-0x810(%ebp)
 804a5ff:	df ad f0 f7 ff ff    	fildll -0x810(%ebp)
 804a605:	d8 35 28 c4 05 08    	fdivs  0x805c428
 804a60b:	89 8d e0 f7 ff ff    	mov    %ecx,-0x820(%ebp)
 804a611:	dd 9d c8 f7 ff ff    	fstpl  -0x838(%ebp)
 804a617:	e8 0c ee ff ff       	call   8049428 <gettext@plt>
 804a61c:	8b 8d e0 f7 ff ff    	mov    -0x820(%ebp),%ecx
 804a622:	8b 95 ec f7 ff ff    	mov    -0x814(%ebp),%edx
 804a628:	89 7c 24 20          	mov    %edi,0x20(%esp)
 804a62c:	c7 44 24 0c 40 00 00 	movl   $0x40,0xc(%esp)
 804a633:	00 
 804a634:	89 4c 24 1c          	mov    %ecx,0x1c(%esp)
 804a638:	c7 44 24 08 01 00 00 	movl   $0x1,0x8(%esp)
 804a63f:	00 
 804a640:	dd 85 c8 f7 ff ff    	fldl   -0x838(%ebp)
 804a646:	dd 5c 24 14          	fstpl  0x14(%esp)
 804a64a:	89 44 24 10          	mov    %eax,0x10(%esp)
 804a64e:	c7 44 24 04 40 00 00 	movl   $0x40,0x4(%esp)
 804a655:	00 
 804a656:	89 14 24             	mov    %edx,(%esp)
 804a659:	e8 ea f0 ff ff       	call   8049748 <__snprintf_chk@plt>
 804a65e:	e9 9d fb ff ff       	jmp    804a200 <geteuid@plt+0xa28>
 804a663:	90                   	nop
 804a664:	8d 74 26 00          	lea    0x0(%esi,%eiz,1),%esi
 804a668:	0f b7 5d b8          	movzwl -0x48(%ebp),%ebx
 804a66c:	c7 04 24 1c b2 05 08 	movl   $0x805b21c,(%esp)
 804a673:	e8 b0 ed ff ff       	call   8049428 <gettext@plt>
 804a678:	c7 44 24 04 01 00 00 	movl   $0x1,0x4(%esp)
 804a67f:	00 
 804a680:	89 5c 24 0c          	mov    %ebx,0xc(%esp)
 804a684:	89 44 24 08          	mov    %eax,0x8(%esp)
 804a688:	a1 80 28 06 08       	mov    0x8062880,%eax
 804a68d:	89 04 24             	mov    %eax,(%esp)
 804a690:	e8 73 ec ff ff       	call   8049308 <__fprintf_chk@plt>
 804a695:	e9 42 f7 ff ff       	jmp    8049ddc <geteuid@plt+0x604>
 804a69a:	e8 c9 ef ff ff       	call   8049668 <__stack_chk_fail@plt>
 804a69f:	90                   	nop
 804a6a0:	55                   	push   %ebp
 804a6a1:	89 e5                	mov    %esp,%ebp
 804a6a3:	57                   	push   %edi
 804a6a4:	56                   	push   %esi
 804a6a5:	53                   	push   %ebx
 804a6a6:	81 ec 4c 20 00 00    	sub    $0x204c,%esp
 804a6ac:	8b 0d 28 29 06 08    	mov    0x8062928,%ecx
 804a6b2:	65 a1 14 00 00 00    	mov    %gs:0x14,%eax
 804a6b8:	89 45 e4             	mov    %eax,-0x1c(%ebp)
 804a6bb:	31 c0                	xor    %eax,%eax
 804a6bd:	85 c9                	test   %ecx,%ecx
 804a6bf:	74 18                	je     804a6d9 <geteuid@plt+0xf01>
 804a6c1:	8b 15 68 37 06 08    	mov    0x8063768,%edx
 804a6c7:	c7 85 d4 df ff ff 00 	movl   $0x0,-0x202c(%ebp)
 804a6ce:	00 00 00 
 804a6d1:	85 d2                	test   %edx,%edx
 804a6d3:	0f 84 8a 00 00 00    	je     804a763 <geteuid@plt+0xf8b>
 804a6d9:	c7 04 24 d3 ba 05 08 	movl   $0x805bad3,(%esp)
 804a6e0:	e8 db d8 00 00       	call   8057fc0 <geteuid@plt+0xe7e8>
 804a6e5:	85 c0                	test   %eax,%eax
 804a6e7:	a3 40 37 06 08       	mov    %eax,0x8063740
 804a6ec:	0f 84 0e 01 00 00    	je     804a800 <geteuid@plt+0x1028>
 804a6f2:	8d b5 e4 df ff ff    	lea    -0x201c(%ebp),%esi
 804a6f8:	31 db                	xor    %ebx,%ebx
 804a6fa:	eb 0b                	jmp    804a707 <geteuid@plt+0xf2f>
 804a6fc:	8d 74 26 00          	lea    0x0(%esi,%eiz,1),%esi
 804a700:	a1 40 37 06 08       	mov    0x8063740,%eax
 804a705:	89 fb                	mov    %edi,%ebx
 804a707:	89 44 24 08          	mov    %eax,0x8(%esp)
 804a70b:	89 df                	mov    %ebx,%edi
 804a70d:	c7 44 24 04 00 20 00 	movl   $0x2000,0x4(%esp)
 804a714:	00 
 804a715:	89 34 24             	mov    %esi,(%esp)
 804a718:	e8 8b ec ff ff       	call   80493a8 <fgets@plt>
 804a71d:	85 c0                	test   %eax,%eax
 804a71f:	74 0c                	je     804a72d <geteuid@plt+0xf55>
 804a721:	89 f2                	mov    %esi,%edx
 804a723:	89 d8                	mov    %ebx,%eax
 804a725:	8d 7b 01             	lea    0x1(%ebx),%edi
 804a728:	e8 93 f6 ff ff       	call   8049dc0 <geteuid@plt+0x5e8>
 804a72d:	a1 40 37 06 08       	mov    0x8063740,%eax
 804a732:	89 04 24             	mov    %eax,(%esp)
 804a735:	e8 6e ee ff ff       	call   80495a8 <feof@plt>
 804a73a:	85 c0                	test   %eax,%eax
 804a73c:	74 c2                	je     804a700 <geteuid@plt+0xf28>
 804a73e:	a1 40 37 06 08       	mov    0x8063740,%eax
 804a743:	89 04 24             	mov    %eax,(%esp)
 804a746:	e8 bd ed ff ff       	call   8049508 <fclose@plt>
 804a74b:	8b 1d 28 29 06 08    	mov    0x8062928,%ebx
 804a751:	85 db                	test   %ebx,%ebx
 804a753:	0f 84 c7 00 00 00    	je     804a820 <geteuid@plt+0x1048>
 804a759:	c7 85 d4 df ff ff 00 	movl   $0x0,-0x202c(%ebp)
 804a760:	00 00 00 
 804a763:	8b 0d 74 37 06 08    	mov    0x8063774,%ecx
 804a769:	85 c9                	test   %ecx,%ecx
 804a76b:	74 6e                	je     804a7db <geteuid@plt+0x1003>
 804a76d:	c7 04 24 ef ba 05 08 	movl   $0x805baef,(%esp)
 804a774:	e8 47 d8 00 00       	call   8057fc0 <geteuid@plt+0xe7e8>
 804a779:	85 c0                	test   %eax,%eax
 804a77b:	a3 40 37 06 08       	mov    %eax,0x8063740
 804a780:	74 59                	je     804a7db <geteuid@plt+0x1003>
 804a782:	8d b5 e4 df ff ff    	lea    -0x201c(%ebp),%esi
 804a788:	31 db                	xor    %ebx,%ebx
 804a78a:	eb 0b                	jmp    804a797 <geteuid@plt+0xfbf>
 804a78c:	8d 74 26 00          	lea    0x0(%esi,%eiz,1),%esi
 804a790:	a1 40 37 06 08       	mov    0x8063740,%eax
 804a795:	89 fb                	mov    %edi,%ebx
 804a797:	89 44 24 08          	mov    %eax,0x8(%esp)
 804a79b:	89 df                	mov    %ebx,%edi
 804a79d:	c7 44 24 04 00 20 00 	movl   $0x2000,0x4(%esp)
 804a7a4:	00 
 804a7a5:	89 34 24             	mov    %esi,(%esp)
 804a7a8:	e8 fb eb ff ff       	call   80493a8 <fgets@plt>
 804a7ad:	85 c0                	test   %eax,%eax
 804a7af:	74 0c                	je     804a7bd <geteuid@plt+0xfe5>
 804a7b1:	89 f2                	mov    %esi,%edx
 804a7b3:	89 d8                	mov    %ebx,%eax
 804a7b5:	8d 7b 01             	lea    0x1(%ebx),%edi
 804a7b8:	e8 03 f6 ff ff       	call   8049dc0 <geteuid@plt+0x5e8>
 804a7bd:	a1 40 37 06 08       	mov    0x8063740,%eax
 804a7c2:	89 04 24             	mov    %eax,(%esp)
 804a7c5:	e8 de ed ff ff       	call   80495a8 <feof@plt>
 804a7ca:	85 c0                	test   %eax,%eax
 804a7cc:	74 c2                	je     804a790 <geteuid@plt+0xfb8>
 804a7ce:	a1 40 37 06 08       	mov    0x8063740,%eax
 804a7d3:	89 04 24             	mov    %eax,(%esp)
 804a7d6:	e8 2d ed ff ff       	call   8049508 <fclose@plt>
 804a7db:	8b 55 e4             	mov    -0x1c(%ebp),%edx
 804a7de:	65 33 15 14 00 00 00 	xor    %gs:0x14,%edx
 804a7e5:	8b 85 d4 df ff ff    	mov    -0x202c(%ebp),%eax
 804a7eb:	0f 85 a9 00 00 00    	jne    804a89a <geteuid@plt+0x10c2>
 804a7f1:	81 c4 4c 20 00 00    	add    $0x204c,%esp
 804a7f7:	5b                   	pop    %ebx
 804a7f8:	5e                   	pop    %esi
 804a7f9:	5f                   	pop    %edi
 804a7fa:	5d                   	pop    %ebp
 804a7fb:	c3                   	ret    
 804a7fc:	8d 74 26 00          	lea    0x0(%esi,%eiz,1),%esi
 804a800:	e8 73 ea ff ff       	call   8049278 <__errno_location@plt>
 804a805:	83 38 02             	cmpl   $0x2,(%eax)
 804a808:	75 75                	jne    804a87f <geteuid@plt+0x10a7>
 804a80a:	a1 28 29 06 08       	mov    0x8062928,%eax
 804a80f:	85 c0                	test   %eax,%eax
 804a811:	75 1d                	jne    804a830 <geteuid@plt+0x1058>
 804a813:	8b 3d 2c 29 06 08    	mov    0x806292c,%edi
 804a819:	85 ff                	test   %edi,%edi
 804a81b:	75 13                	jne    804a830 <geteuid@plt+0x1058>
 804a81d:	8d 76 00             	lea    0x0(%esi),%esi
 804a820:	c7 85 d4 df ff ff 00 	movl   $0x0,-0x202c(%ebp)
 804a827:	00 00 00 
 804a82a:	e9 3e ff ff ff       	jmp    804a76d <geteuid@plt+0xf95>
 804a82f:	90                   	nop
 804a830:	c7 04 24 68 b2 05 08 	movl   $0x805b268,(%esp)
 804a837:	e8 ec eb ff ff       	call   8049428 <gettext@plt>
 804a83c:	c7 44 24 10 e1 ba 05 	movl   $0x805bae1,0x10(%esp)
 804a843:	08 
 804a844:	c7 44 24 0c ac c4 05 	movl   $0x805c4ac,0xc(%esp)
 804a84b:	08 
 804a84c:	c7 44 24 04 01 00 00 	movl   $0x1,0x4(%esp)
 804a853:	00 
 804a854:	89 44 24 08          	mov    %eax,0x8(%esp)
 804a858:	a1 80 28 06 08       	mov    0x8062880,%eax
 804a85d:	89 04 24             	mov    %eax,(%esp)
 804a860:	e8 a3 ea ff ff       	call   8049308 <__fprintf_chk@plt>
 804a865:	8b 35 28 29 06 08    	mov    0x8062928,%esi
 804a86b:	c7 85 d4 df ff ff 01 	movl   $0x1,-0x202c(%ebp)
 804a872:	00 00 00 
 804a875:	85 f6                	test   %esi,%esi
 804a877:	0f 85 e6 fe ff ff    	jne    804a763 <geteuid@plt+0xf8b>
 804a87d:	eb a1                	jmp    804a820 <geteuid@plt+0x1048>
 804a87f:	c7 04 24 d3 ba 05 08 	movl   $0x805bad3,(%esp)
 804a886:	e8 7d eb ff ff       	call   8049408 <perror@plt>
 804a88b:	c7 85 d4 df ff ff ff 	movl   $0xffffffff,-0x202c(%ebp)
 804a892:	ff ff ff 
 804a895:	e9 41 ff ff ff       	jmp    804a7db <geteuid@plt+0x1003>
 804a89a:	e8 c9 ed ff ff       	call   8049668 <__stack_chk_fail@plt>
 804a89f:	90                   	nop
 804a8a0:	55                   	push   %ebp
 804a8a1:	89 e5                	mov    %esp,%ebp
 804a8a3:	57                   	push   %edi
 804a8a4:	56                   	push   %esi
 804a8a5:	53                   	push   %ebx
 804a8a6:	81 ec 1c 24 00 00    	sub    $0x241c,%esp
 804a8ac:	65 8b 0d 14 00 00 00 	mov    %gs:0x14,%ecx
 804a8b3:	89 4d e4             	mov    %ecx,-0x1c(%ebp)
 804a8b6:	31 c9                	xor    %ecx,%ecx
 804a8b8:	85 c0                	test   %eax,%eax
 804a8ba:	75 1c                	jne    804a8d8 <geteuid@plt+0x1100>
 804a8bc:	8b 55 e4             	mov    -0x1c(%ebp),%edx
 804a8bf:	65 33 15 14 00 00 00 	xor    %gs:0x14,%edx
 804a8c6:	0f 85 9e 07 00 00    	jne    804b06a <geteuid@plt+0x1892>
 804a8cc:	81 c4 1c 24 00 00    	add    $0x241c,%esp
 804a8d2:	5b                   	pop    %ebx
 804a8d3:	5e                   	pop    %esi
 804a8d4:	5f                   	pop    %edi
 804a8d5:	5d                   	pop    %ebp
 804a8d6:	c3                   	ret    
 804a8d7:	90                   	nop
 804a8d8:	8d 85 ae fc ff ff    	lea    -0x352(%ebp),%eax
 804a8de:	89 44 24 40          	mov    %eax,0x40(%esp)
 804a8e2:	8d 85 7c dc ff ff    	lea    -0x2384(%ebp),%eax
 804a8e8:	89 44 24 3c          	mov    %eax,0x3c(%esp)
 804a8ec:	8d 85 90 dc ff ff    	lea    -0x2370(%ebp),%eax
 804a8f2:	89 44 24 38          	mov    %eax,0x38(%esp)
 804a8f6:	8d 85 94 dc ff ff    	lea    -0x236c(%ebp),%eax
 804a8fc:	89 44 24 34          	mov    %eax,0x34(%esp)
 804a900:	8d 85 80 dc ff ff    	lea    -0x2380(%ebp),%eax
 804a906:	89 44 24 30          	mov    %eax,0x30(%esp)
 804a90a:	8d 85 84 dc ff ff    	lea    -0x237c(%ebp),%eax
 804a910:	89 44 24 2c          	mov    %eax,0x2c(%esp)
 804a914:	8d 85 98 dc ff ff    	lea    -0x2368(%ebp),%eax
 804a91a:	89 44 24 28          	mov    %eax,0x28(%esp)
 804a91e:	8d 85 8c dc ff ff    	lea    -0x2374(%ebp),%eax
 804a924:	89 44 24 24          	mov    %eax,0x24(%esp)
 804a928:	8d 85 88 dc ff ff    	lea    -0x2378(%ebp),%eax
 804a92e:	89 44 24 20          	mov    %eax,0x20(%esp)
 804a932:	8d 85 9c dc ff ff    	lea    -0x2364(%ebp),%eax
 804a938:	89 44 24 1c          	mov    %eax,0x1c(%esp)
 804a93c:	8d 85 a4 dc ff ff    	lea    -0x235c(%ebp),%eax
 804a942:	89 44 24 18          	mov    %eax,0x18(%esp)
 804a946:	8d 85 a8 dc ff ff    	lea    -0x2358(%ebp),%eax
 804a94c:	89 44 24 10          	mov    %eax,0x10(%esp)
 804a950:	8d 9d 2e ff ff ff    	lea    -0xd2(%ebp),%ebx
 804a956:	8d 85 a0 dc ff ff    	lea    -0x2360(%ebp),%eax
 804a95c:	8d b5 ee fe ff ff    	lea    -0x112(%ebp),%esi
 804a962:	89 14 24             	mov    %edx,(%esp)
 804a965:	c6 85 ae fc ff ff 00 	movb   $0x0,-0x352(%ebp)
 804a96c:	89 74 24 14          	mov    %esi,0x14(%esp)
 804a970:	89 5c 24 0c          	mov    %ebx,0xc(%esp)
 804a974:	89 44 24 08          	mov    %eax,0x8(%esp)
 804a978:	c7 44 24 04 cc b1 05 	movl   $0x805b1cc,0x4(%esp)
 804a97f:	08 
 804a980:	e8 63 ed ff ff       	call   80496e8 <sscanf@plt>
 804a985:	89 1c 24             	mov    %ebx,(%esp)
 804a988:	89 85 68 dc ff ff    	mov    %eax,-0x2398(%ebp)
 804a98e:	e8 b5 eb ff ff       	call   8049548 <strlen@plt>
 804a993:	83 f8 08             	cmp    $0x8,%eax
 804a996:	0f 87 d4 03 00 00    	ja     804ad70 <geteuid@plt+0x1598>
 804a99c:	8d 45 bc             	lea    -0x44(%ebp),%eax
 804a99f:	89 44 24 08          	mov    %eax,0x8(%esp)
 804a9a3:	c7 44 24 04 46 ba 05 	movl   $0x805ba46,0x4(%esp)
 804a9aa:	08 
 804a9ab:	89 1c 24             	mov    %ebx,(%esp)
 804a9ae:	e8 35 ed ff ff       	call   80496e8 <sscanf@plt>
 804a9b3:	8d 45 a0             	lea    -0x60(%ebp),%eax
 804a9b6:	89 44 24 08          	mov    %eax,0x8(%esp)
 804a9ba:	c7 44 24 04 46 ba 05 	movl   $0x805ba46,0x4(%esp)
 804a9c1:	08 
 804a9c2:	89 34 24             	mov    %esi,(%esp)
 804a9c5:	e8 1e ed ff ff       	call   80496e8 <sscanf@plt>
 804a9ca:	66 c7 45 b8 02 00    	movw   $0x2,-0x48(%ebp)
 804a9d0:	66 c7 45 9c 02 00    	movw   $0x2,-0x64(%ebp)
 804a9d6:	c7 85 64 dc ff ff 4e 	movl   $0x805bb4e,-0x239c(%ebp)
 804a9dd:	bb 05 08 
 804a9e0:	8b 15 08 29 06 08    	mov    0x8062908,%edx
 804a9e6:	c7 85 80 dc ff ff 00 	movl   $0x0,-0x2380(%ebp)
 804a9ed:	00 00 00 
 804a9f0:	85 d2                	test   %edx,%edx
 804a9f2:	75 07                	jne    804a9fb <geteuid@plt+0x1223>
 804a9f4:	c6 85 ae fc ff ff 00 	movb   $0x0,-0x352(%ebp)
 804a9fb:	83 bd 68 dc ff ff 09 	cmpl   $0x9,-0x2398(%ebp)
 804aa02:	0f 8e 68 04 00 00    	jle    804ae70 <geteuid@plt+0x1698>
 804aa08:	0f b7 45 b8          	movzwl -0x48(%ebp),%eax
 804aa0c:	8d 7d b8             	lea    -0x48(%ebp),%edi
 804aa0f:	89 04 24             	mov    %eax,(%esp)
 804aa12:	e8 c9 4a 00 00       	call   804f4e0 <geteuid@plt+0x5d08>
 804aa17:	85 c0                	test   %eax,%eax
 804aa19:	89 85 68 dc ff ff    	mov    %eax,-0x2398(%ebp)
 804aa1f:	0f 84 13 06 00 00    	je     804b038 <geteuid@plt+0x1860>
 804aa25:	8b 85 9c dc ff ff    	mov    -0x2364(%ebp),%eax
 804aa2b:	83 f8 01             	cmp    $0x1,%eax
 804aa2e:	0f 84 6c 04 00 00    	je     804aea0 <geteuid@plt+0x16c8>
 804aa34:	83 f8 07             	cmp    $0x7,%eax
 804aa37:	c7 85 60 dc ff ff 2e 	movl   $0x805f82e,-0x23a0(%ebp)
 804aa3e:	f8 05 08 
 804aa41:	74 12                	je     804aa55 <geteuid@plt+0x127d>
 804aa43:	c7 04 24 28 bb 05 08 	movl   $0x805bb28,(%esp)
 804aa4a:	e8 d9 e9 ff ff       	call   8049428 <gettext@plt>
 804aa4f:	89 85 60 dc ff ff    	mov    %eax,-0x23a0(%ebp)
 804aa55:	a1 f0 28 06 08       	mov    0x80628f0,%eax
 804aa5a:	85 c0                	test   %eax,%eax
 804aa5c:	75 26                	jne    804aa84 <geteuid@plt+0x12ac>
 804aa5e:	0f b7 45 9c          	movzwl -0x64(%ebp),%eax
 804aa62:	66 83 f8 0a          	cmp    $0xa,%ax
 804aa66:	0f 84 b4 04 00 00    	je     804af20 <geteuid@plt+0x1748>
 804aa6c:	66 83 f8 02          	cmp    $0x2,%ax
 804aa70:	0f 84 e2 04 00 00    	je     804af58 <geteuid@plt+0x1780>
 804aa76:	8b 15 f4 28 06 08    	mov    0x80628f4,%edx
 804aa7c:	85 d2                	test   %edx,%edx
 804aa7e:	0f 84 38 fe ff ff    	je     804a8bc <geteuid@plt+0x10e4>
 804aa84:	8b 95 68 dc ff ff    	mov    -0x2398(%ebp),%edx
 804aa8a:	a1 00 29 06 08       	mov    0x8062900,%eax
 804aa8f:	89 3c 24             	mov    %edi,(%esp)
 804aa92:	8d bd ae dc ff ff    	lea    -0x2352(%ebp),%edi
 804aa98:	89 44 24 04          	mov    %eax,0x4(%esp)
 804aa9c:	ff 52 14             	call   *0x14(%edx)
 804aa9f:	c7 44 24 08 40 00 00 	movl   $0x40,0x8(%esp)
 804aaa6:	00 
 804aaa7:	89 1c 24             	mov    %ebx,(%esp)
 804aaaa:	89 44 24 04          	mov    %eax,0x4(%esp)
 804aaae:	e8 cd dc 00 00       	call   8058780 <geteuid@plt+0xefa8>
 804aab3:	8b 15 00 29 06 08    	mov    0x8062900,%edx
 804aab9:	0f b7 85 a8 dc ff ff 	movzwl -0x2358(%ebp),%eax
 804aac0:	66 c1 c8 08          	ror    $0x8,%ax
 804aac4:	0f b7 c0             	movzwl %ax,%eax
 804aac7:	83 e2 08             	and    $0x8,%edx
 804aaca:	89 54 24 08          	mov    %edx,0x8(%esp)
 804aace:	c7 44 24 04 4e bb 05 	movl   $0x805bb4e,0x4(%esp)
 804aad5:	08 
 804aad6:	89 04 24             	mov    %eax,(%esp)
 804aad9:	e8 02 59 00 00       	call   80503e0 <geteuid@plt+0x6c08>
 804aade:	c7 44 24 10 70 f4 05 	movl   $0x805f470,0x10(%esp)
 804aae5:	08 
 804aae6:	c7 44 24 0c 00 20 00 	movl   $0x2000,0xc(%esp)
 804aaed:	00 
 804aaee:	c7 44 24 08 01 00 00 	movl   $0x1,0x8(%esp)
 804aaf5:	00 
 804aaf6:	c7 44 24 04 00 20 00 	movl   $0x2000,0x4(%esp)
 804aafd:	00 
 804aafe:	89 3c 24             	mov    %edi,(%esp)
 804ab01:	89 44 24 14          	mov    %eax,0x14(%esp)
 804ab05:	e8 3e ec ff ff       	call   8049748 <__snprintf_chk@plt>
 804ab0a:	89 1c 24             	mov    %ebx,(%esp)
 804ab0d:	e8 36 ea ff ff       	call   8049548 <strlen@plt>
 804ab12:	89 3c 24             	mov    %edi,(%esp)
 804ab15:	89 85 58 dc ff ff    	mov    %eax,-0x23a8(%ebp)
 804ab1b:	e8 28 ea ff ff       	call   8049548 <strlen@plt>
 804ab20:	8b 8d 58 dc ff ff    	mov    -0x23a8(%ebp),%ecx
 804ab26:	8d 14 08             	lea    (%eax,%ecx,1),%edx
 804ab29:	83 fa 16             	cmp    $0x16,%edx
 804ab2c:	76 0c                	jbe    804ab3a <geteuid@plt+0x1362>
 804ab2e:	8d 55 e8             	lea    -0x18(%ebp),%edx
 804ab31:	29 c2                	sub    %eax,%edx
 804ab33:	c6 82 5c ff ff ff 00 	movb   $0x0,-0xa4(%edx)
 804ab3a:	c7 44 24 08 40 00 00 	movl   $0x40,0x8(%esp)
 804ab41:	00 
 804ab42:	c7 44 24 04 4e bc 05 	movl   $0x805bc4e,0x4(%esp)
 804ab49:	08 
 804ab4a:	89 1c 24             	mov    %ebx,(%esp)
 804ab4d:	e8 c6 e8 ff ff       	call   8049418 <__strcat_chk@plt>
 804ab52:	c7 44 24 08 40 00 00 	movl   $0x40,0x8(%esp)
 804ab59:	00 
 804ab5a:	89 7c 24 04          	mov    %edi,0x4(%esp)
 804ab5e:	89 1c 24             	mov    %ebx,(%esp)
 804ab61:	e8 b2 e8 ff ff       	call   8049418 <__strcat_chk@plt>
 804ab66:	8b 15 00 29 06 08    	mov    0x8062900,%edx
 804ab6c:	0f b7 85 a4 dc ff ff 	movzwl -0x235c(%ebp),%eax
 804ab73:	66 c1 c8 08          	ror    $0x8,%ax
 804ab77:	0f b7 c0             	movzwl %ax,%eax
 804ab7a:	83 e2 08             	and    $0x8,%edx
 804ab7d:	89 54 24 08          	mov    %edx,0x8(%esp)
 804ab81:	c7 44 24 04 4e bb 05 	movl   $0x805bb4e,0x4(%esp)
 804ab88:	08 
 804ab89:	89 04 24             	mov    %eax,(%esp)
 804ab8c:	e8 4f 58 00 00       	call   80503e0 <geteuid@plt+0x6c08>
 804ab91:	c7 44 24 10 70 f4 05 	movl   $0x805f470,0x10(%esp)
 804ab98:	08 
 804ab99:	c7 44 24 0c 00 20 00 	movl   $0x2000,0xc(%esp)
 804aba0:	00 
 804aba1:	c7 44 24 08 01 00 00 	movl   $0x1,0x8(%esp)
 804aba8:	00 
 804aba9:	c7 44 24 04 00 20 00 	movl   $0x2000,0x4(%esp)
 804abb0:	00 
 804abb1:	89 3c 24             	mov    %edi,(%esp)
 804abb4:	89 44 24 14          	mov    %eax,0x14(%esp)
 804abb8:	e8 8b eb ff ff       	call   8049748 <__snprintf_chk@plt>
 804abbd:	a1 00 29 06 08       	mov    0x8062900,%eax
 804abc2:	8b 8d 68 dc ff ff    	mov    -0x2398(%ebp),%ecx
 804abc8:	89 44 24 04          	mov    %eax,0x4(%esp)
 804abcc:	8d 45 9c             	lea    -0x64(%ebp),%eax
 804abcf:	89 04 24             	mov    %eax,(%esp)
 804abd2:	ff 51 14             	call   *0x14(%ecx)
 804abd5:	c7 44 24 08 40 00 00 	movl   $0x40,0x8(%esp)
 804abdc:	00 
 804abdd:	89 34 24             	mov    %esi,(%esp)
 804abe0:	89 44 24 04          	mov    %eax,0x4(%esp)
 804abe4:	e8 97 db 00 00       	call   8058780 <geteuid@plt+0xefa8>
 804abe9:	89 34 24             	mov    %esi,(%esp)
 804abec:	e8 57 e9 ff ff       	call   8049548 <strlen@plt>
 804abf1:	89 3c 24             	mov    %edi,(%esp)
 804abf4:	89 85 68 dc ff ff    	mov    %eax,-0x2398(%ebp)
 804abfa:	e8 49 e9 ff ff       	call   8049548 <strlen@plt>
 804abff:	8b 8d 68 dc ff ff    	mov    -0x2398(%ebp),%ecx
 804ac05:	8d 14 08             	lea    (%eax,%ecx,1),%edx
 804ac08:	83 fa 16             	cmp    $0x16,%edx
 804ac0b:	76 0c                	jbe    804ac19 <geteuid@plt+0x1441>
 804ac0d:	8d 55 e8             	lea    -0x18(%ebp),%edx
 804ac10:	29 c2                	sub    %eax,%edx
 804ac12:	c6 82 1c ff ff ff 00 	movb   $0x0,-0xe4(%edx)
 804ac19:	c7 44 24 08 40 00 00 	movl   $0x40,0x8(%esp)
 804ac20:	00 
 804ac21:	c7 44 24 04 4e bc 05 	movl   $0x805bc4e,0x4(%esp)
 804ac28:	08 
 804ac29:	89 34 24             	mov    %esi,(%esp)
 804ac2c:	e8 e7 e7 ff ff       	call   8049418 <__strcat_chk@plt>
 804ac31:	89 7c 24 04          	mov    %edi,0x4(%esp)
 804ac35:	8d bd ae fe ff ff    	lea    -0x152(%ebp),%edi
 804ac3b:	c7 44 24 08 40 00 00 	movl   $0x40,0x8(%esp)
 804ac42:	00 
 804ac43:	89 34 24             	mov    %esi,(%esp)
 804ac46:	e8 cd e7 ff ff       	call   8049418 <__strcat_chk@plt>
 804ac4b:	a1 08 29 06 08       	mov    0x8062908,%eax
 804ac50:	c6 85 ae fe ff ff 00 	movb   $0x0,-0x152(%ebp)
 804ac57:	85 c0                	test   %eax,%eax
 804ac59:	0f 84 b1 00 00 00    	je     804ad10 <geteuid@plt+0x1538>
 804ac5f:	8b 8d 98 dc ff ff    	mov    -0x2368(%ebp),%ecx
 804ac65:	83 f9 00             	cmp    $0x0,%ecx
 804ac68:	89 8d 34 dc ff ff    	mov    %ecx,-0x23cc(%ebp)
 804ac6e:	0f 84 44 02 00 00    	je     804aeb8 <geteuid@plt+0x16e0>
 804ac74:	7c 09                	jl     804ac7f <geteuid@plt+0x14a7>
 804ac76:	83 f9 02             	cmp    $0x2,%ecx
 804ac79:	0f 8e 19 03 00 00    	jle    804af98 <geteuid@plt+0x17c0>
 804ac7f:	8b 85 84 dc ff ff    	mov    -0x237c(%ebp),%eax
 804ac85:	31 d2                	xor    %edx,%edx
 804ac87:	89 95 6c dc ff ff    	mov    %edx,-0x2394(%ebp)
 804ac8d:	8b 8d 80 dc ff ff    	mov    -0x2380(%ebp),%ecx
 804ac93:	8b bd 90 dc ff ff    	mov    -0x2370(%ebp),%edi
 804ac99:	c7 04 24 bc ba 05 08 	movl   $0x805babc,(%esp)
 804aca0:	89 85 68 dc ff ff    	mov    %eax,-0x2398(%ebp)
 804aca6:	df ad 68 dc ff ff    	fildll -0x2398(%ebp)
 804acac:	d8 35 28 c4 05 08    	fdivs  0x805c428
 804acb2:	89 8d 54 dc ff ff    	mov    %ecx,-0x23ac(%ebp)
 804acb8:	dd 9d 38 dc ff ff    	fstpl  -0x23c8(%ebp)
 804acbe:	e8 65 e7 ff ff       	call   8049428 <gettext@plt>
 804acc3:	8b 8d 54 dc ff ff    	mov    -0x23ac(%ebp),%ecx
 804acc9:	8b 95 34 dc ff ff    	mov    -0x23cc(%ebp),%edx
 804accf:	89 7c 24 24          	mov    %edi,0x24(%esp)
 804acd3:	8d bd ae fe ff ff    	lea    -0x152(%ebp),%edi
 804acd9:	c7 44 24 0c 40 00 00 	movl   $0x40,0xc(%esp)
 804ace0:	00 
 804ace1:	89 4c 24 20          	mov    %ecx,0x20(%esp)
 804ace5:	89 54 24 14          	mov    %edx,0x14(%esp)
 804ace9:	dd 85 38 dc ff ff    	fldl   -0x23c8(%ebp)
 804acef:	dd 5c 24 18          	fstpl  0x18(%esp)
 804acf3:	89 44 24 10          	mov    %eax,0x10(%esp)
 804acf7:	c7 44 24 08 01 00 00 	movl   $0x1,0x8(%esp)
 804acfe:	00 
 804acff:	c7 44 24 04 40 00 00 	movl   $0x40,0x4(%esp)
 804ad06:	00 
 804ad07:	89 3c 24             	mov    %edi,(%esp)
 804ad0a:	e8 39 ea ff ff       	call   8049748 <__snprintf_chk@plt>
 804ad0f:	90                   	nop
 804ad10:	8b 85 88 dc ff ff    	mov    -0x2378(%ebp),%eax
 804ad16:	8b 8d 60 dc ff ff    	mov    -0x23a0(%ebp),%ecx
 804ad1c:	89 74 24 18          	mov    %esi,0x18(%esp)
 804ad20:	89 5c 24 14          	mov    %ebx,0x14(%esp)
 804ad24:	89 44 24 10          	mov    %eax,0x10(%esp)
 804ad28:	8b 85 8c dc ff ff    	mov    -0x2374(%ebp),%eax
 804ad2e:	89 4c 24 1c          	mov    %ecx,0x1c(%esp)
 804ad32:	c7 44 24 04 94 b2 05 	movl   $0x805b294,0x4(%esp)
 804ad39:	08 
 804ad3a:	c7 04 24 01 00 00 00 	movl   $0x1,(%esp)
 804ad41:	89 44 24 0c          	mov    %eax,0xc(%esp)
 804ad45:	8b 85 64 dc ff ff    	mov    -0x239c(%ebp),%eax
 804ad4b:	89 44 24 08          	mov    %eax,0x8(%esp)
 804ad4f:	e8 04 e6 ff ff       	call   8049358 <__printf_chk@plt>
 804ad54:	8b 95 7c dc ff ff    	mov    -0x2384(%ebp),%edx
 804ad5a:	89 f9                	mov    %edi,%ecx
 804ad5c:	8b 85 94 dc ff ff    	mov    -0x236c(%ebp),%eax
 804ad62:	e8 39 ef ff ff       	call   8049ca0 <geteuid@plt+0x4c8>
 804ad67:	e9 50 fb ff ff       	jmp    804a8bc <geteuid@plt+0x10e4>
 804ad6c:	8d 74 26 00          	lea    0x0(%esi,%eiz,1),%esi
 804ad70:	8d 45 d8             	lea    -0x28(%ebp),%eax
 804ad73:	8d 55 e0             	lea    -0x20(%ebp),%edx
 804ad76:	8d 4d dc             	lea    -0x24(%ebp),%ecx
 804ad79:	89 44 24 0c          	mov    %eax,0xc(%esp)
 804ad7d:	8d 45 d4             	lea    -0x2c(%ebp),%eax
 804ad80:	89 54 24 14          	mov    %edx,0x14(%esp)
 804ad84:	8d bd 6e ff ff ff    	lea    -0x92(%ebp),%edi
 804ad8a:	89 4c 24 10          	mov    %ecx,0x10(%esp)
 804ad8e:	89 95 50 dc ff ff    	mov    %edx,-0x23b0(%ebp)
 804ad94:	89 8d 54 dc ff ff    	mov    %ecx,-0x23ac(%ebp)
 804ad9a:	89 44 24 08          	mov    %eax,0x8(%esp)
 804ad9e:	c7 44 24 04 35 ba 05 	movl   $0x805ba35,0x4(%esp)
 804ada5:	08 
 804ada6:	89 1c 24             	mov    %ebx,(%esp)
 804ada9:	e8 3a e9 ff ff       	call   80496e8 <sscanf@plt>
 804adae:	8d 45 d4             	lea    -0x2c(%ebp),%eax
 804adb1:	c7 44 24 0c 2e 00 00 	movl   $0x2e,0xc(%esp)
 804adb8:	00 
 804adb9:	89 7c 24 08          	mov    %edi,0x8(%esp)
 804adbd:	89 44 24 04          	mov    %eax,0x4(%esp)
 804adc1:	c7 04 24 0a 00 00 00 	movl   $0xa,(%esp)
 804adc8:	e8 cb e4 ff ff       	call   8049298 <inet_ntop@plt>
 804adcd:	8d 45 b8             	lea    -0x48(%ebp),%eax
 804add0:	89 44 24 08          	mov    %eax,0x8(%esp)
 804add4:	89 7c 24 04          	mov    %edi,0x4(%esp)
 804add8:	c7 04 24 01 00 00 00 	movl   $0x1,(%esp)
 804addf:	ff 15 58 22 06 08    	call   *0x8062258
 804ade5:	8b 95 50 dc ff ff    	mov    -0x23b0(%ebp),%edx
 804adeb:	8b 8d 54 dc ff ff    	mov    -0x23ac(%ebp),%ecx
 804adf1:	c7 44 24 04 35 ba 05 	movl   $0x805ba35,0x4(%esp)
 804adf8:	08 
 804adf9:	89 34 24             	mov    %esi,(%esp)
 804adfc:	89 54 24 14          	mov    %edx,0x14(%esp)
 804ae00:	8d 55 d8             	lea    -0x28(%ebp),%edx
 804ae03:	89 4c 24 10          	mov    %ecx,0x10(%esp)
 804ae07:	8d 4d d4             	lea    -0x2c(%ebp),%ecx
 804ae0a:	89 54 24 0c          	mov    %edx,0xc(%esp)
 804ae0e:	89 4c 24 08          	mov    %ecx,0x8(%esp)
 804ae12:	e8 d1 e8 ff ff       	call   80496e8 <sscanf@plt>
 804ae17:	8d 45 d4             	lea    -0x2c(%ebp),%eax
 804ae1a:	c7 44 24 0c 2e 00 00 	movl   $0x2e,0xc(%esp)
 804ae21:	00 
 804ae22:	89 7c 24 08          	mov    %edi,0x8(%esp)
 804ae26:	89 44 24 04          	mov    %eax,0x4(%esp)
 804ae2a:	c7 04 24 0a 00 00 00 	movl   $0xa,(%esp)
 804ae31:	e8 62 e4 ff ff       	call   8049298 <inet_ntop@plt>
 804ae36:	8d 45 9c             	lea    -0x64(%ebp),%eax
 804ae39:	89 44 24 08          	mov    %eax,0x8(%esp)
 804ae3d:	89 7c 24 04          	mov    %edi,0x4(%esp)
 804ae41:	c7 04 24 01 00 00 00 	movl   $0x1,(%esp)
 804ae48:	ff 15 58 22 06 08    	call   *0x8062258
 804ae4e:	66 c7 45 b8 0a 00    	movw   $0xa,-0x48(%ebp)
 804ae54:	66 c7 45 9c 0a 00    	movw   $0xa,-0x64(%ebp)
 804ae5a:	c7 85 64 dc ff ff 6a 	movl   $0x805bb6a,-0x239c(%ebp)
 804ae61:	bb 05 08 
 804ae64:	e9 77 fb ff ff       	jmp    804a9e0 <geteuid@plt+0x1208>
 804ae69:	8d b4 26 00 00 00 00 	lea    0x0(%esi,%eiz,1),%esi
 804ae70:	c7 04 24 fe ba 05 08 	movl   $0x805bafe,(%esp)
 804ae77:	e8 ac e5 ff ff       	call   8049428 <gettext@plt>
 804ae7c:	c7 44 24 04 01 00 00 	movl   $0x1,0x4(%esp)
 804ae83:	00 
 804ae84:	89 44 24 08          	mov    %eax,0x8(%esp)
 804ae88:	a1 80 28 06 08       	mov    0x8062880,%eax
 804ae8d:	89 04 24             	mov    %eax,(%esp)
 804ae90:	e8 73 e4 ff ff       	call   8049308 <__fprintf_chk@plt>
 804ae95:	e9 22 fa ff ff       	jmp    804a8bc <geteuid@plt+0x10e4>
 804ae9a:	8d b6 00 00 00 00    	lea    0x0(%esi),%esi
 804aea0:	c7 04 24 1c bb 05 08 	movl   $0x805bb1c,(%esp)
 804aea7:	e8 7c e5 ff ff       	call   8049428 <gettext@plt>
 804aeac:	89 85 60 dc ff ff    	mov    %eax,-0x23a0(%ebp)
 804aeb2:	e9 9e fb ff ff       	jmp    804aa55 <geteuid@plt+0x127d>
 804aeb7:	90                   	nop
 804aeb8:	8b 95 90 dc ff ff    	mov    -0x2370(%ebp),%edx
 804aebe:	8b 8d 80 dc ff ff    	mov    -0x2380(%ebp),%ecx
 804aec4:	c7 04 24 67 ba 05 08 	movl   $0x805ba67,(%esp)
 804aecb:	89 95 50 dc ff ff    	mov    %edx,-0x23b0(%ebp)
 804aed1:	89 8d 54 dc ff ff    	mov    %ecx,-0x23ac(%ebp)
 804aed7:	e8 4c e5 ff ff       	call   8049428 <gettext@plt>
 804aedc:	8b 95 50 dc ff ff    	mov    -0x23b0(%ebp),%edx
 804aee2:	8b 8d 54 dc ff ff    	mov    -0x23ac(%ebp),%ecx
 804aee8:	c7 44 24 0c 40 00 00 	movl   $0x40,0xc(%esp)
 804aeef:	00 
 804aef0:	c7 44 24 08 01 00 00 	movl   $0x1,0x8(%esp)
 804aef7:	00 
 804aef8:	89 54 24 18          	mov    %edx,0x18(%esp)
 804aefc:	89 4c 24 14          	mov    %ecx,0x14(%esp)
 804af00:	89 44 24 10          	mov    %eax,0x10(%esp)
 804af04:	c7 44 24 04 40 00 00 	movl   $0x40,0x4(%esp)
 804af0b:	00 
 804af0c:	89 3c 24             	mov    %edi,(%esp)
 804af0f:	e8 34 e8 ff ff       	call   8049748 <__snprintf_chk@plt>
 804af14:	e9 f7 fd ff ff       	jmp    804ad10 <geteuid@plt+0x1538>
 804af19:	8d b4 26 00 00 00 00 	lea    0x0(%esi,%eiz,1),%esi
 804af20:	8b 4d a4             	mov    -0x5c(%ebp),%ecx
 804af23:	85 c9                	test   %ecx,%ecx
 804af25:	75 3f                	jne    804af66 <geteuid@plt+0x178e>
 804af27:	8b 55 a8             	mov    -0x58(%ebp),%edx
 804af2a:	85 d2                	test   %edx,%edx
 804af2c:	75 38                	jne    804af66 <geteuid@plt+0x178e>
 804af2e:	8b 4d ac             	mov    -0x54(%ebp),%ecx
 804af31:	85 c9                	test   %ecx,%ecx
 804af33:	75 31                	jne    804af66 <geteuid@plt+0x178e>
 804af35:	8b 55 b0             	mov    -0x50(%ebp),%edx
 804af38:	85 d2                	test   %edx,%edx
 804af3a:	75 2a                	jne    804af66 <geteuid@plt+0x178e>
 804af3c:	8b 55 ac             	mov    -0x54(%ebp),%edx
 804af3f:	85 d2                	test   %edx,%edx
 804af41:	0f 85 75 f9 ff ff    	jne    804a8bc <geteuid@plt+0x10e4>
 804af47:	8b 45 b0             	mov    -0x50(%ebp),%eax
 804af4a:	85 c0                	test   %eax,%eax
 804af4c:	0f 84 24 fb ff ff    	je     804aa76 <geteuid@plt+0x129e>
 804af52:	e9 65 f9 ff ff       	jmp    804a8bc <geteuid@plt+0x10e4>
 804af57:	90                   	nop
 804af58:	8b 4d a0             	mov    -0x60(%ebp),%ecx
 804af5b:	85 c9                	test   %ecx,%ecx
 804af5d:	8d 76 00             	lea    0x0(%esi),%esi
 804af60:	0f 84 10 fb ff ff    	je     804aa76 <geteuid@plt+0x129e>
 804af66:	8b 15 f4 28 06 08    	mov    0x80628f4,%edx
 804af6c:	85 d2                	test   %edx,%edx
 804af6e:	0f 84 10 fb ff ff    	je     804aa84 <geteuid@plt+0x12ac>
 804af74:	66 83 f8 0a          	cmp    $0xa,%ax
 804af78:	0f 85 f1 00 00 00    	jne    804b06f <geteuid@plt+0x1897>
 804af7e:	8b 45 a4             	mov    -0x5c(%ebp),%eax
 804af81:	85 c0                	test   %eax,%eax
 804af83:	0f 85 33 f9 ff ff    	jne    804a8bc <geteuid@plt+0x10e4>
 804af89:	8b 4d a8             	mov    -0x58(%ebp),%ecx
 804af8c:	85 c9                	test   %ecx,%ecx
 804af8e:	74 ac                	je     804af3c <geteuid@plt+0x1764>
 804af90:	e9 27 f9 ff ff       	jmp    804a8bc <geteuid@plt+0x10e4>
 804af95:	8d 76 00             	lea    0x0(%esi),%esi
 804af98:	8b 85 80 dc ff ff    	mov    -0x2380(%ebp),%eax
 804af9e:	31 d2                	xor    %edx,%edx
 804afa0:	89 95 5c dc ff ff    	mov    %edx,-0x23a4(%ebp)
 804afa6:	8b 8d 90 dc ff ff    	mov    -0x2370(%ebp),%ecx
 804afac:	c7 04 24 30 bb 05 08 	movl   $0x805bb30,(%esp)
 804afb3:	89 85 68 dc ff ff    	mov    %eax,-0x2398(%ebp)
 804afb9:	8b 85 84 dc ff ff    	mov    -0x237c(%ebp),%eax
 804afbf:	89 8d 54 dc ff ff    	mov    %ecx,-0x23ac(%ebp)
 804afc5:	89 85 58 dc ff ff    	mov    %eax,-0x23a8(%ebp)
 804afcb:	df ad 58 dc ff ff    	fildll -0x23a8(%ebp)
 804afd1:	d8 35 28 c4 05 08    	fdivs  0x805c428
 804afd7:	dd 9d 38 dc ff ff    	fstpl  -0x23c8(%ebp)
 804afdd:	e8 46 e4 ff ff       	call   8049428 <gettext@plt>
 804afe2:	8b 8d 54 dc ff ff    	mov    -0x23ac(%ebp),%ecx
 804afe8:	8b 95 68 dc ff ff    	mov    -0x2398(%ebp),%edx
 804afee:	c7 44 24 0c 40 00 00 	movl   $0x40,0xc(%esp)
 804aff5:	00 
 804aff6:	c7 44 24 08 01 00 00 	movl   $0x1,0x8(%esp)
 804affd:	00 
 804affe:	89 4c 24 24          	mov    %ecx,0x24(%esp)
 804b002:	8b 8d 34 dc ff ff    	mov    -0x23cc(%ebp),%ecx
 804b008:	89 54 24 20          	mov    %edx,0x20(%esp)
 804b00c:	dd 85 38 dc ff ff    	fldl   -0x23c8(%ebp)
 804b012:	dd 5c 24 18          	fstpl  0x18(%esp)
 804b016:	89 4c 24 14          	mov    %ecx,0x14(%esp)
 804b01a:	89 44 24 10          	mov    %eax,0x10(%esp)
 804b01e:	c7 44 24 04 40 00 00 	movl   $0x40,0x4(%esp)
 804b025:	00 
 804b026:	89 3c 24             	mov    %edi,(%esp)
 804b029:	e8 1a e7 ff ff       	call   8049748 <__snprintf_chk@plt>
 804b02e:	e9 dd fc ff ff       	jmp    804ad10 <geteuid@plt+0x1538>
 804b033:	90                   	nop
 804b034:	8d 74 26 00          	lea    0x0(%esi,%eiz,1),%esi
 804b038:	0f b7 5d b8          	movzwl -0x48(%ebp),%ebx
 804b03c:	c7 04 24 1c b2 05 08 	movl   $0x805b21c,(%esp)
 804b043:	e8 e0 e3 ff ff       	call   8049428 <gettext@plt>
 804b048:	c7 44 24 04 01 00 00 	movl   $0x1,0x4(%esp)
 804b04f:	00 
 804b050:	89 5c 24 0c          	mov    %ebx,0xc(%esp)
 804b054:	89 44 24 08          	mov    %eax,0x8(%esp)
 804b058:	a1 80 28 06 08       	mov    0x8062880,%eax
 804b05d:	89 04 24             	mov    %eax,(%esp)
 804b060:	e8 a3 e2 ff ff       	call   8049308 <__fprintf_chk@plt>
 804b065:	e9 52 f8 ff ff       	jmp    804a8bc <geteuid@plt+0x10e4>
 804b06a:	e8 f9 e5 ff ff       	call   8049668 <__stack_chk_fail@plt>
 804b06f:	66 83 f8 02          	cmp    $0x2,%ax
 804b073:	0f 85 fd f9 ff ff    	jne    804aa76 <geteuid@plt+0x129e>
 804b079:	8b 4d a0             	mov    -0x60(%ebp),%ecx
 804b07c:	85 c9                	test   %ecx,%ecx
 804b07e:	66 90                	xchg   %ax,%ax
 804b080:	0f 85 36 f8 ff ff    	jne    804a8bc <geteuid@plt+0x10e4>
 804b086:	e9 eb f9 ff ff       	jmp    804aa76 <geteuid@plt+0x129e>
 804b08b:	90                   	nop
 804b08c:	8d 74 26 00          	lea    0x0(%esi,%eiz,1),%esi
 804b090:	55                   	push   %ebp
 804b091:	89 e5                	mov    %esp,%ebp
 804b093:	57                   	push   %edi
 804b094:	56                   	push   %esi
 804b095:	53                   	push   %ebx
 804b096:	81 ec 4c 20 00 00    	sub    $0x204c,%esp
 804b09c:	8b 0d 28 29 06 08    	mov    0x8062928,%ecx
 804b0a2:	65 a1 14 00 00 00    	mov    %gs:0x14,%eax
 804b0a8:	89 45 e4             	mov    %eax,-0x1c(%ebp)
 804b0ab:	31 c0                	xor    %eax,%eax
 804b0ad:	85 c9                	test   %ecx,%ecx
 804b0af:	74 18                	je     804b0c9 <geteuid@plt+0x18f1>
 804b0b1:	8b 15 68 37 06 08    	mov    0x8063768,%edx
 804b0b7:	c7 85 d4 df ff ff 00 	movl   $0x0,-0x202c(%ebp)
 804b0be:	00 00 00 
 804b0c1:	85 d2                	test   %edx,%edx
 804b0c3:	0f 84 8a 00 00 00    	je     804b153 <geteuid@plt+0x197b>
 804b0c9:	c7 04 24 44 bb 05 08 	movl   $0x805bb44,(%esp)
 804b0d0:	e8 eb ce 00 00       	call   8057fc0 <geteuid@plt+0xe7e8>
 804b0d5:	85 c0                	test   %eax,%eax
 804b0d7:	a3 40 37 06 08       	mov    %eax,0x8063740
 804b0dc:	0f 84 0e 01 00 00    	je     804b1f0 <geteuid@plt+0x1a18>
 804b0e2:	8d b5 e4 df ff ff    	lea    -0x201c(%ebp),%esi
 804b0e8:	31 db                	xor    %ebx,%ebx
 804b0ea:	eb 0b                	jmp    804b0f7 <geteuid@plt+0x191f>
 804b0ec:	8d 74 26 00          	lea    0x0(%esi,%eiz,1),%esi
 804b0f0:	a1 40 37 06 08       	mov    0x8063740,%eax
 804b0f5:	89 fb                	mov    %edi,%ebx
 804b0f7:	89 44 24 08          	mov    %eax,0x8(%esp)
 804b0fb:	89 df                	mov    %ebx,%edi
 804b0fd:	c7 44 24 04 00 20 00 	movl   $0x2000,0x4(%esp)
 804b104:	00 
 804b105:	89 34 24             	mov    %esi,(%esp)
 804b108:	e8 9b e2 ff ff       	call   80493a8 <fgets@plt>
 804b10d:	85 c0                	test   %eax,%eax
 804b10f:	74 0c                	je     804b11d <geteuid@plt+0x1945>
 804b111:	89 f2                	mov    %esi,%edx
 804b113:	89 d8                	mov    %ebx,%eax
 804b115:	8d 7b 01             	lea    0x1(%ebx),%edi
 804b118:	e8 83 f7 ff ff       	call   804a8a0 <geteuid@plt+0x10c8>
 804b11d:	a1 40 37 06 08       	mov    0x8063740,%eax
 804b122:	89 04 24             	mov    %eax,(%esp)
 804b125:	e8 7e e4 ff ff       	call   80495a8 <feof@plt>
 804b12a:	85 c0                	test   %eax,%eax
 804b12c:	74 c2                	je     804b0f0 <geteuid@plt+0x1918>
 804b12e:	a1 40 37 06 08       	mov    0x8063740,%eax
 804b133:	89 04 24             	mov    %eax,(%esp)
 804b136:	e8 cd e3 ff ff       	call   8049508 <fclose@plt>
 804b13b:	8b 1d 28 29 06 08    	mov    0x8062928,%ebx
 804b141:	85 db                	test   %ebx,%ebx
 804b143:	0f 84 c7 00 00 00    	je     804b210 <geteuid@plt+0x1a38>
 804b149:	c7 85 d4 df ff ff 00 	movl   $0x0,-0x202c(%ebp)
 804b150:	00 00 00 
 804b153:	8b 0d 74 37 06 08    	mov    0x8063774,%ecx
 804b159:	85 c9                	test   %ecx,%ecx
 804b15b:	74 6e                	je     804b1cb <geteuid@plt+0x19f3>
 804b15d:	c7 04 24 60 bb 05 08 	movl   $0x805bb60,(%esp)
 804b164:	e8 57 ce 00 00       	call   8057fc0 <geteuid@plt+0xe7e8>
 804b169:	85 c0                	test   %eax,%eax
 804b16b:	a3 40 37 06 08       	mov    %eax,0x8063740
 804b170:	74 59                	je     804b1cb <geteuid@plt+0x19f3>
 804b172:	8d b5 e4 df ff ff    	lea    -0x201c(%ebp),%esi
 804b178:	31 db                	xor    %ebx,%ebx
 804b17a:	eb 0b                	jmp    804b187 <geteuid@plt+0x19af>
 804b17c:	8d 74 26 00          	lea    0x0(%esi,%eiz,1),%esi
 804b180:	a1 40 37 06 08       	mov    0x8063740,%eax
 804b185:	89 fb                	mov    %edi,%ebx
 804b187:	89 44 24 08          	mov    %eax,0x8(%esp)
 804b18b:	89 df                	mov    %ebx,%edi
 804b18d:	c7 44 24 04 00 20 00 	movl   $0x2000,0x4(%esp)
 804b194:	00 
 804b195:	89 34 24             	mov    %esi,(%esp)
 804b198:	e8 0b e2 ff ff       	call   80493a8 <fgets@plt>
 804b19d:	85 c0                	test   %eax,%eax
 804b19f:	74 0c                	je     804b1ad <geteuid@plt+0x19d5>
 804b1a1:	89 f2                	mov    %esi,%edx
 804b1a3:	89 d8                	mov    %ebx,%eax
 804b1a5:	8d 7b 01             	lea    0x1(%ebx),%edi
 804b1a8:	e8 f3 f6 ff ff       	call   804a8a0 <geteuid@plt+0x10c8>
 804b1ad:	a1 40 37 06 08       	mov    0x8063740,%eax
 804b1b2:	89 04 24             	mov    %eax,(%esp)
 804b1b5:	e8 ee e3 ff ff       	call   80495a8 <feof@plt>
 804b1ba:	85 c0                	test   %eax,%eax
 804b1bc:	74 c2                	je     804b180 <geteuid@plt+0x19a8>
 804b1be:	a1 40 37 06 08       	mov    0x8063740,%eax
 804b1c3:	89 04 24             	mov    %eax,(%esp)
 804b1c6:	e8 3d e3 ff ff       	call   8049508 <fclose@plt>
 804b1cb:	8b 55 e4             	mov    -0x1c(%ebp),%edx
 804b1ce:	65 33 15 14 00 00 00 	xor    %gs:0x14,%edx
 804b1d5:	8b 85 d4 df ff ff    	mov    -0x202c(%ebp),%eax
 804b1db:	0f 85 a9 00 00 00    	jne    804b28a <geteuid@plt+0x1ab2>
 804b1e1:	81 c4 4c 20 00 00    	add    $0x204c,%esp
 804b1e7:	5b                   	pop    %ebx
 804b1e8:	5e                   	pop    %esi
 804b1e9:	5f                   	pop    %edi
 804b1ea:	5d                   	pop    %ebp
 804b1eb:	c3                   	ret    
 804b1ec:	8d 74 26 00          	lea    0x0(%esi,%eiz,1),%esi
 804b1f0:	e8 83 e0 ff ff       	call   8049278 <__errno_location@plt>
 804b1f5:	83 38 02             	cmpl   $0x2,(%eax)
 804b1f8:	75 75                	jne    804b26f <geteuid@plt+0x1a97>
 804b1fa:	a1 28 29 06 08       	mov    0x8062928,%eax
 804b1ff:	85 c0                	test   %eax,%eax
 804b201:	75 1d                	jne    804b220 <geteuid@plt+0x1a48>
 804b203:	8b 3d 2c 29 06 08    	mov    0x806292c,%edi
 804b209:	85 ff                	test   %edi,%edi
 804b20b:	75 13                	jne    804b220 <geteuid@plt+0x1a48>
 804b20d:	8d 76 00             	lea    0x0(%esi),%esi
 804b210:	c7 85 d4 df ff ff 00 	movl   $0x0,-0x202c(%ebp)
 804b217:	00 00 00 
 804b21a:	e9 3e ff ff ff       	jmp    804b15d <geteuid@plt+0x1985>
 804b21f:	90                   	nop
 804b220:	c7 04 24 68 b2 05 08 	movl   $0x805b268,(%esp)
 804b227:	e8 fc e1 ff ff       	call   8049428 <gettext@plt>
 804b22c:	c7 44 24 10 52 bb 05 	movl   $0x805bb52,0x10(%esp)
 804b233:	08 
 804b234:	c7 44 24 0c ac c4 05 	movl   $0x805c4ac,0xc(%esp)
 804b23b:	08 
 804b23c:	c7 44 24 04 01 00 00 	movl   $0x1,0x4(%esp)
 804b243:	00 
 804b244:	89 44 24 08          	mov    %eax,0x8(%esp)
 804b248:	a1 80 28 06 08       	mov    0x8062880,%eax
 804b24d:	89 04 24             	mov    %eax,(%esp)
 804b250:	e8 b3 e0 ff ff       	call   8049308 <__fprintf_chk@plt>
 804b255:	8b 35 28 29 06 08    	mov    0x8062928,%esi
 804b25b:	c7 85 d4 df ff ff 01 	movl   $0x1,-0x202c(%ebp)
 804b262:	00 00 00 
 804b265:	85 f6                	test   %esi,%esi
 804b267:	0f 85 e6 fe ff ff    	jne    804b153 <geteuid@plt+0x197b>
 804b26d:	eb a1                	jmp    804b210 <geteuid@plt+0x1a38>
 804b26f:	c7 04 24 44 bb 05 08 	movl   $0x805bb44,(%esp)
 804b276:	e8 8d e1 ff ff       	call   8049408 <perror@plt>
 804b27b:	c7 85 d4 df ff ff ff 	movl   $0xffffffff,-0x202c(%ebp)
 804b282:	ff ff ff 
 804b285:	e9 41 ff ff ff       	jmp    804b1cb <geteuid@plt+0x19f3>
 804b28a:	e8 d9 e3 ff ff       	call   8049668 <__stack_chk_fail@plt>
 804b28f:	90                   	nop
 804b290:	55                   	push   %ebp
 804b291:	89 e5                	mov    %esp,%ebp
 804b293:	57                   	push   %edi
 804b294:	56                   	push   %esi
 804b295:	53                   	push   %ebx
 804b296:	81 ec 1c 24 00 00    	sub    $0x241c,%esp
 804b29c:	65 8b 0d 14 00 00 00 	mov    %gs:0x14,%ecx
 804b2a3:	89 4d e4             	mov    %ecx,-0x1c(%ebp)
 804b2a6:	31 c9                	xor    %ecx,%ecx
 804b2a8:	85 c0                	test   %eax,%eax
 804b2aa:	75 1c                	jne    804b2c8 <geteuid@plt+0x1af0>
 804b2ac:	8b 45 e4             	mov    -0x1c(%ebp),%eax
 804b2af:	65 33 05 14 00 00 00 	xor    %gs:0x14,%eax
 804b2b6:	0f 85 4e 07 00 00    	jne    804ba0a <geteuid@plt+0x2232>
 804b2bc:	81 c4 1c 24 00 00    	add    $0x241c,%esp
 804b2c2:	5b                   	pop    %ebx
 804b2c3:	5e                   	pop    %esi
 804b2c4:	5f                   	pop    %edi
 804b2c5:	5d                   	pop    %ebp
 804b2c6:	c3                   	ret    
 804b2c7:	90                   	nop
 804b2c8:	8d 85 ae fc ff ff    	lea    -0x352(%ebp),%eax
 804b2ce:	89 44 24 40          	mov    %eax,0x40(%esp)
 804b2d2:	8d 85 7c dc ff ff    	lea    -0x2384(%ebp),%eax
 804b2d8:	89 44 24 3c          	mov    %eax,0x3c(%esp)
 804b2dc:	8d 85 90 dc ff ff    	lea    -0x2370(%ebp),%eax
 804b2e2:	89 44 24 38          	mov    %eax,0x38(%esp)
 804b2e6:	8d 85 94 dc ff ff    	lea    -0x236c(%ebp),%eax
 804b2ec:	89 44 24 34          	mov    %eax,0x34(%esp)
 804b2f0:	8d 85 80 dc ff ff    	lea    -0x2380(%ebp),%eax
 804b2f6:	89 44 24 30          	mov    %eax,0x30(%esp)
 804b2fa:	8d 85 84 dc ff ff    	lea    -0x237c(%ebp),%eax
 804b300:	89 44 24 2c          	mov    %eax,0x2c(%esp)
 804b304:	8d 85 98 dc ff ff    	lea    -0x2368(%ebp),%eax
 804b30a:	89 44 24 28          	mov    %eax,0x28(%esp)
 804b30e:	8d 85 8c dc ff ff    	lea    -0x2374(%ebp),%eax
 804b314:	89 44 24 24          	mov    %eax,0x24(%esp)
 804b318:	8d 85 88 dc ff ff    	lea    -0x2378(%ebp),%eax
 804b31e:	89 44 24 20          	mov    %eax,0x20(%esp)
 804b322:	8d 85 9c dc ff ff    	lea    -0x2364(%ebp),%eax
 804b328:	89 44 24 1c          	mov    %eax,0x1c(%esp)
 804b32c:	8d 85 a4 dc ff ff    	lea    -0x235c(%ebp),%eax
 804b332:	89 44 24 18          	mov    %eax,0x18(%esp)
 804b336:	8d 85 a8 dc ff ff    	lea    -0x2358(%ebp),%eax
 804b33c:	89 44 24 10          	mov    %eax,0x10(%esp)
 804b340:	8d 9d 2e ff ff ff    	lea    -0xd2(%ebp),%ebx
 804b346:	8d 85 a0 dc ff ff    	lea    -0x2360(%ebp),%eax
 804b34c:	8d b5 ee fe ff ff    	lea    -0x112(%ebp),%esi
 804b352:	89 14 24             	mov    %edx,(%esp)
 804b355:	c6 85 ae fc ff ff 00 	movb   $0x0,-0x352(%ebp)
 804b35c:	89 74 24 14          	mov    %esi,0x14(%esp)
 804b360:	89 5c 24 0c          	mov    %ebx,0xc(%esp)
 804b364:	89 44 24 08          	mov    %eax,0x8(%esp)
 804b368:	c7 44 24 04 cc b1 05 	movl   $0x805b1cc,0x4(%esp)
 804b36f:	08 
 804b370:	e8 73 e3 ff ff       	call   80496e8 <sscanf@plt>
 804b375:	89 1c 24             	mov    %ebx,(%esp)
 804b378:	89 85 68 dc ff ff    	mov    %eax,-0x2398(%ebp)
 804b37e:	e8 c5 e1 ff ff       	call   8049548 <strlen@plt>
 804b383:	83 f8 08             	cmp    $0x8,%eax
 804b386:	0f 87 5c 03 00 00    	ja     804b6e8 <geteuid@plt+0x1f10>
 804b38c:	8d 45 bc             	lea    -0x44(%ebp),%eax
 804b38f:	89 44 24 08          	mov    %eax,0x8(%esp)
 804b393:	c7 44 24 04 46 ba 05 	movl   $0x805ba46,0x4(%esp)
 804b39a:	08 
 804b39b:	89 1c 24             	mov    %ebx,(%esp)
 804b39e:	e8 45 e3 ff ff       	call   80496e8 <sscanf@plt>
 804b3a3:	8d 45 a0             	lea    -0x60(%ebp),%eax
 804b3a6:	89 44 24 08          	mov    %eax,0x8(%esp)
 804b3aa:	c7 44 24 04 46 ba 05 	movl   $0x805ba46,0x4(%esp)
 804b3b1:	08 
 804b3b2:	89 34 24             	mov    %esi,(%esp)
 804b3b5:	e8 2e e3 ff ff       	call   80496e8 <sscanf@plt>
 804b3ba:	b8 02 00 00 00       	mov    $0x2,%eax
 804b3bf:	66 c7 45 b8 02 00    	movw   $0x2,-0x48(%ebp)
 804b3c5:	66 c7 45 9c 02 00    	movw   $0x2,-0x64(%ebp)
 804b3cb:	c7 85 64 dc ff ff 97 	movl   $0x805bb97,-0x239c(%ebp)
 804b3d2:	bb 05 08 
 804b3d5:	89 04 24             	mov    %eax,(%esp)
 804b3d8:	e8 03 41 00 00       	call   804f4e0 <geteuid@plt+0x5d08>
 804b3dd:	85 c0                	test   %eax,%eax
 804b3df:	89 c7                	mov    %eax,%edi
 804b3e1:	0f 84 f1 05 00 00    	je     804b9d8 <geteuid@plt+0x2200>
 804b3e7:	8b 15 08 29 06 08    	mov    0x8062908,%edx
 804b3ed:	85 d2                	test   %edx,%edx
 804b3ef:	75 07                	jne    804b3f8 <geteuid@plt+0x1c20>
 804b3f1:	c6 85 ae fc ff ff 00 	movb   $0x0,-0x352(%ebp)
 804b3f8:	83 bd 68 dc ff ff 09 	cmpl   $0x9,-0x2398(%ebp)
 804b3ff:	0f 8e e3 03 00 00    	jle    804b7e8 <geteuid@plt+0x2010>
 804b405:	a1 f0 28 06 08       	mov    0x80628f0,%eax
 804b40a:	85 c0                	test   %eax,%eax
 804b40c:	75 26                	jne    804b434 <geteuid@plt+0x1c5c>
 804b40e:	0f b7 45 9c          	movzwl -0x64(%ebp),%eax
 804b412:	66 83 f8 0a          	cmp    $0xa,%ax
 804b416:	0f 84 a4 04 00 00    	je     804b8c0 <geteuid@plt+0x20e8>
 804b41c:	66 83 f8 02          	cmp    $0x2,%ax
 804b420:	0f 84 d2 04 00 00    	je     804b8f8 <geteuid@plt+0x2120>
 804b426:	8b 15 f4 28 06 08    	mov    0x80628f4,%edx
 804b42c:	85 d2                	test   %edx,%edx
 804b42e:	0f 84 78 fe ff ff    	je     804b2ac <geteuid@plt+0x1ad4>
 804b434:	8b 15 00 29 06 08    	mov    0x8062900,%edx
 804b43a:	0f b7 85 a8 dc ff ff 	movzwl -0x2358(%ebp),%eax
 804b441:	66 c1 c8 08          	ror    $0x8,%ax
 804b445:	0f b7 c0             	movzwl %ax,%eax
 804b448:	83 e2 08             	and    $0x8,%edx
 804b44b:	89 54 24 08          	mov    %edx,0x8(%esp)
 804b44f:	c7 44 24 04 97 bb 05 	movl   $0x805bb97,0x4(%esp)
 804b456:	08 
 804b457:	89 04 24             	mov    %eax,(%esp)
 804b45a:	e8 81 4f 00 00       	call   80503e0 <geteuid@plt+0x6c08>
 804b45f:	8d 95 ae dc ff ff    	lea    -0x2352(%ebp),%edx
 804b465:	89 14 24             	mov    %edx,(%esp)
 804b468:	c7 44 24 10 70 f4 05 	movl   $0x805f470,0x10(%esp)
 804b46f:	08 
 804b470:	c7 44 24 0c 00 20 00 	movl   $0x2000,0xc(%esp)
 804b477:	00 
 804b478:	c7 44 24 08 01 00 00 	movl   $0x1,0x8(%esp)
 804b47f:	00 
 804b480:	c7 44 24 04 00 20 00 	movl   $0x2000,0x4(%esp)
 804b487:	00 
 804b488:	89 44 24 14          	mov    %eax,0x14(%esp)
 804b48c:	e8 b7 e2 ff ff       	call   8049748 <__snprintf_chk@plt>
 804b491:	a1 00 29 06 08       	mov    0x8062900,%eax
 804b496:	89 44 24 04          	mov    %eax,0x4(%esp)
 804b49a:	8d 45 b8             	lea    -0x48(%ebp),%eax
 804b49d:	89 04 24             	mov    %eax,(%esp)
 804b4a0:	ff 57 14             	call   *0x14(%edi)
 804b4a3:	c7 44 24 08 40 00 00 	movl   $0x40,0x8(%esp)
 804b4aa:	00 
 804b4ab:	89 1c 24             	mov    %ebx,(%esp)
 804b4ae:	89 44 24 04          	mov    %eax,0x4(%esp)
 804b4b2:	e8 c9 d2 00 00       	call   8058780 <geteuid@plt+0xefa8>
 804b4b7:	89 1c 24             	mov    %ebx,(%esp)
 804b4ba:	e8 89 e0 ff ff       	call   8049548 <strlen@plt>
 804b4bf:	8d 8d ae dc ff ff    	lea    -0x2352(%ebp),%ecx
 804b4c5:	89 0c 24             	mov    %ecx,(%esp)
 804b4c8:	89 85 68 dc ff ff    	mov    %eax,-0x2398(%ebp)
 804b4ce:	e8 75 e0 ff ff       	call   8049548 <strlen@plt>
 804b4d3:	8b 8d 68 dc ff ff    	mov    -0x2398(%ebp),%ecx
 804b4d9:	8d 14 08             	lea    (%eax,%ecx,1),%edx
 804b4dc:	83 fa 16             	cmp    $0x16,%edx
 804b4df:	76 0c                	jbe    804b4ed <geteuid@plt+0x1d15>
 804b4e1:	8d 55 e8             	lea    -0x18(%ebp),%edx
 804b4e4:	29 c2                	sub    %eax,%edx
 804b4e6:	c6 82 5c ff ff ff 00 	movb   $0x0,-0xa4(%edx)
 804b4ed:	c7 44 24 08 40 00 00 	movl   $0x40,0x8(%esp)
 804b4f4:	00 
 804b4f5:	c7 44 24 04 4e bc 05 	movl   $0x805bc4e,0x4(%esp)
 804b4fc:	08 
 804b4fd:	89 1c 24             	mov    %ebx,(%esp)
 804b500:	e8 13 df ff ff       	call   8049418 <__strcat_chk@plt>
 804b505:	8d 8d ae dc ff ff    	lea    -0x2352(%ebp),%ecx
 804b50b:	89 4c 24 04          	mov    %ecx,0x4(%esp)
 804b50f:	c7 44 24 08 40 00 00 	movl   $0x40,0x8(%esp)
 804b516:	00 
 804b517:	89 1c 24             	mov    %ebx,(%esp)
 804b51a:	e8 f9 de ff ff       	call   8049418 <__strcat_chk@plt>
 804b51f:	8b 15 00 29 06 08    	mov    0x8062900,%edx
 804b525:	0f b7 85 a4 dc ff ff 	movzwl -0x235c(%ebp),%eax
 804b52c:	66 c1 c8 08          	ror    $0x8,%ax
 804b530:	0f b7 c0             	movzwl %ax,%eax
 804b533:	83 e2 08             	and    $0x8,%edx
 804b536:	89 54 24 08          	mov    %edx,0x8(%esp)
 804b53a:	c7 44 24 04 97 bb 05 	movl   $0x805bb97,0x4(%esp)
 804b541:	08 
 804b542:	89 04 24             	mov    %eax,(%esp)
 804b545:	e8 96 4e 00 00       	call   80503e0 <geteuid@plt+0x6c08>
 804b54a:	c7 44 24 10 70 f4 05 	movl   $0x805f470,0x10(%esp)
 804b551:	08 
 804b552:	c7 44 24 0c 00 20 00 	movl   $0x2000,0xc(%esp)
 804b559:	00 
 804b55a:	c7 44 24 08 01 00 00 	movl   $0x1,0x8(%esp)
 804b561:	00 
 804b562:	c7 44 24 04 00 20 00 	movl   $0x2000,0x4(%esp)
 804b569:	00 
 804b56a:	89 44 24 14          	mov    %eax,0x14(%esp)
 804b56e:	8d 85 ae dc ff ff    	lea    -0x2352(%ebp),%eax
 804b574:	89 04 24             	mov    %eax,(%esp)
 804b577:	e8 cc e1 ff ff       	call   8049748 <__snprintf_chk@plt>
 804b57c:	a1 00 29 06 08       	mov    0x8062900,%eax
 804b581:	89 44 24 04          	mov    %eax,0x4(%esp)
 804b585:	8d 45 9c             	lea    -0x64(%ebp),%eax
 804b588:	89 04 24             	mov    %eax,(%esp)
 804b58b:	ff 57 14             	call   *0x14(%edi)
 804b58e:	c7 44 24 08 40 00 00 	movl   $0x40,0x8(%esp)
 804b595:	00 
 804b596:	89 34 24             	mov    %esi,(%esp)
 804b599:	89 44 24 04          	mov    %eax,0x4(%esp)
 804b59d:	e8 de d1 00 00       	call   8058780 <geteuid@plt+0xefa8>
 804b5a2:	89 34 24             	mov    %esi,(%esp)
 804b5a5:	e8 9e df ff ff       	call   8049548 <strlen@plt>
 804b5aa:	8d 95 ae dc ff ff    	lea    -0x2352(%ebp),%edx
 804b5b0:	89 14 24             	mov    %edx,(%esp)
 804b5b3:	89 c7                	mov    %eax,%edi
 804b5b5:	e8 8e df ff ff       	call   8049548 <strlen@plt>
 804b5ba:	8d 3c 38             	lea    (%eax,%edi,1),%edi
 804b5bd:	83 ff 16             	cmp    $0x16,%edi
 804b5c0:	76 0c                	jbe    804b5ce <geteuid@plt+0x1df6>
 804b5c2:	8d 4d e8             	lea    -0x18(%ebp),%ecx
 804b5c5:	29 c1                	sub    %eax,%ecx
 804b5c7:	c6 81 1c ff ff ff 00 	movb   $0x0,-0xe4(%ecx)
 804b5ce:	c7 44 24 08 40 00 00 	movl   $0x40,0x8(%esp)
 804b5d5:	00 
 804b5d6:	8d bd ae fe ff ff    	lea    -0x152(%ebp),%edi
 804b5dc:	c7 44 24 04 4e bc 05 	movl   $0x805bc4e,0x4(%esp)
 804b5e3:	08 
 804b5e4:	89 34 24             	mov    %esi,(%esp)
 804b5e7:	e8 2c de ff ff       	call   8049418 <__strcat_chk@plt>
 804b5ec:	8d 85 ae dc ff ff    	lea    -0x2352(%ebp),%eax
 804b5f2:	c7 44 24 08 40 00 00 	movl   $0x40,0x8(%esp)
 804b5f9:	00 
 804b5fa:	89 44 24 04          	mov    %eax,0x4(%esp)
 804b5fe:	89 34 24             	mov    %esi,(%esp)
 804b601:	e8 12 de ff ff       	call   8049418 <__strcat_chk@plt>
 804b606:	a1 08 29 06 08       	mov    0x8062908,%eax
 804b60b:	c6 85 ae fe ff ff 00 	movb   $0x0,-0x152(%ebp)
 804b612:	85 c0                	test   %eax,%eax
 804b614:	74 72                	je     804b688 <geteuid@plt+0x1eb0>
 804b616:	8b 95 98 dc ff ff    	mov    -0x2368(%ebp),%edx
 804b61c:	83 fa 00             	cmp    $0x0,%edx
 804b61f:	89 95 34 dc ff ff    	mov    %edx,-0x23cc(%ebp)
 804b625:	0f 85 ed 01 00 00    	jne    804b818 <geteuid@plt+0x2040>
 804b62b:	8b 95 90 dc ff ff    	mov    -0x2370(%ebp),%edx
 804b631:	8b 8d 80 dc ff ff    	mov    -0x2380(%ebp),%ecx
 804b637:	c7 04 24 67 ba 05 08 	movl   $0x805ba67,(%esp)
 804b63e:	89 95 50 dc ff ff    	mov    %edx,-0x23b0(%ebp)
 804b644:	89 8d 54 dc ff ff    	mov    %ecx,-0x23ac(%ebp)
 804b64a:	e8 d9 dd ff ff       	call   8049428 <gettext@plt>
 804b64f:	8b 95 50 dc ff ff    	mov    -0x23b0(%ebp),%edx
 804b655:	8b 8d 54 dc ff ff    	mov    -0x23ac(%ebp),%ecx
 804b65b:	c7 44 24 0c 40 00 00 	movl   $0x40,0xc(%esp)
 804b662:	00 
 804b663:	c7 44 24 08 01 00 00 	movl   $0x1,0x8(%esp)
 804b66a:	00 
 804b66b:	89 54 24 18          	mov    %edx,0x18(%esp)
 804b66f:	89 4c 24 14          	mov    %ecx,0x14(%esp)
 804b673:	89 44 24 10          	mov    %eax,0x10(%esp)
 804b677:	c7 44 24 04 40 00 00 	movl   $0x40,0x4(%esp)
 804b67e:	00 
 804b67f:	89 3c 24             	mov    %edi,(%esp)
 804b682:	e8 c1 e0 ff ff       	call   8049748 <__snprintf_chk@plt>
 804b687:	90                   	nop
 804b688:	8b 85 9c dc ff ff    	mov    -0x2364(%ebp),%eax
 804b68e:	8b 8d 64 dc ff ff    	mov    -0x239c(%ebp),%ecx
 804b694:	89 74 24 18          	mov    %esi,0x18(%esp)
 804b698:	89 5c 24 14          	mov    %ebx,0x14(%esp)
 804b69c:	89 44 24 1c          	mov    %eax,0x1c(%esp)
 804b6a0:	8b 85 88 dc ff ff    	mov    -0x2378(%ebp),%eax
 804b6a6:	89 4c 24 08          	mov    %ecx,0x8(%esp)
 804b6aa:	c7 44 24 04 b8 b2 05 	movl   $0x805b2b8,0x4(%esp)
 804b6b1:	08 
 804b6b2:	c7 04 24 01 00 00 00 	movl   $0x1,(%esp)
 804b6b9:	89 44 24 10          	mov    %eax,0x10(%esp)
 804b6bd:	8b 85 8c dc ff ff    	mov    -0x2374(%ebp),%eax
 804b6c3:	89 44 24 0c          	mov    %eax,0xc(%esp)
 804b6c7:	e8 8c dc ff ff       	call   8049358 <__printf_chk@plt>
 804b6cc:	8b 95 7c dc ff ff    	mov    -0x2384(%ebp),%edx
 804b6d2:	89 f9                	mov    %edi,%ecx
 804b6d4:	8b 85 94 dc ff ff    	mov    -0x236c(%ebp),%eax
 804b6da:	e8 c1 e5 ff ff       	call   8049ca0 <geteuid@plt+0x4c8>
 804b6df:	e9 c8 fb ff ff       	jmp    804b2ac <geteuid@plt+0x1ad4>
 804b6e4:	8d 74 26 00          	lea    0x0(%esi,%eiz,1),%esi
 804b6e8:	8d 45 d8             	lea    -0x28(%ebp),%eax
 804b6eb:	8d 55 e0             	lea    -0x20(%ebp),%edx
 804b6ee:	8d 4d dc             	lea    -0x24(%ebp),%ecx
 804b6f1:	89 44 24 0c          	mov    %eax,0xc(%esp)
 804b6f5:	8d 45 d4             	lea    -0x2c(%ebp),%eax
 804b6f8:	89 54 24 14          	mov    %edx,0x14(%esp)
 804b6fc:	8d bd 6e ff ff ff    	lea    -0x92(%ebp),%edi
 804b702:	89 4c 24 10          	mov    %ecx,0x10(%esp)
 804b706:	89 95 50 dc ff ff    	mov    %edx,-0x23b0(%ebp)
 804b70c:	89 8d 54 dc ff ff    	mov    %ecx,-0x23ac(%ebp)
 804b712:	89 44 24 08          	mov    %eax,0x8(%esp)
 804b716:	c7 44 24 04 35 ba 05 	movl   $0x805ba35,0x4(%esp)
 804b71d:	08 
 804b71e:	89 1c 24             	mov    %ebx,(%esp)
 804b721:	e8 c2 df ff ff       	call   80496e8 <sscanf@plt>
 804b726:	8d 45 d4             	lea    -0x2c(%ebp),%eax
 804b729:	c7 44 24 0c 2e 00 00 	movl   $0x2e,0xc(%esp)
 804b730:	00 
 804b731:	89 7c 24 08          	mov    %edi,0x8(%esp)
 804b735:	89 44 24 04          	mov    %eax,0x4(%esp)
 804b739:	c7 04 24 0a 00 00 00 	movl   $0xa,(%esp)
 804b740:	e8 53 db ff ff       	call   8049298 <inet_ntop@plt>
 804b745:	8d 45 b8             	lea    -0x48(%ebp),%eax
 804b748:	89 44 24 08          	mov    %eax,0x8(%esp)
 804b74c:	89 7c 24 04          	mov    %edi,0x4(%esp)
 804b750:	c7 04 24 01 00 00 00 	movl   $0x1,(%esp)
 804b757:	ff 15 58 22 06 08    	call   *0x8062258
 804b75d:	8b 95 50 dc ff ff    	mov    -0x23b0(%ebp),%edx
 804b763:	8b 8d 54 dc ff ff    	mov    -0x23ac(%ebp),%ecx
 804b769:	c7 44 24 04 35 ba 05 	movl   $0x805ba35,0x4(%esp)
 804b770:	08 
 804b771:	89 34 24             	mov    %esi,(%esp)
 804b774:	89 54 24 14          	mov    %edx,0x14(%esp)
 804b778:	8d 55 d8             	lea    -0x28(%ebp),%edx
 804b77b:	89 4c 24 10          	mov    %ecx,0x10(%esp)
 804b77f:	8d 4d d4             	lea    -0x2c(%ebp),%ecx
 804b782:	89 54 24 0c          	mov    %edx,0xc(%esp)
 804b786:	89 4c 24 08          	mov    %ecx,0x8(%esp)
 804b78a:	e8 59 df ff ff       	call   80496e8 <sscanf@plt>
 804b78f:	8d 45 d4             	lea    -0x2c(%ebp),%eax
 804b792:	c7 44 24 0c 2e 00 00 	movl   $0x2e,0xc(%esp)
 804b799:	00 
 804b79a:	89 7c 24 08          	mov    %edi,0x8(%esp)
 804b79e:	89 44 24 04          	mov    %eax,0x4(%esp)
 804b7a2:	c7 04 24 0a 00 00 00 	movl   $0xa,(%esp)
 804b7a9:	e8 ea da ff ff       	call   8049298 <inet_ntop@plt>
 804b7ae:	8d 45 9c             	lea    -0x64(%ebp),%eax
 804b7b1:	89 44 24 08          	mov    %eax,0x8(%esp)
 804b7b5:	89 7c 24 04          	mov    %edi,0x4(%esp)
 804b7b9:	c7 04 24 01 00 00 00 	movl   $0x1,(%esp)
 804b7c0:	ff 15 58 22 06 08    	call   *0x8062258
 804b7c6:	b8 0a 00 00 00       	mov    $0xa,%eax
 804b7cb:	66 c7 45 b8 0a 00    	movw   $0xa,-0x48(%ebp)
 804b7d1:	66 c7 45 9c 0a 00    	movw   $0xa,-0x64(%ebp)
 804b7d7:	c7 85 64 dc ff ff b3 	movl   $0x805bbb3,-0x239c(%ebp)
 804b7de:	bb 05 08 
 804b7e1:	e9 ef fb ff ff       	jmp    804b3d5 <geteuid@plt+0x1bfd>
 804b7e6:	66 90                	xchg   %ax,%ax
 804b7e8:	c7 04 24 6f bb 05 08 	movl   $0x805bb6f,(%esp)
 804b7ef:	e8 34 dc ff ff       	call   8049428 <gettext@plt>
 804b7f4:	c7 44 24 04 01 00 00 	movl   $0x1,0x4(%esp)
 804b7fb:	00 
 804b7fc:	89 44 24 08          	mov    %eax,0x8(%esp)
 804b800:	a1 80 28 06 08       	mov    0x8062880,%eax
 804b805:	89 04 24             	mov    %eax,(%esp)
 804b808:	e8 fb da ff ff       	call   8049308 <__fprintf_chk@plt>
 804b80d:	e9 9a fa ff ff       	jmp    804b2ac <geteuid@plt+0x1ad4>
 804b812:	8d b6 00 00 00 00    	lea    0x0(%esi),%esi
 804b818:	7c 0c                	jl     804b826 <geteuid@plt+0x204e>
 804b81a:	83 fa 02             	cmp    $0x2,%edx
 804b81d:	8d 76 00             	lea    0x0(%esi),%esi
 804b820:	0f 8e 12 01 00 00    	jle    804b938 <geteuid@plt+0x2160>
 804b826:	8b 85 84 dc ff ff    	mov    -0x237c(%ebp),%eax
 804b82c:	31 d2                	xor    %edx,%edx
 804b82e:	89 95 6c dc ff ff    	mov    %edx,-0x2394(%ebp)
 804b834:	8b 8d 80 dc ff ff    	mov    -0x2380(%ebp),%ecx
 804b83a:	8b bd 90 dc ff ff    	mov    -0x2370(%ebp),%edi
 804b840:	c7 04 24 bc ba 05 08 	movl   $0x805babc,(%esp)
 804b847:	89 85 68 dc ff ff    	mov    %eax,-0x2398(%ebp)
 804b84d:	df ad 68 dc ff ff    	fildll -0x2398(%ebp)
 804b853:	d8 35 28 c4 05 08    	fdivs  0x805c428
 804b859:	89 8d 54 dc ff ff    	mov    %ecx,-0x23ac(%ebp)
 804b85f:	dd 9d 38 dc ff ff    	fstpl  -0x23c8(%ebp)
 804b865:	e8 be db ff ff       	call   8049428 <gettext@plt>
 804b86a:	8b 8d 54 dc ff ff    	mov    -0x23ac(%ebp),%ecx
 804b870:	8b 95 34 dc ff ff    	mov    -0x23cc(%ebp),%edx
 804b876:	89 7c 24 24          	mov    %edi,0x24(%esp)
 804b87a:	8d bd ae fe ff ff    	lea    -0x152(%ebp),%edi
 804b880:	c7 44 24 0c 40 00 00 	movl   $0x40,0xc(%esp)
 804b887:	00 
 804b888:	89 4c 24 20          	mov    %ecx,0x20(%esp)
 804b88c:	89 54 24 14          	mov    %edx,0x14(%esp)
 804b890:	dd 85 38 dc ff ff    	fldl   -0x23c8(%ebp)
 804b896:	dd 5c 24 18          	fstpl  0x18(%esp)
 804b89a:	89 44 24 10          	mov    %eax,0x10(%esp)
 804b89e:	c7 44 24 08 01 00 00 	movl   $0x1,0x8(%esp)
 804b8a5:	00 
 804b8a6:	c7 44 24 04 40 00 00 	movl   $0x40,0x4(%esp)
 804b8ad:	00 
 804b8ae:	89 3c 24             	mov    %edi,(%esp)
 804b8b1:	e8 92 de ff ff       	call   8049748 <__snprintf_chk@plt>
 804b8b6:	e9 cd fd ff ff       	jmp    804b688 <geteuid@plt+0x1eb0>
 804b8bb:	90                   	nop
 804b8bc:	8d 74 26 00          	lea    0x0(%esi,%eiz,1),%esi
 804b8c0:	8b 4d a4             	mov    -0x5c(%ebp),%ecx
 804b8c3:	85 c9                	test   %ecx,%ecx
 804b8c5:	75 3f                	jne    804b906 <geteuid@plt+0x212e>
 804b8c7:	8b 55 a8             	mov    -0x58(%ebp),%edx
 804b8ca:	85 d2                	test   %edx,%edx
 804b8cc:	75 38                	jne    804b906 <geteuid@plt+0x212e>
 804b8ce:	8b 4d ac             	mov    -0x54(%ebp),%ecx
 804b8d1:	85 c9                	test   %ecx,%ecx
 804b8d3:	75 31                	jne    804b906 <geteuid@plt+0x212e>
 804b8d5:	8b 55 b0             	mov    -0x50(%ebp),%edx
 804b8d8:	85 d2                	test   %edx,%edx
 804b8da:	75 2a                	jne    804b906 <geteuid@plt+0x212e>
 804b8dc:	8b 55 ac             	mov    -0x54(%ebp),%edx
 804b8df:	85 d2                	test   %edx,%edx
 804b8e1:	0f 85 c5 f9 ff ff    	jne    804b2ac <geteuid@plt+0x1ad4>
 804b8e7:	8b 45 b0             	mov    -0x50(%ebp),%eax
 804b8ea:	85 c0                	test   %eax,%eax
 804b8ec:	0f 84 34 fb ff ff    	je     804b426 <geteuid@plt+0x1c4e>
 804b8f2:	e9 b5 f9 ff ff       	jmp    804b2ac <geteuid@plt+0x1ad4>
 804b8f7:	90                   	nop
 804b8f8:	8b 4d a0             	mov    -0x60(%ebp),%ecx
 804b8fb:	85 c9                	test   %ecx,%ecx
 804b8fd:	8d 76 00             	lea    0x0(%esi),%esi
 804b900:	0f 84 20 fb ff ff    	je     804b426 <geteuid@plt+0x1c4e>
 804b906:	8b 15 f4 28 06 08    	mov    0x80628f4,%edx
 804b90c:	85 d2                	test   %edx,%edx
 804b90e:	0f 84 20 fb ff ff    	je     804b434 <geteuid@plt+0x1c5c>
 804b914:	66 83 f8 0a          	cmp    $0xa,%ax
 804b918:	0f 85 f1 00 00 00    	jne    804ba0f <geteuid@plt+0x2237>
 804b91e:	8b 45 a4             	mov    -0x5c(%ebp),%eax
 804b921:	85 c0                	test   %eax,%eax
 804b923:	0f 85 83 f9 ff ff    	jne    804b2ac <geteuid@plt+0x1ad4>
 804b929:	8b 4d a8             	mov    -0x58(%ebp),%ecx
 804b92c:	85 c9                	test   %ecx,%ecx
 804b92e:	74 ac                	je     804b8dc <geteuid@plt+0x2104>
 804b930:	e9 77 f9 ff ff       	jmp    804b2ac <geteuid@plt+0x1ad4>
 804b935:	8d 76 00             	lea    0x0(%esi),%esi
 804b938:	8b 85 80 dc ff ff    	mov    -0x2380(%ebp),%eax
 804b93e:	31 d2                	xor    %edx,%edx
 804b940:	89 95 5c dc ff ff    	mov    %edx,-0x23a4(%ebp)
 804b946:	8b 8d 90 dc ff ff    	mov    -0x2370(%ebp),%ecx
 804b94c:	c7 04 24 30 bb 05 08 	movl   $0x805bb30,(%esp)
 804b953:	89 85 68 dc ff ff    	mov    %eax,-0x2398(%ebp)
 804b959:	8b 85 84 dc ff ff    	mov    -0x237c(%ebp),%eax
 804b95f:	89 8d 54 dc ff ff    	mov    %ecx,-0x23ac(%ebp)
 804b965:	89 85 58 dc ff ff    	mov    %eax,-0x23a8(%ebp)
 804b96b:	df ad 58 dc ff ff    	fildll -0x23a8(%ebp)
 804b971:	d8 35 28 c4 05 08    	fdivs  0x805c428
 804b977:	dd 9d 38 dc ff ff    	fstpl  -0x23c8(%ebp)
 804b97d:	e8 a6 da ff ff       	call   8049428 <gettext@plt>
 804b982:	8b 8d 54 dc ff ff    	mov    -0x23ac(%ebp),%ecx
 804b988:	8b 95 68 dc ff ff    	mov    -0x2398(%ebp),%edx
 804b98e:	c7 44 24 0c 40 00 00 	movl   $0x40,0xc(%esp)
 804b995:	00 
 804b996:	c7 44 24 08 01 00 00 	movl   $0x1,0x8(%esp)
 804b99d:	00 
 804b99e:	89 4c 24 24          	mov    %ecx,0x24(%esp)
 804b9a2:	8b 8d 34 dc ff ff    	mov    -0x23cc(%ebp),%ecx
 804b9a8:	89 54 24 20          	mov    %edx,0x20(%esp)
 804b9ac:	dd 85 38 dc ff ff    	fldl   -0x23c8(%ebp)
 804b9b2:	dd 5c 24 18          	fstpl  0x18(%esp)
 804b9b6:	89 4c 24 14          	mov    %ecx,0x14(%esp)
 804b9ba:	89 44 24 10          	mov    %eax,0x10(%esp)
 804b9be:	c7 44 24 04 40 00 00 	movl   $0x40,0x4(%esp)
 804b9c5:	00 
 804b9c6:	89 3c 24             	mov    %edi,(%esp)
 804b9c9:	e8 7a dd ff ff       	call   8049748 <__snprintf_chk@plt>
 804b9ce:	e9 b5 fc ff ff       	jmp    804b688 <geteuid@plt+0x1eb0>
 804b9d3:	90                   	nop
 804b9d4:	8d 74 26 00          	lea    0x0(%esi,%eiz,1),%esi
 804b9d8:	0f b7 5d b8          	movzwl -0x48(%ebp),%ebx
 804b9dc:	c7 04 24 1c b2 05 08 	movl   $0x805b21c,(%esp)
 804b9e3:	e8 40 da ff ff       	call   8049428 <gettext@plt>
 804b9e8:	c7 44 24 04 01 00 00 	movl   $0x1,0x4(%esp)
 804b9ef:	00 
 804b9f0:	89 5c 24 0c          	mov    %ebx,0xc(%esp)
 804b9f4:	89 44 24 08          	mov    %eax,0x8(%esp)
 804b9f8:	a1 80 28 06 08       	mov    0x8062880,%eax
 804b9fd:	89 04 24             	mov    %eax,(%esp)
 804ba00:	e8 03 d9 ff ff       	call   8049308 <__fprintf_chk@plt>
 804ba05:	e9 a2 f8 ff ff       	jmp    804b2ac <geteuid@plt+0x1ad4>
 804ba0a:	e8 59 dc ff ff       	call   8049668 <__stack_chk_fail@plt>
 804ba0f:	66 83 f8 02          	cmp    $0x2,%ax
 804ba13:	0f 85 0d fa ff ff    	jne    804b426 <geteuid@plt+0x1c4e>
 804ba19:	8b 4d a0             	mov    -0x60(%ebp),%ecx
 804ba1c:	85 c9                	test   %ecx,%ecx
 804ba1e:	66 90                	xchg   %ax,%ax
 804ba20:	0f 85 86 f8 ff ff    	jne    804b2ac <geteuid@plt+0x1ad4>
 804ba26:	e9 fb f9 ff ff       	jmp    804b426 <geteuid@plt+0x1c4e>
 804ba2b:	90                   	nop
 804ba2c:	8d 74 26 00          	lea    0x0(%esi,%eiz,1),%esi
 804ba30:	55                   	push   %ebp
 804ba31:	89 e5                	mov    %esp,%ebp
 804ba33:	57                   	push   %edi
 804ba34:	56                   	push   %esi
 804ba35:	53                   	push   %ebx
 804ba36:	81 ec 4c 20 00 00    	sub    $0x204c,%esp
 804ba3c:	8b 0d 28 29 06 08    	mov    0x8062928,%ecx
 804ba42:	65 a1 14 00 00 00    	mov    %gs:0x14,%eax
 804ba48:	89 45 e4             	mov    %eax,-0x1c(%ebp)
 804ba4b:	31 c0                	xor    %eax,%eax
 804ba4d:	85 c9                	test   %ecx,%ecx
 804ba4f:	74 18                	je     804ba69 <geteuid@plt+0x2291>
 804ba51:	8b 15 68 37 06 08    	mov    0x8063768,%edx
 804ba57:	c7 85 d4 df ff ff 00 	movl   $0x0,-0x202c(%ebp)
 804ba5e:	00 00 00 
 804ba61:	85 d2                	test   %edx,%edx
 804ba63:	0f 84 8a 00 00 00    	je     804baf3 <geteuid@plt+0x231b>
 804ba69:	c7 04 24 8d bb 05 08 	movl   $0x805bb8d,(%esp)
 804ba70:	e8 4b c5 00 00       	call   8057fc0 <geteuid@plt+0xe7e8>
 804ba75:	85 c0                	test   %eax,%eax
 804ba77:	a3 40 37 06 08       	mov    %eax,0x8063740
 804ba7c:	0f 84 0e 01 00 00    	je     804bb90 <geteuid@plt+0x23b8>
 804ba82:	8d b5 e4 df ff ff    	lea    -0x201c(%ebp),%esi
 804ba88:	31 db                	xor    %ebx,%ebx
 804ba8a:	eb 0b                	jmp    804ba97 <geteuid@plt+0x22bf>
 804ba8c:	8d 74 26 00          	lea    0x0(%esi,%eiz,1),%esi
 804ba90:	a1 40 37 06 08       	mov    0x8063740,%eax
 804ba95:	89 fb                	mov    %edi,%ebx
 804ba97:	89 44 24 08          	mov    %eax,0x8(%esp)
 804ba9b:	89 df                	mov    %ebx,%edi
 804ba9d:	c7 44 24 04 00 20 00 	movl   $0x2000,0x4(%esp)
 804baa4:	00 
 804baa5:	89 34 24             	mov    %esi,(%esp)
 804baa8:	e8 fb d8 ff ff       	call   80493a8 <fgets@plt>
 804baad:	85 c0                	test   %eax,%eax
 804baaf:	74 0c                	je     804babd <geteuid@plt+0x22e5>
 804bab1:	89 f2                	mov    %esi,%edx
 804bab3:	89 d8                	mov    %ebx,%eax
 804bab5:	8d 7b 01             	lea    0x1(%ebx),%edi
 804bab8:	e8 d3 f7 ff ff       	call   804b290 <geteuid@plt+0x1ab8>
 804babd:	a1 40 37 06 08       	mov    0x8063740,%eax
 804bac2:	89 04 24             	mov    %eax,(%esp)
 804bac5:	e8 de da ff ff       	call   80495a8 <feof@plt>
 804baca:	85 c0                	test   %eax,%eax
 804bacc:	74 c2                	je     804ba90 <geteuid@plt+0x22b8>
 804bace:	a1 40 37 06 08       	mov    0x8063740,%eax
 804bad3:	89 04 24             	mov    %eax,(%esp)
 804bad6:	e8 2d da ff ff       	call   8049508 <fclose@plt>
 804badb:	8b 1d 28 29 06 08    	mov    0x8062928,%ebx
 804bae1:	85 db                	test   %ebx,%ebx
 804bae3:	0f 84 c7 00 00 00    	je     804bbb0 <geteuid@plt+0x23d8>
 804bae9:	c7 85 d4 df ff ff 00 	movl   $0x0,-0x202c(%ebp)
 804baf0:	00 00 00 
 804baf3:	8b 0d 74 37 06 08    	mov    0x8063774,%ecx
 804baf9:	85 c9                	test   %ecx,%ecx
 804bafb:	74 6e                	je     804bb6b <geteuid@plt+0x2393>
 804bafd:	c7 04 24 a9 bb 05 08 	movl   $0x805bba9,(%esp)
 804bb04:	e8 b7 c4 00 00       	call   8057fc0 <geteuid@plt+0xe7e8>
 804bb09:	85 c0                	test   %eax,%eax
 804bb0b:	a3 40 37 06 08       	mov    %eax,0x8063740
 804bb10:	74 59                	je     804bb6b <geteuid@plt+0x2393>
 804bb12:	8d b5 e4 df ff ff    	lea    -0x201c(%ebp),%esi
 804bb18:	31 db                	xor    %ebx,%ebx
 804bb1a:	eb 0b                	jmp    804bb27 <geteuid@plt+0x234f>
 804bb1c:	8d 74 26 00          	lea    0x0(%esi,%eiz,1),%esi
 804bb20:	a1 40 37 06 08       	mov    0x8063740,%eax
 804bb25:	89 fb                	mov    %edi,%ebx
 804bb27:	89 44 24 08          	mov    %eax,0x8(%esp)
 804bb2b:	89 df                	mov    %ebx,%edi
 804bb2d:	c7 44 24 04 00 20 00 	movl   $0x2000,0x4(%esp)
 804bb34:	00 
 804bb35:	89 34 24             	mov    %esi,(%esp)
 804bb38:	e8 6b d8 ff ff       	call   80493a8 <fgets@plt>
 804bb3d:	85 c0                	test   %eax,%eax
 804bb3f:	74 0c                	je     804bb4d <geteuid@plt+0x2375>
 804bb41:	89 f2                	mov    %esi,%edx
 804bb43:	89 d8                	mov    %ebx,%eax
 804bb45:	8d 7b 01             	lea    0x1(%ebx),%edi
 804bb48:	e8 43 f7 ff ff       	call   804b290 <geteuid@plt+0x1ab8>
 804bb4d:	a1 40 37 06 08       	mov    0x8063740,%eax
 804bb52:	89 04 24             	mov    %eax,(%esp)
 804bb55:	e8 4e da ff ff       	call   80495a8 <feof@plt>
 804bb5a:	85 c0                	test   %eax,%eax
 804bb5c:	74 c2                	je     804bb20 <geteuid@plt+0x2348>
 804bb5e:	a1 40 37 06 08       	mov    0x8063740,%eax
 804bb63:	89 04 24             	mov    %eax,(%esp)
 804bb66:	e8 9d d9 ff ff       	call   8049508 <fclose@plt>
 804bb6b:	8b 55 e4             	mov    -0x1c(%ebp),%edx
 804bb6e:	65 33 15 14 00 00 00 	xor    %gs:0x14,%edx
 804bb75:	8b 85 d4 df ff ff    	mov    -0x202c(%ebp),%eax
 804bb7b:	0f 85 a9 00 00 00    	jne    804bc2a <geteuid@plt+0x2452>
 804bb81:	81 c4 4c 20 00 00    	add    $0x204c,%esp
 804bb87:	5b                   	pop    %ebx
 804bb88:	5e                   	pop    %esi
 804bb89:	5f                   	pop    %edi
 804bb8a:	5d                   	pop    %ebp
 804bb8b:	c3                   	ret    
 804bb8c:	8d 74 26 00          	lea    0x0(%esi,%eiz,1),%esi
 804bb90:	e8 e3 d6 ff ff       	call   8049278 <__errno_location@plt>
 804bb95:	83 38 02             	cmpl   $0x2,(%eax)
 804bb98:	75 75                	jne    804bc0f <geteuid@plt+0x2437>
 804bb9a:	a1 28 29 06 08       	mov    0x8062928,%eax
 804bb9f:	85 c0                	test   %eax,%eax
 804bba1:	75 1d                	jne    804bbc0 <geteuid@plt+0x23e8>
 804bba3:	8b 3d 2c 29 06 08    	mov    0x806292c,%edi
 804bba9:	85 ff                	test   %edi,%edi
 804bbab:	75 13                	jne    804bbc0 <geteuid@plt+0x23e8>
 804bbad:	8d 76 00             	lea    0x0(%esi),%esi
 804bbb0:	c7 85 d4 df ff ff 00 	movl   $0x0,-0x202c(%ebp)
 804bbb7:	00 00 00 
 804bbba:	e9 3e ff ff ff       	jmp    804bafd <geteuid@plt+0x2325>
 804bbbf:	90                   	nop
 804bbc0:	c7 04 24 68 b2 05 08 	movl   $0x805b268,(%esp)
 804bbc7:	e8 5c d8 ff ff       	call   8049428 <gettext@plt>
 804bbcc:	c7 44 24 10 9b bb 05 	movl   $0x805bb9b,0x10(%esp)
 804bbd3:	08 
 804bbd4:	c7 44 24 0c ac c4 05 	movl   $0x805c4ac,0xc(%esp)
 804bbdb:	08 
 804bbdc:	c7 44 24 04 01 00 00 	movl   $0x1,0x4(%esp)
 804bbe3:	00 
 804bbe4:	89 44 24 08          	mov    %eax,0x8(%esp)
 804bbe8:	a1 80 28 06 08       	mov    0x8062880,%eax
 804bbed:	89 04 24             	mov    %eax,(%esp)
 804bbf0:	e8 13 d7 ff ff       	call   8049308 <__fprintf_chk@plt>
 804bbf5:	8b 35 28 29 06 08    	mov    0x8062928,%esi
 804bbfb:	c7 85 d4 df ff ff 01 	movl   $0x1,-0x202c(%ebp)
 804bc02:	00 00 00 
 804bc05:	85 f6                	test   %esi,%esi
 804bc07:	0f 85 e6 fe ff ff    	jne    804baf3 <geteuid@plt+0x231b>
 804bc0d:	eb a1                	jmp    804bbb0 <geteuid@plt+0x23d8>
 804bc0f:	c7 04 24 8d bb 05 08 	movl   $0x805bb8d,(%esp)
 804bc16:	e8 ed d7 ff ff       	call   8049408 <perror@plt>
 804bc1b:	c7 85 d4 df ff ff ff 	movl   $0xffffffff,-0x202c(%ebp)
 804bc22:	ff ff ff 
 804bc25:	e9 41 ff ff ff       	jmp    804bb6b <geteuid@plt+0x2393>
 804bc2a:	e8 39 da ff ff       	call   8049668 <__stack_chk_fail@plt>
 804bc2f:	90                   	nop
 804bc30:	55                   	push   %ebp
 804bc31:	89 e5                	mov    %esp,%ebp
 804bc33:	81 ec 28 01 00 00    	sub    $0x128,%esp
 804bc39:	89 7d fc             	mov    %edi,-0x4(%ebp)
 804bc3c:	89 c7                	mov    %eax,%edi
 804bc3e:	65 a1 14 00 00 00    	mov    %gs:0x14,%eax
 804bc44:	89 45 e4             	mov    %eax,-0x1c(%ebp)
 804bc47:	31 c0                	xor    %eax,%eax
 804bc49:	85 ff                	test   %edi,%edi
 804bc4b:	89 75 f8             	mov    %esi,-0x8(%ebp)
 804bc4e:	89 d6                	mov    %edx,%esi
 804bc50:	89 5d f4             	mov    %ebx,-0xc(%ebp)
 804bc53:	75 53                	jne    804bca8 <geteuid@plt+0x24d0>
 804bc55:	c7 44 24 04 10 fd 05 	movl   $0x805fd10,0x4(%esp)
 804bc5c:	08 
 804bc5d:	89 14 24             	mov    %edx,(%esp)
 804bc60:	e8 d3 d9 ff ff       	call   8049638 <strstr@plt>
 804bc65:	85 c0                	test   %eax,%eax
 804bc67:	0f 84 c3 00 00 00    	je     804bd30 <geteuid@plt+0x2558>
 804bc6d:	bf b8 bb 05 08       	mov    $0x805bbb8,%edi
 804bc72:	b9 03 00 00 00       	mov    $0x3,%ecx
 804bc77:	f3 a6                	repz cmpsb %es:(%edi),%ds:(%esi)
 804bc79:	0f 94 c0             	sete   %al
 804bc7c:	0f b6 c0             	movzbl %al,%eax
 804bc7f:	a3 44 29 06 08       	mov    %eax,0x8062944
 804bc84:	8b 45 e4             	mov    -0x1c(%ebp),%eax
 804bc87:	65 33 05 14 00 00 00 	xor    %gs:0x14,%eax
 804bc8e:	0f 85 8d 02 00 00    	jne    804bf21 <geteuid@plt+0x2749>
 804bc94:	8b 5d f4             	mov    -0xc(%ebp),%ebx
 804bc97:	8b 75 f8             	mov    -0x8(%ebp),%esi
 804bc9a:	8b 7d fc             	mov    -0x4(%ebp),%edi
 804bc9d:	89 ec                	mov    %ebp,%esp
 804bc9f:	5d                   	pop    %ebp
 804bca0:	c3                   	ret    
 804bca1:	8d b4 26 00 00 00 00 	lea    0x0(%esi,%eiz,1),%esi
 804bca8:	a1 40 29 06 08       	mov    0x8062940,%eax
 804bcad:	85 c0                	test   %eax,%eax
 804bcaf:	0f 85 85 00 00 00    	jne    804bd3a <geteuid@plt+0x2562>
 804bcb5:	80 3a 09             	cmpb   $0x9,(%edx)
 804bcb8:	0f 84 da 01 00 00    	je     804be98 <geteuid@plt+0x26c0>
 804bcbe:	8b 1d 44 29 06 08    	mov    0x8062944,%ebx
 804bcc4:	85 db                	test   %ebx,%ebx
 804bcc6:	75 28                	jne    804bcf0 <geteuid@plt+0x2518>
 804bcc8:	c7 44 24 08 30 29 06 	movl   $0x8062930,0x8(%esp)
 804bccf:	08 
 804bcd0:	c7 44 24 04 e8 bb 05 	movl   $0x805bbe8,0x4(%esp)
 804bcd7:	08 
 804bcd8:	89 14 24             	mov    %edx,(%esp)
 804bcdb:	e8 08 da ff ff       	call   80496e8 <sscanf@plt>
 804bce0:	85 c0                	test   %eax,%eax
 804bce2:	7e 33                	jle    804bd17 <geteuid@plt+0x253f>
 804bce4:	c6 05 3a 29 06 08 00 	movb   $0x0,0x806293a
 804bceb:	eb 97                	jmp    804bc84 <geteuid@plt+0x24ac>
 804bced:	8d 76 00             	lea    0x0(%esi),%esi
 804bcf0:	8d 85 04 ff ff ff    	lea    -0xfc(%ebp),%eax
 804bcf6:	c7 44 24 0c 30 29 06 	movl   $0x8062930,0xc(%esp)
 804bcfd:	08 
 804bcfe:	89 44 24 08          	mov    %eax,0x8(%esp)
 804bd02:	c7 44 24 04 e5 bb 05 	movl   $0x805bbe5,0x4(%esp)
 804bd09:	08 
 804bd0a:	89 14 24             	mov    %edx,(%esp)
 804bd0d:	e8 d6 d9 ff ff       	call   80496e8 <sscanf@plt>
 804bd12:	83 f8 01             	cmp    $0x1,%eax
 804bd15:	7f cd                	jg     804bce4 <geteuid@plt+0x250c>
 804bd17:	c7 04 24 00 b3 05 08 	movl   $0x805b300,(%esp)
 804bd1e:	e8 05 d7 ff ff       	call   8049428 <gettext@plt>
 804bd23:	89 7c 24 0c          	mov    %edi,0xc(%esp)
 804bd27:	eb 5c                	jmp    804bd85 <geteuid@plt+0x25ad>
 804bd29:	8d b4 26 00 00 00 00 	lea    0x0(%esi,%eiz,1),%esi
 804bd30:	c7 05 40 29 06 08 01 	movl   $0x1,0x8062940
 804bd37:	00 00 00 
 804bd3a:	8d 85 00 ff ff ff    	lea    -0x100(%ebp),%eax
 804bd40:	89 44 24 14          	mov    %eax,0x14(%esp)
 804bd44:	8d 9d 0a ff ff ff    	lea    -0xf6(%ebp),%ebx
 804bd4a:	8d 85 04 ff ff ff    	lea    -0xfc(%ebp),%eax
 804bd50:	89 5c 24 10          	mov    %ebx,0x10(%esp)
 804bd54:	c7 44 24 0c 30 29 06 	movl   $0x8062930,0xc(%esp)
 804bd5b:	08 
 804bd5c:	89 44 24 08          	mov    %eax,0x8(%esp)
 804bd60:	c7 44 24 04 bc bb 05 	movl   $0x805bbbc,0x4(%esp)
 804bd67:	08 
 804bd68:	89 34 24             	mov    %esi,(%esp)
 804bd6b:	e8 78 d9 ff ff       	call   80496e8 <sscanf@plt>
 804bd70:	83 f8 04             	cmp    $0x4,%eax
 804bd73:	74 33                	je     804bda8 <geteuid@plt+0x25d0>
 804bd75:	c7 04 24 dc b2 05 08 	movl   $0x805b2dc,(%esp)
 804bd7c:	e8 a7 d6 ff ff       	call   8049428 <gettext@plt>
 804bd81:	89 7c 24 0c          	mov    %edi,0xc(%esp)
 804bd85:	89 44 24 08          	mov    %eax,0x8(%esp)
 804bd89:	a1 80 28 06 08       	mov    0x8062880,%eax
 804bd8e:	c7 44 24 04 01 00 00 	movl   $0x1,0x4(%esp)
 804bd95:	00 
 804bd96:	89 04 24             	mov    %eax,(%esp)
 804bd99:	e8 6a d5 ff ff       	call   8049308 <__fprintf_chk@plt>
 804bd9e:	e9 e1 fe ff ff       	jmp    804bc84 <geteuid@plt+0x24ac>
 804bda3:	90                   	nop
 804bda4:	8d 74 26 00          	lea    0x0(%esi,%eiz,1),%esi
 804bda8:	8d 45 e0             	lea    -0x20(%ebp),%eax
 804bdab:	89 44 24 14          	mov    %eax,0x14(%esp)
 804bdaf:	8d 45 dc             	lea    -0x24(%ebp),%eax
 804bdb2:	8d 7d d4             	lea    -0x2c(%ebp),%edi
 804bdb5:	89 44 24 10          	mov    %eax,0x10(%esp)
 804bdb9:	8d 45 d8             	lea    -0x28(%ebp),%eax
 804bdbc:	89 7c 24 08          	mov    %edi,0x8(%esp)
 804bdc0:	8d 75 8a             	lea    -0x76(%ebp),%esi
 804bdc3:	89 44 24 0c          	mov    %eax,0xc(%esp)
 804bdc7:	c7 44 24 04 35 ba 05 	movl   $0x805ba35,0x4(%esp)
 804bdce:	08 
 804bdcf:	89 1c 24             	mov    %ebx,(%esp)
 804bdd2:	e8 11 d9 ff ff       	call   80496e8 <sscanf@plt>
 804bdd7:	8b 45 d4             	mov    -0x2c(%ebp),%eax
 804bdda:	89 7c 24 04          	mov    %edi,0x4(%esp)
 804bdde:	8d 7d b8             	lea    -0x48(%ebp),%edi
 804bde1:	0f c8                	bswap  %eax
 804bde3:	c7 44 24 0c 2e 00 00 	movl   $0x2e,0xc(%esp)
 804bdea:	00 
 804bdeb:	89 45 d4             	mov    %eax,-0x2c(%ebp)
 804bdee:	8b 45 d8             	mov    -0x28(%ebp),%eax
 804bdf1:	89 74 24 08          	mov    %esi,0x8(%esp)
 804bdf5:	0f c8                	bswap  %eax
 804bdf7:	c7 04 24 0a 00 00 00 	movl   $0xa,(%esp)
 804bdfe:	89 45 d8             	mov    %eax,-0x28(%ebp)
 804be01:	8b 45 dc             	mov    -0x24(%ebp),%eax
 804be04:	0f c8                	bswap  %eax
 804be06:	89 45 dc             	mov    %eax,-0x24(%ebp)
 804be09:	8b 45 e0             	mov    -0x20(%ebp),%eax
 804be0c:	0f c8                	bswap  %eax
 804be0e:	89 45 e0             	mov    %eax,-0x20(%ebp)
 804be11:	e8 82 d4 ff ff       	call   8049298 <inet_ntop@plt>
 804be16:	89 7c 24 08          	mov    %edi,0x8(%esp)
 804be1a:	89 74 24 04          	mov    %esi,0x4(%esp)
 804be1e:	c7 04 24 01 00 00 00 	movl   $0x1,(%esp)
 804be25:	ff 15 58 22 06 08    	call   *0x8062258
 804be2b:	66 c7 45 b8 0a 00    	movw   $0xa,-0x48(%ebp)
 804be31:	c7 04 24 0a 00 00 00 	movl   $0xa,(%esp)
 804be38:	e8 a3 36 00 00       	call   804f4e0 <geteuid@plt+0x5d08>
 804be3d:	85 c0                	test   %eax,%eax
 804be3f:	0f 84 c3 00 00 00    	je     804bf08 <geteuid@plt+0x2730>
 804be45:	8b 15 00 29 06 08    	mov    0x8062900,%edx
 804be4b:	89 3c 24             	mov    %edi,(%esp)
 804be4e:	89 54 24 04          	mov    %edx,0x4(%esp)
 804be52:	ff 50 14             	call   *0x14(%eax)
 804be55:	c7 44 24 08 80 00 00 	movl   $0x80,0x8(%esp)
 804be5c:	00 
 804be5d:	89 1c 24             	mov    %ebx,(%esp)
 804be60:	89 44 24 04          	mov    %eax,0x4(%esp)
 804be64:	e8 17 c9 00 00       	call   8058780 <geteuid@plt+0xefa8>
 804be69:	8b 85 00 ff ff ff    	mov    -0x100(%ebp),%eax
 804be6f:	89 5c 24 10          	mov    %ebx,0x10(%esp)
 804be73:	c7 44 24 08 30 29 06 	movl   $0x8062930,0x8(%esp)
 804be7a:	08 
 804be7b:	c7 44 24 04 d6 bb 05 	movl   $0x805bbd6,0x4(%esp)
 804be82:	08 
 804be83:	89 44 24 0c          	mov    %eax,0xc(%esp)
 804be87:	c7 04 24 01 00 00 00 	movl   $0x1,(%esp)
 804be8e:	e8 c5 d4 ff ff       	call   8049358 <__printf_chk@plt>
 804be93:	e9 ec fd ff ff       	jmp    804bc84 <geteuid@plt+0x24ac>
 804be98:	8d 85 00 ff ff ff    	lea    -0x100(%ebp),%eax
 804be9e:	8d 9d 0a ff ff ff    	lea    -0xf6(%ebp),%ebx
 804bea4:	89 44 24 0c          	mov    %eax,0xc(%esp)
 804bea8:	89 5c 24 08          	mov    %ebx,0x8(%esp)
 804beac:	c7 44 24 04 ed bb 05 	movl   $0x805bbed,0x4(%esp)
 804beb3:	08 
 804beb4:	89 14 24             	mov    %edx,(%esp)
 804beb7:	e8 2c d8 ff ff       	call   80496e8 <sscanf@plt>
 804bebc:	83 f8 01             	cmp    $0x1,%eax
 804bebf:	0f 8e 52 fe ff ff    	jle    804bd17 <geteuid@plt+0x253f>
 804bec5:	8d 45 bc             	lea    -0x44(%ebp),%eax
 804bec8:	89 44 24 08          	mov    %eax,0x8(%esp)
 804becc:	8d 75 b8             	lea    -0x48(%ebp),%esi
 804becf:	c7 44 24 04 46 ba 05 	movl   $0x805ba46,0x4(%esp)
 804bed6:	08 
 804bed7:	89 1c 24             	mov    %ebx,(%esp)
 804beda:	e8 09 d8 ff ff       	call   80496e8 <sscanf@plt>
 804bedf:	66 c7 45 b8 02 00    	movw   $0x2,-0x48(%ebp)
 804bee5:	c7 04 24 02 00 00 00 	movl   $0x2,(%esp)
 804beec:	e8 ef 35 00 00       	call   804f4e0 <geteuid@plt+0x5d08>
 804bef1:	85 c0                	test   %eax,%eax
 804bef3:	74 13                	je     804bf08 <geteuid@plt+0x2730>
 804bef5:	8b 15 00 29 06 08    	mov    0x8062900,%edx
 804befb:	89 34 24             	mov    %esi,(%esp)
 804befe:	89 54 24 04          	mov    %edx,0x4(%esp)
 804bf02:	e9 4b ff ff ff       	jmp    804be52 <geteuid@plt+0x267a>
 804bf07:	90                   	nop
 804bf08:	0f b7 5d b8          	movzwl -0x48(%ebp),%ebx
 804bf0c:	c7 04 24 1c b2 05 08 	movl   $0x805b21c,(%esp)
 804bf13:	e8 10 d5 ff ff       	call   8049428 <gettext@plt>
 804bf18:	89 5c 24 0c          	mov    %ebx,0xc(%esp)
 804bf1c:	e9 64 fe ff ff       	jmp    804bd85 <geteuid@plt+0x25ad>
 804bf21:	e8 42 d7 ff ff       	call   8049668 <__stack_chk_fail@plt>
 804bf26:	8d 76 00             	lea    0x0(%esi),%esi
 804bf29:	8d bc 27 00 00 00 00 	lea    0x0(%edi,%eiz,1),%edi
 804bf30:	55                   	push   %ebp
 804bf31:	89 e5                	mov    %esp,%ebp
 804bf33:	57                   	push   %edi
 804bf34:	56                   	push   %esi
 804bf35:	53                   	push   %ebx
 804bf36:	81 ec 4c 20 00 00    	sub    $0x204c,%esp
 804bf3c:	8b 15 28 29 06 08    	mov    0x8062928,%edx
 804bf42:	65 a1 14 00 00 00    	mov    %gs:0x14,%eax
 804bf48:	89 45 e4             	mov    %eax,-0x1c(%ebp)
 804bf4b:	31 c0                	xor    %eax,%eax
 804bf4d:	85 d2                	test   %edx,%edx
 804bf4f:	74 17                	je     804bf68 <geteuid@plt+0x2790>
 804bf51:	a1 68 37 06 08       	mov    0x8063768,%eax
 804bf56:	c7 85 d4 df ff ff 00 	movl   $0x0,-0x202c(%ebp)
 804bf5d:	00 00 00 
 804bf60:	85 c0                	test   %eax,%eax
 804bf62:	0f 84 8b 00 00 00    	je     804bff3 <geteuid@plt+0x281b>
 804bf68:	c7 04 24 ff bb 05 08 	movl   $0x805bbff,(%esp)
 804bf6f:	e8 4c c0 00 00       	call   8057fc0 <geteuid@plt+0xe7e8>
 804bf74:	85 c0                	test   %eax,%eax
 804bf76:	a3 40 37 06 08       	mov    %eax,0x8063740
 804bf7b:	0f 84 0f 01 00 00    	je     804c090 <geteuid@plt+0x28b8>
 804bf81:	8d b5 e4 df ff ff    	lea    -0x201c(%ebp),%esi
 804bf87:	31 db                	xor    %ebx,%ebx
 804bf89:	eb 0c                	jmp    804bf97 <geteuid@plt+0x27bf>
 804bf8b:	90                   	nop
 804bf8c:	8d 74 26 00          	lea    0x0(%esi,%eiz,1),%esi
 804bf90:	a1 40 37 06 08       	mov    0x8063740,%eax
 804bf95:	89 fb                	mov    %edi,%ebx
 804bf97:	89 44 24 08          	mov    %eax,0x8(%esp)
 804bf9b:	89 df                	mov    %ebx,%edi
 804bf9d:	c7 44 24 04 00 20 00 	movl   $0x2000,0x4(%esp)
 804bfa4:	00 
 804bfa5:	89 34 24             	mov    %esi,(%esp)
 804bfa8:	e8 fb d3 ff ff       	call   80493a8 <fgets@plt>
 804bfad:	85 c0                	test   %eax,%eax
 804bfaf:	74 0c                	je     804bfbd <geteuid@plt+0x27e5>
 804bfb1:	89 f2                	mov    %esi,%edx
 804bfb3:	89 d8                	mov    %ebx,%eax
 804bfb5:	8d 7b 01             	lea    0x1(%ebx),%edi
 804bfb8:	e8 73 fc ff ff       	call   804bc30 <geteuid@plt+0x2458>
 804bfbd:	a1 40 37 06 08       	mov    0x8063740,%eax
 804bfc2:	89 04 24             	mov    %eax,(%esp)
 804bfc5:	e8 de d5 ff ff       	call   80495a8 <feof@plt>
 804bfca:	85 c0                	test   %eax,%eax
 804bfcc:	74 c2                	je     804bf90 <geteuid@plt+0x27b8>
 804bfce:	a1 40 37 06 08       	mov    0x8063740,%eax
 804bfd3:	89 04 24             	mov    %eax,(%esp)
 804bfd6:	e8 2d d5 ff ff       	call   8049508 <fclose@plt>
 804bfdb:	8b 0d 28 29 06 08    	mov    0x8062928,%ecx
 804bfe1:	85 c9                	test   %ecx,%ecx
 804bfe3:	0f 84 c7 00 00 00    	je     804c0b0 <geteuid@plt+0x28d8>
 804bfe9:	c7 85 d4 df ff ff 00 	movl   $0x0,-0x202c(%ebp)
 804bff0:	00 00 00 
 804bff3:	8b 15 74 37 06 08    	mov    0x8063774,%edx
 804bff9:	85 d2                	test   %edx,%edx
 804bffb:	74 6e                	je     804c06b <geteuid@plt+0x2893>
 804bffd:	c7 04 24 1d bc 05 08 	movl   $0x805bc1d,(%esp)
 804c004:	e8 b7 bf 00 00       	call   8057fc0 <geteuid@plt+0xe7e8>
 804c009:	85 c0                	test   %eax,%eax
 804c00b:	a3 40 37 06 08       	mov    %eax,0x8063740
 804c010:	74 59                	je     804c06b <geteuid@plt+0x2893>
 804c012:	8d b5 e4 df ff ff    	lea    -0x201c(%ebp),%esi
 804c018:	31 db                	xor    %ebx,%ebx
 804c01a:	eb 0b                	jmp    804c027 <geteuid@plt+0x284f>
 804c01c:	8d 74 26 00          	lea    0x0(%esi,%eiz,1),%esi
 804c020:	a1 40 37 06 08       	mov    0x8063740,%eax
 804c025:	89 fb                	mov    %edi,%ebx
 804c027:	89 44 24 08          	mov    %eax,0x8(%esp)
 804c02b:	89 df                	mov    %ebx,%edi
 804c02d:	c7 44 24 04 00 20 00 	movl   $0x2000,0x4(%esp)
 804c034:	00 
 804c035:	89 34 24             	mov    %esi,(%esp)
 804c038:	e8 6b d3 ff ff       	call   80493a8 <fgets@plt>
 804c03d:	85 c0                	test   %eax,%eax
 804c03f:	74 0c                	je     804c04d <geteuid@plt+0x2875>
 804c041:	89 f2                	mov    %esi,%edx
 804c043:	89 d8                	mov    %ebx,%eax
 804c045:	8d 7b 01             	lea    0x1(%ebx),%edi
 804c048:	e8 e3 fb ff ff       	call   804bc30 <geteuid@plt+0x2458>
 804c04d:	a1 40 37 06 08       	mov    0x8063740,%eax
 804c052:	89 04 24             	mov    %eax,(%esp)
 804c055:	e8 4e d5 ff ff       	call   80495a8 <feof@plt>
 804c05a:	85 c0                	test   %eax,%eax
 804c05c:	74 c2                	je     804c020 <geteuid@plt+0x2848>
 804c05e:	a1 40 37 06 08       	mov    0x8063740,%eax
 804c063:	89 04 24             	mov    %eax,(%esp)
 804c066:	e8 9d d4 ff ff       	call   8049508 <fclose@plt>
 804c06b:	8b 55 e4             	mov    -0x1c(%ebp),%edx
 804c06e:	65 33 15 14 00 00 00 	xor    %gs:0x14,%edx
 804c075:	8b 85 d4 df ff ff    	mov    -0x202c(%ebp),%eax
 804c07b:	0f 85 a9 00 00 00    	jne    804c12a <geteuid@plt+0x2952>
 804c081:	81 c4 4c 20 00 00    	add    $0x204c,%esp
 804c087:	5b                   	pop    %ebx
 804c088:	5e                   	pop    %esi
 804c089:	5f                   	pop    %edi
 804c08a:	5d                   	pop    %ebp
 804c08b:	c3                   	ret    
 804c08c:	8d 74 26 00          	lea    0x0(%esi,%eiz,1),%esi
 804c090:	e8 e3 d1 ff ff       	call   8049278 <__errno_location@plt>
 804c095:	83 38 02             	cmpl   $0x2,(%eax)
 804c098:	75 75                	jne    804c10f <geteuid@plt+0x2937>
 804c09a:	8b 3d 28 29 06 08    	mov    0x8062928,%edi
 804c0a0:	85 ff                	test   %edi,%edi
 804c0a2:	75 1c                	jne    804c0c0 <geteuid@plt+0x28e8>
 804c0a4:	8b 35 2c 29 06 08    	mov    0x806292c,%esi
 804c0aa:	85 f6                	test   %esi,%esi
 804c0ac:	75 12                	jne    804c0c0 <geteuid@plt+0x28e8>
 804c0ae:	66 90                	xchg   %ax,%ax
 804c0b0:	c7 85 d4 df ff ff 00 	movl   $0x0,-0x202c(%ebp)
 804c0b7:	00 00 00 
 804c0ba:	e9 3e ff ff ff       	jmp    804bffd <geteuid@plt+0x2825>
 804c0bf:	90                   	nop
 804c0c0:	c7 04 24 68 b2 05 08 	movl   $0x805b268,(%esp)
 804c0c7:	e8 5c d3 ff ff       	call   8049428 <gettext@plt>
 804c0cc:	c7 44 24 10 0e bc 05 	movl   $0x805bc0e,0x10(%esp)
 804c0d3:	08 
 804c0d4:	c7 44 24 0c ac c4 05 	movl   $0x805c4ac,0xc(%esp)
 804c0db:	08 
 804c0dc:	c7 44 24 04 01 00 00 	movl   $0x1,0x4(%esp)
 804c0e3:	00 
 804c0e4:	89 44 24 08          	mov    %eax,0x8(%esp)
 804c0e8:	a1 80 28 06 08       	mov    0x8062880,%eax
 804c0ed:	89 04 24             	mov    %eax,(%esp)
 804c0f0:	e8 13 d2 ff ff       	call   8049308 <__fprintf_chk@plt>
 804c0f5:	8b 1d 28 29 06 08    	mov    0x8062928,%ebx
 804c0fb:	c7 85 d4 df ff ff 01 	movl   $0x1,-0x202c(%ebp)
 804c102:	00 00 00 
 804c105:	85 db                	test   %ebx,%ebx
 804c107:	0f 85 e6 fe ff ff    	jne    804bff3 <geteuid@plt+0x281b>
 804c10d:	eb a1                	jmp    804c0b0 <geteuid@plt+0x28d8>
 804c10f:	c7 04 24 ff bb 05 08 	movl   $0x805bbff,(%esp)
 804c116:	e8 ed d2 ff ff       	call   8049408 <perror@plt>
 804c11b:	c7 85 d4 df ff ff ff 	movl   $0xffffffff,-0x202c(%ebp)
 804c122:	ff ff ff 
 804c125:	e9 41 ff ff ff       	jmp    804c06b <geteuid@plt+0x2893>
 804c12a:	e8 39 d5 ff ff       	call   8049668 <__stack_chk_fail@plt>
 804c12f:	90                   	nop
 804c130:	55                   	push   %ebp
 804c131:	89 e5                	mov    %esp,%ebp
 804c133:	83 ec 48             	sub    $0x48,%esp
 804c136:	89 5d f4             	mov    %ebx,-0xc(%ebp)
 804c139:	89 c3                	mov    %eax,%ebx
 804c13b:	65 a1 14 00 00 00    	mov    %gs:0x14,%eax
 804c141:	89 45 e4             	mov    %eax,-0x1c(%ebp)
 804c144:	31 c0                	xor    %eax,%eax
 804c146:	89 75 f8             	mov    %esi,-0x8(%ebp)
 804c149:	89 7d fc             	mov    %edi,-0x4(%ebp)
 804c14c:	89 55 d4             	mov    %edx,-0x2c(%ebp)
 804c14f:	89 1c 24             	mov    %ebx,(%esp)
 804c152:	e8 f1 d3 ff ff       	call   8049548 <strlen@plt>
 804c157:	83 f8 0a             	cmp    $0xa,%eax
 804c15a:	77 24                	ja     804c180 <geteuid@plt+0x29a8>
 804c15c:	b8 ff ff ff ff       	mov    $0xffffffff,%eax
 804c161:	8b 55 e4             	mov    -0x1c(%ebp),%edx
 804c164:	65 33 15 14 00 00 00 	xor    %gs:0x14,%edx
 804c16b:	0f 85 a1 00 00 00    	jne    804c212 <geteuid@plt+0x2a3a>
 804c171:	8b 5d f4             	mov    -0xc(%ebp),%ebx
 804c174:	8b 75 f8             	mov    -0x8(%ebp),%esi
 804c177:	8b 7d fc             	mov    -0x4(%ebp),%edi
 804c17a:	89 ec                	mov    %ebp,%esp
 804c17c:	5d                   	pop    %ebp
 804c17d:	c3                   	ret    
 804c17e:	66 90                	xchg   %ax,%ax
 804c180:	bf 2d bc 05 08       	mov    $0x805bc2d,%edi
 804c185:	b9 08 00 00 00       	mov    $0x8,%ecx
 804c18a:	89 de                	mov    %ebx,%esi
 804c18c:	f3 a6                	repz cmpsb %es:(%edi),%ds:(%esi)
 804c18e:	75 cc                	jne    804c15c <geteuid@plt+0x2984>
 804c190:	80 7c 03 ff 5d       	cmpb   $0x5d,-0x1(%ebx,%eax,1)
 804c195:	75 c5                	jne    804c15c <geteuid@plt+0x2984>
 804c197:	83 ca ff             	or     $0xffffffff,%edx
 804c19a:	31 c0                	xor    %eax,%eax
 804c19c:	89 65 d0             	mov    %esp,-0x30(%ebp)
 804c19f:	89 d1                	mov    %edx,%ecx
 804c1a1:	8d 7b 01             	lea    0x1(%ebx),%edi
 804c1a4:	f2 ae                	repnz scas %es:(%edi),%al
 804c1a6:	89 df                	mov    %ebx,%edi
 804c1a8:	83 c3 08             	add    $0x8,%ebx
 804c1ab:	f7 d1                	not    %ecx
 804c1ad:	83 c1 1d             	add    $0x1d,%ecx
 804c1b0:	83 e1 f0             	and    $0xfffffff0,%ecx
 804c1b3:	29 cc                	sub    %ecx,%esp
 804c1b5:	89 d1                	mov    %edx,%ecx
 804c1b7:	f2 ae                	repnz scas %es:(%edi),%al
 804c1b9:	8d 74 24 1b          	lea    0x1b(%esp),%esi
 804c1bd:	83 e6 f0             	and    $0xfffffff0,%esi
 804c1c0:	89 5c 24 04          	mov    %ebx,0x4(%esp)
 804c1c4:	89 34 24             	mov    %esi,(%esp)
 804c1c7:	f7 d1                	not    %ecx
 804c1c9:	8d 41 f6             	lea    -0xa(%ecx),%eax
 804c1cc:	89 44 24 08          	mov    %eax,0x8(%esp)
 804c1d0:	89 4d cc             	mov    %ecx,-0x34(%ebp)
 804c1d3:	e8 c0 d1 ff ff       	call   8049398 <strncpy@plt>
 804c1d8:	8b 4d cc             	mov    -0x34(%ebp),%ecx
 804c1db:	8d 45 e0             	lea    -0x20(%ebp),%eax
 804c1de:	c6 44 0e f6 00       	movb   $0x0,-0xa(%esi,%ecx,1)
 804c1e3:	c7 44 24 08 00 00 00 	movl   $0x0,0x8(%esp)
 804c1ea:	00 
 804c1eb:	89 44 24 04          	mov    %eax,0x4(%esp)
 804c1ef:	89 34 24             	mov    %esi,(%esp)
 804c1f2:	e8 41 d3 ff ff       	call   8049538 <strtoul@plt>
 804c1f7:	8b 55 d4             	mov    -0x2c(%ebp),%edx
 804c1fa:	89 02                	mov    %eax,(%edx)
 804c1fc:	8b 45 e0             	mov    -0x20(%ebp),%eax
 804c1ff:	85 c0                	test   %eax,%eax
 804c201:	74 14                	je     804c217 <geteuid@plt+0x2a3f>
 804c203:	80 38 00             	cmpb   $0x0,(%eax)
 804c206:	75 0f                	jne    804c217 <geteuid@plt+0x2a3f>
 804c208:	31 c0                	xor    %eax,%eax
 804c20a:	8b 65 d0             	mov    -0x30(%ebp),%esp
 804c20d:	e9 4f ff ff ff       	jmp    804c161 <geteuid@plt+0x2989>
 804c212:	e8 51 d4 ff ff       	call   8049668 <__stack_chk_fail@plt>
 804c217:	83 c8 ff             	or     $0xffffffff,%eax
 804c21a:	8b 65 d0             	mov    -0x30(%ebp),%esp
 804c21d:	e9 3f ff ff ff       	jmp    804c161 <geteuid@plt+0x2989>
 804c222:	8d b4 26 00 00 00 00 	lea    0x0(%esi,%eiz,1),%esi
 804c229:	8d bc 27 00 00 00 00 	lea    0x0(%edi,%eiz,1),%edi
 804c230:	55                   	push   %ebp
 804c231:	89 e5                	mov    %esp,%ebp
 804c233:	57                   	push   %edi
 804c234:	56                   	push   %esi
 804c235:	53                   	push   %ebx
 804c236:	81 ec ac 0a 00 00    	sub    $0xaac,%esp
 804c23c:	65 a1 14 00 00 00    	mov    %gs:0x14,%eax
 804c242:	89 45 e4             	mov    %eax,-0x1c(%ebp)
 804c245:	31 c0                	xor    %eax,%eax
 804c247:	80 3d 48 29 06 08 00 	cmpb   $0x0,0x8062948
 804c24e:	75 0a                	jne    804c25a <geteuid@plt+0x2a82>
 804c250:	8b 1d 24 29 06 08    	mov    0x8062924,%ebx
 804c256:	85 db                	test   %ebx,%ebx
 804c258:	75 1b                	jne    804c275 <geteuid@plt+0x2a9d>
 804c25a:	8b 55 e4             	mov    -0x1c(%ebp),%edx
 804c25d:	65 33 15 14 00 00 00 	xor    %gs:0x14,%edx
 804c264:	0f 85 f6 04 00 00    	jne    804c760 <geteuid@plt+0x2f88>
 804c26a:	81 c4 ac 0a 00 00    	add    $0xaac,%esp
 804c270:	5b                   	pop    %ebx
 804c271:	5e                   	pop    %esi
 804c272:	5f                   	pop    %edi
 804c273:	5d                   	pop    %ebp
 804c274:	c3                   	ret    
 804c275:	c6 05 48 29 06 08 01 	movb   $0x1,0x8062948
 804c27c:	c6 45 b1 00          	movb   $0x0,-0x4f(%ebp)
 804c280:	c7 04 24 36 bc 05 08 	movl   $0x805bc36,(%esp)
 804c287:	e8 0c d2 ff ff       	call   8049498 <opendir@plt>
 804c28c:	85 c0                	test   %eax,%eax
 804c28e:	89 85 a4 f5 ff ff    	mov    %eax,-0xa5c(%ebp)
 804c294:	0f 84 76 04 00 00    	je     804c710 <geteuid@plt+0x2f38>
 804c29a:	e8 d9 cf ff ff       	call   8049278 <__errno_location@plt>
 804c29f:	8d 55 b2             	lea    -0x4e(%ebp),%edx
 804c2a2:	c6 85 8b f5 ff ff 00 	movb   $0x0,-0xa75(%ebp)
 804c2a9:	89 95 74 f5 ff ff    	mov    %edx,-0xa8c(%ebp)
 804c2af:	89 85 a0 f5 ff ff    	mov    %eax,-0xa60(%ebp)
 804c2b5:	8d 45 d0             	lea    -0x30(%ebp),%eax
 804c2b8:	89 85 70 f5 ff ff    	mov    %eax,-0xa90(%ebp)
 804c2be:	66 90                	xchg   %ax,%ax
 804c2c0:	8b 85 a0 f5 ff ff    	mov    -0xa60(%ebp),%eax
 804c2c6:	8b 95 a4 f5 ff ff    	mov    -0xa5c(%ebp),%edx
 804c2cc:	c7 00 00 00 00 00    	movl   $0x0,(%eax)
 804c2d2:	89 14 24             	mov    %edx,(%esp)
 804c2d5:	e8 5e d1 ff ff       	call   8049438 <readdir@plt>
 804c2da:	85 c0                	test   %eax,%eax
 804c2dc:	0f 84 91 02 00 00    	je     804c573 <geteuid@plt+0x2d9b>
 804c2e2:	0f b6 50 0b          	movzbl 0xb(%eax),%edx
 804c2e6:	8d 58 0b             	lea    0xb(%eax),%ebx
 804c2e9:	84 d2                	test   %dl,%dl
 804c2eb:	74 2f                	je     804c31c <geteuid@plt+0x2b44>
 804c2ed:	88 95 80 f5 ff ff    	mov    %dl,-0xa80(%ebp)
 804c2f3:	e8 e0 d1 ff ff       	call   80494d8 <__ctype_b_loc@plt>
 804c2f8:	0f b6 95 80 f5 ff ff 	movzbl -0xa80(%ebp),%edx
 804c2ff:	8b 08                	mov    (%eax),%ecx
 804c301:	89 d8                	mov    %ebx,%eax
 804c303:	90                   	nop
 804c304:	8d 74 26 00          	lea    0x0(%esi,%eiz,1),%esi
 804c308:	0f be d2             	movsbl %dl,%edx
 804c30b:	f6 44 51 01 08       	testb  $0x8,0x1(%ecx,%edx,2)
 804c310:	74 ae                	je     804c2c0 <geteuid@plt+0x2ae8>
 804c312:	83 c0 01             	add    $0x1,%eax
 804c315:	0f b6 10             	movzbl (%eax),%edx
 804c318:	84 d2                	test   %dl,%dl
 804c31a:	75 ec                	jne    804c308 <geteuid@plt+0x2b30>
 804c31c:	8d 95 b2 f5 ff ff    	lea    -0xa4e(%ebp),%edx
 804c322:	89 5c 24 14          	mov    %ebx,0x14(%esp)
 804c326:	c7 44 24 10 3c bc 05 	movl   $0x805bc3c,0x10(%esp)
 804c32d:	08 
 804c32e:	c7 44 24 0c 00 08 00 	movl   $0x800,0xc(%esp)
 804c335:	00 
 804c336:	c7 44 24 08 01 00 00 	movl   $0x1,0x8(%esp)
 804c33d:	00 
 804c33e:	c7 44 24 04 00 08 00 	movl   $0x800,0x4(%esp)
 804c345:	00 
 804c346:	89 14 24             	mov    %edx,(%esp)
 804c349:	e8 fa d3 ff ff       	call   8049748 <__snprintf_chk@plt>
 804c34e:	89 85 98 f5 ff ff    	mov    %eax,-0xa68(%ebp)
 804c354:	83 e8 01             	sub    $0x1,%eax
 804c357:	3d f9 07 00 00       	cmp    $0x7f9,%eax
 804c35c:	0f 87 5e ff ff ff    	ja     804c2c0 <geteuid@plt+0x2ae8>
 804c362:	8b 85 a0 f5 ff ff    	mov    -0xa60(%ebp),%eax
 804c368:	8d 95 b2 f5 ff ff    	lea    -0xa4e(%ebp),%edx
 804c36e:	c7 00 00 00 00 00    	movl   $0x0,(%eax)
 804c374:	89 14 24             	mov    %edx,(%esp)
 804c377:	e8 1c d1 ff ff       	call   8049498 <opendir@plt>
 804c37c:	85 c0                	test   %eax,%eax
 804c37e:	89 85 9c f5 ff ff    	mov    %eax,-0xa64(%ebp)
 804c384:	0f 84 bb 03 00 00    	je     804c745 <geteuid@plt+0x2f6d>
 804c38a:	8b 95 98 f5 ff ff    	mov    -0xa68(%ebp),%edx
 804c390:	8b 85 98 f5 ff ff    	mov    -0xa68(%ebp),%eax
 804c396:	c7 85 8c f5 ff ff 00 	movl   $0x0,-0xa74(%ebp)
 804c39d:	00 00 00 
 804c3a0:	c6 84 15 b2 f5 ff ff 	movb   $0x2f,-0xa4e(%ebp,%edx,1)
 804c3a7:	2f 
 804c3a8:	83 c2 02             	add    $0x2,%edx
 804c3ab:	89 95 94 f5 ff ff    	mov    %edx,-0xa6c(%ebp)
 804c3b1:	8b 95 98 f5 ff ff    	mov    -0xa68(%ebp),%edx
 804c3b7:	8d 84 05 b0 f5 ff ff 	lea    -0xa50(%ebp,%eax,1),%eax
 804c3be:	89 85 90 f5 ff ff    	mov    %eax,-0xa70(%ebp)
 804c3c4:	8d 94 15 b3 f5 ff ff 	lea    -0xa4d(%ebp,%edx,1),%edx
 804c3cb:	89 95 84 f5 ff ff    	mov    %edx,-0xa7c(%ebp)
 804c3d1:	8d b4 26 00 00 00 00 	lea    0x0(%esi,%eiz,1),%esi
 804c3d8:	8b 85 9c f5 ff ff    	mov    -0xa64(%ebp),%eax
 804c3de:	89 04 24             	mov    %eax,(%esp)
 804c3e1:	e8 52 d0 ff ff       	call   8049438 <readdir@plt>
 804c3e6:	85 c0                	test   %eax,%eax
 804c3e8:	89 c6                	mov    %eax,%esi
 804c3ea:	0f 84 d5 01 00 00    	je     804c5c5 <geteuid@plt+0x2ded>
 804c3f0:	e8 e3 d0 ff ff       	call   80494d8 <__ctype_b_loc@plt>
 804c3f5:	0f be 56 0b          	movsbl 0xb(%esi),%edx
 804c3f9:	8b 00                	mov    (%eax),%eax
 804c3fb:	f6 44 50 01 08       	testb  $0x8,0x1(%eax,%edx,2)
 804c400:	74 d6                	je     804c3d8 <geteuid@plt+0x2c00>
 804c402:	83 c6 0b             	add    $0xb,%esi
 804c405:	89 34 24             	mov    %esi,(%esp)
 804c408:	e8 3b d1 ff ff       	call   8049548 <strlen@plt>
 804c40d:	03 85 94 f5 ff ff    	add    -0xa6c(%ebp),%eax
 804c413:	3d 00 08 00 00       	cmp    $0x800,%eax
 804c418:	77 be                	ja     804c3d8 <geteuid@plt+0x2c00>
 804c41a:	8b 85 90 f5 ff ff    	mov    -0xa70(%ebp),%eax
 804c420:	66 c7 00 66 64       	movw   $0x6466,(%eax)
 804c425:	c6 40 02 2f          	movb   $0x2f,0x2(%eax)
 804c429:	8b 95 84 f5 ff ff    	mov    -0xa7c(%ebp),%edx
 804c42f:	89 74 24 04          	mov    %esi,0x4(%esp)
 804c433:	89 14 24             	mov    %edx,(%esp)
 804c436:	e8 7d d1 ff ff       	call   80495b8 <strcpy@plt>
 804c43b:	8d 95 b2 f5 ff ff    	lea    -0xa4e(%ebp),%edx
 804c441:	8d 45 b2             	lea    -0x4e(%ebp),%eax
 804c444:	89 14 24             	mov    %edx,(%esp)
 804c447:	c7 44 24 08 1d 00 00 	movl   $0x1d,0x8(%esp)
 804c44e:	00 
 804c44f:	89 44 24 04          	mov    %eax,0x4(%esp)
 804c453:	e8 50 d2 ff ff       	call   80496a8 <readlink@plt>
 804c458:	8d 95 ac f5 ff ff    	lea    -0xa54(%ebp),%edx
 804c45e:	c6 44 05 b2 00       	movb   $0x0,-0x4e(%ebp,%eax,1)
 804c463:	8d 45 b2             	lea    -0x4e(%ebp),%eax
 804c466:	e8 c5 fc ff ff       	call   804c130 <geteuid@plt+0x2958>
 804c46b:	85 c0                	test   %eax,%eax
 804c46d:	0f 88 2d 02 00 00    	js     804c6a0 <geteuid@plt+0x2ec8>
 804c473:	8b 8d 8c f5 ff ff    	mov    -0xa74(%ebp),%ecx
 804c479:	85 c9                	test   %ecx,%ecx
 804c47b:	0f 84 57 01 00 00    	je     804c5d8 <geteuid@plt+0x2e00>
 804c481:	8b 85 8c f5 ff ff    	mov    -0xa74(%ebp),%eax
 804c487:	8d 55 d0             	lea    -0x30(%ebp),%edx
 804c48a:	89 14 24             	mov    %edx,(%esp)
 804c48d:	89 5c 24 14          	mov    %ebx,0x14(%esp)
 804c491:	c7 44 24 10 50 bc 05 	movl   $0x805bc50,0x10(%esp)
 804c498:	08 
 804c499:	89 44 24 18          	mov    %eax,0x18(%esp)
 804c49d:	c7 44 24 0c 14 00 00 	movl   $0x14,0xc(%esp)
 804c4a4:	00 
 804c4a5:	c7 44 24 08 01 00 00 	movl   $0x1,0x8(%esp)
 804c4ac:	00 
 804c4ad:	c7 44 24 04 14 00 00 	movl   $0x14,0x4(%esp)
 804c4b4:	00 
 804c4b5:	e8 8e d2 ff ff       	call   8049748 <__snprintf_chk@plt>
 804c4ba:	8b b5 ac f5 ff ff    	mov    -0xa54(%ebp),%esi
 804c4c0:	ba 9f 6f 4c 9b       	mov    $0x9b4c6f9f,%edx
 804c4c5:	c6 05 48 29 06 08 02 	movb   $0x2,0x8062948
 804c4cc:	89 f0                	mov    %esi,%eax
 804c4ce:	f7 e2                	mul    %edx
 804c4d0:	c1 ea 07             	shr    $0x7,%edx
 804c4d3:	69 c2 d3 00 00 00    	imul   $0xd3,%edx,%eax
 804c4d9:	89 f2                	mov    %esi,%edx
 804c4db:	29 c2                	sub    %eax,%edx
 804c4dd:	8b 04 95 60 29 06 08 	mov    0x8062960(,%edx,4),%eax
 804c4e4:	8d 3c 95 60 29 06 08 	lea    0x8062960(,%edx,4),%edi
 804c4eb:	85 c0                	test   %eax,%eax
 804c4ed:	74 12                	je     804c501 <geteuid@plt+0x2d29>
 804c4ef:	90                   	nop
 804c4f0:	3b 70 04             	cmp    0x4(%eax),%esi
 804c4f3:	0f 84 df fe ff ff    	je     804c3d8 <geteuid@plt+0x2c00>
 804c4f9:	89 c7                	mov    %eax,%edi
 804c4fb:	8b 00                	mov    (%eax),%eax
 804c4fd:	85 c0                	test   %eax,%eax
 804c4ff:	75 ef                	jne    804c4f0 <geteuid@plt+0x2d18>
 804c501:	c7 04 24 1c 00 00 00 	movl   $0x1c,(%esp)
 804c508:	e8 4b d1 ff ff       	call   8049658 <malloc@plt>
 804c50d:	85 c0                	test   %eax,%eax
 804c50f:	89 07                	mov    %eax,(%edi)
 804c511:	0f 84 c1 fe ff ff    	je     804c3d8 <geteuid@plt+0x2c00>
 804c517:	c7 00 00 00 00 00    	movl   $0x0,(%eax)
 804c51d:	8d 4d d0             	lea    -0x30(%ebp),%ecx
 804c520:	89 70 04             	mov    %esi,0x4(%eax)
 804c523:	8b 31                	mov    (%ecx),%esi
 804c525:	83 c1 04             	add    $0x4,%ecx
 804c528:	8d 96 ff fe fe fe    	lea    -0x1010101(%esi),%edx
 804c52e:	f7 d6                	not    %esi
 804c530:	21 f2                	and    %esi,%edx
 804c532:	81 e2 80 80 80 80    	and    $0x80808080,%edx
 804c538:	74 e9                	je     804c523 <geteuid@plt+0x2d4b>
 804c53a:	f7 c2 80 80 00 00    	test   $0x8080,%edx
 804c540:	75 06                	jne    804c548 <geteuid@plt+0x2d70>
 804c542:	c1 ea 10             	shr    $0x10,%edx
 804c545:	83 c1 02             	add    $0x2,%ecx
 804c548:	00 d2                	add    %dl,%dl
 804c54a:	83 d9 03             	sbb    $0x3,%ecx
 804c54d:	2b 8d 70 f5 ff ff    	sub    -0xa90(%ebp),%ecx
 804c553:	83 f9 13             	cmp    $0x13,%ecx
 804c556:	76 04                	jbe    804c55c <geteuid@plt+0x2d84>
 804c558:	c6 45 e3 00          	movb   $0x0,-0x1d(%ebp)
 804c55c:	8d 55 d0             	lea    -0x30(%ebp),%edx
 804c55f:	83 c0 08             	add    $0x8,%eax
 804c562:	89 54 24 04          	mov    %edx,0x4(%esp)
 804c566:	89 04 24             	mov    %eax,(%esp)
 804c569:	e8 4a d0 ff ff       	call   80495b8 <strcpy@plt>
 804c56e:	e9 65 fe ff ff       	jmp    804c3d8 <geteuid@plt+0x2c00>
 804c573:	8b 85 a4 f5 ff ff    	mov    -0xa5c(%ebp),%eax
 804c579:	89 04 24             	mov    %eax,(%esp)
 804c57c:	e8 77 d0 ff ff       	call   80495f8 <closedir@plt>
 804c581:	80 bd 8b f5 ff ff 00 	cmpb   $0x0,-0xa75(%ebp)
 804c588:	0f 84 cc fc ff ff    	je     804c25a <geteuid@plt+0x2a82>
 804c58e:	80 3d 48 29 06 08 01 	cmpb   $0x1,0x8062948
 804c595:	0f 84 75 01 00 00    	je     804c710 <geteuid@plt+0x2f38>
 804c59b:	c7 04 24 6c b3 05 08 	movl   $0x805b36c,(%esp)
 804c5a2:	e8 81 ce ff ff       	call   8049428 <gettext@plt>
 804c5a7:	c7 44 24 04 01 00 00 	movl   $0x1,0x4(%esp)
 804c5ae:	00 
 804c5af:	89 44 24 08          	mov    %eax,0x8(%esp)
 804c5b3:	a1 80 28 06 08       	mov    0x8062880,%eax
 804c5b8:	89 04 24             	mov    %eax,(%esp)
 804c5bb:	e8 48 cd ff ff       	call   8049308 <__fprintf_chk@plt>
 804c5c0:	e9 95 fc ff ff       	jmp    804c25a <geteuid@plt+0x2a82>
 804c5c5:	8b 95 9c f5 ff ff    	mov    -0xa64(%ebp),%edx
 804c5cb:	89 14 24             	mov    %edx,(%esp)
 804c5ce:	e8 25 d0 ff ff       	call   80495f8 <closedir@plt>
 804c5d3:	e9 e8 fc ff ff       	jmp    804c2c0 <geteuid@plt+0x2ae8>
 804c5d8:	8b 85 98 f5 ff ff    	mov    -0xa68(%ebp),%eax
 804c5de:	83 c0 05             	add    $0x5,%eax
 804c5e1:	3d fa 07 00 00       	cmp    $0x7fa,%eax
 804c5e6:	0f 87 ec fd ff ff    	ja     804c3d8 <geteuid@plt+0x2c00>
 804c5ec:	8b 95 90 f5 ff ff    	mov    -0xa70(%ebp),%edx
 804c5f2:	8d 85 b2 f5 ff ff    	lea    -0xa4e(%ebp),%eax
 804c5f8:	c7 02 63 6d 64 6c    	movl   $0x6c646d63,(%edx)
 804c5fe:	c7 42 04 69 6e 65 00 	movl   $0x656e69,0x4(%edx)
 804c605:	c7 44 24 04 00 00 00 	movl   $0x0,0x4(%esp)
 804c60c:	00 
 804c60d:	89 04 24             	mov    %eax,(%esp)
 804c610:	e8 93 cc ff ff       	call   80492a8 <open@plt>
 804c615:	85 c0                	test   %eax,%eax
 804c617:	89 c7                	mov    %eax,%edi
 804c619:	0f 88 b9 fd ff ff    	js     804c3d8 <geteuid@plt+0x2c00>
 804c61f:	8d 95 b2 fd ff ff    	lea    -0x24e(%ebp),%edx
 804c625:	89 54 24 04          	mov    %edx,0x4(%esp)
 804c629:	c7 44 24 08 ff 01 00 	movl   $0x1ff,0x8(%esp)
 804c630:	00 
 804c631:	89 04 24             	mov    %eax,(%esp)
 804c634:	e8 bf cd ff ff       	call   80493f8 <read@plt>
 804c639:	89 3c 24             	mov    %edi,(%esp)
 804c63c:	89 c6                	mov    %eax,%esi
 804c63e:	e8 c5 cf ff ff       	call   8049608 <close@plt>
 804c643:	85 c0                	test   %eax,%eax
 804c645:	0f 85 8d fd ff ff    	jne    804c3d8 <geteuid@plt+0x2c00>
 804c64b:	83 fe ff             	cmp    $0xffffffff,%esi
 804c64e:	0f 84 84 fd ff ff    	je     804c3d8 <geteuid@plt+0x2c00>
 804c654:	81 fe fe 01 00 00    	cmp    $0x1fe,%esi
 804c65a:	77 08                	ja     804c664 <geteuid@plt+0x2e8c>
 804c65c:	c6 84 35 b2 fd ff ff 	movb   $0x0,-0x24e(%ebp,%esi,1)
 804c663:	00 
 804c664:	8d 85 b2 fd ff ff    	lea    -0x24e(%ebp),%eax
 804c66a:	c7 44 24 04 2f 00 00 	movl   $0x2f,0x4(%esp)
 804c671:	00 
 804c672:	89 04 24             	mov    %eax,(%esp)
 804c675:	e8 4e cd ff ff       	call   80493c8 <strrchr@plt>
 804c67a:	8d 95 b2 fd ff ff    	lea    -0x24e(%ebp),%edx
 804c680:	89 95 8c f5 ff ff    	mov    %edx,-0xa74(%ebp)
 804c686:	85 c0                	test   %eax,%eax
 804c688:	0f 84 f3 fd ff ff    	je     804c481 <geteuid@plt+0x2ca9>
 804c68e:	83 c0 01             	add    $0x1,%eax
 804c691:	89 85 8c f5 ff ff    	mov    %eax,-0xa74(%ebp)
 804c697:	e9 e5 fd ff ff       	jmp    804c481 <geteuid@plt+0x2ca9>
 804c69c:	8d 74 26 00          	lea    0x0(%esi,%eiz,1),%esi
 804c6a0:	8d 45 b2             	lea    -0x4e(%ebp),%eax
 804c6a3:	89 04 24             	mov    %eax,(%esp)
 804c6a6:	e8 9d ce ff ff       	call   8049548 <strlen@plt>
 804c6ab:	83 f8 07             	cmp    $0x7,%eax
 804c6ae:	0f 86 24 fd ff ff    	jbe    804c3d8 <geteuid@plt+0x2c00>
 804c6b4:	8b b5 74 f5 ff ff    	mov    -0xa8c(%ebp),%esi
 804c6ba:	bf 48 bc 05 08       	mov    $0x805bc48,%edi
 804c6bf:	b9 07 00 00 00       	mov    $0x7,%ecx
 804c6c4:	f3 a6                	repz cmpsb %es:(%edi),%ds:(%esi)
 804c6c6:	0f 85 0c fd ff ff    	jne    804c3d8 <geteuid@plt+0x2c00>
 804c6cc:	8d 85 a8 f5 ff ff    	lea    -0xa58(%ebp),%eax
 804c6d2:	89 44 24 04          	mov    %eax,0x4(%esp)
 804c6d6:	8d 45 b9             	lea    -0x47(%ebp),%eax
 804c6d9:	c7 44 24 08 00 00 00 	movl   $0x0,0x8(%esp)
 804c6e0:	00 
 804c6e1:	89 04 24             	mov    %eax,(%esp)
 804c6e4:	e8 4f ce ff ff       	call   8049538 <strtoul@plt>
 804c6e9:	89 85 ac f5 ff ff    	mov    %eax,-0xa54(%ebp)
 804c6ef:	8b 85 a8 f5 ff ff    	mov    -0xa58(%ebp),%eax
 804c6f5:	85 c0                	test   %eax,%eax
 804c6f7:	0f 84 db fc ff ff    	je     804c3d8 <geteuid@plt+0x2c00>
 804c6fd:	80 38 00             	cmpb   $0x0,(%eax)
 804c700:	0f 85 d2 fc ff ff    	jne    804c3d8 <geteuid@plt+0x2c00>
 804c706:	e9 68 fd ff ff       	jmp    804c473 <geteuid@plt+0x2c9b>
 804c70b:	90                   	nop
 804c70c:	8d 74 26 00          	lea    0x0(%esi,%eiz,1),%esi
 804c710:	e8 c3 d0 ff ff       	call   80497d8 <geteuid@plt>
 804c715:	c7 04 24 24 b3 05 08 	movl   $0x805b324,(%esp)
 804c71c:	89 c3                	mov    %eax,%ebx
 804c71e:	e8 05 cd ff ff       	call   8049428 <gettext@plt>
 804c723:	89 5c 24 0c          	mov    %ebx,0xc(%esp)
 804c727:	c7 44 24 04 01 00 00 	movl   $0x1,0x4(%esp)
 804c72e:	00 
 804c72f:	89 44 24 08          	mov    %eax,0x8(%esp)
 804c733:	a1 80 28 06 08       	mov    0x8062880,%eax
 804c738:	89 04 24             	mov    %eax,(%esp)
 804c73b:	e8 c8 cb ff ff       	call   8049308 <__fprintf_chk@plt>
 804c740:	e9 15 fb ff ff       	jmp    804c25a <geteuid@plt+0x2a82>
 804c745:	8b 85 a0 f5 ff ff    	mov    -0xa60(%ebp),%eax
 804c74b:	83 38 0d             	cmpl   $0xd,(%eax)
 804c74e:	0f 85 6c fb ff ff    	jne    804c2c0 <geteuid@plt+0x2ae8>
 804c754:	c6 85 8b f5 ff ff 01 	movb   $0x1,-0xa75(%ebp)
 804c75b:	e9 60 fb ff ff       	jmp    804c2c0 <geteuid@plt+0x2ae8>
 804c760:	e8 03 cf ff ff       	call   8049668 <__stack_chk_fail@plt>
 804c765:	8d 74 26 00          	lea    0x0(%esi,%eiz,1),%esi
 804c769:	8d bc 27 00 00 00 00 	lea    0x0(%edi,%eiz,1),%edi
 804c770:	55                   	push   %ebp
 804c771:	89 e5                	mov    %esp,%ebp
 804c773:	57                   	push   %edi
 804c774:	56                   	push   %esi
 804c775:	53                   	push   %ebx
 804c776:	81 ec 8c 30 00 00    	sub    $0x308c,%esp
 804c77c:	c7 04 24 56 bc 05 08 	movl   $0x805bc56,(%esp)
 804c783:	65 a1 14 00 00 00    	mov    %gs:0x14,%eax
 804c789:	89 45 e4             	mov    %eax,-0x1c(%ebp)
 804c78c:	31 c0                	xor    %eax,%eax
 804c78e:	e8 95 cc ff ff       	call   8049428 <gettext@plt>
 804c793:	c7 04 24 01 00 00 00 	movl   $0x1,(%esp)
 804c79a:	89 44 24 04          	mov    %eax,0x4(%esp)
 804c79e:	e8 b5 cb ff ff       	call   8049358 <__printf_chk@plt>
 804c7a3:	8b 3d f0 28 06 08    	mov    0x80628f0,%edi
 804c7a9:	85 ff                	test   %edi,%edi
 804c7ab:	0f 85 ef 03 00 00    	jne    804cba0 <geteuid@plt+0x33c8>
 804c7b1:	8b 35 f4 28 06 08    	mov    0x80628f4,%esi
 804c7b7:	85 f6                	test   %esi,%esi
 804c7b9:	0f 85 21 03 00 00    	jne    804cae0 <geteuid@plt+0x3308>
 804c7bf:	c7 04 24 9b bc 05 08 	movl   $0x805bc9b,(%esp)
 804c7c6:	e8 5d cc ff ff       	call   8049428 <gettext@plt>
 804c7cb:	c7 04 24 01 00 00 00 	movl   $0x1,(%esp)
 804c7d2:	89 44 24 04          	mov    %eax,0x4(%esp)
 804c7d6:	e8 7d cb ff ff       	call   8049358 <__printf_chk@plt>
 804c7db:	c7 04 24 ec b3 05 08 	movl   $0x805b3ec,(%esp)
 804c7e2:	e8 41 cc ff ff       	call   8049428 <gettext@plt>
 804c7e7:	c7 04 24 01 00 00 00 	movl   $0x1,(%esp)
 804c7ee:	89 44 24 04          	mov    %eax,0x4(%esp)
 804c7f2:	e8 61 cb ff ff       	call   8049358 <__printf_chk@plt>
 804c7f7:	8b 1d 24 29 06 08    	mov    0x8062924,%ebx
 804c7fd:	85 db                	test   %ebx,%ebx
 804c7ff:	0f 85 73 03 00 00    	jne    804cb78 <geteuid@plt+0x33a0>
 804c805:	c7 04 24 c1 bc 05 08 	movl   $0x805bcc1,(%esp)
 804c80c:	e8 17 cc ff ff       	call   8049428 <gettext@plt>
 804c811:	c7 04 24 01 00 00 00 	movl   $0x1,(%esp)
 804c818:	89 44 24 04          	mov    %eax,0x4(%esp)
 804c81c:	e8 37 cb ff ff       	call   8049358 <__printf_chk@plt>
 804c821:	c7 04 24 c8 bc 05 08 	movl   $0x805bcc8,(%esp)
 804c828:	e8 93 b7 00 00       	call   8057fc0 <geteuid@plt+0xe7e8>
 804c82d:	85 c0                	test   %eax,%eax
 804c82f:	a3 40 37 06 08       	mov    %eax,0x8063740
 804c834:	0f 84 9e 05 00 00    	je     804cdd8 <geteuid@plt+0x3600>
 804c83a:	8d b5 c4 cf ff ff    	lea    -0x303c(%ebp),%esi
 804c840:	31 ff                	xor    %edi,%edi
 804c842:	eb 3b                	jmp    804c87f <geteuid@plt+0x30a7>
 804c844:	8d 74 26 00          	lea    0x0(%esi,%eiz,1),%esi
 804c848:	c7 44 24 04 df bc 05 	movl   $0x805bcdf,0x4(%esp)
 804c84f:	08 
 804c850:	89 34 24             	mov    %esi,(%esp)
 804c853:	e8 e0 cd ff ff       	call   8049638 <strstr@plt>
 804c858:	85 c0                	test   %eax,%eax
 804c85a:	74 07                	je     804c863 <geteuid@plt+0x308b>
 804c85c:	83 0d 4c 29 06 08 01 	orl    $0x1,0x806294c
 804c863:	a1 40 37 06 08       	mov    0x8063740,%eax
 804c868:	89 04 24             	mov    %eax,(%esp)
 804c86b:	e8 38 cd ff ff       	call   80495a8 <feof@plt>
 804c870:	85 c0                	test   %eax,%eax
 804c872:	0f 85 90 02 00 00    	jne    804cb08 <geteuid@plt+0x3330>
 804c878:	a1 40 37 06 08       	mov    0x8063740,%eax
 804c87d:	89 df                	mov    %ebx,%edi
 804c87f:	89 44 24 08          	mov    %eax,0x8(%esp)
 804c883:	89 fb                	mov    %edi,%ebx
 804c885:	c7 44 24 04 00 20 00 	movl   $0x2000,0x4(%esp)
 804c88c:	00 
 804c88d:	89 34 24             	mov    %esi,(%esp)
 804c890:	e8 13 cb ff ff       	call   80493a8 <fgets@plt>
 804c895:	85 c0                	test   %eax,%eax
 804c897:	74 ca                	je     804c863 <geteuid@plt+0x308b>
 804c899:	85 ff                	test   %edi,%edi
 804c89b:	8d 5f 01             	lea    0x1(%edi),%ebx
 804c89e:	74 a8                	je     804c848 <geteuid@plt+0x3070>
 804c8a0:	8d 85 a8 cf ff ff    	lea    -0x3058(%ebp),%eax
 804c8a6:	89 44 24 20          	mov    %eax,0x20(%esp)
 804c8aa:	8d 85 bc cf ff ff    	lea    -0x3044(%ebp),%eax
 804c8b0:	8d 95 c4 ef ff ff    	lea    -0x103c(%ebp),%edx
 804c8b6:	89 44 24 18          	mov    %eax,0x18(%esp)
 804c8ba:	8d 85 b0 cf ff ff    	lea    -0x3050(%ebp),%eax
 804c8c0:	89 54 24 24          	mov    %edx,0x24(%esp)
 804c8c4:	8d 95 c0 cf ff ff    	lea    -0x3040(%ebp),%edx
 804c8ca:	89 44 24 10          	mov    %eax,0x10(%esp)
 804c8ce:	8d 85 b4 cf ff ff    	lea    -0x304c(%ebp),%eax
 804c8d4:	89 54 24 1c          	mov    %edx,0x1c(%esp)
 804c8d8:	8d 95 ac cf ff ff    	lea    -0x3054(%ebp),%edx
 804c8de:	89 44 24 0c          	mov    %eax,0xc(%esp)
 804c8e2:	8d 85 b8 cf ff ff    	lea    -0x3048(%ebp),%eax
 804c8e8:	c6 85 c4 ef ff ff 00 	movb   $0x0,-0x103c(%ebp)
 804c8ef:	89 54 24 14          	mov    %edx,0x14(%esp)
 804c8f3:	89 44 24 08          	mov    %eax,0x8(%esp)
 804c8f7:	c7 44 24 04 e5 bc 05 	movl   $0x805bce5,0x4(%esp)
 804c8fe:	08 
 804c8ff:	89 34 24             	mov    %esi,(%esp)
 804c902:	e8 e1 cd ff ff       	call   80496e8 <sscanf@plt>
 804c907:	83 f8 05             	cmp    $0x5,%eax
 804c90a:	0f 8e f8 02 00 00    	jle    804cc08 <geteuid@plt+0x3430>
 804c910:	f6 05 4c 29 06 08 01 	testb  $0x1,0x806294c
 804c917:	0f 84 ab 02 00 00    	je     804cbc8 <geteuid@plt+0x33f0>
 804c91d:	8b 3d f0 28 06 08    	mov    0x80628f0,%edi
 804c923:	85 ff                	test   %edi,%edi
 804c925:	75 1b                	jne    804c942 <geteuid@plt+0x316a>
 804c927:	83 bd c0 cf ff ff 01 	cmpl   $0x1,-0x3040(%ebp)
 804c92e:	0f 84 14 05 00 00    	je     804ce48 <geteuid@plt+0x3670>
 804c934:	8b 15 f4 28 06 08    	mov    0x80628f4,%edx
 804c93a:	85 d2                	test   %edx,%edx
 804c93c:	0f 85 21 ff ff ff    	jne    804c863 <geteuid@plt+0x308b>
 804c942:	8b 85 b0 cf ff ff    	mov    -0x3050(%ebp),%eax
 804c948:	c7 85 a4 cf ff ff d2 	movl   $0x805bcd2,-0x305c(%ebp)
 804c94f:	bc 05 08 
 804c952:	85 c0                	test   %eax,%eax
 804c954:	74 0a                	je     804c960 <geteuid@plt+0x3188>
 804c956:	c7 85 a4 cf ff ff 02 	movl   $0x805bd02,-0x305c(%ebp)
 804c95d:	bd 05 08 
 804c960:	83 bd bc cf ff ff 05 	cmpl   $0x5,-0x3044(%ebp)
 804c967:	0f 86 eb 01 00 00    	jbe    804cb58 <geteuid@plt+0x3380>
 804c96d:	c7 04 24 28 bb 05 08 	movl   $0x805bb28,(%esp)
 804c974:	e8 af ca ff ff       	call   8049428 <gettext@plt>
 804c979:	89 85 9c cf ff ff    	mov    %eax,-0x3064(%ebp)
 804c97f:	90                   	nop
 804c980:	83 bd c0 cf ff ff 04 	cmpl   $0x4,-0x3040(%ebp)
 804c987:	0f 86 db 01 00 00    	jbe    804cb68 <geteuid@plt+0x3390>
 804c98d:	c7 04 24 28 bb 05 08 	movl   $0x805bb28,(%esp)
 804c994:	e8 8f ca ff ff       	call   8049428 <gettext@plt>
 804c999:	89 85 a0 cf ff ff    	mov    %eax,-0x3060(%ebp)
 804c99f:	8b 85 ac cf ff ff    	mov    -0x3054(%ebp),%eax
 804c9a5:	8d 76 00             	lea    0x0(%esi),%esi
 804c9a8:	a9 00 00 01 00       	test   $0x10000,%eax
 804c9ad:	8d 7d c4             	lea    -0x3c(%ebp),%edi
 804c9b0:	66 c7 45 c4 5b 20    	movw   $0x205b,-0x3c(%ebp)
 804c9b6:	c6 45 c6 00          	movb   $0x0,-0x3a(%ebp)
 804c9ba:	0f 85 78 02 00 00    	jne    804cc38 <geteuid@plt+0x3460>
 804c9c0:	a9 00 00 02 00       	test   $0x20000,%eax
 804c9c5:	0f 85 96 02 00 00    	jne    804cc61 <geteuid@plt+0x3489>
 804c9cb:	a9 00 00 04 00       	test   $0x40000,%eax
 804c9d0:	0f 85 b4 02 00 00    	jne    804cc8a <geteuid@plt+0x34b2>
 804c9d6:	c7 44 24 08 20 00 00 	movl   $0x20,0x8(%esp)
 804c9dd:	00 
 804c9de:	c7 44 24 04 c4 e3 05 	movl   $0x805e3c4,0x4(%esp)
 804c9e5:	08 
 804c9e6:	89 3c 24             	mov    %edi,(%esp)
 804c9e9:	e8 2a ca ff ff       	call   8049418 <__strcat_chk@plt>
 804c9ee:	8b 95 a0 cf ff ff    	mov    -0x3060(%ebp),%edx
 804c9f4:	8b 85 9c cf ff ff    	mov    -0x3064(%ebp),%eax
 804c9fa:	89 7c 24 10          	mov    %edi,0x10(%esp)
 804c9fe:	c7 44 24 04 56 bd 05 	movl   $0x805bd56,0x4(%esp)
 804ca05:	08 
 804ca06:	89 54 24 18          	mov    %edx,0x18(%esp)
 804ca0a:	8b 95 a4 cf ff ff    	mov    -0x305c(%ebp),%edx
 804ca10:	89 44 24 14          	mov    %eax,0x14(%esp)
 804ca14:	8b 85 b4 cf ff ff    	mov    -0x304c(%ebp),%eax
 804ca1a:	c7 04 24 01 00 00 00 	movl   $0x1,(%esp)
 804ca21:	89 54 24 08          	mov    %edx,0x8(%esp)
 804ca25:	89 44 24 0c          	mov    %eax,0xc(%esp)
 804ca29:	e8 2a c9 ff ff       	call   8049358 <__printf_chk@plt>
 804ca2e:	f6 05 4c 29 06 08 01 	testb  $0x1,0x806294c
 804ca35:	0f 84 fd 00 00 00    	je     804cb38 <geteuid@plt+0x3360>
 804ca3b:	8b 85 a8 cf ff ff    	mov    -0x3058(%ebp),%eax
 804ca41:	c7 44 24 04 74 bd 05 	movl   $0x805bd74,0x4(%esp)
 804ca48:	08 
 804ca49:	c7 04 24 01 00 00 00 	movl   $0x1,(%esp)
 804ca50:	89 44 24 08          	mov    %eax,0x8(%esp)
 804ca54:	e8 ff c8 ff ff       	call   8049358 <__printf_chk@plt>
 804ca59:	8b 3d 24 29 06 08    	mov    0x8062924,%edi
 804ca5f:	85 ff                	test   %edi,%edi
 804ca61:	74 6a                	je     804cacd <geteuid@plt+0x32f5>
 804ca63:	f6 05 4c 29 06 08 01 	testb  $0x1,0x806294c
 804ca6a:	b8 df f8 05 08       	mov    $0x805f8df,%eax
 804ca6f:	74 44                	je     804cab5 <geteuid@plt+0x32dd>
 804ca71:	8b 8d a8 cf ff ff    	mov    -0x3058(%ebp),%ecx
 804ca77:	ba 9f 6f 4c 9b       	mov    $0x9b4c6f9f,%edx
 804ca7c:	89 c8                	mov    %ecx,%eax
 804ca7e:	f7 e2                	mul    %edx
 804ca80:	89 c8                	mov    %ecx,%eax
 804ca82:	c1 ea 07             	shr    $0x7,%edx
 804ca85:	69 d2 d3 00 00 00    	imul   $0xd3,%edx,%edx
 804ca8b:	29 d0                	sub    %edx,%eax
 804ca8d:	8b 04 85 60 29 06 08 	mov    0x8062960(,%eax,4),%eax
 804ca94:	85 c0                	test   %eax,%eax
 804ca96:	75 12                	jne    804caaa <geteuid@plt+0x32d2>
 804ca98:	e9 cb 03 00 00       	jmp    804ce68 <geteuid@plt+0x3690>
 804ca9d:	8d 76 00             	lea    0x0(%esi),%esi
 804caa0:	8b 00                	mov    (%eax),%eax
 804caa2:	85 c0                	test   %eax,%eax
 804caa4:	0f 84 be 03 00 00    	je     804ce68 <geteuid@plt+0x3690>
 804caaa:	3b 48 04             	cmp    0x4(%eax),%ecx
 804caad:	8d 76 00             	lea    0x0(%esi),%esi
 804cab0:	75 ee                	jne    804caa0 <geteuid@plt+0x32c8>
 804cab2:	83 c0 08             	add    $0x8,%eax
 804cab5:	89 44 24 08          	mov    %eax,0x8(%esp)
 804cab9:	c7 44 24 04 bb bc 05 	movl   $0x805bcbb,0x4(%esp)
 804cac0:	08 
 804cac1:	c7 04 24 01 00 00 00 	movl   $0x1,(%esp)
 804cac8:	e8 8b c8 ff ff       	call   8049358 <__printf_chk@plt>
 804cacd:	8d 95 c4 ef ff ff    	lea    -0x103c(%ebp),%edx
 804cad3:	89 14 24             	mov    %edx,(%esp)
 804cad6:	e8 ed cb ff ff       	call   80496c8 <puts@plt>
 804cadb:	e9 83 fd ff ff       	jmp    804c863 <geteuid@plt+0x308b>
 804cae0:	c7 04 24 8c bc 05 08 	movl   $0x805bc8c,(%esp)
 804cae7:	e8 3c c9 ff ff       	call   8049428 <gettext@plt>
 804caec:	c7 04 24 01 00 00 00 	movl   $0x1,(%esp)
 804caf3:	89 44 24 04          	mov    %eax,0x4(%esp)
 804caf7:	e8 5c c8 ff ff       	call   8049358 <__printf_chk@plt>
 804cafc:	e9 da fc ff ff       	jmp    804c7db <geteuid@plt+0x3003>
 804cb01:	8d b4 26 00 00 00 00 	lea    0x0(%esi,%eiz,1),%esi
 804cb08:	a1 40 37 06 08       	mov    0x8063740,%eax
 804cb0d:	89 04 24             	mov    %eax,(%esp)
 804cb10:	e8 f3 c9 ff ff       	call   8049508 <fclose@plt>
 804cb15:	31 c0                	xor    %eax,%eax
 804cb17:	8b 55 e4             	mov    -0x1c(%ebp),%edx
 804cb1a:	65 33 15 14 00 00 00 	xor    %gs:0x14,%edx
 804cb21:	0f 85 61 03 00 00    	jne    804ce88 <geteuid@plt+0x36b0>
 804cb27:	81 c4 8c 30 00 00    	add    $0x308c,%esp
 804cb2d:	5b                   	pop    %ebx
 804cb2e:	5e                   	pop    %esi
 804cb2f:	5f                   	pop    %edi
 804cb30:	5d                   	pop    %ebp
 804cb31:	c3                   	ret    
 804cb32:	8d b6 00 00 00 00    	lea    0x0(%esi),%esi
 804cb38:	c7 44 24 04 7b bd 05 	movl   $0x805bd7b,0x4(%esp)
 804cb3f:	08 
 804cb40:	c7 04 24 01 00 00 00 	movl   $0x1,(%esp)
 804cb47:	e8 0c c8 ff ff       	call   8049358 <__printf_chk@plt>
 804cb4c:	e9 08 ff ff ff       	jmp    804ca59 <geteuid@plt+0x3281>
 804cb51:	8d b4 26 00 00 00 00 	lea    0x0(%esi,%eiz,1),%esi
 804cb58:	8b 85 bc cf ff ff    	mov    -0x3044(%ebp),%eax
 804cb5e:	ff 24 85 a0 c1 05 08 	jmp    *0x805c1a0(,%eax,4)
 804cb65:	8d 76 00             	lea    0x0(%esi),%esi
 804cb68:	8b 85 c0 cf ff ff    	mov    -0x3040(%ebp),%eax
 804cb6e:	ff 24 85 b8 c1 05 08 	jmp    *0x805c1b8(,%eax,4)
 804cb75:	8d 76 00             	lea    0x0(%esi),%esi
 804cb78:	c7 44 24 08 a9 bc 05 	movl   $0x805bca9,0x8(%esp)
 804cb7f:	08 
 804cb80:	c7 44 24 04 bb bc 05 	movl   $0x805bcbb,0x4(%esp)
 804cb87:	08 
 804cb88:	c7 04 24 01 00 00 00 	movl   $0x1,(%esp)
 804cb8f:	e8 c4 c7 ff ff       	call   8049358 <__printf_chk@plt>
 804cb94:	e9 6c fc ff ff       	jmp    804c805 <geteuid@plt+0x302d>
 804cb99:	8d b4 26 00 00 00 00 	lea    0x0(%esi,%eiz,1),%esi
 804cba0:	c7 04 24 72 bc 05 08 	movl   $0x805bc72,(%esp)
 804cba7:	e8 7c c8 ff ff       	call   8049428 <gettext@plt>
 804cbac:	c7 04 24 01 00 00 00 	movl   $0x1,(%esp)
 804cbb3:	89 44 24 04          	mov    %eax,0x4(%esp)
 804cbb7:	e8 9c c7 ff ff       	call   8049358 <__printf_chk@plt>
 804cbbc:	e9 1a fc ff ff       	jmp    804c7db <geteuid@plt+0x3003>
 804cbc1:	8d b4 26 00 00 00 00 	lea    0x0(%esi,%eiz,1),%esi
 804cbc8:	8b 85 a8 cf ff ff    	mov    -0x3058(%ebp),%eax
 804cbce:	c7 44 24 10 57 c4 05 	movl   $0x805c457,0x10(%esp)
 804cbd5:	08 
 804cbd6:	c7 44 24 0c 00 10 00 	movl   $0x1000,0xc(%esp)
 804cbdd:	00 
 804cbde:	c7 44 24 08 01 00 00 	movl   $0x1,0x8(%esp)
 804cbe5:	00 
 804cbe6:	89 44 24 14          	mov    %eax,0x14(%esp)
 804cbea:	8d 85 c4 ef ff ff    	lea    -0x103c(%ebp),%eax
 804cbf0:	c7 44 24 04 00 10 00 	movl   $0x1000,0x4(%esp)
 804cbf7:	00 
 804cbf8:	89 04 24             	mov    %eax,(%esp)
 804cbfb:	e8 48 cb ff ff       	call   8049748 <__snprintf_chk@plt>
 804cc00:	e9 18 fd ff ff       	jmp    804c91d <geteuid@plt+0x3145>
 804cc05:	8d 76 00             	lea    0x0(%esi),%esi
 804cc08:	c7 04 24 28 b4 05 08 	movl   $0x805b428,(%esp)
 804cc0f:	e8 14 c8 ff ff       	call   8049428 <gettext@plt>
 804cc14:	c7 44 24 04 01 00 00 	movl   $0x1,0x4(%esp)
 804cc1b:	00 
 804cc1c:	89 44 24 08          	mov    %eax,0x8(%esp)
 804cc20:	a1 80 28 06 08       	mov    0x8062880,%eax
 804cc25:	89 04 24             	mov    %eax,(%esp)
 804cc28:	e8 db c6 ff ff       	call   8049308 <__fprintf_chk@plt>
 804cc2d:	e9 31 fc ff ff       	jmp    804c863 <geteuid@plt+0x308b>
 804cc32:	8d b6 00 00 00 00    	lea    0x0(%esi),%esi
 804cc38:	c7 44 24 08 20 00 00 	movl   $0x20,0x8(%esp)
 804cc3f:	00 
 804cc40:	c7 44 24 04 4b bd 05 	movl   $0x805bd4b,0x4(%esp)
 804cc47:	08 
 804cc48:	89 3c 24             	mov    %edi,(%esp)
 804cc4b:	e8 c8 c7 ff ff       	call   8049418 <__strcat_chk@plt>
 804cc50:	8b 85 ac cf ff ff    	mov    -0x3054(%ebp),%eax
 804cc56:	a9 00 00 02 00       	test   $0x20000,%eax
 804cc5b:	0f 84 6a fd ff ff    	je     804c9cb <geteuid@plt+0x31f3>
 804cc61:	c7 44 24 08 20 00 00 	movl   $0x20,0x8(%esp)
 804cc68:	00 
 804cc69:	c7 44 24 04 50 bd 05 	movl   $0x805bd50,0x4(%esp)
 804cc70:	08 
 804cc71:	89 3c 24             	mov    %edi,(%esp)
 804cc74:	e8 9f c7 ff ff       	call   8049418 <__strcat_chk@plt>
 804cc79:	8b 85 ac cf ff ff    	mov    -0x3054(%ebp),%eax
 804cc7f:	a9 00 00 04 00       	test   $0x40000,%eax
 804cc84:	0f 84 4c fd ff ff    	je     804c9d6 <geteuid@plt+0x31fe>
 804cc8a:	c7 44 24 08 20 00 00 	movl   $0x20,0x8(%esp)
 804cc91:	00 
 804cc92:	c7 44 24 04 53 bd 05 	movl   $0x805bd53,0x4(%esp)
 804cc99:	08 
 804cc9a:	89 3c 24             	mov    %edi,(%esp)
 804cc9d:	e8 76 c7 ff ff       	call   8049418 <__strcat_chk@plt>
 804cca2:	e9 2f fd ff ff       	jmp    804c9d6 <geteuid@plt+0x31fe>
 804cca7:	90                   	nop
 804cca8:	c7 04 24 33 bd 05 08 	movl   $0x805bd33,(%esp)
 804ccaf:	e8 74 c7 ff ff       	call   8049428 <gettext@plt>
 804ccb4:	89 85 a0 cf ff ff    	mov    %eax,-0x3060(%ebp)
 804ccba:	8b 85 ac cf ff ff    	mov    -0x3054(%ebp),%eax
 804ccc0:	e9 e3 fc ff ff       	jmp    804c9a8 <geteuid@plt+0x31d0>
 804ccc5:	8d 76 00             	lea    0x0(%esi),%esi
 804ccc8:	c7 04 24 40 bd 05 08 	movl   $0x805bd40,(%esp)
 804cccf:	e8 54 c7 ff ff       	call   8049428 <gettext@plt>
 804ccd4:	89 85 a0 cf ff ff    	mov    %eax,-0x3060(%ebp)
 804ccda:	8b 85 ac cf ff ff    	mov    -0x3054(%ebp),%eax
 804cce0:	e9 c3 fc ff ff       	jmp    804c9a8 <geteuid@plt+0x31d0>
 804cce5:	8d 76 00             	lea    0x0(%esi),%esi
 804cce8:	8b 85 ac cf ff ff    	mov    -0x3054(%ebp),%eax
 804ccee:	c7 85 a0 cf ff ff 2e 	movl   $0x805f82e,-0x3060(%ebp)
 804ccf5:	f8 05 08 
 804ccf8:	a9 00 00 01 00       	test   $0x10000,%eax
 804ccfd:	0f 84 a5 fc ff ff    	je     804c9a8 <geteuid@plt+0x31d0>
 804cd03:	c7 04 24 29 bd 05 08 	movl   $0x805bd29,(%esp)
 804cd0a:	e8 19 c7 ff ff       	call   8049428 <gettext@plt>
 804cd0f:	89 85 a0 cf ff ff    	mov    %eax,-0x3060(%ebp)
 804cd15:	8b 85 ac cf ff ff    	mov    -0x3054(%ebp),%eax
 804cd1b:	e9 88 fc ff ff       	jmp    804c9a8 <geteuid@plt+0x31d0>
 804cd20:	c7 04 24 24 bd 05 08 	movl   $0x805bd24,(%esp)
 804cd27:	e8 fc c6 ff ff       	call   8049428 <gettext@plt>
 804cd2c:	89 85 a0 cf ff ff    	mov    %eax,-0x3060(%ebp)
 804cd32:	8b 85 ac cf ff ff    	mov    -0x3054(%ebp),%eax
 804cd38:	e9 6b fc ff ff       	jmp    804c9a8 <geteuid@plt+0x31d0>
 804cd3d:	8d 76 00             	lea    0x0(%esi),%esi
 804cd40:	c7 04 24 3d bd 05 08 	movl   $0x805bd3d,(%esp)
 804cd47:	e8 dc c6 ff ff       	call   8049428 <gettext@plt>
 804cd4c:	89 85 a0 cf ff ff    	mov    %eax,-0x3060(%ebp)
 804cd52:	8b 85 ac cf ff ff    	mov    -0x3054(%ebp),%eax
 804cd58:	e9 4b fc ff ff       	jmp    804c9a8 <geteuid@plt+0x31d0>
 804cd5d:	8d 76 00             	lea    0x0(%esi),%esi
 804cd60:	c7 04 24 1a bd 05 08 	movl   $0x805bd1a,(%esp)
 804cd67:	e8 bc c6 ff ff       	call   8049428 <gettext@plt>
 804cd6c:	89 85 9c cf ff ff    	mov    %eax,-0x3064(%ebp)
 804cd72:	e9 09 fc ff ff       	jmp    804c980 <geteuid@plt+0x31a8>
 804cd77:	90                   	nop
 804cd78:	c7 04 24 16 bd 05 08 	movl   $0x805bd16,(%esp)
 804cd7f:	e8 a4 c6 ff ff       	call   8049428 <gettext@plt>
 804cd84:	89 85 9c cf ff ff    	mov    %eax,-0x3064(%ebp)
 804cd8a:	e9 f1 fb ff ff       	jmp    804c980 <geteuid@plt+0x31a8>
 804cd8f:	90                   	nop
 804cd90:	c7 04 24 12 bd 05 08 	movl   $0x805bd12,(%esp)
 804cd97:	e8 8c c6 ff ff       	call   8049428 <gettext@plt>
 804cd9c:	89 85 9c cf ff ff    	mov    %eax,-0x3064(%ebp)
 804cda2:	e9 d9 fb ff ff       	jmp    804c980 <geteuid@plt+0x31a8>
 804cda7:	90                   	nop
 804cda8:	c7 04 24 0c bd 05 08 	movl   $0x805bd0c,(%esp)
 804cdaf:	e8 74 c6 ff ff       	call   8049428 <gettext@plt>
 804cdb4:	89 85 9c cf ff ff    	mov    %eax,-0x3064(%ebp)
 804cdba:	e9 c1 fb ff ff       	jmp    804c980 <geteuid@plt+0x31a8>
 804cdbf:	90                   	nop
 804cdc0:	c7 04 24 05 bd 05 08 	movl   $0x805bd05,(%esp)
 804cdc7:	e8 5c c6 ff ff       	call   8049428 <gettext@plt>
 804cdcc:	89 85 9c cf ff ff    	mov    %eax,-0x3064(%ebp)
 804cdd2:	e9 a9 fb ff ff       	jmp    804c980 <geteuid@plt+0x31a8>
 804cdd7:	90                   	nop
 804cdd8:	e8 9b c4 ff ff       	call   8049278 <__errno_location@plt>
 804cddd:	83 38 02             	cmpl   $0x2,(%eax)
 804cde0:	0f 85 8c 00 00 00    	jne    804ce72 <geteuid@plt+0x369a>
 804cde6:	8b 0d 28 29 06 08    	mov    0x8062928,%ecx
 804cdec:	85 c9                	test   %ecx,%ecx
 804cdee:	75 0c                	jne    804cdfc <geteuid@plt+0x3624>
 804cdf0:	8b 15 2c 29 06 08    	mov    0x806292c,%edx
 804cdf6:	31 c0                	xor    %eax,%eax
 804cdf8:	85 d2                	test   %edx,%edx
 804cdfa:	74 3a                	je     804ce36 <geteuid@plt+0x365e>
 804cdfc:	c7 04 24 68 b2 05 08 	movl   $0x805b268,(%esp)
 804ce03:	e8 20 c6 ff ff       	call   8049428 <gettext@plt>
 804ce08:	c7 44 24 10 d7 bc 05 	movl   $0x805bcd7,0x10(%esp)
 804ce0f:	08 
 804ce10:	c7 44 24 0c ac c4 05 	movl   $0x805c4ac,0xc(%esp)
 804ce17:	08 
 804ce18:	c7 44 24 04 01 00 00 	movl   $0x1,0x4(%esp)
 804ce1f:	00 
 804ce20:	89 44 24 08          	mov    %eax,0x8(%esp)
 804ce24:	a1 80 28 06 08       	mov    0x8062880,%eax
 804ce29:	89 04 24             	mov    %eax,(%esp)
 804ce2c:	e8 d7 c4 ff ff       	call   8049308 <__fprintf_chk@plt>
 804ce31:	a1 28 29 06 08       	mov    0x8062928,%eax
 804ce36:	85 c0                	test   %eax,%eax
 804ce38:	0f 95 c0             	setne  %al
 804ce3b:	0f b6 c0             	movzbl %al,%eax
 804ce3e:	e9 d4 fc ff ff       	jmp    804cb17 <geteuid@plt+0x333f>
 804ce43:	90                   	nop
 804ce44:	8d 74 26 00          	lea    0x0(%esi,%eiz,1),%esi
 804ce48:	f6 85 ae cf ff ff 01 	testb  $0x1,-0x3052(%ebp)
 804ce4f:	0f 84 df fa ff ff    	je     804c934 <geteuid@plt+0x315c>
 804ce55:	8b 0d f4 28 06 08    	mov    0x80628f4,%ecx
 804ce5b:	85 c9                	test   %ecx,%ecx
 804ce5d:	0f 85 df fa ff ff    	jne    804c942 <geteuid@plt+0x316a>
 804ce63:	e9 fb f9 ff ff       	jmp    804c863 <geteuid@plt+0x308b>
 804ce68:	b8 df f8 05 08       	mov    $0x805f8df,%eax
 804ce6d:	e9 43 fc ff ff       	jmp    804cab5 <geteuid@plt+0x32dd>
 804ce72:	c7 04 24 c8 bc 05 08 	movl   $0x805bcc8,(%esp)
 804ce79:	e8 8a c5 ff ff       	call   8049408 <perror@plt>
 804ce7e:	b8 ff ff ff ff       	mov    $0xffffffff,%eax
 804ce83:	e9 8f fc ff ff       	jmp    804cb17 <geteuid@plt+0x333f>
 804ce88:	e8 db c7 ff ff       	call   8049668 <__stack_chk_fail@plt>
 804ce8d:	8d 76 00             	lea    0x0(%esi),%esi
 804ce90:	55                   	push   %ebp
 804ce91:	89 e5                	mov    %esp,%ebp
 804ce93:	57                   	push   %edi
 804ce94:	56                   	push   %esi
 804ce95:	53                   	push   %ebx
 804ce96:	81 ec 3c 02 00 00    	sub    $0x23c,%esp
 804ce9c:	c7 04 24 85 bd 05 08 	movl   $0x805bd85,(%esp)
 804cea3:	65 a1 14 00 00 00    	mov    %gs:0x14,%eax
 804cea9:	89 45 e4             	mov    %eax,-0x1c(%ebp)
 804ceac:	31 c0                	xor    %eax,%eax
 804ceae:	c7 85 5c fe ff ff 00 	movl   $0x0,-0x1a4(%ebp)
 804ceb5:	00 00 00 
 804ceb8:	c7 85 58 fe ff ff 00 	movl   $0x0,-0x1a8(%ebp)
 804cebf:	00 00 00 
 804cec2:	e8 f9 b0 00 00       	call   8057fc0 <geteuid@plt+0xe7e8>
 804cec7:	85 c0                	test   %eax,%eax
 804cec9:	89 85 ec fd ff ff    	mov    %eax,-0x214(%ebp)
 804cecf:	0f 84 93 04 00 00    	je     804d368 <geteuid@plt+0x3b90>
 804ced5:	c7 04 24 48 b4 05 08 	movl   $0x805b448,(%esp)
 804cedc:	e8 47 c5 ff ff       	call   8049428 <gettext@plt>
 804cee1:	c7 04 24 01 00 00 00 	movl   $0x1,(%esp)
 804cee8:	89 44 24 04          	mov    %eax,0x4(%esp)
 804ceec:	e8 67 c4 ff ff       	call   8049358 <__printf_chk@plt>
 804cef1:	83 3d ac 11 06 08 01 	cmpl   $0x1,0x80611ac
 804cef8:	7e 1c                	jle    804cf16 <geteuid@plt+0x373e>
 804cefa:	c7 04 24 af bd 05 08 	movl   $0x805bdaf,(%esp)
 804cf01:	e8 22 c5 ff ff       	call   8049428 <gettext@plt>
 804cf06:	c7 04 24 01 00 00 00 	movl   $0x1,(%esp)
 804cf0d:	89 44 24 04          	mov    %eax,0x4(%esp)
 804cf11:	e8 42 c4 ff ff       	call   8049358 <__printf_chk@plt>
 804cf16:	c7 44 24 04 2d f8 05 	movl   $0x805f82d,0x4(%esp)
 804cf1d:	08 
 804cf1e:	c7 04 24 01 00 00 00 	movl   $0x1,(%esp)
 804cf25:	e8 2e c4 ff ff       	call   8049358 <__printf_chk@plt>
 804cf2a:	c7 04 24 04 00 00 00 	movl   $0x4,(%esp)
 804cf31:	e8 aa 25 00 00       	call   804f4e0 <geteuid@plt+0x5d08>
 804cf36:	85 c0                	test   %eax,%eax
 804cf38:	89 85 f4 fd ff ff    	mov    %eax,-0x20c(%ebp)
 804cf3e:	0f 84 2b 05 00 00    	je     804d46f <geteuid@plt+0x3c97>
 804cf44:	8b 85 ec fd ff ff    	mov    -0x214(%ebp),%eax
 804cf4a:	8d 95 70 fe ff ff    	lea    -0x190(%ebp),%edx
 804cf50:	c7 44 24 04 ff 00 00 	movl   $0xff,0x4(%esp)
 804cf57:	00 
 804cf58:	89 14 24             	mov    %edx,(%esp)
 804cf5b:	89 44 24 08          	mov    %eax,0x8(%esp)
 804cf5f:	e8 44 c4 ff ff       	call   80493a8 <fgets@plt>
 804cf64:	8d 85 70 ff ff ff    	lea    -0x90(%ebp),%eax
 804cf6a:	89 85 e4 fd ff ff    	mov    %eax,-0x21c(%ebp)
 804cf70:	e9 3d 02 00 00       	jmp    804d1b2 <geteuid@plt+0x39da>
 804cf75:	8d 76 00             	lea    0x0(%esi),%esi
 804cf78:	8d 95 70 ff ff ff    	lea    -0x90(%ebp),%edx
 804cf7e:	c7 44 24 04 3a 00 00 	movl   $0x3a,0x4(%esp)
 804cf85:	00 
 804cf86:	89 14 24             	mov    %edx,(%esp)
 804cf89:	e8 ea c6 ff ff       	call   8049678 <rindex@plt>
 804cf8e:	85 c0                	test   %eax,%eax
 804cf90:	0f 84 aa 04 00 00    	je     804d440 <geteuid@plt+0x3c68>
 804cf96:	c6 00 00             	movb   $0x0,(%eax)
 804cf99:	8d 95 58 fe ff ff    	lea    -0x1a8(%ebp),%edx
 804cf9f:	83 c0 01             	add    $0x1,%eax
 804cfa2:	89 54 24 08          	mov    %edx,0x8(%esp)
 804cfa6:	c7 44 24 04 46 ba 05 	movl   $0x805ba46,0x4(%esp)
 804cfad:	08 
 804cfae:	89 04 24             	mov    %eax,(%esp)
 804cfb1:	e8 32 c7 ff ff       	call   80496e8 <sscanf@plt>
 804cfb6:	0f b7 85 58 fe ff ff 	movzwl -0x1a8(%ebp),%eax
 804cfbd:	66 c1 c8 08          	ror    $0x8,%ax
 804cfc1:	0f b7 c0             	movzwl %ax,%eax
 804cfc4:	89 85 58 fe ff ff    	mov    %eax,-0x1a8(%ebp)
 804cfca:	8b 85 64 fe ff ff    	mov    -0x19c(%ebp),%eax
 804cfd0:	c7 85 f0 fd ff ff 00 	movl   $0x0,-0x210(%ebp)
 804cfd7:	00 00 00 
 804cfda:	83 f8 01             	cmp    $0x1,%eax
 804cfdd:	0f 84 c3 02 00 00    	je     804d2a6 <geteuid@plt+0x3ace>
 804cfe3:	83 f8 07             	cmp    $0x7,%eax
 804cfe6:	bf 2e f8 05 08       	mov    $0x805f82e,%edi
 804cfeb:	74 0e                	je     804cffb <geteuid@plt+0x3823>
 804cfed:	c7 04 24 10 be 05 08 	movl   $0x805be10,(%esp)
 804cff4:	e8 2f c4 ff ff       	call   8049428 <gettext@plt>
 804cff9:	89 c7                	mov    %eax,%edi
 804cffb:	8b 95 f4 fd ff ff    	mov    -0x20c(%ebp),%edx
 804d001:	8d 75 d4             	lea    -0x2c(%ebp),%esi
 804d004:	89 74 24 08          	mov    %esi,0x8(%esp)
 804d008:	89 5c 24 04          	mov    %ebx,0x4(%esp)
 804d00c:	c7 04 24 04 00 00 00 	movl   $0x4,(%esp)
 804d013:	ff 52 18             	call   *0x18(%edx)
 804d016:	8b 95 f4 fd ff ff    	mov    -0x20c(%ebp),%edx
 804d01c:	a1 00 29 06 08       	mov    0x8062900,%eax
 804d021:	89 34 24             	mov    %esi,(%esp)
 804d024:	89 44 24 04          	mov    %eax,0x4(%esp)
 804d028:	ff 52 14             	call   *0x14(%edx)
 804d02b:	c7 44 24 08 00 01 00 	movl   $0x100,0x8(%esp)
 804d032:	00 
 804d033:	89 44 24 04          	mov    %eax,0x4(%esp)
 804d037:	8d 85 70 fe ff ff    	lea    -0x190(%ebp),%eax
 804d03d:	89 04 24             	mov    %eax,(%esp)
 804d040:	e8 3b b7 00 00       	call   8058780 <geteuid@plt+0xefa8>
 804d045:	8b 85 5c fe ff ff    	mov    -0x1a4(%ebp),%eax
 804d04b:	8d 95 70 fe ff ff    	lea    -0x190(%ebp),%edx
 804d051:	89 54 24 14          	mov    %edx,0x14(%esp)
 804d055:	c7 44 24 10 15 be 05 	movl   $0x805be15,0x10(%esp)
 804d05c:	08 
 804d05d:	c7 44 24 0c 32 00 00 	movl   $0x32,0xc(%esp)
 804d064:	00 
 804d065:	89 44 24 18          	mov    %eax,0x18(%esp)
 804d069:	c7 44 24 08 01 00 00 	movl   $0x1,0x8(%esp)
 804d070:	00 
 804d071:	c7 44 24 04 32 00 00 	movl   $0x32,0x4(%esp)
 804d078:	00 
 804d079:	89 1c 24             	mov    %ebx,(%esp)
 804d07c:	e8 c7 c6 ff ff       	call   8049748 <__snprintf_chk@plt>
 804d081:	8b 85 f0 fd ff ff    	mov    -0x210(%ebp),%eax
 804d087:	85 c0                	test   %eax,%eax
 804d089:	0f 85 31 02 00 00    	jne    804d2c0 <geteuid@plt+0x3ae8>
 804d08f:	8b 95 f4 fd ff ff    	mov    -0x20c(%ebp),%edx
 804d095:	8d 85 70 ff ff ff    	lea    -0x90(%ebp),%eax
 804d09b:	89 74 24 08          	mov    %esi,0x8(%esp)
 804d09f:	89 44 24 04          	mov    %eax,0x4(%esp)
 804d0a3:	c7 04 24 04 00 00 00 	movl   $0x4,(%esp)
 804d0aa:	ff 52 18             	call   *0x18(%edx)
 804d0ad:	8b 95 f4 fd ff ff    	mov    -0x20c(%ebp),%edx
 804d0b3:	a1 00 29 06 08       	mov    0x8062900,%eax
 804d0b8:	89 34 24             	mov    %esi,(%esp)
 804d0bb:	89 44 24 04          	mov    %eax,0x4(%esp)
 804d0bf:	ff 52 14             	call   *0x14(%edx)
 804d0c2:	c7 44 24 08 00 01 00 	movl   $0x100,0x8(%esp)
 804d0c9:	00 
 804d0ca:	89 44 24 04          	mov    %eax,0x4(%esp)
 804d0ce:	8d 85 70 fe ff ff    	lea    -0x190(%ebp),%eax
 804d0d4:	89 04 24             	mov    %eax,(%esp)
 804d0d7:	e8 a4 b6 00 00       	call   8058780 <geteuid@plt+0xefa8>
 804d0dc:	8b 85 58 fe ff ff    	mov    -0x1a8(%ebp),%eax
 804d0e2:	8d 95 70 fe ff ff    	lea    -0x190(%ebp),%edx
 804d0e8:	89 54 24 14          	mov    %edx,0x14(%esp)
 804d0ec:	c7 44 24 10 15 be 05 	movl   $0x805be15,0x10(%esp)
 804d0f3:	08 
 804d0f4:	c7 44 24 0c 32 00 00 	movl   $0x32,0xc(%esp)
 804d0fb:	00 
 804d0fc:	89 44 24 18          	mov    %eax,0x18(%esp)
 804d100:	8d 85 70 ff ff ff    	lea    -0x90(%ebp),%eax
 804d106:	c7 44 24 08 01 00 00 	movl   $0x1,0x8(%esp)
 804d10d:	00 
 804d10e:	c7 44 24 04 32 00 00 	movl   $0x32,0x4(%esp)
 804d115:	00 
 804d116:	89 04 24             	mov    %eax,(%esp)
 804d119:	e8 2a c6 ff ff       	call   8049748 <__snprintf_chk@plt>
 804d11e:	8b 85 68 fe ff ff    	mov    -0x198(%ebp),%eax
 804d124:	8d 95 70 ff ff ff    	lea    -0x90(%ebp),%edx
 804d12a:	89 7c 24 18          	mov    %edi,0x18(%esp)
 804d12e:	89 54 24 14          	mov    %edx,0x14(%esp)
 804d132:	89 5c 24 10          	mov    %ebx,0x10(%esp)
 804d136:	89 44 24 0c          	mov    %eax,0xc(%esp)
 804d13a:	8b 85 6c fe ff ff    	mov    -0x194(%ebp),%eax
 804d140:	c7 44 24 04 00 b5 05 	movl   $0x805b500,0x4(%esp)
 804d147:	08 
 804d148:	c7 04 24 01 00 00 00 	movl   $0x1,(%esp)
 804d14f:	89 44 24 08          	mov    %eax,0x8(%esp)
 804d153:	e8 00 c2 ff ff       	call   8049358 <__printf_chk@plt>
 804d158:	83 3d ac 11 06 08 01 	cmpl   $0x1,0x80611ac
 804d15f:	7e 3d                	jle    804d19e <geteuid@plt+0x39c6>
 804d161:	f6 05 00 29 06 08 10 	testb  $0x10,0x8062900
 804d168:	0f 85 62 01 00 00    	jne    804d2d0 <geteuid@plt+0x3af8>
 804d16e:	8b 85 60 fe ff ff    	mov    -0x1a0(%ebp),%eax
 804d174:	89 04 24             	mov    %eax,(%esp)
 804d177:	e8 fc c3 ff ff       	call   8049578 <getpwuid@plt>
 804d17c:	85 c0                	test   %eax,%eax
 804d17e:	0f 84 4c 01 00 00    	je     804d2d0 <geteuid@plt+0x3af8>
 804d184:	8b 00                	mov    (%eax),%eax
 804d186:	c7 44 24 04 1d be 05 	movl   $0x805be1d,0x4(%esp)
 804d18d:	08 
 804d18e:	c7 04 24 01 00 00 00 	movl   $0x1,(%esp)
 804d195:	89 44 24 08          	mov    %eax,0x8(%esp)
 804d199:	e8 ba c1 ff ff       	call   8049358 <__printf_chk@plt>
 804d19e:	c7 44 24 04 2d f8 05 	movl   $0x805f82d,0x4(%esp)
 804d1a5:	08 
 804d1a6:	c7 04 24 01 00 00 00 	movl   $0x1,(%esp)
 804d1ad:	e8 a6 c1 ff ff       	call   8049358 <__printf_chk@plt>
 804d1b2:	8b 85 ec fd ff ff    	mov    -0x214(%ebp),%eax
 804d1b8:	8d 95 70 fe ff ff    	lea    -0x190(%ebp),%edx
 804d1be:	c7 44 24 04 ff 00 00 	movl   $0xff,0x4(%esp)
 804d1c5:	00 
 804d1c6:	89 14 24             	mov    %edx,(%esp)
 804d1c9:	89 44 24 08          	mov    %eax,0x8(%esp)
 804d1cd:	e8 d6 c1 ff ff       	call   80493a8 <fgets@plt>
 804d1d2:	85 c0                	test   %eax,%eax
 804d1d4:	0f 84 1e 01 00 00    	je     804d2f8 <geteuid@plt+0x3b20>
 804d1da:	8d 95 60 fe ff ff    	lea    -0x1a0(%ebp),%edx
 804d1e0:	8d 85 64 fe ff ff    	lea    -0x19c(%ebp),%eax
 804d1e6:	89 54 24 1c          	mov    %edx,0x1c(%esp)
 804d1ea:	8d 95 68 fe ff ff    	lea    -0x198(%ebp),%edx
 804d1f0:	89 44 24 18          	mov    %eax,0x18(%esp)
 804d1f4:	8d 85 6c fe ff ff    	lea    -0x194(%ebp),%eax
 804d1fa:	89 54 24 14          	mov    %edx,0x14(%esp)
 804d1fe:	8d 5d a2             	lea    -0x5e(%ebp),%ebx
 804d201:	8d 95 70 ff ff ff    	lea    -0x90(%ebp),%edx
 804d207:	89 44 24 10          	mov    %eax,0x10(%esp)
 804d20b:	8d 85 70 fe ff ff    	lea    -0x190(%ebp),%eax
 804d211:	89 54 24 0c          	mov    %edx,0xc(%esp)
 804d215:	89 5c 24 08          	mov    %ebx,0x8(%esp)
 804d219:	c7 44 24 04 e8 bd 05 	movl   $0x805bde8,0x4(%esp)
 804d220:	08 
 804d221:	89 04 24             	mov    %eax,(%esp)
 804d224:	e8 bf c4 ff ff       	call   80496e8 <sscanf@plt>
 804d229:	c7 44 24 04 3a 00 00 	movl   $0x3a,0x4(%esp)
 804d230:	00 
 804d231:	89 1c 24             	mov    %ebx,(%esp)
 804d234:	e8 3f c4 ff ff       	call   8049678 <rindex@plt>
 804d239:	85 c0                	test   %eax,%eax
 804d23b:	0f 84 e7 00 00 00    	je     804d328 <geteuid@plt+0x3b50>
 804d241:	c6 00 00             	movb   $0x0,(%eax)
 804d244:	8d 95 5c fe ff ff    	lea    -0x1a4(%ebp),%edx
 804d24a:	83 c0 01             	add    $0x1,%eax
 804d24d:	89 54 24 08          	mov    %edx,0x8(%esp)
 804d251:	bf fc bd 05 08       	mov    $0x805bdfc,%edi
 804d256:	c7 44 24 04 46 ba 05 	movl   $0x805ba46,0x4(%esp)
 804d25d:	08 
 804d25e:	89 04 24             	mov    %eax,(%esp)
 804d261:	e8 82 c4 ff ff       	call   80496e8 <sscanf@plt>
 804d266:	8b b5 e4 fd ff ff    	mov    -0x21c(%ebp),%esi
 804d26c:	b9 0e 00 00 00       	mov    $0xe,%ecx
 804d271:	0f b7 85 5c fe ff ff 	movzwl -0x1a4(%ebp),%eax
 804d278:	66 c1 c8 08          	ror    $0x8,%ax
 804d27c:	0f b7 c0             	movzwl %ax,%eax
 804d27f:	89 85 5c fe ff ff    	mov    %eax,-0x1a4(%ebp)
 804d285:	f3 a6                	repz cmpsb %es:(%edi),%ds:(%esi)
 804d287:	0f 85 eb fc ff ff    	jne    804cf78 <geteuid@plt+0x37a0>
 804d28d:	8b 85 64 fe ff ff    	mov    -0x19c(%ebp),%eax
 804d293:	c7 85 f0 fd ff ff 01 	movl   $0x1,-0x210(%ebp)
 804d29a:	00 00 00 
 804d29d:	83 f8 01             	cmp    $0x1,%eax
 804d2a0:	0f 85 3d fd ff ff    	jne    804cfe3 <geteuid@plt+0x380b>
 804d2a6:	c7 04 24 0a be 05 08 	movl   $0x805be0a,(%esp)
 804d2ad:	e8 76 c1 ff ff       	call   8049428 <gettext@plt>
 804d2b2:	89 c7                	mov    %eax,%edi
 804d2b4:	e9 42 fd ff ff       	jmp    804cffb <geteuid@plt+0x3823>
 804d2b9:	8d b4 26 00 00 00 00 	lea    0x0(%esi,%eiz,1),%esi
 804d2c0:	66 c7 85 70 ff ff ff 	movw   $0x2d,-0x90(%ebp)
 804d2c7:	2d 00 
 804d2c9:	e9 50 fe ff ff       	jmp    804d11e <geteuid@plt+0x3946>
 804d2ce:	66 90                	xchg   %ax,%ax
 804d2d0:	8b 85 60 fe ff ff    	mov    -0x1a0(%ebp),%eax
 804d2d6:	c7 44 24 04 24 be 05 	movl   $0x805be24,0x4(%esp)
 804d2dd:	08 
 804d2de:	c7 04 24 01 00 00 00 	movl   $0x1,(%esp)
 804d2e5:	89 44 24 08          	mov    %eax,0x8(%esp)
 804d2e9:	e8 6a c0 ff ff       	call   8049358 <__printf_chk@plt>
 804d2ee:	e9 ab fe ff ff       	jmp    804d19e <geteuid@plt+0x39c6>
 804d2f3:	90                   	nop
 804d2f4:	8d 74 26 00          	lea    0x0(%esi,%eiz,1),%esi
 804d2f8:	8b 85 ec fd ff ff    	mov    -0x214(%ebp),%eax
 804d2fe:	89 04 24             	mov    %eax,(%esp)
 804d301:	e8 02 c2 ff ff       	call   8049508 <fclose@plt>
 804d306:	31 c0                	xor    %eax,%eax
 804d308:	8b 55 e4             	mov    -0x1c(%ebp),%edx
 804d30b:	65 33 15 14 00 00 00 	xor    %gs:0x14,%edx
 804d312:	0f 85 84 01 00 00    	jne    804d49c <geteuid@plt+0x3cc4>
 804d318:	81 c4 3c 02 00 00    	add    $0x23c,%esp
 804d31e:	5b                   	pop    %ebx
 804d31f:	5e                   	pop    %esi
 804d320:	5f                   	pop    %edi
 804d321:	5d                   	pop    %ebp
 804d322:	c3                   	ret    
 804d323:	90                   	nop
 804d324:	8d 74 26 00          	lea    0x0(%esi,%eiz,1),%esi
 804d328:	c7 04 24 b5 bd 05 08 	movl   $0x805bdb5,(%esp)
 804d32f:	e8 f4 c0 ff ff       	call   8049428 <gettext@plt>
 804d334:	c7 44 24 10 ac b4 05 	movl   $0x805b4ac,0x10(%esp)
 804d33b:	08 
 804d33c:	89 44 24 08          	mov    %eax,0x8(%esp)
 804d340:	a1 80 28 06 08       	mov    0x8062880,%eax
 804d345:	c7 44 24 0c de bd 05 	movl   $0x805bdde,0xc(%esp)
 804d34c:	08 
 804d34d:	c7 44 24 04 01 00 00 	movl   $0x1,0x4(%esp)
 804d354:	00 
 804d355:	89 04 24             	mov    %eax,(%esp)
 804d358:	e8 ab bf ff ff       	call   8049308 <__fprintf_chk@plt>
 804d35d:	b8 ff ff ff ff       	mov    $0xffffffff,%eax
 804d362:	eb a4                	jmp    804d308 <geteuid@plt+0x3b30>
 804d364:	8d 74 26 00          	lea    0x0(%esi,%eiz,1),%esi
 804d368:	e8 0b bf ff ff       	call   8049278 <__errno_location@plt>
 804d36d:	83 38 02             	cmpl   $0x2,(%eax)
 804d370:	89 c3                	mov    %eax,%ebx
 804d372:	0f 85 e1 00 00 00    	jne    804d459 <geteuid@plt+0x3c81>
 804d378:	c7 04 24 9a bd 05 08 	movl   $0x805bd9a,(%esp)
 804d37f:	e8 3c ac 00 00       	call   8057fc0 <geteuid@plt+0xe7e8>
 804d384:	85 c0                	test   %eax,%eax
 804d386:	89 85 ec fd ff ff    	mov    %eax,-0x214(%ebp)
 804d38c:	74 46                	je     804d3d4 <geteuid@plt+0x3bfc>
 804d38e:	89 04 24             	mov    %eax,(%esp)
 804d391:	e8 b2 be ff ff       	call   8049248 <fileno@plt>
 804d396:	8d 95 00 fe ff ff    	lea    -0x200(%ebp),%edx
 804d39c:	89 54 24 08          	mov    %edx,0x8(%esp)
 804d3a0:	c7 04 24 03 00 00 00 	movl   $0x3,(%esp)
 804d3a7:	89 44 24 04          	mov    %eax,0x4(%esp)
 804d3ab:	e8 48 c3 ff ff       	call   80496f8 <__fxstat@plt>
 804d3b0:	8b 85 10 fe ff ff    	mov    -0x1f0(%ebp),%eax
 804d3b6:	25 00 f0 00 00       	and    $0xf000,%eax
 804d3bb:	3d 00 80 00 00       	cmp    $0x8000,%eax
 804d3c0:	0f 84 0f fb ff ff    	je     804ced5 <geteuid@plt+0x36fd>
 804d3c6:	8b 95 ec fd ff ff    	mov    -0x214(%ebp),%edx
 804d3cc:	89 14 24             	mov    %edx,(%esp)
 804d3cf:	e8 34 c1 ff ff       	call   8049508 <fclose@plt>
 804d3d4:	83 3b 02             	cmpl   $0x2,(%ebx)
 804d3d7:	0f 85 ab 00 00 00    	jne    804d488 <geteuid@plt+0x3cb0>
 804d3dd:	8b 0d 28 29 06 08    	mov    0x8062928,%ecx
 804d3e3:	85 c9                	test   %ecx,%ecx
 804d3e5:	75 0c                	jne    804d3f3 <geteuid@plt+0x3c1b>
 804d3e7:	8b 15 2c 29 06 08    	mov    0x806292c,%edx
 804d3ed:	31 c0                	xor    %eax,%eax
 804d3ef:	85 d2                	test   %edx,%edx
 804d3f1:	74 3a                	je     804d42d <geteuid@plt+0x3c55>
 804d3f3:	c7 04 24 68 b2 05 08 	movl   $0x805b268,(%esp)
 804d3fa:	e8 29 c0 ff ff       	call   8049428 <gettext@plt>
 804d3ff:	c7 44 24 10 a8 bd 05 	movl   $0x805bda8,0x10(%esp)
 804d406:	08 
 804d407:	c7 44 24 0c ac c4 05 	movl   $0x805c4ac,0xc(%esp)
 804d40e:	08 
 804d40f:	c7 44 24 04 01 00 00 	movl   $0x1,0x4(%esp)
 804d416:	00 
 804d417:	89 44 24 08          	mov    %eax,0x8(%esp)
 804d41b:	a1 80 28 06 08       	mov    0x8062880,%eax
 804d420:	89 04 24             	mov    %eax,(%esp)
 804d423:	e8 e0 be ff ff       	call   8049308 <__fprintf_chk@plt>
 804d428:	a1 28 29 06 08       	mov    0x8062928,%eax
 804d42d:	85 c0                	test   %eax,%eax
 804d42f:	0f 95 c0             	setne  %al
 804d432:	0f b6 c0             	movzbl %al,%eax
 804d435:	e9 ce fe ff ff       	jmp    804d308 <geteuid@plt+0x3b30>
 804d43a:	8d b6 00 00 00 00    	lea    0x0(%esi),%esi
 804d440:	c7 04 24 b5 bd 05 08 	movl   $0x805bdb5,(%esp)
 804d447:	e8 dc bf ff ff       	call   8049428 <gettext@plt>
 804d44c:	c7 44 24 10 d4 b4 05 	movl   $0x805b4d4,0x10(%esp)
 804d453:	08 
 804d454:	e9 e3 fe ff ff       	jmp    804d33c <geteuid@plt+0x3b64>
 804d459:	c7 04 24 85 bd 05 08 	movl   $0x805bd85,(%esp)
 804d460:	e8 a3 bf ff ff       	call   8049408 <perror@plt>
 804d465:	b8 ff ff ff ff       	mov    $0xffffffff,%eax
 804d46a:	e9 99 fe ff ff       	jmp    804d308 <geteuid@plt+0x3b30>
 804d46f:	c7 04 24 b5 bd 05 08 	movl   $0x805bdb5,(%esp)
 804d476:	e8 ad bf ff ff       	call   8049428 <gettext@plt>
 804d47b:	c7 44 24 10 cf bd 05 	movl   $0x805bdcf,0x10(%esp)
 804d482:	08 
 804d483:	e9 b4 fe ff ff       	jmp    804d33c <geteuid@plt+0x3b64>
 804d488:	c7 04 24 9a bd 05 08 	movl   $0x805bd9a,(%esp)
 804d48f:	e8 74 bf ff ff       	call   8049408 <perror@plt>
 804d494:	83 c8 ff             	or     $0xffffffff,%eax
 804d497:	e9 6c fe ff ff       	jmp    804d308 <geteuid@plt+0x3b30>
 804d49c:	e8 c7 c1 ff ff       	call   8049668 <__stack_chk_fail@plt>
 804d4a1:	eb 0d                	jmp    804d4b0 <geteuid@plt+0x3cd8>
 804d4a3:	90                   	nop
 804d4a4:	90                   	nop
 804d4a5:	90                   	nop
 804d4a6:	90                   	nop
 804d4a7:	90                   	nop
 804d4a8:	90                   	nop
 804d4a9:	90                   	nop
 804d4aa:	90                   	nop
 804d4ab:	90                   	nop
 804d4ac:	90                   	nop
 804d4ad:	90                   	nop
 804d4ae:	90                   	nop
 804d4af:	90                   	nop
 804d4b0:	55                   	push   %ebp
 804d4b1:	89 e5                	mov    %esp,%ebp
 804d4b3:	83 e4 f0             	and    $0xfffffff0,%esp
 804d4b6:	57                   	push   %edi
 804d4b7:	56                   	push   %esi
 804d4b8:	53                   	push   %ebx
 804d4b9:	81 ec 84 02 00 00    	sub    $0x284,%esp
 804d4bf:	8b 5d 08             	mov    0x8(%ebp),%ebx
 804d4c2:	8b 7d 0c             	mov    0xc(%ebp),%edi
 804d4c5:	8d 74 24 78          	lea    0x78(%esp),%esi
 804d4c9:	65 a1 14 00 00 00    	mov    %gs:0x14,%eax
 804d4cf:	89 84 24 7c 02 00 00 	mov    %eax,0x27c(%esp)
 804d4d6:	31 c0                	xor    %eax,%eax
 804d4d8:	c7 44 24 04 2e f8 05 	movl   $0x805f82e,0x4(%esp)
 804d4df:	08 
 804d4e0:	c7 04 24 06 00 00 00 	movl   $0x6,(%esp)
 804d4e7:	e8 9c c0 ff ff       	call   8049588 <setlocale@plt>
 804d4ec:	c7 44 24 04 2b be 05 	movl   $0x805be2b,0x4(%esp)
 804d4f3:	08 
 804d4f4:	c7 04 24 3d be 05 08 	movl   $0x805be3d,(%esp)
 804d4fb:	e8 e8 be ff ff       	call   80493e8 <bindtextdomain@plt>
 804d500:	c7 04 24 3d be 05 08 	movl   $0x805be3d,(%esp)
 804d507:	e8 cc c1 ff ff       	call   80496d8 <textdomain@plt>
 804d50c:	e8 bf 2a 00 00       	call   804ffd0 <geteuid@plt+0x67f8>
 804d511:	c6 05 80 1f 06 08 00 	movb   $0x0,0x8061f80
 804d518:	89 74 24 10          	mov    %esi,0x10(%esp)
 804d51c:	c7 44 24 0c c0 11 06 	movl   $0x80611c0,0xc(%esp)
 804d523:	08 
 804d524:	c7 44 24 08 65 be 05 	movl   $0x805be65,0x8(%esp)
 804d52b:	08 
 804d52c:	89 7c 24 04          	mov    %edi,0x4(%esp)
 804d530:	89 1c 24             	mov    %ebx,(%esp)
 804d533:	e8 70 bf ff ff       	call   80494a8 <getopt_long@plt>
 804d538:	83 f8 ff             	cmp    $0xffffffff,%eax
 804d53b:	0f 84 4f 02 00 00    	je     804d790 <geteuid@plt+0x3fb8>
 804d541:	83 f8 78             	cmp    $0x78,%eax
 804d544:	77 d2                	ja     804d518 <geteuid@plt+0x3d40>
 804d546:	66 90                	xchg   %ax,%ax
 804d548:	ff 24 85 cc c1 05 08 	jmp    *0x805c1cc(,%eax,4)
 804d54f:	90                   	nop
 804d550:	e8 5b c3 ff ff       	call   80498b0 <geteuid@plt+0xd8>
 804d555:	83 05 ec 28 06 08 01 	addl   $0x1,0x80628ec
 804d55c:	eb ba                	jmp    804d518 <geteuid@plt+0x3d40>
 804d55e:	83 05 e4 28 06 08 01 	addl   $0x1,0x80628e4
 804d565:	eb b1                	jmp    804d518 <geteuid@plt+0x3d40>
 804d567:	83 05 24 29 06 08 01 	addl   $0x1,0x8062924
 804d56e:	eb a8                	jmp    804d518 <geteuid@plt+0x3d40>
 804d570:	83 05 08 29 06 08 01 	addl   $0x1,0x8062908
 804d577:	eb 9f                	jmp    804d518 <geteuid@plt+0x3d40>
 804d579:	83 0d 00 29 06 08 1c 	orl    $0x1c,0x8062900
 804d580:	eb 96                	jmp    804d518 <geteuid@plt+0x3d40>
 804d582:	83 05 f4 28 06 08 01 	addl   $0x1,0x80628f4
 804d589:	eb 8d                	jmp    804d518 <geteuid@plt+0x3d40>
 804d58b:	83 05 e0 28 06 08 01 	addl   $0x1,0x80628e0
 804d592:	eb 84                	jmp    804d518 <geteuid@plt+0x3d40>
 804d594:	83 05 18 29 06 08 01 	addl   $0x1,0x8062918
 804d59b:	e9 78 ff ff ff       	jmp    804d518 <geteuid@plt+0x3d40>
 804d5a0:	83 05 ac 11 06 08 01 	addl   $0x1,0x80611ac
 804d5a7:	e9 6c ff ff ff       	jmp    804d518 <geteuid@plt+0x3d40>
 804d5ac:	83 05 fc 28 06 08 01 	addl   $0x1,0x80628fc
 804d5b3:	e9 60 ff ff ff       	jmp    804d518 <geteuid@plt+0x3d40>
 804d5b8:	83 05 f8 28 06 08 01 	addl   $0x1,0x80628f8
 804d5bf:	e9 54 ff ff ff       	jmp    804d518 <geteuid@plt+0x3d40>
 804d5c4:	83 05 f0 28 06 08 01 	addl   $0x1,0x80628f0
 804d5cb:	e9 48 ff ff ff       	jmp    804d518 <geteuid@plt+0x3d40>
 804d5d0:	83 05 20 29 06 08 01 	addl   $0x1,0x8062920
 804d5d7:	e9 3c ff ff ff       	jmp    804d518 <geteuid@plt+0x3d40>
 804d5dc:	a1 b0 c3 05 08       	mov    0x805c3b0,%eax
 804d5e1:	c7 44 24 04 58 be 05 	movl   $0x805be58,0x4(%esp)
 804d5e8:	08 
 804d5e9:	c7 04 24 01 00 00 00 	movl   $0x1,(%esp)
 804d5f0:	89 44 24 14          	mov    %eax,0x14(%esp)
 804d5f4:	a1 a8 11 06 08       	mov    0x80611a8,%eax
 804d5f9:	89 44 24 10          	mov    %eax,0x10(%esp)
 804d5fd:	a1 a4 11 06 08       	mov    0x80611a4,%eax
 804d602:	89 44 24 0c          	mov    %eax,0xc(%esp)
 804d606:	a1 a0 11 06 08       	mov    0x80611a0,%eax
 804d60b:	89 44 24 08          	mov    %eax,0x8(%esp)
 804d60f:	e8 44 bd ff ff       	call   8049358 <__printf_chk@plt>
 804d614:	c7 04 24 05 00 00 00 	movl   $0x5,(%esp)
 804d61b:	e8 a8 c1 ff ff       	call   80497c8 <exit@plt>
 804d620:	83 0d 00 29 06 08 20 	orl    $0x20,0x8062900
 804d627:	e9 ec fe ff ff       	jmp    804d518 <geteuid@plt+0x3d40>
 804d62c:	83 05 e8 28 06 08 01 	addl   $0x1,0x80628e8
 804d633:	e9 e0 fe ff ff       	jmp    804d518 <geteuid@plt+0x3d40>
 804d638:	81 0d 04 29 06 08 80 	orl    $0x80,0x8062904
 804d63f:	00 00 00 
 804d642:	e9 d1 fe ff ff       	jmp    804d518 <geteuid@plt+0x3d40>
 804d647:	83 0d 04 29 06 08 40 	orl    $0x40,0x8062904
 804d64e:	e9 c5 fe ff ff       	jmp    804d518 <geteuid@plt+0x3d40>
 804d653:	a1 c0 28 06 08       	mov    0x80628c0,%eax
 804d658:	89 04 24             	mov    %eax,(%esp)
 804d65b:	e8 90 1f 00 00       	call   804f5f0 <geteuid@plt+0x5e18>
 804d660:	85 c0                	test   %eax,%eax
 804d662:	0f 84 b0 fe ff ff    	je     804d518 <geteuid@plt+0x3d40>
 804d668:	e9 98 0f 00 00       	jmp    804e605 <geteuid@plt+0x4e2d>
 804d66d:	8d 76 00             	lea    0x0(%esi),%esi
 804d670:	83 0d 00 29 06 08 08 	orl    $0x8,0x8062900
 804d677:	e9 9c fe ff ff       	jmp    804d518 <geteuid@plt+0x3d40>
 804d67c:	c7 04 24 d3 e3 05 08 	movl   $0x805e3d3,(%esp)
 804d683:	e8 68 1f 00 00       	call   804f5f0 <geteuid@plt+0x5e18>
 804d688:	85 c0                	test   %eax,%eax
 804d68a:	0f 84 88 fe ff ff    	je     804d518 <geteuid@plt+0x3d40>
 804d690:	e9 70 0f 00 00       	jmp    804e605 <geteuid@plt+0x4e2d>
 804d695:	8d 76 00             	lea    0x0(%esi),%esi
 804d698:	c7 04 24 11 ba 05 08 	movl   $0x805ba11,(%esp)
 804d69f:	e8 4c 1f 00 00       	call   804f5f0 <geteuid@plt+0x5e18>
 804d6a4:	85 c0                	test   %eax,%eax
 804d6a6:	0f 84 6c fe ff ff    	je     804d518 <geteuid@plt+0x3d40>
 804d6ac:	e9 54 0f 00 00       	jmp    804e605 <geteuid@plt+0x4e2d>
 804d6b1:	8d b4 26 00 00 00 00 	lea    0x0(%esi,%eiz,1),%esi
 804d6b8:	83 0d 00 29 06 08 10 	orl    $0x10,0x8062900
 804d6bf:	90                   	nop
 804d6c0:	e9 53 fe ff ff       	jmp    804d518 <geteuid@plt+0x3d40>
 804d6c5:	83 0d 00 29 06 08 04 	orl    $0x4,0x8062900
 804d6cc:	e9 47 fe ff ff       	jmp    804d518 <geteuid@plt+0x3d40>
 804d6d1:	8b 44 24 78          	mov    0x78(%esp),%eax
 804d6d5:	83 f8 0a             	cmp    $0xa,%eax
 804d6d8:	0f 86 8e 00 00 00    	jbe    804d76c <geteuid@plt+0x3f94>
 804d6de:	c7 04 24 b5 bd 05 08 	movl   $0x805bdb5,(%esp)
 804d6e5:	e8 3e bd ff ff       	call   8049428 <gettext@plt>
 804d6ea:	c7 44 24 10 47 be 05 	movl   $0x805be47,0x10(%esp)
 804d6f1:	08 
 804d6f2:	c7 44 24 0c de bd 05 	movl   $0x805bdde,0xc(%esp)
 804d6f9:	08 
 804d6fa:	c7 44 24 04 01 00 00 	movl   $0x1,0x4(%esp)
 804d701:	00 
 804d702:	89 44 24 08          	mov    %eax,0x8(%esp)
 804d706:	a1 80 28 06 08       	mov    0x8062880,%eax
 804d70b:	89 04 24             	mov    %eax,(%esp)
 804d70e:	e8 f5 bb ff ff       	call   8049308 <__fprintf_chk@plt>
 804d713:	e9 00 fe ff ff       	jmp    804d518 <geteuid@plt+0x3d40>
 804d718:	c7 04 24 d2 bc 05 08 	movl   $0x805bcd2,(%esp)
 804d71f:	e8 cc 1e 00 00       	call   804f5f0 <geteuid@plt+0x5e18>
 804d724:	85 c0                	test   %eax,%eax
 804d726:	0f 84 ec fd ff ff    	je     804d518 <geteuid@plt+0x3d40>
 804d72c:	e9 d4 0e 00 00       	jmp    804e605 <geteuid@plt+0x4e2d>
 804d731:	8d b4 26 00 00 00 00 	lea    0x0(%esi,%eiz,1),%esi
 804d738:	83 05 0c 29 06 08 01 	addl   $0x1,0x806290c
 804d73f:	90                   	nop
 804d740:	e9 d3 fd ff ff       	jmp    804d518 <geteuid@plt+0x3d40>
 804d745:	81 0d 2c 29 06 08 00 	orl    $0x100,0x806292c
 804d74c:	01 00 00 
 804d74f:	e9 c4 fd ff ff       	jmp    804d518 <geteuid@plt+0x3d40>
 804d754:	83 05 14 29 06 08 01 	addl   $0x1,0x8062914
 804d75b:	e9 b8 fd ff ff       	jmp    804d518 <geteuid@plt+0x3d40>
 804d760:	83 05 10 29 06 08 01 	addl   $0x1,0x8062910
 804d767:	e9 ac fd ff ff       	jmp    804d518 <geteuid@plt+0x3d40>
 804d76c:	c1 e0 04             	shl    $0x4,%eax
 804d76f:	8b 80 c0 11 06 08    	mov    0x80611c0(%eax),%eax
 804d775:	89 04 24             	mov    %eax,(%esp)
 804d778:	e8 73 1e 00 00       	call   804f5f0 <geteuid@plt+0x5e18>
 804d77d:	85 c0                	test   %eax,%eax
 804d77f:	0f 84 93 fd ff ff    	je     804d518 <geteuid@plt+0x3d40>
 804d785:	e9 7b 0e 00 00       	jmp    804e605 <geteuid@plt+0x4e2d>
 804d78a:	8d b6 00 00 00 00    	lea    0x0(%esi),%esi
 804d790:	89 c3                	mov    %eax,%ebx
 804d792:	a1 e4 28 06 08       	mov    0x80628e4,%eax
 804d797:	03 05 e0 28 06 08    	add    0x80628e0,%eax
 804d79d:	03 05 e8 28 06 08    	add    0x80628e8,%eax
 804d7a3:	03 05 ec 28 06 08    	add    0x80628ec,%eax
 804d7a9:	83 f8 01             	cmp    $0x1,%eax
 804d7ac:	7e 05                	jle    804d7b3 <geteuid@plt+0x3fdb>
 804d7ae:	e8 fd c0 ff ff       	call   80498b0 <geteuid@plt+0xd8>
 804d7b3:	a1 68 37 06 08       	mov    0x8063768,%eax
 804d7b8:	85 c0                	test   %eax,%eax
 804d7ba:	75 5b                	jne    804d817 <geteuid@plt+0x403f>
 804d7bc:	8b 15 74 37 06 08    	mov    0x8063774,%edx
 804d7c2:	85 d2                	test   %edx,%edx
 804d7c4:	75 51                	jne    804d817 <geteuid@plt+0x403f>
 804d7c6:	83 3d ec 28 06 08 00 	cmpl   $0x0,0x80628ec
 804d7cd:	75 48                	jne    804d817 <geteuid@plt+0x403f>
 804d7cf:	83 3d 10 29 06 08 00 	cmpl   $0x0,0x8062910
 804d7d6:	75 29                	jne    804d801 <geteuid@plt+0x4029>
 804d7d8:	83 3d 14 29 06 08 00 	cmpl   $0x0,0x8062914
 804d7df:	75 16                	jne    804d7f7 <geteuid@plt+0x401f>
 804d7e1:	83 3d 0c 29 06 08 00 	cmpl   $0x0,0x806290c
 804d7e8:	75 0d                	jne    804d7f7 <geteuid@plt+0x401f>
 804d7ea:	83 3d 18 29 06 08 00 	cmpl   $0x0,0x8062918
 804d7f1:	0f 84 ca 0d 00 00    	je     804e5c1 <geteuid@plt+0x4de9>
 804d7f7:	8b 0d 74 37 06 08    	mov    0x8063774,%ecx
 804d7fd:	85 c9                	test   %ecx,%ecx
 804d7ff:	75 28                	jne    804d829 <geteuid@plt+0x4051>
 804d801:	c7 05 74 37 06 08 01 	movl   $0x1,0x8063774
 804d808:	00 00 00 
 804d80b:	c7 05 68 37 06 08 01 	movl   $0x1,0x8063768
 804d812:	00 00 00 
 804d815:	eb 12                	jmp    804d829 <geteuid@plt+0x4051>
 804d817:	8b 3d 10 29 06 08    	mov    0x8062910,%edi
 804d81d:	85 ff                	test   %edi,%edi
 804d81f:	0f 84 1d 03 00 00    	je     804db42 <geteuid@plt+0x436a>
 804d825:	85 c0                	test   %eax,%eax
 804d827:	74 ce                	je     804d7f7 <geteuid@plt+0x401f>
 804d829:	8b 35 14 29 06 08    	mov    0x8062914,%esi
 804d82f:	8b 0d 0c 29 06 08    	mov    0x806290c,%ecx
 804d835:	8b 15 18 29 06 08    	mov    0x8062918,%edx
 804d83b:	a1 70 37 06 08       	mov    0x8063770,%eax
 804d840:	03 05 10 29 06 08    	add    0x8062910,%eax
 804d846:	03 05 6c 37 06 08    	add    0x806376c,%eax
 804d84c:	03 05 54 37 06 08    	add    0x8063754,%eax
 804d852:	03 05 5c 37 06 08    	add    0x806375c,%eax
 804d858:	03 05 c0 2c 06 08    	add    0x8062cc0,%eax
 804d85e:	01 f0                	add    %esi,%eax
 804d860:	01 c8                	add    %ecx,%eax
 804d862:	01 d0                	add    %edx,%eax
 804d864:	8b 15 e8 28 06 08    	mov    0x80628e8,%edx
 804d86a:	a3 28 29 06 08       	mov    %eax,0x8062928
 804d86f:	85 d2                	test   %edx,%edx
 804d871:	0f 85 7f 02 00 00    	jne    804daf6 <geteuid@plt+0x431e>
 804d877:	8b 35 ec 28 06 08    	mov    0x80628ec,%esi
 804d87d:	85 f6                	test   %esi,%esi
 804d87f:	0f 85 a8 0d 00 00    	jne    804e62d <geteuid@plt+0x4e55>
 804d885:	8b 0d e4 28 06 08    	mov    0x80628e4,%ecx
 804d88b:	85 c9                	test   %ecx,%ecx
 804d88d:	0f 85 66 03 00 00    	jne    804dbf9 <geteuid@plt+0x4421>
 804d893:	83 ce ff             	or     $0xffffffff,%esi
 804d896:	83 3d e0 28 06 08 00 	cmpl   $0x0,0x80628e0
 804d89d:	0f 85 0e 03 00 00    	jne    804dbb1 <geteuid@plt+0x43d9>
 804d8a3:	8d 54 24 7c          	lea    0x7c(%esp),%edx
 804d8a7:	89 54 24 3c          	mov    %edx,0x3c(%esp)
 804d8ab:	89 5c 24 4c          	mov    %ebx,0x4c(%esp)
 804d8af:	85 c0                	test   %eax,%eax
 804d8b1:	0f 84 34 05 00 00    	je     804ddeb <geteuid@plt+0x4613>
 804d8b7:	8b 0d 10 29 06 08    	mov    0x8062910,%ecx
 804d8bd:	85 c9                	test   %ecx,%ecx
 804d8bf:	0f 85 26 05 00 00    	jne    804ddeb <geteuid@plt+0x4613>
 804d8c5:	8b 15 14 29 06 08    	mov    0x8062914,%edx
 804d8cb:	85 d2                	test   %edx,%edx
 804d8cd:	0f 85 18 05 00 00    	jne    804ddeb <geteuid@plt+0x4613>
 804d8d3:	83 3d 0c 29 06 08 00 	cmpl   $0x0,0x806290c
 804d8da:	0f 85 0b 05 00 00    	jne    804ddeb <geteuid@plt+0x4613>
 804d8e0:	8b 15 0c 29 06 08    	mov    0x806290c,%edx
 804d8e6:	85 d2                	test   %edx,%edx
 804d8e8:	74 0f                	je     804d8f9 <geteuid@plt+0x4121>
 804d8ea:	e8 41 e1 ff ff       	call   804ba30 <geteuid@plt+0x2258>
 804d8ef:	85 c0                	test   %eax,%eax
 804d8f1:	89 c6                	mov    %eax,%esi
 804d8f3:	0f 85 26 02 00 00    	jne    804db1f <geteuid@plt+0x4347>
 804d8f9:	a1 18 29 06 08       	mov    0x8062918,%eax
 804d8fe:	85 c0                	test   %eax,%eax
 804d900:	0f 85 18 0a 00 00    	jne    804e31e <geteuid@plt+0x4b46>
 804d906:	8b 3d 28 29 06 08    	mov    0x8062928,%edi
 804d90c:	85 ff                	test   %edi,%edi
 804d90e:	74 0a                	je     804d91a <geteuid@plt+0x4142>
 804d910:	8b 1d 70 37 06 08    	mov    0x8063770,%ebx
 804d916:	85 db                	test   %ebx,%ebx
 804d918:	74 1e                	je     804d938 <geteuid@plt+0x4160>
 804d91a:	e8 11 e9 ff ff       	call   804c230 <geteuid@plt+0x2a58>
 804d91f:	e8 4c ee ff ff       	call   804c770 <geteuid@plt+0x2f98>
 804d924:	85 c0                	test   %eax,%eax
 804d926:	89 c6                	mov    %eax,%esi
 804d928:	0f 85 f1 01 00 00    	jne    804db1f <geteuid@plt+0x4347>
 804d92e:	8b 0d 28 29 06 08    	mov    0x8062928,%ecx
 804d934:	85 c9                	test   %ecx,%ecx
 804d936:	74 0a                	je     804d942 <geteuid@plt+0x416a>
 804d938:	8b 15 6c 37 06 08    	mov    0x806376c,%edx
 804d93e:	85 d2                	test   %edx,%edx
 804d940:	74 18                	je     804d95a <geteuid@plt+0x4182>
 804d942:	e8 49 f5 ff ff       	call   804ce90 <geteuid@plt+0x36b8>
 804d947:	85 c0                	test   %eax,%eax
 804d949:	89 c6                	mov    %eax,%esi
 804d94b:	0f 85 ce 01 00 00    	jne    804db1f <geteuid@plt+0x4347>
 804d951:	a1 28 29 06 08       	mov    0x8062928,%eax
 804d956:	85 c0                	test   %eax,%eax
 804d958:	74 0e                	je     804d968 <geteuid@plt+0x4190>
 804d95a:	8b 3d 54 37 06 08    	mov    0x8063754,%edi
 804d960:	85 ff                	test   %edi,%edi
 804d962:	0f 84 d4 05 00 00    	je     804df3c <geteuid@plt+0x4764>
 804d968:	c7 04 24 45 bf 05 08 	movl   $0x805bf45,(%esp)
 804d96f:	e8 4c a6 00 00       	call   8057fc0 <geteuid@plt+0xe7e8>
 804d974:	85 c0                	test   %eax,%eax
 804d976:	89 44 24 58          	mov    %eax,0x58(%esp)
 804d97a:	0f 84 00 0b 00 00    	je     804e480 <geteuid@plt+0x4ca8>
 804d980:	c7 04 24 5c bf 05 08 	movl   $0x805bf5c,(%esp)
 804d987:	be ff ff ff ff       	mov    $0xffffffff,%esi
 804d98c:	e8 97 ba ff ff       	call   8049428 <gettext@plt>
 804d991:	c7 04 24 01 00 00 00 	movl   $0x1,(%esp)
 804d998:	89 44 24 04          	mov    %eax,0x4(%esp)
 804d99c:	e8 b7 b9 ff ff       	call   8049358 <__printf_chk@plt>
 804d9a1:	c7 04 24 20 b6 05 08 	movl   $0x805b620,(%esp)
 804d9a8:	e8 7b ba ff ff       	call   8049428 <gettext@plt>
 804d9ad:	c7 04 24 01 00 00 00 	movl   $0x1,(%esp)
 804d9b4:	89 44 24 04          	mov    %eax,0x4(%esp)
 804d9b8:	e8 9b b9 ff ff       	call   8049358 <__printf_chk@plt>
 804d9bd:	8d 76 00             	lea    0x0(%esi),%esi
 804d9c0:	8b 54 24 58          	mov    0x58(%esp),%edx
 804d9c4:	8d 44 24 7c          	lea    0x7c(%esp),%eax
 804d9c8:	c7 44 24 04 00 01 00 	movl   $0x100,0x4(%esp)
 804d9cf:	00 
 804d9d0:	89 04 24             	mov    %eax,(%esp)
 804d9d3:	89 54 24 08          	mov    %edx,0x8(%esp)
 804d9d7:	e8 cc b9 ff ff       	call   80493a8 <fgets@plt>
 804d9dc:	85 c0                	test   %eax,%eax
 804d9de:	0f 84 40 05 00 00    	je     804df24 <geteuid@plt+0x474c>
 804d9e4:	83 fe ff             	cmp    $0xffffffff,%esi
 804d9e7:	0f 84 4c 03 00 00    	je     804dd39 <geteuid@plt+0x4561>
 804d9ed:	85 f6                	test   %esi,%esi
 804d9ef:	c7 44 24 60 00 00 00 	movl   $0x0,0x60(%esp)
 804d9f6:	00 
 804d9f7:	c7 44 24 74 00 00 00 	movl   $0x0,0x74(%esp)
 804d9fe:	00 
 804d9ff:	0f 84 6e 03 00 00    	je     804dd73 <geteuid@plt+0x459b>
 804da05:	80 7c 24 7c 20       	cmpb   $0x20,0x7c(%esp)
 804da0a:	8d 44 24 7c          	lea    0x7c(%esp),%eax
 804da0e:	74 08                	je     804da18 <geteuid@plt+0x4240>
 804da10:	83 c0 01             	add    $0x1,%eax
 804da13:	80 38 20             	cmpb   $0x20,(%eax)
 804da16:	75 f8                	jne    804da10 <geteuid@plt+0x4238>
 804da18:	8d 50 01             	lea    0x1(%eax),%edx
 804da1b:	89 54 24 5c          	mov    %edx,0x5c(%esp)
 804da1f:	80 78 01 20          	cmpb   $0x20,0x1(%eax)
 804da23:	74 0b                	je     804da30 <geteuid@plt+0x4258>
 804da25:	8d 76 00             	lea    0x0(%esi),%esi
 804da28:	83 c2 01             	add    $0x1,%edx
 804da2b:	80 3a 20             	cmpb   $0x20,(%edx)
 804da2e:	75 f8                	jne    804da28 <geteuid@plt+0x4250>
 804da30:	80 7a 01 20          	cmpb   $0x20,0x1(%edx)
 804da34:	8d 7a 01             	lea    0x1(%edx),%edi
 804da37:	c6 02 00             	movb   $0x0,(%edx)
 804da3a:	89 f8                	mov    %edi,%eax
 804da3c:	74 0a                	je     804da48 <geteuid@plt+0x4270>
 804da3e:	66 90                	xchg   %ax,%ax
 804da40:	83 c0 01             	add    $0x1,%eax
 804da43:	80 38 20             	cmpb   $0x20,(%eax)
 804da46:	75 f8                	jne    804da40 <geteuid@plt+0x4268>
 804da48:	80 78 01 20          	cmpb   $0x20,0x1(%eax)
 804da4c:	8d 58 01             	lea    0x1(%eax),%ebx
 804da4f:	c6 00 00             	movb   $0x0,(%eax)
 804da52:	89 da                	mov    %ebx,%edx
 804da54:	74 0a                	je     804da60 <geteuid@plt+0x4288>
 804da56:	66 90                	xchg   %ax,%ax
 804da58:	83 c2 01             	add    $0x1,%edx
 804da5b:	80 3a 20             	cmpb   $0x20,(%edx)
 804da5e:	75 f8                	jne    804da58 <geteuid@plt+0x4280>
 804da60:	8d 44 24 74          	lea    0x74(%esp),%eax
 804da64:	c6 02 00             	movb   $0x0,(%edx)
 804da67:	83 c2 01             	add    $0x1,%edx
 804da6a:	89 44 24 18          	mov    %eax,0x18(%esp)
 804da6e:	8d 44 24 60          	lea    0x60(%esp),%eax
 804da72:	89 44 24 14          	mov    %eax,0x14(%esp)
 804da76:	8d 44 24 64          	lea    0x64(%esp),%eax
 804da7a:	89 44 24 10          	mov    %eax,0x10(%esp)
 804da7e:	8d 44 24 68          	lea    0x68(%esp),%eax
 804da82:	89 44 24 0c          	mov    %eax,0xc(%esp)
 804da86:	8d 44 24 6c          	lea    0x6c(%esp),%eax
 804da8a:	89 44 24 08          	mov    %eax,0x8(%esp)
 804da8e:	c7 44 24 04 b4 b6 05 	movl   $0x805b6b4,0x4(%esp)
 804da95:	08 
 804da96:	89 14 24             	mov    %edx,(%esp)
 804da99:	e8 4a bc ff ff       	call   80496e8 <sscanf@plt>
 804da9e:	83 f8 05             	cmp    $0x5,%eax
 804daa1:	0f 84 e1 01 00 00    	je     804dc88 <geteuid@plt+0x44b0>
 804daa7:	83 f8 03             	cmp    $0x3,%eax
 804daaa:	0f 84 d8 01 00 00    	je     804dc88 <geteuid@plt+0x44b0>
 804dab0:	c7 04 24 9a bf 05 08 	movl   $0x805bf9a,(%esp)
 804dab7:	e8 6c b9 ff ff       	call   8049428 <gettext@plt>
 804dabc:	c7 44 24 08 45 bf 05 	movl   $0x805bf45,0x8(%esp)
 804dac3:	08 
 804dac4:	c7 04 24 01 00 00 00 	movl   $0x1,(%esp)
 804dacb:	89 44 24 04          	mov    %eax,0x4(%esp)
 804dacf:	e8 84 b8 ff ff       	call   8049358 <__printf_chk@plt>
 804dad4:	e9 e7 fe ff ff       	jmp    804d9c0 <geteuid@plt+0x41e8>
 804dad9:	8d b4 26 00 00 00 00 	lea    0x0(%esi,%eiz,1),%esi
 804dae0:	8b 3d f8 28 06 08    	mov    0x80628f8,%edi
 804dae6:	85 ff                	test   %edi,%edi
 804dae8:	74 33                	je     804db1d <geteuid@plt+0x4345>
 804daea:	c7 04 24 01 00 00 00 	movl   $0x1,(%esp)
 804daf1:	e8 a2 bb ff ff       	call   8049698 <sleep@plt>
 804daf6:	a1 00 29 06 08       	mov    0x8062900,%eax
 804dafb:	8b 15 ac 11 06 08    	mov    0x80611ac,%edx
 804db01:	89 54 24 08          	mov    %edx,0x8(%esp)
 804db05:	89 c2                	mov    %eax,%edx
 804db07:	83 e0 04             	and    $0x4,%eax
 804db0a:	83 e2 08             	and    $0x8,%edx
 804db0d:	89 54 24 04          	mov    %edx,0x4(%esp)
 804db11:	89 04 24             	mov    %eax,(%esp)
 804db14:	e8 07 94 00 00       	call   8056f20 <geteuid@plt+0xd748>
 804db19:	85 c0                	test   %eax,%eax
 804db1b:	74 c3                	je     804dae0 <geteuid@plt+0x4308>
 804db1d:	89 c6                	mov    %eax,%esi
 804db1f:	8b 94 24 7c 02 00 00 	mov    0x27c(%esp),%edx
 804db26:	65 33 15 14 00 00 00 	xor    %gs:0x14,%edx
 804db2d:	89 f0                	mov    %esi,%eax
 804db2f:	0f 85 dc 0a 00 00    	jne    804e611 <geteuid@plt+0x4e39>
 804db35:	81 c4 84 02 00 00    	add    $0x284,%esp
 804db3b:	5b                   	pop    %ebx
 804db3c:	5e                   	pop    %esi
 804db3d:	5f                   	pop    %edi
 804db3e:	89 ec                	mov    %ebp,%esp
 804db40:	5d                   	pop    %ebp
 804db41:	c3                   	ret    
 804db42:	8b 35 14 29 06 08    	mov    0x8062914,%esi
 804db48:	85 f6                	test   %esi,%esi
 804db4a:	0f 85 d5 fc ff ff    	jne    804d825 <geteuid@plt+0x404d>
 804db50:	83 3d 0c 29 06 08 00 	cmpl   $0x0,0x806290c
 804db57:	0f 85 c8 fc ff ff    	jne    804d825 <geteuid@plt+0x404d>
 804db5d:	c7 05 0c 29 06 08 01 	movl   $0x1,0x806290c
 804db64:	00 00 00 
 804db67:	c7 05 14 29 06 08 01 	movl   $0x1,0x8062914
 804db6e:	00 00 00 
 804db71:	c7 05 10 29 06 08 01 	movl   $0x1,0x8062910
 804db78:	00 00 00 
 804db7b:	e9 a5 fc ff ff       	jmp    804d825 <geteuid@plt+0x404d>
 804db80:	a1 14 24 06 08       	mov    0x8062414,%eax
 804db85:	89 04 24             	mov    %eax,(%esp)
 804db88:	e8 7b ba ff ff       	call   8049608 <close@plt>
 804db8d:	c7 05 14 24 06 08 ff 	movl   $0xffffffff,0x8062414
 804db94:	ff ff ff 
 804db97:	8b 1d f8 28 06 08    	mov    0x80628f8,%ebx
 804db9d:	85 db                	test   %ebx,%ebx
 804db9f:	0f 84 15 0a 00 00    	je     804e5ba <geteuid@plt+0x4de2>
 804dba5:	c7 04 24 01 00 00 00 	movl   $0x1,(%esp)
 804dbac:	e8 e7 ba ff ff       	call   8049698 <sleep@plt>
 804dbb1:	8b 3d 14 24 06 08    	mov    0x8062414,%edi
 804dbb7:	85 ff                	test   %edi,%edi
 804dbb9:	0f 88 96 09 00 00    	js     804e555 <geteuid@plt+0x4d7d>
 804dbbf:	83 3d ac 11 06 08 01 	cmpl   $0x1,0x80611ac
 804dbc6:	0f 8e c3 09 00 00    	jle    804e58f <geteuid@plt+0x4db7>
 804dbcc:	c7 44 24 04 f0 28 06 	movl   $0x80628f0,0x4(%esp)
 804dbd3:	08 
 804dbd4:	c7 04 24 90 60 05 08 	movl   $0x8056090,(%esp)
 804dbdb:	e8 90 8c 00 00       	call   8056870 <geteuid@plt+0xd098>
 804dbe0:	85 c0                	test   %eax,%eax
 804dbe2:	0f 88 09 0a 00 00    	js     804e5f1 <geteuid@plt+0x4e19>
 804dbe8:	8b 35 f8 28 06 08    	mov    0x80628f8,%esi
 804dbee:	85 f6                	test   %esi,%esi
 804dbf0:	74 8e                	je     804db80 <geteuid@plt+0x43a8>
 804dbf2:	e8 c9 85 00 00       	call   80561c0 <geteuid@plt+0xc9e8>
 804dbf7:	eb 9e                	jmp    804db97 <geteuid@plt+0x43bf>
 804dbf9:	80 3d 80 1f 06 08 00 	cmpb   $0x0,0x8061f80
 804dc00:	75 11                	jne    804dc13 <geteuid@plt+0x443b>
 804dc02:	c7 05 80 1f 06 08 69 	movl   $0x74656e69,0x8061f80
 804dc09:	6e 65 74 
 804dc0c:	c6 05 84 1f 06 08 00 	movb   $0x0,0x8061f84
 804dc13:	a1 ac 11 06 08       	mov    0x80611ac,%eax
 804dc18:	83 f8 02             	cmp    $0x2,%eax
 804dc1b:	0f 84 ab 09 00 00    	je     804e5cc <geteuid@plt+0x4df4>
 804dc21:	83 f8 01             	cmp    $0x1,%eax
 804dc24:	0f 84 b3 09 00 00    	je     804e5dd <geteuid@plt+0x4e05>
 804dc2a:	83 e0 03             	and    $0x3,%eax
 804dc2d:	8b 15 04 29 06 08    	mov    0x8062904,%edx
 804dc33:	8b 1d 00 29 06 08    	mov    0x8062900,%ebx
 804dc39:	09 d3                	or     %edx,%ebx
 804dc3b:	0b 1d 2c 29 06 08    	or     0x806292c,%ebx
 804dc41:	09 c3                	or     %eax,%ebx
 804dc43:	85 d2                	test   %edx,%edx
 804dc45:	75 23                	jne    804dc6a <geteuid@plt+0x4492>
 804dc47:	80 cb 80             	or     $0x80,%bl
 804dc4a:	eb 1e                	jmp    804dc6a <geteuid@plt+0x4492>
 804dc4c:	8d 74 26 00          	lea    0x0(%esi,%eiz,1),%esi
 804dc50:	8b 15 f8 28 06 08    	mov    0x80628f8,%edx
 804dc56:	85 d2                	test   %edx,%edx
 804dc58:	0f 84 bf fe ff ff    	je     804db1d <geteuid@plt+0x4345>
 804dc5e:	c7 04 24 01 00 00 00 	movl   $0x1,(%esp)
 804dc65:	e8 2e ba ff ff       	call   8049698 <sleep@plt>
 804dc6a:	89 5c 24 04          	mov    %ebx,0x4(%esp)
 804dc6e:	c7 04 24 80 1f 06 08 	movl   $0x8061f80,(%esp)
 804dc75:	e8 a6 23 00 00       	call   8050020 <geteuid@plt+0x6848>
 804dc7a:	85 c0                	test   %eax,%eax
 804dc7c:	74 d2                	je     804dc50 <geteuid@plt+0x4478>
 804dc7e:	e9 9a fe ff ff       	jmp    804db1d <geteuid@plt+0x4345>
 804dc83:	90                   	nop
 804dc84:	8d 74 26 00          	lea    0x0(%esi,%eiz,1),%esi
 804dc88:	0f b6 13             	movzbl (%ebx),%edx
 804dc8b:	80 fa 2c             	cmp    $0x2c,%dl
 804dc8e:	66 90                	xchg   %ax,%ax
 804dc90:	0f 84 9c 00 00 00    	je     804dd32 <geteuid@plt+0x455a>
 804dc96:	84 d2                	test   %dl,%dl
 804dc98:	89 d8                	mov    %ebx,%eax
 804dc9a:	0f 84 92 00 00 00    	je     804dd32 <geteuid@plt+0x455a>
 804dca0:	83 c0 01             	add    $0x1,%eax
 804dca3:	0f b6 10             	movzbl (%eax),%edx
 804dca6:	80 fa 2c             	cmp    $0x2c,%dl
 804dca9:	74 04                	je     804dcaf <geteuid@plt+0x44d7>
 804dcab:	84 d2                	test   %dl,%dl
 804dcad:	75 f1                	jne    804dca0 <geteuid@plt+0x44c8>
 804dcaf:	c6 00 00             	movb   $0x0,(%eax)
 804dcb2:	8b 44 24 68          	mov    0x68(%esp),%eax
 804dcb6:	8b 54 24 74          	mov    0x74(%esp),%edx
 804dcba:	8b 4c 24 60          	mov    0x60(%esp),%ecx
 804dcbe:	89 44 24 54          	mov    %eax,0x54(%esp)
 804dcc2:	8b 44 24 64          	mov    0x64(%esp),%eax
 804dcc6:	89 54 24 48          	mov    %edx,0x48(%esp)
 804dcca:	89 4c 24 44          	mov    %ecx,0x44(%esp)
 804dcce:	89 44 24 50          	mov    %eax,0x50(%esp)
 804dcd2:	8b 44 24 6c          	mov    0x6c(%esp),%eax
 804dcd6:	8b 04 85 f0 c3 05 08 	mov    0x805c3f0(,%eax,4),%eax
 804dcdd:	89 04 24             	mov    %eax,(%esp)
 804dce0:	e8 43 b7 ff ff       	call   8049428 <gettext@plt>
 804dce5:	8b 54 24 48          	mov    0x48(%esp),%edx
 804dce9:	8b 4c 24 44          	mov    0x44(%esp),%ecx
 804dced:	89 7c 24 0c          	mov    %edi,0xc(%esp)
 804dcf1:	89 5c 24 08          	mov    %ebx,0x8(%esp)
 804dcf5:	89 54 24 24          	mov    %edx,0x24(%esp)
 804dcf9:	8b 54 24 54          	mov    0x54(%esp),%edx
 804dcfd:	89 4c 24 20          	mov    %ecx,0x20(%esp)
 804dd01:	89 44 24 14          	mov    %eax,0x14(%esp)
 804dd05:	8b 44 24 5c          	mov    0x5c(%esp),%eax
 804dd09:	c7 44 24 04 00 b7 05 	movl   $0x805b700,0x4(%esp)
 804dd10:	08 
 804dd11:	89 54 24 1c          	mov    %edx,0x1c(%esp)
 804dd15:	8b 54 24 50          	mov    0x50(%esp),%edx
 804dd19:	c7 04 24 01 00 00 00 	movl   $0x1,(%esp)
 804dd20:	89 44 24 10          	mov    %eax,0x10(%esp)
 804dd24:	89 54 24 18          	mov    %edx,0x18(%esp)
 804dd28:	e8 2b b6 ff ff       	call   8049358 <__printf_chk@plt>
 804dd2d:	e9 8e fc ff ff       	jmp    804d9c0 <geteuid@plt+0x41e8>
 804dd32:	89 d8                	mov    %ebx,%eax
 804dd34:	e9 76 ff ff ff       	jmp    804dcaf <geteuid@plt+0x44d7>
 804dd39:	8b 74 24 3c          	mov    0x3c(%esp),%esi
 804dd3d:	bf 72 bf 05 08       	mov    $0x805bf72,%edi
 804dd42:	b9 09 00 00 00       	mov    $0x9,%ecx
 804dd47:	f3 a6                	repz cmpsb %es:(%edi),%ds:(%esi)
 804dd49:	0f 97 c2             	seta   %dl
 804dd4c:	0f 92 c0             	setb   %al
 804dd4f:	31 f6                	xor    %esi,%esi
 804dd51:	38 c2                	cmp    %al,%dl
 804dd53:	0f 84 67 fc ff ff    	je     804d9c0 <geteuid@plt+0x41e8>
 804dd59:	c7 44 24 60 00 00 00 	movl   $0x0,0x60(%esp)
 804dd60:	00 
 804dd61:	be 01 00 00 00       	mov    $0x1,%esi
 804dd66:	c7 44 24 74 00 00 00 	movl   $0x0,0x74(%esp)
 804dd6d:	00 
 804dd6e:	e9 92 fc ff ff       	jmp    804da05 <geteuid@plt+0x422d>
 804dd73:	8d 44 24 74          	lea    0x74(%esp),%eax
 804dd77:	89 44 24 1c          	mov    %eax,0x1c(%esp)
 804dd7b:	8d 44 24 64          	lea    0x64(%esp),%eax
 804dd7f:	8d 54 24 60          	lea    0x60(%esp),%edx
 804dd83:	89 44 24 14          	mov    %eax,0x14(%esp)
 804dd87:	8d 44 24 6c          	lea    0x6c(%esp),%eax
 804dd8b:	89 54 24 18          	mov    %edx,0x18(%esp)
 804dd8f:	8d 9c 24 7c 01 00 00 	lea    0x17c(%esp),%ebx
 804dd96:	8d 54 24 68          	lea    0x68(%esp),%edx
 804dd9a:	89 44 24 0c          	mov    %eax,0xc(%esp)
 804dd9e:	8d 84 24 90 00 00 00 	lea    0x90(%esp),%eax
 804dda5:	c6 84 24 85 00 00 00 	movb   $0x0,0x85(%esp)
 804ddac:	00 
 804ddad:	c6 84 24 8f 00 00 00 	movb   $0x0,0x8f(%esp)
 804ddb4:	00 
 804ddb5:	89 54 24 10          	mov    %edx,0x10(%esp)
 804ddb9:	89 5c 24 08          	mov    %ebx,0x8(%esp)
 804ddbd:	c7 44 24 04 64 b6 05 	movl   $0x805b664,0x4(%esp)
 804ddc4:	08 
 804ddc5:	89 04 24             	mov    %eax,(%esp)
 804ddc8:	e8 1b b9 ff ff       	call   80496e8 <sscanf@plt>
 804ddcd:	83 f8 06             	cmp    $0x6,%eax
 804ddd0:	0f 84 3a 01 00 00    	je     804df10 <geteuid@plt+0x4738>
 804ddd6:	83 f8 04             	cmp    $0x4,%eax
 804ddd9:	0f 84 31 01 00 00    	je     804df10 <geteuid@plt+0x4738>
 804dddf:	c7 04 24 7c bf 05 08 	movl   $0x805bf7c,(%esp)
 804dde6:	e9 cc fc ff ff       	jmp    804dab7 <geteuid@plt+0x42df>
 804ddeb:	e8 40 e4 ff ff       	call   804c230 <geteuid@plt+0x2a58>
 804ddf0:	c7 04 24 cd be 05 08 	movl   $0x805becd,(%esp)
 804ddf7:	e8 2c b6 ff ff       	call   8049428 <gettext@plt>
 804ddfc:	c7 04 24 01 00 00 00 	movl   $0x1,(%esp)
 804de03:	89 44 24 04          	mov    %eax,0x4(%esp)
 804de07:	e8 4c b5 ff ff       	call   8049358 <__printf_chk@plt>
 804de0c:	a1 f0 28 06 08       	mov    0x80628f0,%eax
 804de11:	85 c0                	test   %eax,%eax
 804de13:	0f 85 7f 05 00 00    	jne    804e398 <geteuid@plt+0x4bc0>
 804de19:	8b 3d f4 28 06 08    	mov    0x80628f4,%edi
 804de1f:	85 ff                	test   %edi,%edi
 804de21:	0f 84 d6 04 00 00    	je     804e2fd <geteuid@plt+0x4b25>
 804de27:	c7 04 24 8c bc 05 08 	movl   $0x805bc8c,(%esp)
 804de2e:	e8 f5 b5 ff ff       	call   8049428 <gettext@plt>
 804de33:	c7 04 24 01 00 00 00 	movl   $0x1,(%esp)
 804de3a:	89 44 24 04          	mov    %eax,0x4(%esp)
 804de3e:	e8 15 b5 ff ff       	call   8049358 <__printf_chk@plt>
 804de43:	c7 04 24 9c b5 05 08 	movl   $0x805b59c,(%esp)
 804de4a:	e8 d9 b5 ff ff       	call   8049428 <gettext@plt>
 804de4f:	c7 04 24 01 00 00 00 	movl   $0x1,(%esp)
 804de56:	89 44 24 04          	mov    %eax,0x4(%esp)
 804de5a:	e8 f9 b4 ff ff       	call   8049358 <__printf_chk@plt>
 804de5f:	83 3d ac 11 06 08 01 	cmpl   $0x1,0x80611ac
 804de66:	7e 1c                	jle    804de84 <geteuid@plt+0x46ac>
 804de68:	c7 04 24 ea be 05 08 	movl   $0x805beea,(%esp)
 804de6f:	e8 b4 b5 ff ff       	call   8049428 <gettext@plt>
 804de74:	c7 04 24 01 00 00 00 	movl   $0x1,(%esp)
 804de7b:	89 44 24 04          	mov    %eax,0x4(%esp)
 804de7f:	e8 d4 b4 ff ff       	call   8049358 <__printf_chk@plt>
 804de84:	8b 1d 24 29 06 08    	mov    0x8062924,%ebx
 804de8a:	85 db                	test   %ebx,%ebx
 804de8c:	0f 85 48 05 00 00    	jne    804e3da <geteuid@plt+0x4c02>
 804de92:	8b 0d 08 29 06 08    	mov    0x8062908,%ecx
 804de98:	85 c9                	test   %ecx,%ecx
 804de9a:	0f 85 19 05 00 00    	jne    804e3b9 <geteuid@plt+0x4be1>
 804dea0:	c7 44 24 04 2d f8 05 	movl   $0x805f82d,0x4(%esp)
 804dea7:	08 
 804dea8:	c7 04 24 01 00 00 00 	movl   $0x1,(%esp)
 804deaf:	e8 a4 b4 ff ff       	call   8049358 <__printf_chk@plt>
 804deb4:	8b 15 28 29 06 08    	mov    0x8062928,%edx
 804deba:	85 d2                	test   %edx,%edx
 804debc:	74 09                	je     804dec7 <geteuid@plt+0x46ef>
 804debe:	a1 10 29 06 08       	mov    0x8062910,%eax
 804dec3:	85 c0                	test   %eax,%eax
 804dec5:	74 19                	je     804dee0 <geteuid@plt+0x4708>
 804dec7:	e8 d4 c7 ff ff       	call   804a6a0 <geteuid@plt+0xec8>
 804decc:	85 c0                	test   %eax,%eax
 804dece:	89 c6                	mov    %eax,%esi
 804ded0:	0f 85 49 fc ff ff    	jne    804db1f <geteuid@plt+0x4347>
 804ded6:	8b 3d 28 29 06 08    	mov    0x8062928,%edi
 804dedc:	85 ff                	test   %edi,%edi
 804dede:	74 0e                	je     804deee <geteuid@plt+0x4716>
 804dee0:	8b 1d 14 29 06 08    	mov    0x8062914,%ebx
 804dee6:	85 db                	test   %ebx,%ebx
 804dee8:	0f 84 f2 f9 ff ff    	je     804d8e0 <geteuid@plt+0x4108>
 804deee:	e8 9d d1 ff ff       	call   804b090 <geteuid@plt+0x18b8>
 804def3:	85 c0                	test   %eax,%eax
 804def5:	89 c6                	mov    %eax,%esi
 804def7:	0f 85 22 fc ff ff    	jne    804db1f <geteuid@plt+0x4347>
 804defd:	8b 0d 28 29 06 08    	mov    0x8062928,%ecx
 804df03:	85 c9                	test   %ecx,%ecx
 804df05:	0f 85 d5 f9 ff ff    	jne    804d8e0 <geteuid@plt+0x4108>
 804df0b:	e9 da f9 ff ff       	jmp    804d8ea <geteuid@plt+0x4112>
 804df10:	89 5c 24 5c          	mov    %ebx,0x5c(%esp)
 804df14:	8d bc 24 86 00 00 00 	lea    0x86(%esp),%edi
 804df1b:	8d 5c 24 7c          	lea    0x7c(%esp),%ebx
 804df1f:	e9 8e fd ff ff       	jmp    804dcb2 <geteuid@plt+0x44da>
 804df24:	8b 54 24 58          	mov    0x58(%esp),%edx
 804df28:	31 f6                	xor    %esi,%esi
 804df2a:	89 14 24             	mov    %edx,(%esp)
 804df2d:	e8 d6 b5 ff ff       	call   8049508 <fclose@plt>
 804df32:	8b 1d 28 29 06 08    	mov    0x8062928,%ebx
 804df38:	85 db                	test   %ebx,%ebx
 804df3a:	74 0e                	je     804df4a <geteuid@plt+0x4772>
 804df3c:	8b 0d c0 2c 06 08    	mov    0x8062cc0,%ecx
 804df42:	85 c9                	test   %ecx,%ecx
 804df44:	0f 84 86 01 00 00    	je     804e0d0 <geteuid@plt+0x48f8>
 804df4a:	c7 04 24 b8 bf 05 08 	movl   $0x805bfb8,(%esp)
 804df51:	e8 6a a0 00 00       	call   8057fc0 <geteuid@plt+0xe7e8>
 804df56:	c7 04 24 b8 bf 05 08 	movl   $0x805bfb8,(%esp)
 804df5d:	e8 5e a0 00 00       	call   8057fc0 <geteuid@plt+0xe7e8>
 804df62:	85 c0                	test   %eax,%eax
 804df64:	89 c6                	mov    %eax,%esi
 804df66:	0f 84 ae 01 00 00    	je     804e11a <geteuid@plt+0x4942>
 804df6c:	c7 04 24 cd bf 05 08 	movl   $0x805bfcd,(%esp)
 804df73:	8d 7c 24 68          	lea    0x68(%esp),%edi
 804df77:	e8 ac b4 ff ff       	call   8049428 <gettext@plt>
 804df7c:	c7 04 24 01 00 00 00 	movl   $0x1,(%esp)
 804df83:	89 44 24 04          	mov    %eax,0x4(%esp)
 804df87:	e8 cc b3 ff ff       	call   8049358 <__printf_chk@plt>
 804df8c:	c7 04 24 30 b7 05 08 	movl   $0x805b730,(%esp)
 804df93:	e8 90 b4 ff ff       	call   8049428 <gettext@plt>
 804df98:	c7 04 24 01 00 00 00 	movl   $0x1,(%esp)
 804df9f:	89 44 24 04          	mov    %eax,0x4(%esp)
 804dfa3:	e8 b0 b3 ff ff       	call   8049358 <__printf_chk@plt>
 804dfa8:	8d 44 24 7c          	lea    0x7c(%esp),%eax
 804dfac:	89 74 24 08          	mov    %esi,0x8(%esp)
 804dfb0:	c7 44 24 04 00 01 00 	movl   $0x100,0x4(%esp)
 804dfb7:	00 
 804dfb8:	89 04 24             	mov    %eax,(%esp)
 804dfbb:	e8 e8 b3 ff ff       	call   80493a8 <fgets@plt>
 804dfc0:	8d 44 24 7c          	lea    0x7c(%esp),%eax
 804dfc4:	89 74 24 08          	mov    %esi,0x8(%esp)
 804dfc8:	c7 44 24 04 00 01 00 	movl   $0x100,0x4(%esp)
 804dfcf:	00 
 804dfd0:	89 04 24             	mov    %eax,(%esp)
 804dfd3:	e8 d0 b3 ff ff       	call   80493a8 <fgets@plt>
 804dfd8:	85 c0                	test   %eax,%eax
 804dfda:	0f 84 dd 00 00 00    	je     804e0bd <geteuid@plt+0x48e5>
 804dfe0:	8d 44 24 64          	lea    0x64(%esp),%eax
 804dfe4:	89 44 24 18          	mov    %eax,0x18(%esp)
 804dfe8:	8d 44 24 74          	lea    0x74(%esp),%eax
 804dfec:	8d 54 24 6c          	lea    0x6c(%esp),%edx
 804dff0:	89 44 24 10          	mov    %eax,0x10(%esp)
 804dff4:	8d 44 24 70          	lea    0x70(%esp),%eax
 804dff8:	89 54 24 20          	mov    %edx,0x20(%esp)
 804dffc:	8d 9c 24 7c 01 00 00 	lea    0x17c(%esp),%ebx
 804e003:	8d 54 24 60          	lea    0x60(%esp),%edx
 804e007:	89 44 24 0c          	mov    %eax,0xc(%esp)
 804e00b:	8d 84 24 92 00 00 00 	lea    0x92(%esp),%eax
 804e012:	89 54 24 14          	mov    %edx,0x14(%esp)
 804e016:	c6 84 24 86 00 00 00 	movb   $0x0,0x86(%esp)
 804e01d:	00 
 804e01e:	c6 84 24 90 00 00 00 	movb   $0x0,0x90(%esp)
 804e025:	00 
 804e026:	89 7c 24 1c          	mov    %edi,0x1c(%esp)
 804e02a:	89 5c 24 08          	mov    %ebx,0x8(%esp)
 804e02e:	c7 44 24 04 80 b7 05 	movl   $0x805b780,0x4(%esp)
 804e035:	08 
 804e036:	89 04 24             	mov    %eax,(%esp)
 804e039:	e8 aa b6 ff ff       	call   80496e8 <sscanf@plt>
 804e03e:	8b 15 f0 28 06 08    	mov    0x80628f0,%edx
 804e044:	85 d2                	test   %edx,%edx
 804e046:	75 6f                	jne    804e0b7 <geteuid@plt+0x48df>
 804e048:	8b 44 24 70          	mov    0x70(%esp),%eax
 804e04c:	85 c0                	test   %eax,%eax
 804e04e:	0f 84 6c ff ff ff    	je     804dfc0 <geteuid@plt+0x47e8>
 804e054:	8b 54 24 6c          	mov    0x6c(%esp),%edx
 804e058:	89 44 24 14          	mov    %eax,0x14(%esp)
 804e05c:	8d 84 24 87 00 00 00 	lea    0x87(%esp),%eax
 804e063:	89 5c 24 10          	mov    %ebx,0x10(%esp)
 804e067:	89 44 24 0c          	mov    %eax,0xc(%esp)
 804e06b:	89 54 24 28          	mov    %edx,0x28(%esp)
 804e06f:	8b 54 24 68          	mov    0x68(%esp),%edx
 804e073:	c7 44 24 04 b4 b7 05 	movl   $0x805b7b4,0x4(%esp)
 804e07a:	08 
 804e07b:	c7 04 24 01 00 00 00 	movl   $0x1,(%esp)
 804e082:	89 54 24 24          	mov    %edx,0x24(%esp)
 804e086:	8b 54 24 60          	mov    0x60(%esp),%edx
 804e08a:	89 54 24 20          	mov    %edx,0x20(%esp)
 804e08e:	8b 54 24 64          	mov    0x64(%esp),%edx
 804e092:	89 54 24 1c          	mov    %edx,0x1c(%esp)
 804e096:	8b 54 24 74          	mov    0x74(%esp),%edx
 804e09a:	8b 14 95 04 c4 05 08 	mov    0x805c404(,%edx,4),%edx
 804e0a1:	89 54 24 18          	mov    %edx,0x18(%esp)
 804e0a5:	8d 54 24 7c          	lea    0x7c(%esp),%edx
 804e0a9:	89 54 24 08          	mov    %edx,0x8(%esp)
 804e0ad:	e8 a6 b2 ff ff       	call   8049358 <__printf_chk@plt>
 804e0b2:	e9 09 ff ff ff       	jmp    804dfc0 <geteuid@plt+0x47e8>
 804e0b7:	8b 44 24 70          	mov    0x70(%esp),%eax
 804e0bb:	eb 97                	jmp    804e054 <geteuid@plt+0x487c>
 804e0bd:	89 34 24             	mov    %esi,(%esp)
 804e0c0:	31 f6                	xor    %esi,%esi
 804e0c2:	e8 41 b4 ff ff       	call   8049508 <fclose@plt>
 804e0c7:	a1 28 29 06 08       	mov    0x8062928,%eax
 804e0cc:	85 c0                	test   %eax,%eax
 804e0ce:	74 72                	je     804e142 <geteuid@plt+0x496a>
 804e0d0:	8b 3d 5c 37 06 08    	mov    0x806375c,%edi
 804e0d6:	85 ff                	test   %edi,%edi
 804e0d8:	75 68                	jne    804e142 <geteuid@plt+0x496a>
 804e0da:	85 f6                	test   %esi,%esi
 804e0dc:	0f 85 3d fa ff ff    	jne    804db1f <geteuid@plt+0x4347>
 804e0e2:	8b 1d f8 28 06 08    	mov    0x80628f8,%ebx
 804e0e8:	85 db                	test   %ebx,%ebx
 804e0ea:	0f 84 2f fa ff ff    	je     804db1f <geteuid@plt+0x4347>
 804e0f0:	c7 04 24 01 00 00 00 	movl   $0x1,(%esp)
 804e0f7:	e8 9c b5 ff ff       	call   8049698 <sleep@plt>
 804e0fc:	80 3d 48 29 06 08 02 	cmpb   $0x2,0x8062948
 804e103:	0f 84 f2 02 00 00    	je     804e3fb <geteuid@plt+0x4c23>
 804e109:	c6 05 48 29 06 08 00 	movb   $0x0,0x8062948
 804e110:	a1 28 29 06 08       	mov    0x8062928,%eax
 804e115:	e9 95 f7 ff ff       	jmp    804d8af <geteuid@plt+0x40d7>
 804e11a:	e8 59 b1 ff ff       	call   8049278 <__errno_location@plt>
 804e11f:	83 38 02             	cmpl   $0x2,(%eax)
 804e122:	0f 85 ee 04 00 00    	jne    804e616 <geteuid@plt+0x4e3e>
 804e128:	83 3d 28 29 06 08 00 	cmpl   $0x0,0x8062928
 804e12f:	0f 85 fd 02 00 00    	jne    804e432 <geteuid@plt+0x4c5a>
 804e135:	83 3d 2c 29 06 08 00 	cmpl   $0x0,0x806292c
 804e13c:	0f 85 f0 02 00 00    	jne    804e432 <geteuid@plt+0x4c5a>
 804e142:	c7 04 24 e2 bf 05 08 	movl   $0x805bfe2,(%esp)
 804e149:	e8 72 9e 00 00       	call   8057fc0 <geteuid@plt+0xe7e8>
 804e14e:	85 c0                	test   %eax,%eax
 804e150:	89 c6                	mov    %eax,%esi
 804e152:	0f 84 8f 03 00 00    	je     804e4e7 <geteuid@plt+0x4d0f>
 804e158:	c7 04 24 f9 bf 05 08 	movl   $0x805bff9,(%esp)
 804e15f:	8d 7c 24 6c          	lea    0x6c(%esp),%edi
 804e163:	e8 c0 b2 ff ff       	call   8049428 <gettext@plt>
 804e168:	c7 04 24 01 00 00 00 	movl   $0x1,(%esp)
 804e16f:	89 44 24 04          	mov    %eax,0x4(%esp)
 804e173:	e8 e0 b1 ff ff       	call   8049358 <__printf_chk@plt>
 804e178:	c7 04 24 ec b7 05 08 	movl   $0x805b7ec,(%esp)
 804e17f:	e8 a4 b2 ff ff       	call   8049428 <gettext@plt>
 804e184:	c7 04 24 01 00 00 00 	movl   $0x1,(%esp)
 804e18b:	89 44 24 04          	mov    %eax,0x4(%esp)
 804e18f:	e8 c4 b1 ff ff       	call   8049358 <__printf_chk@plt>
 804e194:	8d 54 24 7c          	lea    0x7c(%esp),%edx
 804e198:	89 74 24 08          	mov    %esi,0x8(%esp)
 804e19c:	c7 44 24 04 00 01 00 	movl   $0x100,0x4(%esp)
 804e1a3:	00 
 804e1a4:	89 14 24             	mov    %edx,(%esp)
 804e1a7:	e8 fc b1 ff ff       	call   80493a8 <fgets@plt>
 804e1ac:	8d 74 26 00          	lea    0x0(%esi,%eiz,1),%esi
 804e1b0:	8d 54 24 7c          	lea    0x7c(%esp),%edx
 804e1b4:	89 74 24 08          	mov    %esi,0x8(%esp)
 804e1b8:	c7 44 24 04 00 01 00 	movl   $0x100,0x4(%esp)
 804e1bf:	00 
 804e1c0:	89 14 24             	mov    %edx,(%esp)
 804e1c3:	e8 e0 b1 ff ff       	call   80493a8 <fgets@plt>
 804e1c8:	85 c0                	test   %eax,%eax
 804e1ca:	0f 84 1e 01 00 00    	je     804e2ee <geteuid@plt+0x4b16>
 804e1d0:	8d 44 24 60          	lea    0x60(%esp),%eax
 804e1d4:	89 44 24 1c          	mov    %eax,0x1c(%esp)
 804e1d8:	8d 54 24 64          	lea    0x64(%esp),%edx
 804e1dc:	8d 44 24 68          	lea    0x68(%esp),%eax
 804e1e0:	89 54 24 18          	mov    %edx,0x18(%esp)
 804e1e4:	8d 9c 24 7c 01 00 00 	lea    0x17c(%esp),%ebx
 804e1eb:	89 44 24 14          	mov    %eax,0x14(%esp)
 804e1ef:	8d 54 24 70          	lea    0x70(%esp),%edx
 804e1f3:	8d 84 24 9a 00 00 00 	lea    0x9a(%esp),%eax
 804e1fa:	c6 84 24 85 00 00 00 	movb   $0x0,0x85(%esp)
 804e201:	00 
 804e202:	c6 84 24 8f 00 00 00 	movb   $0x0,0x8f(%esp)
 804e209:	00 
 804e20a:	c6 84 24 99 00 00 00 	movb   $0x0,0x99(%esp)
 804e211:	00 
 804e212:	89 7c 24 10          	mov    %edi,0x10(%esp)
 804e216:	89 54 24 0c          	mov    %edx,0xc(%esp)
 804e21a:	89 5c 24 08          	mov    %ebx,0x8(%esp)
 804e21e:	c7 44 24 04 3c b8 05 	movl   $0x805b83c,0x4(%esp)
 804e225:	08 
 804e226:	89 04 24             	mov    %eax,(%esp)
 804e229:	e8 ba b4 ff ff       	call   80496e8 <sscanf@plt>
 804e22e:	83 f8 06             	cmp    $0x6,%eax
 804e231:	74 29                	je     804e25c <geteuid@plt+0x4a84>
 804e233:	c7 04 24 7c bf 05 08 	movl   $0x805bf7c,(%esp)
 804e23a:	e8 e9 b1 ff ff       	call   8049428 <gettext@plt>
 804e23f:	c7 44 24 08 e2 bf 05 	movl   $0x805bfe2,0x8(%esp)
 804e246:	08 
 804e247:	c7 04 24 01 00 00 00 	movl   $0x1,(%esp)
 804e24e:	89 44 24 04          	mov    %eax,0x4(%esp)
 804e252:	e8 01 b1 ff ff       	call   8049358 <__printf_chk@plt>
 804e257:	e9 54 ff ff ff       	jmp    804e1b0 <geteuid@plt+0x49d8>
 804e25c:	8b 44 24 6c          	mov    0x6c(%esp),%eax
 804e260:	8b 54 24 60          	mov    0x60(%esp),%edx
 804e264:	8b 4c 24 64          	mov    0x64(%esp),%ecx
 804e268:	89 44 24 5c          	mov    %eax,0x5c(%esp)
 804e26c:	8b 44 24 68          	mov    0x68(%esp),%eax
 804e270:	89 54 24 48          	mov    %edx,0x48(%esp)
 804e274:	89 4c 24 44          	mov    %ecx,0x44(%esp)
 804e278:	89 44 24 58          	mov    %eax,0x58(%esp)
 804e27c:	8b 44 24 70          	mov    0x70(%esp),%eax
 804e280:	8b 04 85 18 c4 05 08 	mov    0x805c418(,%eax,4),%eax
 804e287:	89 04 24             	mov    %eax,(%esp)
 804e28a:	e8 99 b1 ff ff       	call   8049428 <gettext@plt>
 804e28f:	8b 54 24 48          	mov    0x48(%esp),%edx
 804e293:	8b 4c 24 44          	mov    0x44(%esp),%ecx
 804e297:	89 5c 24 14          	mov    %ebx,0x14(%esp)
 804e29b:	c7 44 24 04 94 b8 05 	movl   $0x805b894,0x4(%esp)
 804e2a2:	08 
 804e2a3:	89 54 24 28          	mov    %edx,0x28(%esp)
 804e2a7:	8b 54 24 5c          	mov    0x5c(%esp),%edx
 804e2ab:	89 4c 24 24          	mov    %ecx,0x24(%esp)
 804e2af:	89 44 24 18          	mov    %eax,0x18(%esp)
 804e2b3:	8d 84 24 90 00 00 00 	lea    0x90(%esp),%eax
 804e2ba:	89 44 24 10          	mov    %eax,0x10(%esp)
 804e2be:	8d 84 24 86 00 00 00 	lea    0x86(%esp),%eax
 804e2c5:	89 54 24 20          	mov    %edx,0x20(%esp)
 804e2c9:	8b 54 24 58          	mov    0x58(%esp),%edx
 804e2cd:	89 44 24 0c          	mov    %eax,0xc(%esp)
 804e2d1:	8d 44 24 7c          	lea    0x7c(%esp),%eax
 804e2d5:	89 44 24 08          	mov    %eax,0x8(%esp)
 804e2d9:	c7 04 24 01 00 00 00 	movl   $0x1,(%esp)
 804e2e0:	89 54 24 1c          	mov    %edx,0x1c(%esp)
 804e2e4:	e8 6f b0 ff ff       	call   8049358 <__printf_chk@plt>
 804e2e9:	e9 c2 fe ff ff       	jmp    804e1b0 <geteuid@plt+0x49d8>
 804e2ee:	89 34 24             	mov    %esi,(%esp)
 804e2f1:	e8 12 b2 ff ff       	call   8049508 <fclose@plt>
 804e2f6:	31 f6                	xor    %esi,%esi
 804e2f8:	e9 e5 fd ff ff       	jmp    804e0e2 <geteuid@plt+0x490a>
 804e2fd:	c7 04 24 9b bc 05 08 	movl   $0x805bc9b,(%esp)
 804e304:	e8 1f b1 ff ff       	call   8049428 <gettext@plt>
 804e309:	c7 04 24 01 00 00 00 	movl   $0x1,(%esp)
 804e310:	89 44 24 04          	mov    %eax,0x4(%esp)
 804e314:	e8 3f b0 ff ff       	call   8049358 <__printf_chk@plt>
 804e319:	e9 25 fb ff ff       	jmp    804de43 <geteuid@plt+0x466b>
 804e31e:	c7 44 24 04 09 bf 05 	movl   $0x805bf09,0x4(%esp)
 804e325:	08 
 804e326:	c7 04 24 01 00 00 00 	movl   $0x1,(%esp)
 804e32d:	e8 26 b0 ff ff       	call   8049358 <__printf_chk@plt>
 804e332:	c7 04 24 0f bf 05 08 	movl   $0x805bf0f,(%esp)
 804e339:	e8 ea b0 ff ff       	call   8049428 <gettext@plt>
 804e33e:	c7 04 24 01 00 00 00 	movl   $0x1,(%esp)
 804e345:	89 44 24 04          	mov    %eax,0x4(%esp)
 804e349:	e8 0a b0 ff ff       	call   8049358 <__printf_chk@plt>
 804e34e:	c7 04 24 27 bf 05 08 	movl   $0x805bf27,(%esp)
 804e355:	e8 ce b0 ff ff       	call   8049428 <gettext@plt>
 804e35a:	c7 04 24 01 00 00 00 	movl   $0x1,(%esp)
 804e361:	89 44 24 04          	mov    %eax,0x4(%esp)
 804e365:	e8 ee af ff ff       	call   8049358 <__printf_chk@plt>
 804e36a:	c7 44 24 04 f0 b5 05 	movl   $0x805b5f0,0x4(%esp)
 804e371:	08 
 804e372:	c7 04 24 01 00 00 00 	movl   $0x1,(%esp)
 804e379:	e8 da af ff ff       	call   8049358 <__printf_chk@plt>
 804e37e:	e8 ad db ff ff       	call   804bf30 <geteuid@plt+0x2758>
 804e383:	85 c0                	test   %eax,%eax
 804e385:	89 c6                	mov    %eax,%esi
 804e387:	0f 84 79 f5 ff ff    	je     804d906 <geteuid@plt+0x412e>
 804e38d:	8d 76 00             	lea    0x0(%esi),%esi
 804e390:	e9 8a f7 ff ff       	jmp    804db1f <geteuid@plt+0x4347>
 804e395:	8d 76 00             	lea    0x0(%esi),%esi
 804e398:	c7 04 24 72 bc 05 08 	movl   $0x805bc72,(%esp)
 804e39f:	e8 84 b0 ff ff       	call   8049428 <gettext@plt>
 804e3a4:	c7 04 24 01 00 00 00 	movl   $0x1,(%esp)
 804e3ab:	89 44 24 04          	mov    %eax,0x4(%esp)
 804e3af:	e8 a4 af ff ff       	call   8049358 <__printf_chk@plt>
 804e3b4:	e9 8a fa ff ff       	jmp    804de43 <geteuid@plt+0x466b>
 804e3b9:	c7 04 24 02 bf 05 08 	movl   $0x805bf02,(%esp)
 804e3c0:	e8 63 b0 ff ff       	call   8049428 <gettext@plt>
 804e3c5:	c7 04 24 01 00 00 00 	movl   $0x1,(%esp)
 804e3cc:	89 44 24 04          	mov    %eax,0x4(%esp)
 804e3d0:	e8 83 af ff ff       	call   8049358 <__printf_chk@plt>
 804e3d5:	e9 c6 fa ff ff       	jmp    804dea0 <geteuid@plt+0x46c8>
 804e3da:	c7 04 24 a9 bc 05 08 	movl   $0x805bca9,(%esp)
 804e3e1:	e8 42 b0 ff ff       	call   8049428 <gettext@plt>
 804e3e6:	c7 04 24 01 00 00 00 	movl   $0x1,(%esp)
 804e3ed:	89 44 24 04          	mov    %eax,0x4(%esp)
 804e3f1:	e8 62 af ff ff       	call   8049358 <__printf_chk@plt>
 804e3f6:	e9 97 fa ff ff       	jmp    804de92 <geteuid@plt+0x46ba>
 804e3fb:	bb 60 29 06 08       	mov    $0x8062960,%ebx
 804e400:	b8 ac 2c 06 08       	mov    $0x8062cac,%eax
 804e405:	39 d8                	cmp    %ebx,%eax
 804e407:	77 13                	ja     804e41c <geteuid@plt+0x4c44>
 804e409:	e9 fb fc ff ff       	jmp    804e109 <geteuid@plt+0x4931>
 804e40e:	66 90                	xchg   %ax,%ax
 804e410:	8b 10                	mov    (%eax),%edx
 804e412:	89 13                	mov    %edx,(%ebx)
 804e414:	89 04 24             	mov    %eax,(%esp)
 804e417:	e8 4c b0 ff ff       	call   8049468 <free@plt>
 804e41c:	8b 03                	mov    (%ebx),%eax
 804e41e:	85 c0                	test   %eax,%eax
 804e420:	75 ee                	jne    804e410 <geteuid@plt+0x4c38>
 804e422:	83 c3 04             	add    $0x4,%ebx
 804e425:	81 fb ac 2c 06 08    	cmp    $0x8062cac,%ebx
 804e42b:	75 ef                	jne    804e41c <geteuid@plt+0x4c44>
 804e42d:	e9 d7 fc ff ff       	jmp    804e109 <geteuid@plt+0x4931>
 804e432:	c7 04 24 68 b2 05 08 	movl   $0x805b268,(%esp)
 804e439:	e8 ea af ff ff       	call   8049428 <gettext@plt>
 804e43e:	c7 44 24 10 c6 bf 05 	movl   $0x805bfc6,0x10(%esp)
 804e445:	08 
 804e446:	c7 44 24 0c ac c4 05 	movl   $0x805c4ac,0xc(%esp)
 804e44d:	08 
 804e44e:	c7 44 24 04 01 00 00 	movl   $0x1,0x4(%esp)
 804e455:	00 
 804e456:	89 44 24 08          	mov    %eax,0x8(%esp)
 804e45a:	a1 80 28 06 08       	mov    0x8062880,%eax
 804e45f:	89 04 24             	mov    %eax,(%esp)
 804e462:	e8 a1 ae ff ff       	call   8049308 <__fprintf_chk@plt>
 804e467:	83 3d 28 29 06 08 00 	cmpl   $0x0,0x8062928
 804e46e:	0f 84 ce fc ff ff    	je     804e142 <geteuid@plt+0x496a>
 804e474:	bb 01 00 00 00       	mov    $0x1,%ebx
 804e479:	89 de                	mov    %ebx,%esi
 804e47b:	e9 9f f6 ff ff       	jmp    804db1f <geteuid@plt+0x4347>
 804e480:	e8 f3 ad ff ff       	call   8049278 <__errno_location@plt>
 804e485:	83 38 02             	cmpl   $0x2,(%eax)
 804e488:	0f 85 49 02 00 00    	jne    804e6d7 <geteuid@plt+0x4eff>
 804e48e:	83 3d 28 29 06 08 00 	cmpl   $0x0,0x8062928
 804e495:	75 0d                	jne    804e4a4 <geteuid@plt+0x4ccc>
 804e497:	83 3d 2c 29 06 08 00 	cmpl   $0x0,0x806292c
 804e49e:	0f 84 a6 fa ff ff    	je     804df4a <geteuid@plt+0x4772>
 804e4a4:	c7 04 24 68 b2 05 08 	movl   $0x805b268,(%esp)
 804e4ab:	e8 78 af ff ff       	call   8049428 <gettext@plt>
 804e4b0:	c7 44 24 10 54 bf 05 	movl   $0x805bf54,0x10(%esp)
 804e4b7:	08 
 804e4b8:	c7 44 24 0c ac c4 05 	movl   $0x805c4ac,0xc(%esp)
 804e4bf:	08 
 804e4c0:	c7 44 24 04 01 00 00 	movl   $0x1,0x4(%esp)
 804e4c7:	00 
 804e4c8:	89 44 24 08          	mov    %eax,0x8(%esp)
 804e4cc:	a1 80 28 06 08       	mov    0x8062880,%eax
 804e4d1:	89 04 24             	mov    %eax,(%esp)
 804e4d4:	e8 2f ae ff ff       	call   8049308 <__fprintf_chk@plt>
 804e4d9:	83 3d 28 29 06 08 00 	cmpl   $0x0,0x8062928
 804e4e0:	75 92                	jne    804e474 <geteuid@plt+0x4c9c>
 804e4e2:	e9 63 fa ff ff       	jmp    804df4a <geteuid@plt+0x4772>
 804e4e7:	e8 8c ad ff ff       	call   8049278 <__errno_location@plt>
 804e4ec:	83 38 02             	cmpl   $0x2,(%eax)
 804e4ef:	90                   	nop
 804e4f0:	0f 85 ca 01 00 00    	jne    804e6c0 <geteuid@plt+0x4ee8>
 804e4f6:	83 3d 28 29 06 08 00 	cmpl   $0x0,0x8062928
 804e4fd:	75 0d                	jne    804e50c <geteuid@plt+0x4d34>
 804e4ff:	83 3d 2c 29 06 08 00 	cmpl   $0x0,0x806292c
 804e506:	0f 84 ea fd ff ff    	je     804e2f6 <geteuid@plt+0x4b1e>
 804e50c:	c7 04 24 68 b2 05 08 	movl   $0x805b268,(%esp)
 804e513:	e8 10 af ff ff       	call   8049428 <gettext@plt>
 804e518:	c7 44 24 10 ef bf 05 	movl   $0x805bfef,0x10(%esp)
 804e51f:	08 
 804e520:	c7 44 24 0c ac c4 05 	movl   $0x805c4ac,0xc(%esp)
 804e527:	08 
 804e528:	c7 44 24 04 01 00 00 	movl   $0x1,0x4(%esp)
 804e52f:	00 
 804e530:	89 44 24 08          	mov    %eax,0x8(%esp)
 804e534:	a1 80 28 06 08       	mov    0x8062880,%eax
 804e539:	89 04 24             	mov    %eax,(%esp)
 804e53c:	e8 c7 ad ff ff       	call   8049308 <__fprintf_chk@plt>
 804e541:	83 3d 28 29 06 08 00 	cmpl   $0x0,0x8062928
 804e548:	0f 85 26 ff ff ff    	jne    804e474 <geteuid@plt+0x4c9c>
 804e54e:	31 f6                	xor    %esi,%esi
 804e550:	e9 8d fb ff ff       	jmp    804e0e2 <geteuid@plt+0x490a>
 804e555:	c7 04 24 00 00 00 00 	movl   $0x0,(%esp)
 804e55c:	e8 4f 9f 00 00       	call   80584b0 <geteuid@plt+0xecd8>
 804e561:	85 c0                	test   %eax,%eax
 804e563:	a3 14 24 06 08       	mov    %eax,0x8062414
 804e568:	0f 88 ee 00 00 00    	js     804e65c <geteuid@plt+0x4e84>
 804e56e:	c7 04 24 97 be 05 08 	movl   $0x805be97,(%esp)
 804e575:	e8 ae ae ff ff       	call   8049428 <gettext@plt>
 804e57a:	c7 04 24 01 00 00 00 	movl   $0x1,(%esp)
 804e581:	89 44 24 04          	mov    %eax,0x4(%esp)
 804e585:	e8 ce ad ff ff       	call   8049358 <__printf_chk@plt>
 804e58a:	e9 30 f6 ff ff       	jmp    804dbbf <geteuid@plt+0x43e7>
 804e58f:	c7 04 24 4c b5 05 08 	movl   $0x805b54c,(%esp)
 804e596:	c7 05 78 37 06 08 01 	movl   $0x1,0x8063778
 804e59d:	00 00 00 
 804e5a0:	e8 83 ae ff ff       	call   8049428 <gettext@plt>
 804e5a5:	c7 04 24 01 00 00 00 	movl   $0x1,(%esp)
 804e5ac:	89 44 24 04          	mov    %eax,0x4(%esp)
 804e5b0:	e8 a3 ad ff ff       	call   8049358 <__printf_chk@plt>
 804e5b5:	e9 12 f6 ff ff       	jmp    804dbcc <geteuid@plt+0x43f4>
 804e5ba:	31 f6                	xor    %esi,%esi
 804e5bc:	e9 5e f5 ff ff       	jmp    804db1f <geteuid@plt+0x4347>
 804e5c1:	31 d2                	xor    %edx,%edx
 804e5c3:	31 c9                	xor    %ecx,%ecx
 804e5c5:	31 f6                	xor    %esi,%esi
 804e5c7:	e9 6f f2 ff ff       	jmp    804d83b <geteuid@plt+0x4063>
 804e5cc:	c7 05 ac 11 06 08 01 	movl   $0x1,0x80611ac
 804e5d3:	00 00 00 
 804e5d6:	b0 01                	mov    $0x1,%al
 804e5d8:	e9 50 f6 ff ff       	jmp    804dc2d <geteuid@plt+0x4455>
 804e5dd:	c7 05 ac 11 06 08 02 	movl   $0x2,0x80611ac
 804e5e4:	00 00 00 
 804e5e7:	b8 02 00 00 00       	mov    $0x2,%eax
 804e5ec:	e9 3c f6 ff ff       	jmp    804dc2d <geteuid@plt+0x4455>
 804e5f1:	c7 04 24 af be 05 08 	movl   $0x805beaf,(%esp)
 804e5f8:	e8 2b ae ff ff       	call   8049428 <gettext@plt>
 804e5fd:	89 04 24             	mov    %eax,(%esp)
 804e600:	e8 03 ae ff ff       	call   8049408 <perror@plt>
 804e605:	c7 04 24 01 00 00 00 	movl   $0x1,(%esp)
 804e60c:	e8 b7 b1 ff ff       	call   80497c8 <exit@plt>
 804e611:	e8 52 b0 ff ff       	call   8049668 <__stack_chk_fail@plt>
 804e616:	8b 5c 24 4c          	mov    0x4c(%esp),%ebx
 804e61a:	c7 04 24 b8 bf 05 08 	movl   $0x805bfb8,(%esp)
 804e621:	e8 e2 ad ff ff       	call   8049408 <perror@plt>
 804e626:	89 de                	mov    %ebx,%esi
 804e628:	e9 f2 f4 ff ff       	jmp    804db1f <geteuid@plt+0x4347>
 804e62d:	80 3d 80 1f 06 08 00 	cmpb   $0x0,0x8061f80
 804e634:	75 3e                	jne    804e674 <geteuid@plt+0x4e9c>
 804e636:	e8 b5 01 00 00       	call   804e7f0 <geteuid@plt+0x5018>
 804e63b:	a1 14 29 06 08       	mov    0x8062914,%eax
 804e640:	89 44 24 08          	mov    %eax,0x8(%esp)
 804e644:	a1 10 29 06 08       	mov    0x8062910,%eax
 804e649:	89 44 24 04          	mov    %eax,0x4(%esp)
 804e64d:	a1 0c 29 06 08       	mov    0x806290c,%eax
 804e652:	89 04 24             	mov    %eax,(%esp)
 804e655:	e8 a6 0a 00 00       	call   804f100 <geteuid@plt+0x5928>
 804e65a:	eb a9                	jmp    804e605 <geteuid@plt+0x4e2d>
 804e65c:	c7 04 24 93 bd 05 08 	movl   $0x805bd93,(%esp)
 804e663:	e8 a0 ad ff ff       	call   8049408 <perror@plt>
 804e668:	c7 04 24 01 00 00 00 	movl   $0x1,(%esp)
 804e66f:	e8 54 b1 ff ff       	call   80497c8 <exit@plt>
 804e674:	8d 9c 24 7c 01 00 00 	lea    0x17c(%esp),%ebx
 804e67b:	c7 44 24 08 00 01 00 	movl   $0x100,0x8(%esp)
 804e682:	00 
 804e683:	c7 44 24 04 80 1f 06 	movl   $0x8061f80,0x4(%esp)
 804e68a:	08 
 804e68b:	89 1c 24             	mov    %ebx,(%esp)
 804e68e:	e8 ed a0 00 00       	call   8058780 <geteuid@plt+0xefa8>
 804e693:	c7 44 24 04 2c 00 00 	movl   $0x2c,0x4(%esp)
 804e69a:	00 
 804e69b:	89 1c 24             	mov    %ebx,(%esp)
 804e69e:	e8 95 b0 ff ff       	call   8049738 <index@plt>
 804e6a3:	85 c0                	test   %eax,%eax
 804e6a5:	74 47                	je     804e6ee <geteuid@plt+0x4f16>
 804e6a7:	c7 44 24 04 83 be 05 	movl   $0x805be83,0x4(%esp)
 804e6ae:	08 
 804e6af:	c7 04 24 01 00 00 00 	movl   $0x1,(%esp)
 804e6b6:	e8 9d ac ff ff       	call   8049358 <__printf_chk@plt>
 804e6bb:	e9 45 ff ff ff       	jmp    804e605 <geteuid@plt+0x4e2d>
 804e6c0:	8b 5c 24 4c          	mov    0x4c(%esp),%ebx
 804e6c4:	c7 04 24 e2 bf 05 08 	movl   $0x805bfe2,(%esp)
 804e6cb:	e8 38 ad ff ff       	call   8049408 <perror@plt>
 804e6d0:	89 de                	mov    %ebx,%esi
 804e6d2:	e9 48 f4 ff ff       	jmp    804db1f <geteuid@plt+0x4347>
 804e6d7:	8b 5c 24 4c          	mov    0x4c(%esp),%ebx
 804e6db:	c7 04 24 45 bf 05 08 	movl   $0x805bf45,(%esp)
 804e6e2:	e8 21 ad ff ff       	call   8049408 <perror@plt>
 804e6e7:	89 de                	mov    %ebx,%esi
 804e6e9:	e9 31 f4 ff ff       	jmp    804db1f <geteuid@plt+0x4347>
 804e6ee:	c7 44 24 08 05 00 00 	movl   $0x5,0x8(%esp)
 804e6f5:	00 
 804e6f6:	c7 44 24 04 d3 e3 05 	movl   $0x805e3d3,0x4(%esp)
 804e6fd:	08 
 804e6fe:	89 1c 24             	mov    %ebx,(%esp)
 804e701:	e8 22 b0 ff ff       	call   8049728 <strncmp@plt>
 804e706:	85 c0                	test   %eax,%eax
 804e708:	75 29                	jne    804e733 <geteuid@plt+0x4f5b>
 804e70a:	e8 81 00 00 00       	call   804e790 <geteuid@plt+0x4fb8>
 804e70f:	a1 14 29 06 08       	mov    0x8062914,%eax
 804e714:	89 44 24 08          	mov    %eax,0x8(%esp)
 804e718:	a1 10 29 06 08       	mov    0x8062910,%eax
 804e71d:	89 44 24 04          	mov    %eax,0x4(%esp)
 804e721:	a1 0c 29 06 08       	mov    0x806290c,%eax
 804e726:	89 04 24             	mov    %eax,(%esp)
 804e729:	e8 c2 08 00 00       	call   804eff0 <geteuid@plt+0x5818>
 804e72e:	e9 d2 fe ff ff       	jmp    804e605 <geteuid@plt+0x4e2d>
 804e733:	c7 44 24 04 24 b5 05 	movl   $0x805b524,0x4(%esp)
 804e73a:	08 
 804e73b:	c7 04 24 01 00 00 00 	movl   $0x1,(%esp)
 804e742:	e8 11 ac ff ff       	call   8049358 <__printf_chk@plt>
 804e747:	e9 b9 fe ff ff       	jmp    804e605 <geteuid@plt+0x4e2d>
 804e74c:	90                   	nop
 804e74d:	90                   	nop
 804e74e:	90                   	nop
 804e74f:	90                   	nop
 804e750:	55                   	push   %ebp
 804e751:	89 e5                	mov    %esp,%ebp
 804e753:	8b 4d 08             	mov    0x8(%ebp),%ecx
 804e756:	8b 55 0c             	mov    0xc(%ebp),%edx
 804e759:	0f b6 01             	movzbl (%ecx),%eax
 804e75c:	3c 36                	cmp    $0x36,%al
 804e75e:	74 17                	je     804e777 <geteuid@plt+0x4f9f>
 804e760:	84 c0                	test   %al,%al
 804e762:	74 13                	je     804e777 <geteuid@plt+0x4f9f>
 804e764:	8d 74 26 00          	lea    0x0(%esi,%eiz,1),%esi
 804e768:	83 c1 01             	add    $0x1,%ecx
 804e76b:	88 02                	mov    %al,(%edx)
 804e76d:	0f b6 01             	movzbl (%ecx),%eax
 804e770:	83 c2 01             	add    $0x1,%edx
 804e773:	84 c0                	test   %al,%al
 804e775:	75 09                	jne    804e780 <geteuid@plt+0x4fa8>
 804e777:	88 02                	mov    %al,(%edx)
 804e779:	c6 42 01 00          	movb   $0x0,0x1(%edx)
 804e77d:	5d                   	pop    %ebp
 804e77e:	c3                   	ret    
 804e77f:	90                   	nop
 804e780:	3c 36                	cmp    $0x36,%al
 804e782:	75 e4                	jne    804e768 <geteuid@plt+0x4f90>
 804e784:	88 02                	mov    %al,(%edx)
 804e786:	c6 42 01 00          	movb   $0x0,0x1(%edx)
 804e78a:	5d                   	pop    %ebp
 804e78b:	c3                   	ret    
 804e78c:	8d 74 26 00          	lea    0x0(%esi,%eiz,1),%esi
 804e790:	55                   	push   %ebp
 804e791:	89 e5                	mov    %esp,%ebp
 804e793:	56                   	push   %esi
 804e794:	53                   	push   %ebx
 804e795:	83 ec 10             	sub    $0x10,%esp
 804e798:	8b 15 60 1e 06 08    	mov    0x8061e60,%edx
 804e79e:	85 d2                	test   %edx,%edx
 804e7a0:	74 3e                	je     804e7e0 <geteuid@plt+0x5008>
 804e7a2:	bb 60 1e 06 08       	mov    $0x8061e60,%ebx
 804e7a7:	be ab aa aa aa       	mov    $0xaaaaaaab,%esi
 804e7ac:	8d 74 26 00          	lea    0x0(%esi,%eiz,1),%esi
 804e7b0:	8b 43 08             	mov    0x8(%ebx),%eax
 804e7b3:	c7 44 24 0c 10 e9 04 	movl   $0x804e910,0xc(%esp)
 804e7ba:	08 
 804e7bb:	c7 44 24 08 0c 00 00 	movl   $0xc,0x8(%esp)
 804e7c2:	00 
 804e7c3:	f7 e6                	mul    %esi
 804e7c5:	8b 43 04             	mov    0x4(%ebx),%eax
 804e7c8:	83 c3 10             	add    $0x10,%ebx
 804e7cb:	c1 ea 03             	shr    $0x3,%edx
 804e7ce:	89 04 24             	mov    %eax,(%esp)
 804e7d1:	89 54 24 04          	mov    %edx,0x4(%esp)
 804e7d5:	e8 ee aa ff ff       	call   80492c8 <qsort@plt>
 804e7da:	8b 03                	mov    (%ebx),%eax
 804e7dc:	85 c0                	test   %eax,%eax
 804e7de:	75 d0                	jne    804e7b0 <geteuid@plt+0x4fd8>
 804e7e0:	83 c4 10             	add    $0x10,%esp
 804e7e3:	5b                   	pop    %ebx
 804e7e4:	5e                   	pop    %esi
 804e7e5:	5d                   	pop    %ebp
 804e7e6:	c3                   	ret    
 804e7e7:	89 f6                	mov    %esi,%esi
 804e7e9:	8d bc 27 00 00 00 00 	lea    0x0(%edi,%eiz,1),%edi
 804e7f0:	55                   	push   %ebp
 804e7f1:	89 e5                	mov    %esp,%ebp
 804e7f3:	56                   	push   %esi
 804e7f4:	53                   	push   %ebx
 804e7f5:	83 ec 10             	sub    $0x10,%esp
 804e7f8:	8b 1d 00 1e 06 08    	mov    0x8061e00,%ebx
 804e7fe:	85 db                	test   %ebx,%ebx
 804e800:	74 3e                	je     804e840 <geteuid@plt+0x5068>
 804e802:	bb 00 1e 06 08       	mov    $0x8061e00,%ebx
 804e807:	be ab aa aa aa       	mov    $0xaaaaaaab,%esi
 804e80c:	8d 74 26 00          	lea    0x0(%esi,%eiz,1),%esi
 804e810:	c7 44 24 0c 10 e9 04 	movl   $0x804e910,0xc(%esp)
 804e817:	08 
 804e818:	c7 44 24 08 0c 00 00 	movl   $0xc,0x8(%esp)
 804e81f:	00 
 804e820:	8b 43 08             	mov    0x8(%ebx),%eax
 804e823:	f7 e6                	mul    %esi
 804e825:	c1 ea 03             	shr    $0x3,%edx
 804e828:	89 54 24 04          	mov    %edx,0x4(%esp)
 804e82c:	8b 43 04             	mov    0x4(%ebx),%eax
 804e82f:	83 c3 10             	add    $0x10,%ebx
 804e832:	89 04 24             	mov    %eax,(%esp)
 804e835:	e8 8e aa ff ff       	call   80492c8 <qsort@plt>
 804e83a:	8b 0b                	mov    (%ebx),%ecx
 804e83c:	85 c9                	test   %ecx,%ecx
 804e83e:	75 d0                	jne    804e810 <geteuid@plt+0x5038>
 804e840:	83 c4 10             	add    $0x10,%esp
 804e843:	5b                   	pop    %ebx
 804e844:	5e                   	pop    %esi
 804e845:	5d                   	pop    %ebp
 804e846:	c3                   	ret    
 804e847:	89 f6                	mov    %esi,%esi
 804e849:	8d bc 27 00 00 00 00 	lea    0x0(%edi,%eiz,1),%edi
 804e850:	55                   	push   %ebp
 804e851:	89 e5                	mov    %esp,%ebp
 804e853:	56                   	push   %esi
 804e854:	53                   	push   %ebx
 804e855:	83 ec 10             	sub    $0x10,%esp
 804e858:	8b 5d 08             	mov    0x8(%ebp),%ebx
 804e85b:	8b 75 0c             	mov    0xc(%ebp),%esi
 804e85e:	8b 03                	mov    (%ebx),%eax
 804e860:	85 c0                	test   %eax,%eax
 804e862:	75 0d                	jne    804e871 <geteuid@plt+0x5099>
 804e864:	eb 5a                	jmp    804e8c0 <geteuid@plt+0x50e8>
 804e866:	66 90                	xchg   %ax,%ax
 804e868:	83 c3 10             	add    $0x10,%ebx
 804e86b:	8b 03                	mov    (%ebx),%eax
 804e86d:	85 c0                	test   %eax,%eax
 804e86f:	74 4f                	je     804e8c0 <geteuid@plt+0x50e8>
 804e871:	89 44 24 04          	mov    %eax,0x4(%esp)
 804e875:	89 34 24             	mov    %esi,(%esp)
 804e878:	e8 1b af ff ff       	call   8049798 <strcmp@plt>
 804e87d:	85 c0                	test   %eax,%eax
 804e87f:	75 e7                	jne    804e868 <geteuid@plt+0x5090>
 804e881:	8b 43 0c             	mov    0xc(%ebx),%eax
 804e884:	8b 10                	mov    (%eax),%edx
 804e886:	85 d2                	test   %edx,%edx
 804e888:	74 20                	je     804e8aa <geteuid@plt+0x50d2>
 804e88a:	89 34 24             	mov    %esi,(%esp)
 804e88d:	e8 96 ab ff ff       	call   8049428 <gettext@plt>
 804e892:	c7 44 24 04 2c c4 05 	movl   $0x805c42c,0x4(%esp)
 804e899:	08 
 804e89a:	c7 04 24 01 00 00 00 	movl   $0x1,(%esp)
 804e8a1:	89 44 24 08          	mov    %eax,0x8(%esp)
 804e8a5:	e8 ae aa ff ff       	call   8049358 <__printf_chk@plt>
 804e8aa:	c7 05 bc 2c 06 08 00 	movl   $0x0,0x8062cbc
 804e8b1:	00 00 00 
 804e8b4:	83 c4 10             	add    $0x10,%esp
 804e8b7:	89 d8                	mov    %ebx,%eax
 804e8b9:	5b                   	pop    %ebx
 804e8ba:	5e                   	pop    %esi
 804e8bb:	5d                   	pop    %ebp
 804e8bc:	c3                   	ret    
 804e8bd:	8d 76 00             	lea    0x0(%esi),%esi
 804e8c0:	a1 40 14 06 08       	mov    0x8061440,%eax
 804e8c5:	31 db                	xor    %ebx,%ebx
 804e8c7:	85 c0                	test   %eax,%eax
 804e8c9:	74 e9                	je     804e8b4 <geteuid@plt+0x50dc>
 804e8cb:	89 34 24             	mov    %esi,(%esp)
 804e8ce:	bb ac 2c 06 08       	mov    $0x8062cac,%ebx
 804e8d3:	e8 50 ab ff ff       	call   8049428 <gettext@plt>
 804e8d8:	c7 44 24 04 2c c4 05 	movl   $0x805c42c,0x4(%esp)
 804e8df:	08 
 804e8e0:	c7 04 24 01 00 00 00 	movl   $0x1,(%esp)
 804e8e7:	89 44 24 08          	mov    %eax,0x8(%esp)
 804e8eb:	e8 68 aa ff ff       	call   8049358 <__printf_chk@plt>
 804e8f0:	89 d8                	mov    %ebx,%eax
 804e8f2:	89 35 ac 2c 06 08    	mov    %esi,0x8062cac
 804e8f8:	c7 05 b8 2c 06 08 40 	movl   $0x8061440,0x8062cb8
 804e8ff:	14 06 08 
 804e902:	83 c4 10             	add    $0x10,%esp
 804e905:	5b                   	pop    %ebx
 804e906:	5e                   	pop    %esi
 804e907:	5d                   	pop    %ebp
 804e908:	c3                   	ret    
 804e909:	8d b4 26 00 00 00 00 	lea    0x0(%esi,%eiz,1),%esi
 804e910:	55                   	push   %ebp
 804e911:	89 e5                	mov    %esp,%ebp
 804e913:	83 ec 08             	sub    $0x8,%esp
 804e916:	8b 45 08             	mov    0x8(%ebp),%eax
 804e919:	8b 55 0c             	mov    0xc(%ebp),%edx
 804e91c:	8b 00                	mov    (%eax),%eax
 804e91e:	8b 12                	mov    (%edx),%edx
 804e920:	89 45 08             	mov    %eax,0x8(%ebp)
 804e923:	89 55 0c             	mov    %edx,0xc(%ebp)
 804e926:	c9                   	leave  
 804e927:	e9 6c ae ff ff       	jmp    8049798 <strcmp@plt>
 804e92c:	8d 74 26 00          	lea    0x0(%esi,%eiz,1),%esi
 804e930:	55                   	push   %ebp
 804e931:	89 e5                	mov    %esp,%ebp
 804e933:	81 ec 48 02 00 00    	sub    $0x248,%esp
 804e939:	89 75 f8             	mov    %esi,-0x8(%ebp)
 804e93c:	8b 75 08             	mov    0x8(%ebp),%esi
 804e93f:	89 5d f4             	mov    %ebx,-0xc(%ebp)
 804e942:	8b 5d 0c             	mov    0xc(%ebp),%ebx
 804e945:	89 7d fc             	mov    %edi,-0x4(%ebp)
 804e948:	8b 7d 10             	mov    0x10(%ebp),%edi
 804e94b:	65 a1 14 00 00 00    	mov    %gs:0x14,%eax
 804e951:	89 45 e4             	mov    %eax,-0x1c(%ebp)
 804e954:	31 c0                	xor    %eax,%eax
 804e956:	8b 4e 04             	mov    0x4(%esi),%ecx
 804e959:	89 9d d8 fd ff ff    	mov    %ebx,-0x228(%ebp)
 804e95f:	85 c9                	test   %ecx,%ecx
 804e961:	0f 84 f9 01 00 00    	je     804eb60 <geteuid@plt+0x5388>
 804e967:	c7 44 24 10 10 e9 04 	movl   $0x804e910,0x10(%esp)
 804e96e:	08 
 804e96f:	ba ab aa aa aa       	mov    $0xaaaaaaab,%edx
 804e974:	c7 44 24 0c 0c 00 00 	movl   $0xc,0xc(%esp)
 804e97b:	00 
 804e97c:	8b 46 08             	mov    0x8(%esi),%eax
 804e97f:	89 4c 24 04          	mov    %ecx,0x4(%esp)
 804e983:	f7 e2                	mul    %edx
 804e985:	8d 85 d8 fd ff ff    	lea    -0x228(%ebp),%eax
 804e98b:	89 04 24             	mov    %eax,(%esp)
 804e98e:	c1 ea 03             	shr    $0x3,%edx
 804e991:	89 54 24 08          	mov    %edx,0x8(%esp)
 804e995:	e8 5e a9 ff ff       	call   80492f8 <bsearch@plt>
 804e99a:	85 c0                	test   %eax,%eax
 804e99c:	89 c6                	mov    %eax,%esi
 804e99e:	0f 84 bc 01 00 00    	je     804eb60 <geteuid@plt+0x5388>
 804e9a4:	8b 58 08             	mov    0x8(%eax),%ebx
 804e9a7:	f7 c3 00 00 01 00    	test   $0x10000,%ebx
 804e9ad:	74 14                	je     804e9c3 <geteuid@plt+0x51eb>
 804e9af:	8b 0d 48 37 06 08    	mov    0x8063748,%ecx
 804e9b5:	85 c9                	test   %ecx,%ecx
 804e9b7:	0f 84 ff 00 00 00    	je     804eabc <geteuid@plt+0x52e4>
 804e9bd:	81 e3 ff ff fe ff    	and    $0xfffeffff,%ebx
 804e9c3:	8b 46 04             	mov    0x4(%esi),%eax
 804e9c6:	80 38 00             	cmpb   $0x0,(%eax)
 804e9c9:	0f 84 ed 00 00 00    	je     804eabc <geteuid@plt+0x52e4>
 804e9cf:	f7 c3 00 00 02 00    	test   $0x20000,%ebx
 804e9d5:	74 4d                	je     804ea24 <geteuid@plt+0x524c>
 804e9d7:	81 e3 ff ff fd ff    	and    $0xfffdffff,%ebx
 804e9dd:	3b 1d bc 2c 06 08    	cmp    0x8062cbc,%ebx
 804e9e3:	74 3f                	je     804ea24 <geteuid@plt+0x524c>
 804e9e5:	8b 04 dd 64 14 06 08 	mov    0x8061464(,%ebx,8),%eax
 804e9ec:	89 04 24             	mov    %eax,(%esp)
 804e9ef:	e8 34 aa ff ff       	call   8049428 <gettext@plt>
 804e9f4:	c7 44 24 0c 2e f8 05 	movl   $0x805f82e,0xc(%esp)
 804e9fb:	08 
 804e9fc:	c7 44 24 04 3c c4 05 	movl   $0x805c43c,0x4(%esp)
 804ea03:	08 
 804ea04:	c7 04 24 01 00 00 00 	movl   $0x1,(%esp)
 804ea0b:	89 44 24 10          	mov    %eax,0x10(%esp)
 804ea0f:	a1 bc 2c 06 08       	mov    0x8062cbc,%eax
 804ea14:	8b 04 c5 60 14 06 08 	mov    0x8061460(,%eax,8),%eax
 804ea1b:	89 44 24 08          	mov    %eax,0x8(%esp)
 804ea1f:	e8 34 a9 ff ff       	call   8049358 <__printf_chk@plt>
 804ea24:	83 fb 05             	cmp    $0x5,%ebx
 804ea27:	c6 85 e4 fd ff ff 00 	movb   $0x0,-0x21c(%ebp)
 804ea2e:	0f 86 ac 00 00 00    	jbe    804eae0 <geteuid@plt+0x5308>
 804ea34:	e8 2f a8 ff ff       	call   8049268 <abort@plt>
 804ea39:	8d b4 26 00 00 00 00 	lea    0x0(%esi,%eiz,1),%esi
 804ea40:	85 ff                	test   %edi,%edi
 804ea42:	89 d8                	mov    %ebx,%eax
 804ea44:	7e 71                	jle    804eab7 <geteuid@plt+0x52df>
 804ea46:	8b 46 04             	mov    0x4(%esi),%eax
 804ea49:	8d b5 e4 fd ff ff    	lea    -0x21c(%ebp),%esi
 804ea4f:	89 04 24             	mov    %eax,(%esp)
 804ea52:	e8 d1 a9 ff ff       	call   8049428 <gettext@plt>
 804ea57:	89 7c 24 14          	mov    %edi,0x14(%esp)
 804ea5b:	c7 44 24 0c 00 02 00 	movl   $0x200,0xc(%esp)
 804ea62:	00 
 804ea63:	c7 44 24 08 01 00 00 	movl   $0x1,0x8(%esp)
 804ea6a:	00 
 804ea6b:	c7 44 24 04 00 02 00 	movl   $0x200,0x4(%esp)
 804ea72:	00 
 804ea73:	89 34 24             	mov    %esi,(%esp)
 804ea76:	89 44 24 10          	mov    %eax,0x10(%esp)
 804ea7a:	e8 c9 ac ff ff       	call   8049748 <__snprintf_chk@plt>
 804ea7f:	0f b6 85 e4 fd ff ff 	movzbl -0x21c(%ebp),%eax
 804ea86:	84 c0                	test   %al,%al
 804ea88:	74 2b                	je     804eab5 <geteuid@plt+0x52dd>
 804ea8a:	8b 04 dd 60 14 06 08 	mov    0x8061460(,%ebx,8),%eax
 804ea91:	89 74 24 10          	mov    %esi,0x10(%esp)
 804ea95:	c7 44 24 0c 2e f8 05 	movl   $0x805f82e,0xc(%esp)
 804ea9c:	08 
 804ea9d:	c7 44 24 04 3c c4 05 	movl   $0x805c43c,0x4(%esp)
 804eaa4:	08 
 804eaa5:	89 44 24 08          	mov    %eax,0x8(%esp)
 804eaa9:	c7 04 24 01 00 00 00 	movl   $0x1,(%esp)
 804eab0:	e8 a3 a8 ff ff       	call   8049358 <__printf_chk@plt>
 804eab5:	89 d8                	mov    %ebx,%eax
 804eab7:	a3 bc 2c 06 08       	mov    %eax,0x8062cbc
 804eabc:	8b 45 e4             	mov    -0x1c(%ebp),%eax
 804eabf:	65 33 05 14 00 00 00 	xor    %gs:0x14,%eax
 804eac6:	0f 85 ef 00 00 00    	jne    804ebbb <geteuid@plt+0x53e3>
 804eacc:	8b 5d f4             	mov    -0xc(%ebp),%ebx
 804eacf:	8b 75 f8             	mov    -0x8(%ebp),%esi
 804ead2:	8b 7d fc             	mov    -0x4(%ebp),%edi
 804ead5:	89 ec                	mov    %ebp,%esp
 804ead7:	5d                   	pop    %ebp
 804ead8:	c3                   	ret    
 804ead9:	8d b4 26 00 00 00 00 	lea    0x0(%esi,%eiz,1),%esi
 804eae0:	ff 24 9d c8 d5 05 08 	jmp    *0x805d5c8(,%ebx,4)
 804eae7:	90                   	nop
 804eae8:	85 ff                	test   %edi,%edi
 804eaea:	b8 01 00 00 00       	mov    $0x1,%eax
 804eaef:	74 c6                	je     804eab7 <geteuid@plt+0x52df>
 804eaf1:	8d b4 26 00 00 00 00 	lea    0x0(%esi,%eiz,1),%esi
 804eaf8:	e9 49 ff ff ff       	jmp    804ea46 <geteuid@plt+0x526e>
 804eafd:	8d 76 00             	lea    0x0(%esi),%esi
 804eb00:	83 ff 02             	cmp    $0x2,%edi
 804eb03:	0f 84 9f 00 00 00    	je     804eba8 <geteuid@plt+0x53d0>
 804eb09:	c7 04 24 4b c4 05 08 	movl   $0x805c44b,(%esp)
 804eb10:	e8 13 a9 ff ff       	call   8049428 <gettext@plt>
 804eb15:	89 c3                	mov    %eax,%ebx
 804eb17:	8b 46 04             	mov    0x4(%esi),%eax
 804eb1a:	8d b5 e4 fd ff ff    	lea    -0x21c(%ebp),%esi
 804eb20:	89 04 24             	mov    %eax,(%esp)
 804eb23:	e8 00 a9 ff ff       	call   8049428 <gettext@plt>
 804eb28:	89 5c 24 14          	mov    %ebx,0x14(%esp)
 804eb2c:	31 db                	xor    %ebx,%ebx
 804eb2e:	c7 44 24 0c 00 02 00 	movl   $0x200,0xc(%esp)
 804eb35:	00 
 804eb36:	c7 44 24 08 01 00 00 	movl   $0x1,0x8(%esp)
 804eb3d:	00 
 804eb3e:	c7 44 24 04 00 02 00 	movl   $0x200,0x4(%esp)
 804eb45:	00 
 804eb46:	89 34 24             	mov    %esi,(%esp)
 804eb49:	89 44 24 10          	mov    %eax,0x10(%esp)
 804eb4d:	e8 f6 ab ff ff       	call   8049748 <__snprintf_chk@plt>
 804eb52:	0f b6 85 e4 fd ff ff 	movzbl -0x21c(%ebp),%eax
 804eb59:	e9 28 ff ff ff       	jmp    804ea86 <geteuid@plt+0x52ae>
 804eb5e:	66 90                	xchg   %ax,%ax
 804eb60:	85 ff                	test   %edi,%edi
 804eb62:	0f 84 54 ff ff ff    	je     804eabc <geteuid@plt+0x52e4>
 804eb68:	a1 bc 2c 06 08       	mov    0x8062cbc,%eax
 804eb6d:	89 7c 24 14          	mov    %edi,0x14(%esp)
 804eb71:	89 5c 24 10          	mov    %ebx,0x10(%esp)
 804eb75:	c7 44 24 0c 2e f8 05 	movl   $0x805f82e,0xc(%esp)
 804eb7c:	08 
 804eb7d:	8b 04 c5 60 14 06 08 	mov    0x8061460(,%eax,8),%eax
 804eb84:	c7 44 24 04 31 c4 05 	movl   $0x805c431,0x4(%esp)
 804eb8b:	08 
 804eb8c:	c7 04 24 01 00 00 00 	movl   $0x1,(%esp)
 804eb93:	89 44 24 08          	mov    %eax,0x8(%esp)
 804eb97:	e8 bc a7 ff ff       	call   8049358 <__printf_chk@plt>
 804eb9c:	e9 1b ff ff ff       	jmp    804eabc <geteuid@plt+0x52e4>
 804eba1:	8d b4 26 00 00 00 00 	lea    0x0(%esi,%eiz,1),%esi
 804eba8:	c7 04 24 43 c4 05 08 	movl   $0x805c443,(%esp)
 804ebaf:	e8 74 a8 ff ff       	call   8049428 <gettext@plt>
 804ebb4:	89 c3                	mov    %eax,%ebx
 804ebb6:	e9 5c ff ff ff       	jmp    804eb17 <geteuid@plt+0x533f>
 804ebbb:	e8 a8 aa ff ff       	call   8049668 <__stack_chk_fail@plt>
 804ebc0:	55                   	push   %ebp
 804ebc1:	89 e5                	mov    %esp,%ebp
 804ebc3:	57                   	push   %edi
 804ebc4:	56                   	push   %esi
 804ebc5:	53                   	push   %ebx
 804ebc6:	81 ec 6c 08 00 00    	sub    $0x86c,%esp
 804ebcc:	8b 45 08             	mov    0x8(%ebp),%eax
 804ebcf:	8d bd b2 fb ff ff    	lea    -0x44e(%ebp),%edi
 804ebd5:	c7 85 a4 f7 ff ff 00 	movl   $0x0,-0x85c(%ebp)
 804ebdc:	00 00 00 
 804ebdf:	8d 5d b2             	lea    -0x4e(%ebp),%ebx
 804ebe2:	c7 85 a0 f7 ff ff 00 	movl   $0x0,-0x860(%ebp)
 804ebe9:	00 00 00 
 804ebec:	8d b5 b2 f7 ff ff    	lea    -0x84e(%ebp),%esi
 804ebf2:	89 85 9c f7 ff ff    	mov    %eax,-0x864(%ebp)
 804ebf8:	65 a1 14 00 00 00    	mov    %gs:0x14,%eax
 804ebfe:	89 45 e4             	mov    %eax,-0x1c(%ebp)
 804ec01:	31 c0                	xor    %eax,%eax
 804ec03:	90                   	nop
 804ec04:	8d 74 26 00          	lea    0x0(%esi,%eiz,1),%esi
 804ec08:	8b 85 9c f7 ff ff    	mov    -0x864(%ebp),%eax
 804ec0e:	c7 44 24 04 00 04 00 	movl   $0x400,0x4(%esp)
 804ec15:	00 
 804ec16:	89 3c 24             	mov    %edi,(%esp)
 804ec19:	89 44 24 08          	mov    %eax,0x8(%esp)
 804ec1d:	e8 86 a7 ff ff       	call   80493a8 <fgets@plt>
 804ec22:	85 c0                	test   %eax,%eax
 804ec24:	0f 84 0e 01 00 00    	je     804ed38 <geteuid@plt+0x5560>
 804ec2a:	8d 85 ac f7 ff ff    	lea    -0x854(%ebp),%eax
 804ec30:	89 44 24 0c          	mov    %eax,0xc(%esp)
 804ec34:	89 5c 24 08          	mov    %ebx,0x8(%esp)
 804ec38:	c7 44 24 04 54 c4 05 	movl   $0x805c454,0x4(%esp)
 804ec3f:	08 
 804ec40:	89 3c 24             	mov    %edi,(%esp)
 804ec43:	e8 a0 aa ff ff       	call   80496e8 <sscanf@plt>
 804ec48:	8b 85 a4 f7 ff ff    	mov    -0x85c(%ebp),%eax
 804ec4e:	85 c0                	test   %eax,%eax
 804ec50:	75 49                	jne    804ec9b <geteuid@plt+0x54c3>
 804ec52:	0f b6 45 b2          	movzbl -0x4e(%ebp),%eax
 804ec56:	3c 36                	cmp    $0x36,%al
 804ec58:	0f 84 fa 00 00 00    	je     804ed58 <geteuid@plt+0x5580>
 804ec5e:	84 c0                	test   %al,%al
 804ec60:	89 f2                	mov    %esi,%edx
 804ec62:	89 d9                	mov    %ebx,%ecx
 804ec64:	0f 84 ee 00 00 00    	je     804ed58 <geteuid@plt+0x5580>
 804ec6a:	8d b6 00 00 00 00    	lea    0x0(%esi),%esi
 804ec70:	83 c1 01             	add    $0x1,%ecx
 804ec73:	88 02                	mov    %al,(%edx)
 804ec75:	0f b6 01             	movzbl (%ecx),%eax
 804ec78:	83 c2 01             	add    $0x1,%edx
 804ec7b:	84 c0                	test   %al,%al
 804ec7d:	75 59                	jne    804ecd8 <geteuid@plt+0x5500>
 804ec7f:	88 02                	mov    %al,(%edx)
 804ec81:	c6 42 01 00          	movb   $0x0,0x1(%edx)
 804ec85:	89 74 24 04          	mov    %esi,0x4(%esp)
 804ec89:	c7 04 24 60 1e 06 08 	movl   $0x8061e60,(%esp)
 804ec90:	e8 bb fb ff ff       	call   804e850 <geteuid@plt+0x5078>
 804ec95:	89 85 a0 f7 ff ff    	mov    %eax,-0x860(%ebp)
 804ec9b:	89 74 24 04          	mov    %esi,0x4(%esp)
 804ec9f:	89 1c 24             	mov    %ebx,(%esp)
 804eca2:	e8 91 a9 ff ff       	call   8049638 <strstr@plt>
 804eca7:	85 c0                	test   %eax,%eax
 804eca9:	74 3d                	je     804ece8 <geteuid@plt+0x5510>
 804ecab:	8b 85 ac f7 ff ff    	mov    -0x854(%ebp),%eax
 804ecb1:	89 5c 24 04          	mov    %ebx,0x4(%esp)
 804ecb5:	89 44 24 08          	mov    %eax,0x8(%esp)
 804ecb9:	8b 85 a0 f7 ff ff    	mov    -0x860(%ebp),%eax
 804ecbf:	89 04 24             	mov    %eax,(%esp)
 804ecc2:	e8 69 fc ff ff       	call   804e930 <geteuid@plt+0x5158>
 804ecc7:	c7 85 a4 f7 ff ff 01 	movl   $0x1,-0x85c(%ebp)
 804ecce:	00 00 00 
 804ecd1:	e9 32 ff ff ff       	jmp    804ec08 <geteuid@plt+0x5430>
 804ecd6:	66 90                	xchg   %ax,%ax
 804ecd8:	3c 36                	cmp    $0x36,%al
 804ecda:	75 94                	jne    804ec70 <geteuid@plt+0x5498>
 804ecdc:	8d 74 26 00          	lea    0x0(%esi,%eiz,1),%esi
 804ece0:	eb 9d                	jmp    804ec7f <geteuid@plt+0x54a7>
 804ece2:	8d b6 00 00 00 00    	lea    0x0(%esi),%esi
 804ece8:	0f b6 45 b2          	movzbl -0x4e(%ebp),%eax
 804ecec:	84 c0                	test   %al,%al
 804ecee:	66 90                	xchg   %ax,%ax
 804ecf0:	74 6e                	je     804ed60 <geteuid@plt+0x5588>
 804ecf2:	3c 36                	cmp    $0x36,%al
 804ecf4:	89 f2                	mov    %esi,%edx
 804ecf6:	89 d9                	mov    %ebx,%ecx
 804ecf8:	74 66                	je     804ed60 <geteuid@plt+0x5588>
 804ecfa:	8d b6 00 00 00 00    	lea    0x0(%esi),%esi
 804ed00:	83 c1 01             	add    $0x1,%ecx
 804ed03:	88 02                	mov    %al,(%edx)
 804ed05:	0f b6 01             	movzbl (%ecx),%eax
 804ed08:	83 c2 01             	add    $0x1,%edx
 804ed0b:	84 c0                	test   %al,%al
 804ed0d:	75 21                	jne    804ed30 <geteuid@plt+0x5558>
 804ed0f:	88 02                	mov    %al,(%edx)
 804ed11:	c6 42 01 00          	movb   $0x0,0x1(%edx)
 804ed15:	89 74 24 04          	mov    %esi,0x4(%esp)
 804ed19:	c7 04 24 60 1e 06 08 	movl   $0x8061e60,(%esp)
 804ed20:	e8 2b fb ff ff       	call   804e850 <geteuid@plt+0x5078>
 804ed25:	89 85 a0 f7 ff ff    	mov    %eax,-0x860(%ebp)
 804ed2b:	e9 7b ff ff ff       	jmp    804ecab <geteuid@plt+0x54d3>
 804ed30:	3c 36                	cmp    $0x36,%al
 804ed32:	75 cc                	jne    804ed00 <geteuid@plt+0x5528>
 804ed34:	eb d9                	jmp    804ed0f <geteuid@plt+0x5537>
 804ed36:	66 90                	xchg   %ax,%ax
 804ed38:	8b 45 e4             	mov    -0x1c(%ebp),%eax
 804ed3b:	65 33 05 14 00 00 00 	xor    %gs:0x14,%eax
 804ed42:	8d b6 00 00 00 00    	lea    0x0(%esi),%esi
 804ed48:	75 1a                	jne    804ed64 <geteuid@plt+0x558c>
 804ed4a:	81 c4 6c 08 00 00    	add    $0x86c,%esp
 804ed50:	5b                   	pop    %ebx
 804ed51:	5e                   	pop    %esi
 804ed52:	5f                   	pop    %edi
 804ed53:	5d                   	pop    %ebp
 804ed54:	c3                   	ret    
 804ed55:	8d 76 00             	lea    0x0(%esi),%esi
 804ed58:	89 f2                	mov    %esi,%edx
 804ed5a:	e9 20 ff ff ff       	jmp    804ec7f <geteuid@plt+0x54a7>
 804ed5f:	90                   	nop
 804ed60:	89 f2                	mov    %esi,%edx
 804ed62:	eb ab                	jmp    804ed0f <geteuid@plt+0x5537>
 804ed64:	8d 74 26 00          	lea    0x0(%esi,%eiz,1),%esi
 804ed68:	e8 fb a8 ff ff       	call   8049668 <__stack_chk_fail@plt>
 804ed6d:	8d 76 00             	lea    0x0(%esi),%esi
 804ed70:	55                   	push   %ebp
 804ed71:	89 e5                	mov    %esp,%ebp
 804ed73:	57                   	push   %edi
 804ed74:	56                   	push   %esi
 804ed75:	53                   	push   %ebx
 804ed76:	81 ec 3c 10 00 00    	sub    $0x103c,%esp
 804ed7c:	8b 45 08             	mov    0x8(%ebp),%eax
 804ed7f:	8b 55 10             	mov    0x10(%ebp),%edx
 804ed82:	89 85 d4 ef ff ff    	mov    %eax,-0x102c(%ebp)
 804ed88:	65 a1 14 00 00 00    	mov    %gs:0x14,%eax
 804ed8e:	89 45 e4             	mov    %eax,-0x1c(%ebp)
 804ed91:	31 c0                	xor    %eax,%eax
 804ed93:	89 95 d0 ef ff ff    	mov    %edx,-0x1030(%ebp)
 804ed99:	8d b4 26 00 00 00 00 	lea    0x0(%esi,%eiz,1),%esi
 804eda0:	8b 95 d4 ef ff ff    	mov    -0x102c(%ebp),%edx
 804eda6:	8d 85 e4 f7 ff ff    	lea    -0x81c(%ebp),%eax
 804edac:	c7 44 24 04 00 08 00 	movl   $0x800,0x4(%esp)
 804edb3:	00 
 804edb4:	89 04 24             	mov    %eax,(%esp)
 804edb7:	89 54 24 08          	mov    %edx,0x8(%esp)
 804edbb:	e8 e8 a5 ff ff       	call   80493a8 <fgets@plt>
 804edc0:	85 c0                	test   %eax,%eax
 804edc2:	0f 84 d4 01 00 00    	je     804ef9c <geteuid@plt+0x57c4>
 804edc8:	80 bd e4 f7 ff ff 0a 	cmpb   $0xa,-0x81c(%ebp)
 804edcf:	74 cf                	je     804eda0 <geteuid@plt+0x55c8>
 804edd1:	8b 95 d4 ef ff ff    	mov    -0x102c(%ebp),%edx
 804edd7:	8d 85 e4 ef ff ff    	lea    -0x101c(%ebp),%eax
 804eddd:	c7 44 24 04 00 08 00 	movl   $0x800,0x4(%esp)
 804ede4:	00 
 804ede5:	89 04 24             	mov    %eax,(%esp)
 804ede8:	89 54 24 08          	mov    %edx,0x8(%esp)
 804edec:	e8 b7 a5 ff ff       	call   80493a8 <fgets@plt>
 804edf1:	85 c0                	test   %eax,%eax
 804edf3:	0f 84 a3 01 00 00    	je     804ef9c <geteuid@plt+0x57c4>
 804edf9:	8d 95 e4 f7 ff ff    	lea    -0x81c(%ebp),%edx
 804edff:	89 14 24             	mov    %edx,(%esp)
 804ee02:	c7 44 24 04 3a 00 00 	movl   $0x3a,0x4(%esp)
 804ee09:	00 
 804ee0a:	e8 69 a5 ff ff       	call   8049378 <strchr@plt>
 804ee0f:	c7 44 24 04 3a 00 00 	movl   $0x3a,0x4(%esp)
 804ee16:	00 
 804ee17:	89 c3                	mov    %eax,%ebx
 804ee19:	8d 85 e4 ef ff ff    	lea    -0x101c(%ebp),%eax
 804ee1f:	89 04 24             	mov    %eax,(%esp)
 804ee22:	e8 51 a5 ff ff       	call   8049378 <strchr@plt>
 804ee27:	85 db                	test   %ebx,%ebx
 804ee29:	0f 84 a9 01 00 00    	je     804efd8 <geteuid@plt+0x5800>
 804ee2f:	85 c0                	test   %eax,%eax
 804ee31:	0f 84 a1 01 00 00    	je     804efd8 <geteuid@plt+0x5800>
 804ee37:	89 85 e0 ef ff ff    	mov    %eax,-0x1020(%ebp)
 804ee3d:	c6 03 00             	movb   $0x0,(%ebx)
 804ee40:	8b 75 0c             	mov    0xc(%ebp),%esi
 804ee43:	85 f6                	test   %esi,%esi
 804ee45:	75 32                	jne    804ee79 <geteuid@plt+0x56a1>
 804ee47:	8b 95 d0 ef ff ff    	mov    -0x1030(%ebp),%edx
 804ee4d:	89 14 24             	mov    %edx,(%esp)
 804ee50:	e8 f3 a6 ff ff       	call   8049548 <strlen@plt>
 804ee55:	8d 95 e4 f7 ff ff    	lea    -0x81c(%ebp),%edx
 804ee5b:	89 14 24             	mov    %edx,(%esp)
 804ee5e:	89 44 24 08          	mov    %eax,0x8(%esp)
 804ee62:	8b 85 d0 ef ff ff    	mov    -0x1030(%ebp),%eax
 804ee68:	89 44 24 04          	mov    %eax,0x4(%esp)
 804ee6c:	e8 b7 a8 ff ff       	call   8049728 <strncmp@plt>
 804ee71:	85 c0                	test   %eax,%eax
 804ee73:	0f 85 27 ff ff ff    	jne    804eda0 <geteuid@plt+0x55c8>
 804ee79:	8d 85 e4 f7 ff ff    	lea    -0x81c(%ebp),%eax
 804ee7f:	89 44 24 04          	mov    %eax,0x4(%esp)
 804ee83:	c7 04 24 00 1e 06 08 	movl   $0x8061e00,(%esp)
 804ee8a:	e8 c1 f9 ff ff       	call   804e850 <geteuid@plt+0x5078>
 804ee8f:	85 c0                	test   %eax,%eax
 804ee91:	89 c2                	mov    %eax,%edx
 804ee93:	0f 84 1c 01 00 00    	je     804efb5 <geteuid@plt+0x57dd>
 804ee99:	8b 85 e0 ef ff ff    	mov    -0x1020(%ebp),%eax
 804ee9f:	83 c3 01             	add    $0x1,%ebx
 804eea2:	83 c0 01             	add    $0x1,%eax
 804eea5:	89 85 e0 ef ff ff    	mov    %eax,-0x1020(%ebp)
 804eeab:	eb 06                	jmp    804eeb3 <geteuid@plt+0x56db>
 804eead:	8d 76 00             	lea    0x0(%esi),%esi
 804eeb0:	83 c3 01             	add    $0x1,%ebx
 804eeb3:	0f b6 0b             	movzbl (%ebx),%ecx
 804eeb6:	80 f9 20             	cmp    $0x20,%cl
 804eeb9:	74 f5                	je     804eeb0 <geteuid@plt+0x56d8>
 804eebb:	80 f9 09             	cmp    $0x9,%cl
 804eebe:	74 f0                	je     804eeb0 <geteuid@plt+0x56d8>
 804eec0:	80 f9 0a             	cmp    $0xa,%cl
 804eec3:	74 eb                	je     804eeb0 <geteuid@plt+0x56d8>
 804eec5:	0f b6 08             	movzbl (%eax),%ecx
 804eec8:	80 f9 20             	cmp    $0x20,%cl
 804eecb:	75 0e                	jne    804eedb <geteuid@plt+0x5703>
 804eecd:	8d 76 00             	lea    0x0(%esi),%esi
 804eed0:	83 c0 01             	add    $0x1,%eax
 804eed3:	0f b6 08             	movzbl (%eax),%ecx
 804eed6:	80 f9 20             	cmp    $0x20,%cl
 804eed9:	74 f5                	je     804eed0 <geteuid@plt+0x56f8>
 804eedb:	80 f9 09             	cmp    $0x9,%cl
 804eede:	74 f0                	je     804eed0 <geteuid@plt+0x56f8>
 804eee0:	80 f9 0a             	cmp    $0xa,%cl
 804eee3:	74 eb                	je     804eed0 <geteuid@plt+0x56f8>
 804eee5:	89 85 e0 ef ff ff    	mov    %eax,-0x1020(%ebp)
 804eeeb:	0f b6 03             	movzbl (%ebx),%eax
 804eeee:	84 c0                	test   %al,%al
 804eef0:	0f 84 a2 00 00 00    	je     804ef98 <geteuid@plt+0x57c0>
 804eef6:	3c 20                	cmp    $0x20,%al
 804eef8:	74 54                	je     804ef4e <geteuid@plt+0x5776>
 804eefa:	3c 09                	cmp    $0x9,%al
 804eefc:	74 50                	je     804ef4e <geteuid@plt+0x5776>
 804eefe:	3c 0a                	cmp    $0xa,%al
 804ef00:	74 4c                	je     804ef4e <geteuid@plt+0x5776>
 804ef02:	8d 4b 01             	lea    0x1(%ebx),%ecx
 804ef05:	eb 12                	jmp    804ef19 <geteuid@plt+0x5741>
 804ef07:	90                   	nop
 804ef08:	3c 20                	cmp    $0x20,%al
 804ef0a:	74 44                	je     804ef50 <geteuid@plt+0x5778>
 804ef0c:	3c 09                	cmp    $0x9,%al
 804ef0e:	66 90                	xchg   %ax,%ax
 804ef10:	74 3e                	je     804ef50 <geteuid@plt+0x5778>
 804ef12:	83 c1 01             	add    $0x1,%ecx
 804ef15:	3c 0a                	cmp    $0xa,%al
 804ef17:	74 37                	je     804ef50 <geteuid@plt+0x5778>
 804ef19:	0f b6 01             	movzbl (%ecx),%eax
 804ef1c:	89 ce                	mov    %ecx,%esi
 804ef1e:	84 c0                	test   %al,%al
 804ef20:	75 e6                	jne    804ef08 <geteuid@plt+0x5730>
 804ef22:	bf 01 00 00 00       	mov    $0x1,%edi
 804ef27:	c6 06 00             	movb   $0x0,(%esi)
 804ef2a:	80 3b 00             	cmpb   $0x0,(%ebx)
 804ef2d:	74 09                	je     804ef38 <geteuid@plt+0x5760>
 804ef2f:	8b 42 0c             	mov    0xc(%edx),%eax
 804ef32:	8b 08                	mov    (%eax),%ecx
 804ef34:	85 c9                	test   %ecx,%ecx
 804ef36:	75 1c                	jne    804ef54 <geteuid@plt+0x577c>
 804ef38:	85 ff                	test   %edi,%edi
 804ef3a:	0f 85 60 fe ff ff    	jne    804eda0 <geteuid@plt+0x55c8>
 804ef40:	8d 5e 01             	lea    0x1(%esi),%ebx
 804ef43:	8b 85 e0 ef ff ff    	mov    -0x1020(%ebp),%eax
 804ef49:	e9 65 ff ff ff       	jmp    804eeb3 <geteuid@plt+0x56db>
 804ef4e:	89 de                	mov    %ebx,%esi
 804ef50:	31 ff                	xor    %edi,%edi
 804ef52:	eb d3                	jmp    804ef27 <geteuid@plt+0x574f>
 804ef54:	8d 85 e0 ef ff ff    	lea    -0x1020(%ebp),%eax
 804ef5a:	89 44 24 04          	mov    %eax,0x4(%esp)
 804ef5e:	8b 85 e0 ef ff ff    	mov    -0x1020(%ebp),%eax
 804ef64:	89 95 cc ef ff ff    	mov    %edx,-0x1034(%ebp)
 804ef6a:	c7 44 24 08 0a 00 00 	movl   $0xa,0x8(%esp)
 804ef71:	00 
 804ef72:	89 04 24             	mov    %eax,(%esp)
 804ef75:	e8 be a5 ff ff       	call   8049538 <strtoul@plt>
 804ef7a:	8b 95 cc ef ff ff    	mov    -0x1034(%ebp),%edx
 804ef80:	89 5c 24 04          	mov    %ebx,0x4(%esp)
 804ef84:	89 14 24             	mov    %edx,(%esp)
 804ef87:	89 44 24 08          	mov    %eax,0x8(%esp)
 804ef8b:	e8 a0 f9 ff ff       	call   804e930 <geteuid@plt+0x5158>
 804ef90:	8b 95 cc ef ff ff    	mov    -0x1034(%ebp),%edx
 804ef96:	eb a0                	jmp    804ef38 <geteuid@plt+0x5760>
 804ef98:	89 de                	mov    %ebx,%esi
 804ef9a:	eb 86                	jmp    804ef22 <geteuid@plt+0x574a>
 804ef9c:	31 c0                	xor    %eax,%eax
 804ef9e:	8b 55 e4             	mov    -0x1c(%ebp),%edx
 804efa1:	65 33 15 14 00 00 00 	xor    %gs:0x14,%edx
 804efa8:	75 33                	jne    804efdd <geteuid@plt+0x5805>
 804efaa:	81 c4 3c 10 00 00    	add    $0x103c,%esp
 804efb0:	5b                   	pop    %ebx
 804efb1:	5e                   	pop    %esi
 804efb2:	5f                   	pop    %edi
 804efb3:	5d                   	pop    %ebp
 804efb4:	c3                   	ret    
 804efb5:	8d 95 e4 f7 ff ff    	lea    -0x81c(%ebp),%edx
 804efbb:	89 54 24 08          	mov    %edx,0x8(%esp)
 804efbf:	c7 44 24 04 5b c4 05 	movl   $0x805c45b,0x4(%esp)
 804efc6:	08 
 804efc7:	c7 04 24 01 00 00 00 	movl   $0x1,(%esp)
 804efce:	e8 85 a3 ff ff       	call   8049358 <__printf_chk@plt>
 804efd3:	e9 c8 fd ff ff       	jmp    804eda0 <geteuid@plt+0x55c8>
 804efd8:	83 c8 ff             	or     $0xffffffff,%eax
 804efdb:	eb c1                	jmp    804ef9e <geteuid@plt+0x57c6>
 804efdd:	8d 76 00             	lea    0x0(%esi),%esi
 804efe0:	e8 83 a6 ff ff       	call   8049668 <__stack_chk_fail@plt>
 804efe5:	8d 74 26 00          	lea    0x0(%esi,%eiz,1),%esi
 804efe9:	8d bc 27 00 00 00 00 	lea    0x0(%edi,%eiz,1),%edi
 804eff0:	55                   	push   %ebp
 804eff1:	89 e5                	mov    %esp,%ebp
 804eff3:	53                   	push   %ebx
 804eff4:	83 ec 14             	sub    $0x14,%esp
 804eff7:	8b 45 08             	mov    0x8(%ebp),%eax
 804effa:	a3 4c 37 06 08       	mov    %eax,0x806374c
 804efff:	8b 45 0c             	mov    0xc(%ebp),%eax
 804f002:	a3 44 37 06 08       	mov    %eax,0x8063744
 804f007:	8b 45 10             	mov    0x10(%ebp),%eax
 804f00a:	c7 44 24 04 7a bf 05 	movl   $0x805bf7a,0x4(%esp)
 804f011:	08 
 804f012:	c7 04 24 73 c4 05 08 	movl   $0x805c473,(%esp)
 804f019:	a3 50 37 06 08       	mov    %eax,0x8063750
 804f01e:	e8 35 a5 ff ff       	call   8049558 <fopen@plt>
 804f023:	85 c0                	test   %eax,%eax
 804f025:	89 c3                	mov    %eax,%ebx
 804f027:	0f 84 9b 00 00 00    	je     804f0c8 <geteuid@plt+0x58f0>
 804f02d:	89 04 24             	mov    %eax,(%esp)
 804f030:	e8 8b fb ff ff       	call   804ebc0 <geteuid@plt+0x53e8>
 804f035:	89 1c 24             	mov    %ebx,(%esp)
 804f038:	e8 4b a7 ff ff       	call   8049788 <ferror@plt>
 804f03d:	85 c0                	test   %eax,%eax
 804f03f:	75 57                	jne    804f098 <geteuid@plt+0x58c0>
 804f041:	89 1c 24             	mov    %ebx,(%esp)
 804f044:	e8 bf a4 ff ff       	call   8049508 <fclose@plt>
 804f049:	c7 44 24 04 7a bf 05 	movl   $0x805bf7a,0x4(%esp)
 804f050:	08 
 804f051:	c7 04 24 8f c4 05 08 	movl   $0x805c48f,(%esp)
 804f058:	e8 fb a4 ff ff       	call   8049558 <fopen@plt>
 804f05d:	85 c0                	test   %eax,%eax
 804f05f:	89 c3                	mov    %eax,%ebx
 804f061:	0f 84 81 00 00 00    	je     804f0e8 <geteuid@plt+0x5910>
 804f067:	c7 44 24 08 9e c4 05 	movl   $0x805c49e,0x8(%esp)
 804f06e:	08 
 804f06f:	c7 44 24 04 00 00 00 	movl   $0x0,0x4(%esp)
 804f076:	00 
 804f077:	89 04 24             	mov    %eax,(%esp)
 804f07a:	e8 f1 fc ff ff       	call   804ed70 <geteuid@plt+0x5598>
 804f07f:	89 1c 24             	mov    %ebx,(%esp)
 804f082:	e8 01 a7 ff ff       	call   8049788 <ferror@plt>
 804f087:	85 c0                	test   %eax,%eax
 804f089:	75 1d                	jne    804f0a8 <geteuid@plt+0x58d0>
 804f08b:	89 5d 08             	mov    %ebx,0x8(%ebp)
 804f08e:	83 c4 14             	add    $0x14,%esp
 804f091:	5b                   	pop    %ebx
 804f092:	5d                   	pop    %ebp
 804f093:	e9 70 a4 ff ff       	jmp    8049508 <fclose@plt>
 804f098:	c7 04 24 73 c4 05 08 	movl   $0x805c473,(%esp)
 804f09f:	e8 64 a3 ff ff       	call   8049408 <perror@plt>
 804f0a4:	eb 9b                	jmp    804f041 <geteuid@plt+0x5869>
 804f0a6:	66 90                	xchg   %ax,%ax
 804f0a8:	c7 04 24 8f c4 05 08 	movl   $0x805c48f,(%esp)
 804f0af:	e8 54 a3 ff ff       	call   8049408 <perror@plt>
 804f0b4:	89 5d 08             	mov    %ebx,0x8(%ebp)
 804f0b7:	83 c4 14             	add    $0x14,%esp
 804f0ba:	5b                   	pop    %ebx
 804f0bb:	5d                   	pop    %ebp
 804f0bc:	e9 47 a4 ff ff       	jmp    8049508 <fclose@plt>
 804f0c1:	8d b4 26 00 00 00 00 	lea    0x0(%esi,%eiz,1),%esi
 804f0c8:	c7 04 24 67 c4 05 08 	movl   $0x805c467,(%esp)
 804f0cf:	e8 54 a3 ff ff       	call   8049428 <gettext@plt>
 804f0d4:	89 45 08             	mov    %eax,0x8(%ebp)
 804f0d7:	83 c4 14             	add    $0x14,%esp
 804f0da:	5b                   	pop    %ebx
 804f0db:	5d                   	pop    %ebp
 804f0dc:	e9 27 a3 ff ff       	jmp    8049408 <perror@plt>
 804f0e1:	8d b4 26 00 00 00 00 	lea    0x0(%esi,%eiz,1),%esi
 804f0e8:	c7 04 24 83 c4 05 08 	movl   $0x805c483,(%esp)
 804f0ef:	eb de                	jmp    804f0cf <geteuid@plt+0x58f7>
 804f0f1:	eb 0d                	jmp    804f100 <geteuid@plt+0x5928>
 804f0f3:	90                   	nop
 804f0f4:	90                   	nop
 804f0f5:	90                   	nop
 804f0f6:	90                   	nop
 804f0f7:	90                   	nop
 804f0f8:	90                   	nop
 804f0f9:	90                   	nop
 804f0fa:	90                   	nop
 804f0fb:	90                   	nop
 804f0fc:	90                   	nop
 804f0fd:	90                   	nop
 804f0fe:	90                   	nop
 804f0ff:	90                   	nop
 804f100:	55                   	push   %ebp
 804f101:	89 e5                	mov    %esp,%ebp
 804f103:	53                   	push   %ebx
 804f104:	83 ec 14             	sub    $0x14,%esp
 804f107:	8b 45 08             	mov    0x8(%ebp),%eax
 804f10a:	a3 4c 37 06 08       	mov    %eax,0x806374c
 804f10f:	8b 45 0c             	mov    0xc(%ebp),%eax
 804f112:	a3 44 37 06 08       	mov    %eax,0x8063744
 804f117:	8b 45 10             	mov    0x10(%ebp),%eax
 804f11a:	c7 04 24 8f c4 05 08 	movl   $0x805c48f,(%esp)
 804f121:	a3 50 37 06 08       	mov    %eax,0x8063750
 804f126:	e8 95 8e 00 00       	call   8057fc0 <geteuid@plt+0xe7e8>
 804f12b:	85 c0                	test   %eax,%eax
 804f12d:	89 c3                	mov    %eax,%ebx
 804f12f:	0f 84 f3 00 00 00    	je     804f228 <geteuid@plt+0x5a50>
 804f135:	c7 44 24 08 00 00 00 	movl   $0x0,0x8(%esp)
 804f13c:	00 
 804f13d:	c7 44 24 04 01 00 00 	movl   $0x1,0x4(%esp)
 804f144:	00 
 804f145:	89 04 24             	mov    %eax,(%esp)
 804f148:	e8 23 fc ff ff       	call   804ed70 <geteuid@plt+0x5598>
 804f14d:	85 c0                	test   %eax,%eax
 804f14f:	0f 88 a3 00 00 00    	js     804f1f8 <geteuid@plt+0x5a20>
 804f155:	89 1c 24             	mov    %ebx,(%esp)
 804f158:	e8 2b a6 ff ff       	call   8049788 <ferror@plt>
 804f15d:	85 c0                	test   %eax,%eax
 804f15f:	90                   	nop
 804f160:	75 76                	jne    804f1d8 <geteuid@plt+0x5a00>
 804f162:	89 1c 24             	mov    %ebx,(%esp)
 804f165:	e8 9e a3 ff ff       	call   8049508 <fclose@plt>
 804f16a:	c7 04 24 a2 c4 05 08 	movl   $0x805c4a2,(%esp)
 804f171:	e8 4a 8e 00 00       	call   8057fc0 <geteuid@plt+0xe7e8>
 804f176:	85 c0                	test   %eax,%eax
 804f178:	89 c3                	mov    %eax,%ebx
 804f17a:	74 74                	je     804f1f0 <geteuid@plt+0x5a18>
 804f17c:	c7 44 24 08 00 00 00 	movl   $0x0,0x8(%esp)
 804f183:	00 
 804f184:	c7 44 24 04 01 00 00 	movl   $0x1,0x4(%esp)
 804f18b:	00 
 804f18c:	89 04 24             	mov    %eax,(%esp)
 804f18f:	e8 dc fb ff ff       	call   804ed70 <geteuid@plt+0x5598>
 804f194:	85 c0                	test   %eax,%eax
 804f196:	0f 88 ac 00 00 00    	js     804f248 <geteuid@plt+0x5a70>
 804f19c:	89 1c 24             	mov    %ebx,(%esp)
 804f19f:	e8 e4 a5 ff ff       	call   8049788 <ferror@plt>
 804f1a4:	85 c0                	test   %eax,%eax
 804f1a6:	75 10                	jne    804f1b8 <geteuid@plt+0x59e0>
 804f1a8:	89 5d 08             	mov    %ebx,0x8(%ebp)
 804f1ab:	83 c4 14             	add    $0x14,%esp
 804f1ae:	5b                   	pop    %ebx
 804f1af:	5d                   	pop    %ebp
 804f1b0:	e9 53 a3 ff ff       	jmp    8049508 <fclose@plt>
 804f1b5:	8d 76 00             	lea    0x0(%esi),%esi
 804f1b8:	c7 04 24 a2 c4 05 08 	movl   $0x805c4a2,(%esp)
 804f1bf:	e8 44 a2 ff ff       	call   8049408 <perror@plt>
 804f1c4:	89 5d 08             	mov    %ebx,0x8(%ebp)
 804f1c7:	83 c4 14             	add    $0x14,%esp
 804f1ca:	5b                   	pop    %ebx
 804f1cb:	5d                   	pop    %ebp
 804f1cc:	e9 37 a3 ff ff       	jmp    8049508 <fclose@plt>
 804f1d1:	8d b4 26 00 00 00 00 	lea    0x0(%esi,%eiz,1),%esi
 804f1d8:	c7 04 24 8f c4 05 08 	movl   $0x805c48f,(%esp)
 804f1df:	e8 24 a2 ff ff       	call   8049408 <perror@plt>
 804f1e4:	e9 79 ff ff ff       	jmp    804f162 <geteuid@plt+0x598a>
 804f1e9:	8d b4 26 00 00 00 00 	lea    0x0(%esi,%eiz,1),%esi
 804f1f0:	83 c4 14             	add    $0x14,%esp
 804f1f3:	5b                   	pop    %ebx
 804f1f4:	5d                   	pop    %ebp
 804f1f5:	c3                   	ret    
 804f1f6:	66 90                	xchg   %ax,%ax
 804f1f8:	c7 04 24 e0 d5 05 08 	movl   $0x805d5e0,(%esp)
 804f1ff:	e8 24 a2 ff ff       	call   8049428 <gettext@plt>
 804f204:	c7 44 24 04 01 00 00 	movl   $0x1,0x4(%esp)
 804f20b:	00 
 804f20c:	89 44 24 08          	mov    %eax,0x8(%esp)
 804f210:	a1 80 28 06 08       	mov    0x8062880,%eax
 804f215:	89 04 24             	mov    %eax,(%esp)
 804f218:	e8 eb a0 ff ff       	call   8049308 <__fprintf_chk@plt>
 804f21d:	e9 33 ff ff ff       	jmp    804f155 <geteuid@plt+0x597d>
 804f222:	8d b6 00 00 00 00    	lea    0x0(%esi),%esi
 804f228:	c7 04 24 83 c4 05 08 	movl   $0x805c483,(%esp)
 804f22f:	e8 f4 a1 ff ff       	call   8049428 <gettext@plt>
 804f234:	89 45 08             	mov    %eax,0x8(%ebp)
 804f237:	83 c4 14             	add    $0x14,%esp
 804f23a:	5b                   	pop    %ebx
 804f23b:	5d                   	pop    %ebp
 804f23c:	e9 c7 a1 ff ff       	jmp    8049408 <perror@plt>
 804f241:	8d b4 26 00 00 00 00 	lea    0x0(%esi,%eiz,1),%esi
 804f248:	c7 04 24 08 d6 05 08 	movl   $0x805d608,(%esp)
 804f24f:	e8 d4 a1 ff ff       	call   8049428 <gettext@plt>
 804f254:	c7 44 24 04 01 00 00 	movl   $0x1,0x4(%esp)
 804f25b:	00 
 804f25c:	89 44 24 08          	mov    %eax,0x8(%esp)
 804f260:	a1 80 28 06 08       	mov    0x8062880,%eax
 804f265:	89 04 24             	mov    %eax,(%esp)
 804f268:	e8 9b a0 ff ff       	call   8049308 <__fprintf_chk@plt>
 804f26d:	e9 2a ff ff ff       	jmp    804f19c <geteuid@plt+0x59c4>
 804f272:	90                   	nop
 804f273:	90                   	nop
 804f274:	90                   	nop
 804f275:	90                   	nop
 804f276:	90                   	nop
 804f277:	90                   	nop
 804f278:	90                   	nop
 804f279:	90                   	nop
 804f27a:	90                   	nop
 804f27b:	90                   	nop
 804f27c:	90                   	nop
 804f27d:	90                   	nop
 804f27e:	90                   	nop
 804f27f:	90                   	nop
 804f280:	55                   	push   %ebp
 804f281:	89 e5                	mov    %esp,%ebp
 804f283:	83 ec 18             	sub    $0x18,%esp
 804f286:	c7 04 24 94 e1 05 08 	movl   $0x805e194,(%esp)
 804f28d:	e8 96 a1 ff ff       	call   8049428 <gettext@plt>
 804f292:	c7 04 24 9b e1 05 08 	movl   $0x805e19b,(%esp)
 804f299:	a3 64 24 06 08       	mov    %eax,0x8062464
 804f29e:	e8 85 a1 ff ff       	call   8049428 <gettext@plt>
 804f2a3:	c7 04 24 a7 e1 05 08 	movl   $0x805e1a7,(%esp)
 804f2aa:	a3 24 24 06 08       	mov    %eax,0x8062424
 804f2af:	e8 74 a1 ff ff       	call   8049428 <gettext@plt>
 804f2b4:	c7 04 24 b6 e1 05 08 	movl   $0x805e1b6,(%esp)
 804f2bb:	a3 04 22 06 08       	mov    %eax,0x8062204
 804f2c0:	e8 63 a1 ff ff       	call   8049428 <gettext@plt>
 804f2c5:	c7 04 24 bb e1 05 08 	movl   $0x805e1bb,(%esp)
 804f2cc:	a3 44 22 06 08       	mov    %eax,0x8062244
 804f2d1:	e8 52 a1 ff ff       	call   8049428 <gettext@plt>
 804f2d6:	c7 04 24 c6 e1 05 08 	movl   $0x805e1c6,(%esp)
 804f2dd:	a3 44 21 06 08       	mov    %eax,0x8062144
 804f2e2:	e8 41 a1 ff ff       	call   8049428 <gettext@plt>
 804f2e7:	c7 04 24 d3 e1 05 08 	movl   $0x805e1d3,(%esp)
 804f2ee:	a3 84 23 06 08       	mov    %eax,0x8062384
 804f2f3:	e8 30 a1 ff ff       	call   8049428 <gettext@plt>
 804f2f8:	c7 04 24 de e1 05 08 	movl   $0x805e1de,(%esp)
 804f2ff:	a3 24 23 06 08       	mov    %eax,0x8062324
 804f304:	e8 1f a1 ff ff       	call   8049428 <gettext@plt>
 804f309:	c7 04 24 ec e1 05 08 	movl   $0x805e1ec,(%esp)
 804f310:	a3 84 21 06 08       	mov    %eax,0x8062184
 804f315:	e8 0e a1 ff ff       	call   8049428 <gettext@plt>
 804f31a:	c7 04 24 f3 e1 05 08 	movl   $0x805e1f3,(%esp)
 804f321:	a3 c4 21 06 08       	mov    %eax,0x80621c4
 804f326:	e8 fd a0 ff ff       	call   8049428 <gettext@plt>
 804f32b:	c7 04 24 fe e1 05 08 	movl   $0x805e1fe,(%esp)
 804f332:	a3 c4 24 06 08       	mov    %eax,0x80624c4
 804f337:	e8 ec a0 ff ff       	call   8049428 <gettext@plt>
 804f33c:	c7 04 24 08 e2 05 08 	movl   $0x805e208,(%esp)
 804f343:	a3 e4 23 06 08       	mov    %eax,0x80623e4
 804f348:	e8 db a0 ff ff       	call   8049428 <gettext@plt>
 804f34d:	66 c7 05 c4 2c 06 08 	movw   $0x1,0x8062cc4
 804f354:	01 00 
 804f356:	a3 e4 20 06 08       	mov    %eax,0x80620e4
 804f35b:	c9                   	leave  
 804f35c:	c3                   	ret    
 804f35d:	8d 76 00             	lea    0x0(%esi),%esi
 804f360:	55                   	push   %ebp
 804f361:	89 e5                	mov    %esp,%ebp
 804f363:	57                   	push   %edi
 804f364:	56                   	push   %esi
 804f365:	53                   	push   %ebx
 804f366:	83 ec 2c             	sub    $0x2c,%esp
 804f369:	8b 7d 08             	mov    0x8(%ebp),%edi
 804f36c:	66 83 3d c4 2c 06 08 	cmpw   $0x0,0x8062cc4
 804f373:	00 
 804f374:	0f 84 e6 00 00 00    	je     804f460 <geteuid@plt+0x5c88>
 804f37a:	bb 84 20 06 08       	mov    $0x8062084,%ebx
 804f37f:	31 f6                	xor    %esi,%esi
 804f381:	eb 7f                	jmp    804f402 <geteuid@plt+0x5c2a>
 804f383:	90                   	nop
 804f384:	8d 74 26 00          	lea    0x0(%esi,%eiz,1),%esi
 804f388:	8b 41 08             	mov    0x8(%ecx),%eax
 804f38b:	85 c0                	test   %eax,%eax
 804f38d:	74 70                	je     804f3ff <geteuid@plt+0x5c27>
 804f38f:	b8 56 55 55 55       	mov    $0x55555556,%eax
 804f394:	f7 ee                	imul   %esi
 804f396:	89 f0                	mov    %esi,%eax
 804f398:	c1 f8 1f             	sar    $0x1f,%eax
 804f39b:	29 c2                	sub    %eax,%edx
 804f39d:	8d 04 52             	lea    (%edx,%edx,2),%eax
 804f3a0:	39 c6                	cmp    %eax,%esi
 804f3a2:	75 2a                	jne    804f3ce <geteuid@plt+0x5bf6>
 804f3a4:	85 f6                	test   %esi,%esi
 804f3a6:	b8 0d e2 05 08       	mov    $0x805e20d,%eax
 804f3ab:	74 05                	je     804f3b2 <geteuid@plt+0x5bda>
 804f3ad:	b8 0c e2 05 08       	mov    $0x805e20c,%eax
 804f3b2:	89 44 24 08          	mov    %eax,0x8(%esp)
 804f3b6:	a1 80 28 06 08       	mov    0x8062880,%eax
 804f3bb:	c7 44 24 04 01 00 00 	movl   $0x1,0x4(%esp)
 804f3c2:	00 
 804f3c3:	89 04 24             	mov    %eax,(%esp)
 804f3c6:	e8 3d 9f ff ff       	call   8049308 <__fprintf_chk@plt>
 804f3cb:	8b 4b fc             	mov    -0x4(%ebx),%ecx
 804f3ce:	8b 01                	mov    (%ecx),%eax
 804f3d0:	85 c0                	test   %eax,%eax
 804f3d2:	74 7c                	je     804f450 <geteuid@plt+0x5c78>
 804f3d4:	8b 51 04             	mov    0x4(%ecx),%edx
 804f3d7:	83 c6 01             	add    $0x1,%esi
 804f3da:	89 44 24 0c          	mov    %eax,0xc(%esp)
 804f3de:	a1 80 28 06 08       	mov    0x8062880,%eax
 804f3e3:	c7 44 24 08 15 e2 05 	movl   $0x805e215,0x8(%esp)
 804f3ea:	08 
 804f3eb:	c7 44 24 04 01 00 00 	movl   $0x1,0x4(%esp)
 804f3f2:	00 
 804f3f3:	89 54 24 10          	mov    %edx,0x10(%esp)
 804f3f7:	89 04 24             	mov    %eax,(%esp)
 804f3fa:	e8 09 9f ff ff       	call   8049308 <__fprintf_chk@plt>
 804f3ff:	83 c3 04             	add    $0x4,%ebx
 804f402:	8b 4b fc             	mov    -0x4(%ebx),%ecx
 804f405:	85 c9                	test   %ecx,%ecx
 804f407:	74 1f                	je     804f428 <geteuid@plt+0x5c50>
 804f409:	83 ff 01             	cmp    $0x1,%edi
 804f40c:	0f 85 76 ff ff ff    	jne    804f388 <geteuid@plt+0x5bb0>
 804f412:	8b 51 20             	mov    0x20(%ecx),%edx
 804f415:	85 d2                	test   %edx,%edx
 804f417:	0f 85 6b ff ff ff    	jne    804f388 <geteuid@plt+0x5bb0>
 804f41d:	8d 76 00             	lea    0x0(%esi),%esi
 804f420:	eb dd                	jmp    804f3ff <geteuid@plt+0x5c27>
 804f422:	8d b6 00 00 00 00    	lea    0x0(%esi),%esi
 804f428:	a1 80 28 06 08       	mov    0x8062880,%eax
 804f42d:	c7 44 24 08 2d f8 05 	movl   $0x805f82d,0x8(%esp)
 804f434:	08 
 804f435:	c7 44 24 04 01 00 00 	movl   $0x1,0x4(%esp)
 804f43c:	00 
 804f43d:	89 04 24             	mov    %eax,(%esp)
 804f440:	e8 c3 9e ff ff       	call   8049308 <__fprintf_chk@plt>
 804f445:	83 c4 2c             	add    $0x2c,%esp
 804f448:	5b                   	pop    %ebx
 804f449:	5e                   	pop    %esi
 804f44a:	5f                   	pop    %edi
 804f44b:	5d                   	pop    %ebp
 804f44c:	c3                   	ret    
 804f44d:	8d 76 00             	lea    0x0(%esi),%esi
 804f450:	b8 12 e2 05 08       	mov    $0x805e212,%eax
 804f455:	e9 7a ff ff ff       	jmp    804f3d4 <geteuid@plt+0x5bfc>
 804f45a:	8d b6 00 00 00 00    	lea    0x0(%esi),%esi
 804f460:	e8 1b fe ff ff       	call   804f280 <geteuid@plt+0x5aa8>
 804f465:	e9 10 ff ff ff       	jmp    804f37a <geteuid@plt+0x5ba2>
 804f46a:	8d b6 00 00 00 00    	lea    0x0(%esi),%esi
 804f470:	55                   	push   %ebp
 804f471:	89 e5                	mov    %esp,%ebp
 804f473:	53                   	push   %ebx
 804f474:	83 ec 04             	sub    $0x4,%esp
 804f477:	8b 5d 08             	mov    0x8(%ebp),%ebx
 804f47a:	66 83 3d c4 2c 06 08 	cmpw   $0x0,0x8062cc4
 804f481:	00 
 804f482:	74 4c                	je     804f4d0 <geteuid@plt+0x5cf8>
 804f484:	a1 80 20 06 08       	mov    0x8062080,%eax
 804f489:	85 c0                	test   %eax,%eax
 804f48b:	74 21                	je     804f4ae <geteuid@plt+0x5cd6>
 804f48d:	39 58 08             	cmp    %ebx,0x8(%eax)
 804f490:	ba 80 20 06 08       	mov    $0x8062080,%edx
 804f495:	75 0e                	jne    804f4a5 <geteuid@plt+0x5ccd>
 804f497:	eb 27                	jmp    804f4c0 <geteuid@plt+0x5ce8>
 804f499:	8d b4 26 00 00 00 00 	lea    0x0(%esi,%eiz,1),%esi
 804f4a0:	39 58 08             	cmp    %ebx,0x8(%eax)
 804f4a3:	74 1b                	je     804f4c0 <geteuid@plt+0x5ce8>
 804f4a5:	83 c2 04             	add    $0x4,%edx
 804f4a8:	8b 02                	mov    (%edx),%eax
 804f4aa:	85 c0                	test   %eax,%eax
 804f4ac:	75 f2                	jne    804f4a0 <geteuid@plt+0x5cc8>
 804f4ae:	83 c4 04             	add    $0x4,%esp
 804f4b1:	b8 ff ff ff ff       	mov    $0xffffffff,%eax
 804f4b6:	5b                   	pop    %ebx
 804f4b7:	5d                   	pop    %ebp
 804f4b8:	c3                   	ret    
 804f4b9:	8d b4 26 00 00 00 00 	lea    0x0(%esi,%eiz,1),%esi
 804f4c0:	8b 40 2c             	mov    0x2c(%eax),%eax
 804f4c3:	83 c4 04             	add    $0x4,%esp
 804f4c6:	5b                   	pop    %ebx
 804f4c7:	5d                   	pop    %ebp
 804f4c8:	c3                   	ret    
 804f4c9:	8d b4 26 00 00 00 00 	lea    0x0(%esi,%eiz,1),%esi
 804f4d0:	e8 ab fd ff ff       	call   804f280 <geteuid@plt+0x5aa8>
 804f4d5:	eb ad                	jmp    804f484 <geteuid@plt+0x5cac>
 804f4d7:	89 f6                	mov    %esi,%esi
 804f4d9:	8d bc 27 00 00 00 00 	lea    0x0(%edi,%eiz,1),%edi
 804f4e0:	55                   	push   %ebp
 804f4e1:	89 e5                	mov    %esp,%ebp
 804f4e3:	53                   	push   %ebx
 804f4e4:	83 ec 04             	sub    $0x4,%esp
 804f4e7:	8b 5d 08             	mov    0x8(%ebp),%ebx
 804f4ea:	66 83 3d c4 2c 06 08 	cmpw   $0x0,0x8062cc4
 804f4f1:	00 
 804f4f2:	74 34                	je     804f528 <geteuid@plt+0x5d50>
 804f4f4:	a1 80 20 06 08       	mov    0x8062080,%eax
 804f4f9:	85 c0                	test   %eax,%eax
 804f4fb:	74 21                	je     804f51e <geteuid@plt+0x5d46>
 804f4fd:	39 58 08             	cmp    %ebx,0x8(%eax)
 804f500:	ba 80 20 06 08       	mov    $0x8062080,%edx
 804f505:	75 0e                	jne    804f515 <geteuid@plt+0x5d3d>
 804f507:	eb 15                	jmp    804f51e <geteuid@plt+0x5d46>
 804f509:	8d b4 26 00 00 00 00 	lea    0x0(%esi,%eiz,1),%esi
 804f510:	39 58 08             	cmp    %ebx,0x8(%eax)
 804f513:	74 09                	je     804f51e <geteuid@plt+0x5d46>
 804f515:	83 c2 04             	add    $0x4,%edx
 804f518:	8b 02                	mov    (%edx),%eax
 804f51a:	85 c0                	test   %eax,%eax
 804f51c:	75 f2                	jne    804f510 <geteuid@plt+0x5d38>
 804f51e:	83 c4 04             	add    $0x4,%esp
 804f521:	5b                   	pop    %ebx
 804f522:	5d                   	pop    %ebp
 804f523:	c3                   	ret    
 804f524:	8d 74 26 00          	lea    0x0(%esi,%eiz,1),%esi
 804f528:	e8 53 fd ff ff       	call   804f280 <geteuid@plt+0x5aa8>
 804f52d:	8d 76 00             	lea    0x0(%esi),%esi
 804f530:	eb c2                	jmp    804f4f4 <geteuid@plt+0x5d1c>
 804f532:	8d b4 26 00 00 00 00 	lea    0x0(%esi,%eiz,1),%esi
 804f539:	8d bc 27 00 00 00 00 	lea    0x0(%edi,%eiz,1),%edi
 804f540:	55                   	push   %ebp
 804f541:	89 e5                	mov    %esp,%ebp
 804f543:	57                   	push   %edi
 804f544:	56                   	push   %esi
 804f545:	53                   	push   %ebx
 804f546:	83 ec 1c             	sub    $0x1c,%esp
 804f549:	8b 7d 08             	mov    0x8(%ebp),%edi
 804f54c:	66 83 3d c4 2c 06 08 	cmpw   $0x0,0x8062cc4
 804f553:	00 
 804f554:	0f 84 86 00 00 00    	je     804f5e0 <geteuid@plt+0x5e08>
 804f55a:	8b 1d 80 20 06 08    	mov    0x8062080,%ebx
 804f560:	85 db                	test   %ebx,%ebx
 804f562:	74 34                	je     804f598 <geteuid@plt+0x5dc0>
 804f564:	be 80 20 06 08       	mov    $0x8062080,%esi
 804f569:	eb 0e                	jmp    804f579 <geteuid@plt+0x5da1>
 804f56b:	90                   	nop
 804f56c:	8d 74 26 00          	lea    0x0(%esi,%eiz,1),%esi
 804f570:	83 c6 04             	add    $0x4,%esi
 804f573:	8b 1e                	mov    (%esi),%ebx
 804f575:	85 db                	test   %ebx,%ebx
 804f577:	74 1f                	je     804f598 <geteuid@plt+0x5dc0>
 804f579:	8b 03                	mov    (%ebx),%eax
 804f57b:	89 7c 24 04          	mov    %edi,0x4(%esp)
 804f57f:	89 04 24             	mov    %eax,(%esp)
 804f582:	e8 11 a2 ff ff       	call   8049798 <strcmp@plt>
 804f587:	85 c0                	test   %eax,%eax
 804f589:	75 e5                	jne    804f570 <geteuid@plt+0x5d98>
 804f58b:	83 c4 1c             	add    $0x1c,%esp
 804f58e:	89 d8                	mov    %ebx,%eax
 804f590:	5b                   	pop    %ebx
 804f591:	5e                   	pop    %esi
 804f592:	5f                   	pop    %edi
 804f593:	5d                   	pop    %ebp
 804f594:	c3                   	ret    
 804f595:	8d 76 00             	lea    0x0(%esi),%esi
 804f598:	c7 44 24 04 2c 00 00 	movl   $0x2c,0x4(%esp)
 804f59f:	00 
 804f5a0:	31 db                	xor    %ebx,%ebx
 804f5a2:	89 3c 24             	mov    %edi,(%esp)
 804f5a5:	e8 8e a1 ff ff       	call   8049738 <index@plt>
 804f5aa:	85 c0                	test   %eax,%eax
 804f5ac:	74 dd                	je     804f58b <geteuid@plt+0x5db3>
 804f5ae:	c7 04 24 40 e2 05 08 	movl   $0x805e240,(%esp)
 804f5b5:	e8 6e 9e ff ff       	call   8049428 <gettext@plt>
 804f5ba:	c7 44 24 04 01 00 00 	movl   $0x1,0x4(%esp)
 804f5c1:	00 
 804f5c2:	89 44 24 08          	mov    %eax,0x8(%esp)
 804f5c6:	a1 80 28 06 08       	mov    0x8062880,%eax
 804f5cb:	89 04 24             	mov    %eax,(%esp)
 804f5ce:	e8 35 9d ff ff       	call   8049308 <__fprintf_chk@plt>
 804f5d3:	83 c4 1c             	add    $0x1c,%esp
 804f5d6:	89 d8                	mov    %ebx,%eax
 804f5d8:	5b                   	pop    %ebx
 804f5d9:	5e                   	pop    %esi
 804f5da:	5f                   	pop    %edi
 804f5db:	5d                   	pop    %ebp
 804f5dc:	c3                   	ret    
 804f5dd:	8d 76 00             	lea    0x0(%esi),%esi
 804f5e0:	e8 9b fc ff ff       	call   804f280 <geteuid@plt+0x5aa8>
 804f5e5:	e9 70 ff ff ff       	jmp    804f55a <geteuid@plt+0x5d82>
 804f5ea:	8d b6 00 00 00 00    	lea    0x0(%esi),%esi
 804f5f0:	55                   	push   %ebp
 804f5f1:	89 e5                	mov    %esp,%ebp
 804f5f3:	57                   	push   %edi
 804f5f4:	56                   	push   %esi
 804f5f5:	53                   	push   %ebx
 804f5f6:	81 ec 3c 01 00 00    	sub    $0x13c,%esp
 804f5fc:	65 a1 14 00 00 00    	mov    %gs:0x14,%eax
 804f602:	89 45 e4             	mov    %eax,-0x1c(%ebp)
 804f605:	31 c0                	xor    %eax,%eax
 804f607:	8b 45 08             	mov    0x8(%ebp),%eax
 804f60a:	8d bd e4 fe ff ff    	lea    -0x11c(%ebp),%edi
 804f610:	c7 44 24 08 00 01 00 	movl   $0x100,0x8(%esp)
 804f617:	00 
 804f618:	89 3c 24             	mov    %edi,(%esp)
 804f61b:	89 44 24 04          	mov    %eax,0x4(%esp)
 804f61f:	e8 5c 91 00 00       	call   8058780 <geteuid@plt+0xefa8>
 804f624:	8d 74 26 00          	lea    0x0(%esi,%eiz,1),%esi
 804f628:	c7 44 24 04 2c 00 00 	movl   $0x2c,0x4(%esp)
 804f62f:	00 
 804f630:	89 3c 24             	mov    %edi,(%esp)
 804f633:	e8 00 a1 ff ff       	call   8049738 <index@plt>
 804f638:	85 c0                	test   %eax,%eax
 804f63a:	89 c6                	mov    %eax,%esi
 804f63c:	74 06                	je     804f644 <geteuid@plt+0x5e6c>
 804f63e:	c6 00 00             	movb   $0x0,(%eax)
 804f641:	83 c6 01             	add    $0x1,%esi
 804f644:	a1 c0 1e 06 08       	mov    0x8061ec0,%eax
 804f649:	bb c0 1e 06 08       	mov    $0x8061ec0,%ebx
 804f64e:	85 c0                	test   %eax,%eax
 804f650:	0f 84 ee 00 00 00    	je     804f744 <geteuid@plt+0x5f6c>
 804f656:	89 44 24 04          	mov    %eax,0x4(%esp)
 804f65a:	89 3c 24             	mov    %edi,(%esp)
 804f65d:	e8 36 a1 ff ff       	call   8049798 <strcmp@plt>
 804f662:	85 c0                	test   %eax,%eax
 804f664:	74 52                	je     804f6b8 <geteuid@plt+0x5ee0>
 804f666:	83 c3 0c             	add    $0xc,%ebx
 804f669:	8b 03                	mov    (%ebx),%eax
 804f66b:	85 c0                	test   %eax,%eax
 804f66d:	75 e7                	jne    804f656 <geteuid@plt+0x5e7e>
 804f66f:	c7 04 24 20 e2 05 08 	movl   $0x805e220,(%esp)
 804f676:	e8 ad 9d ff ff       	call   8049428 <gettext@plt>
 804f67b:	89 7c 24 0c          	mov    %edi,0xc(%esp)
 804f67f:	c7 44 24 04 01 00 00 	movl   $0x1,0x4(%esp)
 804f686:	00 
 804f687:	89 44 24 08          	mov    %eax,0x8(%esp)
 804f68b:	a1 80 28 06 08       	mov    0x8062880,%eax
 804f690:	89 04 24             	mov    %eax,(%esp)
 804f693:	e8 70 9c ff ff       	call   8049308 <__fprintf_chk@plt>
 804f698:	b8 01 00 00 00       	mov    $0x1,%eax
 804f69d:	8b 4d e4             	mov    -0x1c(%ebp),%ecx
 804f6a0:	65 33 0d 14 00 00 00 	xor    %gs:0x14,%ecx
 804f6a7:	0f 85 06 01 00 00    	jne    804f7b3 <geteuid@plt+0x5fdb>
 804f6ad:	81 c4 3c 01 00 00    	add    $0x13c,%esp
 804f6b3:	5b                   	pop    %ebx
 804f6b4:	5e                   	pop    %esi
 804f6b5:	5f                   	pop    %edi
 804f6b6:	5d                   	pop    %ebp
 804f6b7:	c3                   	ret    
 804f6b8:	8b 53 04             	mov    0x4(%ebx),%edx
 804f6bb:	89 14 24             	mov    %edx,(%esp)
 804f6be:	89 95 d4 fe ff ff    	mov    %edx,-0x12c(%ebp)
 804f6c4:	e8 7f 9e ff ff       	call   8049548 <strlen@plt>
 804f6c9:	ba 80 1f 06 08       	mov    $0x8061f80,%edx
 804f6ce:	89 85 d0 fe ff ff    	mov    %eax,-0x130(%ebp)
 804f6d4:	8b 0a                	mov    (%edx),%ecx
 804f6d6:	83 c2 04             	add    $0x4,%edx
 804f6d9:	8d 81 ff fe fe fe    	lea    -0x1010101(%ecx),%eax
 804f6df:	f7 d1                	not    %ecx
 804f6e1:	21 c8                	and    %ecx,%eax
 804f6e3:	25 80 80 80 80       	and    $0x80808080,%eax
 804f6e8:	74 ea                	je     804f6d4 <geteuid@plt+0x5efc>
 804f6ea:	a9 80 80 00 00       	test   $0x8080,%eax
 804f6ef:	75 06                	jne    804f6f7 <geteuid@plt+0x5f1f>
 804f6f1:	c1 e8 10             	shr    $0x10,%eax
 804f6f4:	83 c2 02             	add    $0x2,%edx
 804f6f7:	8b 8d d0 fe ff ff    	mov    -0x130(%ebp),%ecx
 804f6fd:	00 c0                	add    %al,%al
 804f6ff:	83 da 03             	sbb    $0x3,%edx
 804f702:	81 ea 80 1f 06 08    	sub    $0x8061f80,%edx
 804f708:	8d 44 0a 01          	lea    0x1(%edx,%ecx,1),%eax
 804f70c:	3d ff 00 00 00       	cmp    $0xff,%eax
 804f711:	77 74                	ja     804f787 <geteuid@plt+0x5faf>
 804f713:	8b 43 08             	mov    0x8(%ebx),%eax
 804f716:	85 c0                	test   %eax,%eax
 804f718:	74 03                	je     804f71d <geteuid@plt+0x5f45>
 804f71a:	83 00 01             	addl   $0x1,(%eax)
 804f71d:	80 3d 80 1f 06 08 00 	cmpb   $0x0,0x8061f80
 804f724:	75 3a                	jne    804f760 <geteuid@plt+0x5f88>
 804f726:	8b 95 d4 fe ff ff    	mov    -0x12c(%ebp),%edx
 804f72c:	c7 44 24 08 00 01 00 	movl   $0x100,0x8(%esp)
 804f733:	00 
 804f734:	c7 04 24 80 1f 06 08 	movl   $0x8061f80,(%esp)
 804f73b:	89 54 24 04          	mov    %edx,0x4(%esp)
 804f73f:	e8 d4 9c ff ff       	call   8049418 <__strcat_chk@plt>
 804f744:	8b 0b                	mov    (%ebx),%ecx
 804f746:	85 c9                	test   %ecx,%ecx
 804f748:	0f 84 21 ff ff ff    	je     804f66f <geteuid@plt+0x5e97>
 804f74e:	85 f6                	test   %esi,%esi
 804f750:	89 f7                	mov    %esi,%edi
 804f752:	0f 85 d0 fe ff ff    	jne    804f628 <geteuid@plt+0x5e50>
 804f758:	31 c0                	xor    %eax,%eax
 804f75a:	e9 3e ff ff ff       	jmp    804f69d <geteuid@plt+0x5ec5>
 804f75f:	90                   	nop
 804f760:	c7 44 24 08 00 01 00 	movl   $0x100,0x8(%esp)
 804f767:	00 
 804f768:	c7 44 24 04 1e e2 05 	movl   $0x805e21e,0x4(%esp)
 804f76f:	08 
 804f770:	c7 04 24 80 1f 06 08 	movl   $0x8061f80,(%esp)
 804f777:	e8 9c 9c ff ff       	call   8049418 <__strcat_chk@plt>
 804f77c:	8b 43 04             	mov    0x4(%ebx),%eax
 804f77f:	89 85 d4 fe ff ff    	mov    %eax,-0x12c(%ebp)
 804f785:	eb 9f                	jmp    804f726 <geteuid@plt+0x5f4e>
 804f787:	c7 04 24 74 e2 05 08 	movl   $0x805e274,(%esp)
 804f78e:	e8 95 9c ff ff       	call   8049428 <gettext@plt>
 804f793:	c7 44 24 04 01 00 00 	movl   $0x1,0x4(%esp)
 804f79a:	00 
 804f79b:	89 44 24 08          	mov    %eax,0x8(%esp)
 804f79f:	a1 80 28 06 08       	mov    0x8062880,%eax
 804f7a4:	89 04 24             	mov    %eax,(%esp)
 804f7a7:	e8 5c 9b ff ff       	call   8049308 <__fprintf_chk@plt>
 804f7ac:	31 c0                	xor    %eax,%eax
 804f7ae:	e9 ea fe ff ff       	jmp    804f69d <geteuid@plt+0x5ec5>
 804f7b3:	e8 b0 9e ff ff       	call   8049668 <__stack_chk_fail@plt>
 804f7b8:	90                   	nop
 804f7b9:	8d b4 26 00 00 00 00 	lea    0x0(%esi,%eiz,1),%esi
 804f7c0:	55                   	push   %ebp
 804f7c1:	89 e5                	mov    %esp,%ebp
 804f7c3:	57                   	push   %edi
 804f7c4:	56                   	push   %esi
 804f7c5:	53                   	push   %ebx
 804f7c6:	83 ec 2c             	sub    $0x2c,%esp
 804f7c9:	8b 75 0c             	mov    0xc(%ebp),%esi
 804f7cc:	8b 7d 08             	mov    0x8(%ebp),%edi
 804f7cf:	c7 44 24 08 00 01 00 	movl   $0x100,0x8(%esp)
 804f7d6:	00 
 804f7d7:	8b 45 10             	mov    0x10(%ebp),%eax
 804f7da:	c7 04 24 80 1f 06 08 	movl   $0x8061f80,(%esp)
 804f7e1:	89 44 24 04          	mov    %eax,0x4(%esp)
 804f7e5:	e8 fe 9d ff ff       	call   80495e8 <__strcpy_chk@plt>
 804f7ea:	c7 44 24 04 2f 00 00 	movl   $0x2f,0x4(%esp)
 804f7f1:	00 
 804f7f2:	89 34 24             	mov    %esi,(%esp)
 804f7f5:	e8 ce 9b ff ff       	call   80493c8 <strrchr@plt>
 804f7fa:	85 c0                	test   %eax,%eax
 804f7fc:	74 03                	je     804f801 <geteuid@plt+0x6029>
 804f7fe:	8d 70 01             	lea    0x1(%eax),%esi
 804f801:	89 34 24             	mov    %esi,(%esp)
 804f804:	e8 af 9f ff ff       	call   80497b8 <__strdup@plt>
 804f809:	85 c0                	test   %eax,%eax
 804f80b:	89 c3                	mov    %eax,%ebx
 804f80d:	0f 84 95 00 00 00    	je     804f8a8 <geteuid@plt+0x60d0>
 804f813:	89 3c 24             	mov    %edi,(%esp)
 804f816:	e8 2d 9d ff ff       	call   8049548 <strlen@plt>
 804f81b:	89 34 24             	mov    %esi,(%esp)
 804f81e:	89 45 e4             	mov    %eax,-0x1c(%ebp)
 804f821:	e8 22 9d ff ff       	call   8049548 <strlen@plt>
 804f826:	8b 55 e4             	mov    -0x1c(%ebp),%edx
 804f829:	39 c2                	cmp    %eax,%edx
 804f82b:	73 42                	jae    804f86f <geteuid@plt+0x6097>
 804f82d:	29 d0                	sub    %edx,%eax
 804f82f:	8d 34 03             	lea    (%ebx,%eax,1),%esi
 804f832:	89 7c 24 04          	mov    %edi,0x4(%esp)
 804f836:	89 34 24             	mov    %esi,(%esp)
 804f839:	e8 5a 9f ff ff       	call   8049798 <strcmp@plt>
 804f83e:	85 c0                	test   %eax,%eax
 804f840:	75 2d                	jne    804f86f <geteuid@plt+0x6097>
 804f842:	c6 06 00             	movb   $0x0,(%esi)
 804f845:	c7 44 24 04 5f 00 00 	movl   $0x5f,0x4(%esp)
 804f84c:	00 
 804f84d:	89 1c 24             	mov    %ebx,(%esp)
 804f850:	e8 23 9b ff ff       	call   8049378 <strchr@plt>
 804f855:	85 c0                	test   %eax,%eax
 804f857:	74 03                	je     804f85c <geteuid@plt+0x6084>
 804f859:	c6 00 00             	movb   $0x0,(%eax)
 804f85c:	c6 05 80 1f 06 08 00 	movb   $0x0,0x8061f80
 804f863:	89 1c 24             	mov    %ebx,(%esp)
 804f866:	e8 85 fd ff ff       	call   804f5f0 <geteuid@plt+0x5e18>
 804f86b:	85 c0                	test   %eax,%eax
 804f86d:	75 11                	jne    804f880 <geteuid@plt+0x60a8>
 804f86f:	89 5d 08             	mov    %ebx,0x8(%ebp)
 804f872:	83 c4 2c             	add    $0x2c,%esp
 804f875:	5b                   	pop    %ebx
 804f876:	5e                   	pop    %esi
 804f877:	5f                   	pop    %edi
 804f878:	5d                   	pop    %ebp
 804f879:	e9 ea 9b ff ff       	jmp    8049468 <free@plt>
 804f87e:	66 90                	xchg   %ax,%ax
 804f880:	89 5c 24 04          	mov    %ebx,0x4(%esp)
 804f884:	c7 44 24 08 00 01 00 	movl   $0x100,0x8(%esp)
 804f88b:	00 
 804f88c:	c7 04 24 80 1f 06 08 	movl   $0x8061f80,(%esp)
 804f893:	e8 50 9d ff ff       	call   80495e8 <__strcpy_chk@plt>
 804f898:	89 5d 08             	mov    %ebx,0x8(%ebp)
 804f89b:	83 c4 2c             	add    $0x2c,%esp
 804f89e:	5b                   	pop    %ebx
 804f89f:	5e                   	pop    %esi
 804f8a0:	5f                   	pop    %edi
 804f8a1:	5d                   	pop    %ebp
 804f8a2:	e9 c1 9b ff ff       	jmp    8049468 <free@plt>
 804f8a7:	90                   	nop
 804f8a8:	83 c4 2c             	add    $0x2c,%esp
 804f8ab:	5b                   	pop    %ebx
 804f8ac:	5e                   	pop    %esi
 804f8ad:	5f                   	pop    %edi
 804f8ae:	5d                   	pop    %ebp
 804f8af:	c3                   	ret    
 804f8b0:	55                   	push   %ebp
 804f8b1:	89 e5                	mov    %esp,%ebp
 804f8b3:	57                   	push   %edi
 804f8b4:	56                   	push   %esi
 804f8b5:	31 f6                	xor    %esi,%esi
 804f8b7:	53                   	push   %ebx
 804f8b8:	83 ec 2c             	sub    $0x2c,%esp
 804f8bb:	8b 4d 0c             	mov    0xc(%ebp),%ecx
 804f8be:	8b 15 c8 20 06 08    	mov    0x80620c8,%edx
 804f8c4:	8d 7d e4             	lea    -0x1c(%ebp),%edi
 804f8c7:	8b 45 08             	mov    0x8(%ebp),%eax
 804f8ca:	89 cb                	mov    %ecx,%ebx
 804f8cc:	66 89 11             	mov    %dx,(%ecx)
 804f8cf:	83 c3 02             	add    $0x2,%ebx
 804f8d2:	83 fe 3f             	cmp    $0x3f,%esi
 804f8d5:	76 21                	jbe    804f8f8 <geteuid@plt+0x6120>
 804f8d7:	83 fe 3f             	cmp    $0x3f,%esi
 804f8da:	77 12                	ja     804f8ee <geteuid@plt+0x6116>
 804f8dc:	01 f3                	add    %esi,%ebx
 804f8de:	66 90                	xchg   %ax,%ax
 804f8e0:	83 c6 01             	add    $0x1,%esi
 804f8e3:	c6 03 c9             	movb   $0xc9,(%ebx)
 804f8e6:	83 c3 01             	add    $0x1,%ebx
 804f8e9:	83 fe 3f             	cmp    $0x3f,%esi
 804f8ec:	76 f2                	jbe    804f8e0 <geteuid@plt+0x6108>
 804f8ee:	83 c4 2c             	add    $0x2c,%esp
 804f8f1:	31 c0                	xor    %eax,%eax
 804f8f3:	5b                   	pop    %ebx
 804f8f4:	5e                   	pop    %esi
 804f8f5:	5f                   	pop    %edi
 804f8f6:	5d                   	pop    %ebp
 804f8f7:	c3                   	ret    
 804f8f8:	85 c0                	test   %eax,%eax
 804f8fa:	74 db                	je     804f8d7 <geteuid@plt+0x60ff>
 804f8fc:	c7 44 24 08 10 00 00 	movl   $0x10,0x8(%esp)
 804f903:	00 
 804f904:	89 7c 24 04          	mov    %edi,0x4(%esp)
 804f908:	89 04 24             	mov    %eax,(%esp)
 804f90b:	e8 38 9b ff ff       	call   8049448 <strtol@plt>
 804f910:	0f b6 80 cf e2 05 08 	movzbl 0x805e2cf(%eax),%eax
 804f917:	88 04 33             	mov    %al,(%ebx,%esi,1)
 804f91a:	8b 4d e4             	mov    -0x1c(%ebp),%ecx
 804f91d:	31 c0                	xor    %eax,%eax
 804f91f:	0f b6 11             	movzbl (%ecx),%edx
 804f922:	84 d2                	test   %dl,%dl
 804f924:	0f 84 b1 00 00 00    	je     804f9db <geteuid@plt+0x6203>
 804f92a:	80 fa 3a             	cmp    $0x3a,%dl
 804f92d:	0f 84 a5 00 00 00    	je     804f9d8 <geteuid@plt+0x6200>
 804f933:	c7 04 24 98 e2 05 08 	movl   $0x805e298,(%esp)
 804f93a:	e8 e9 9a ff ff       	call   8049428 <gettext@plt>
 804f93f:	c7 44 24 04 01 00 00 	movl   $0x1,0x4(%esp)
 804f946:	00 
 804f947:	89 44 24 08          	mov    %eax,0x8(%esp)
 804f94b:	a1 80 28 06 08       	mov    0x8062880,%eax
 804f950:	89 04 24             	mov    %eax,(%esp)
 804f953:	e8 b0 99 ff ff       	call   8049308 <__fprintf_chk@plt>
 804f958:	8b 45 0c             	mov    0xc(%ebp),%eax
 804f95b:	c7 40 02 c9 c9 c9 c9 	movl   $0xc9c9c9c9,0x2(%eax)
 804f962:	b8 ff ff ff ff       	mov    $0xffffffff,%eax
 804f967:	c7 43 04 c9 c9 c9 c9 	movl   $0xc9c9c9c9,0x4(%ebx)
 804f96e:	c7 43 08 c9 c9 c9 c9 	movl   $0xc9c9c9c9,0x8(%ebx)
 804f975:	c7 43 0c c9 c9 c9 c9 	movl   $0xc9c9c9c9,0xc(%ebx)
 804f97c:	c7 43 10 c9 c9 c9 c9 	movl   $0xc9c9c9c9,0x10(%ebx)
 804f983:	c7 43 14 c9 c9 c9 c9 	movl   $0xc9c9c9c9,0x14(%ebx)
 804f98a:	c7 43 18 c9 c9 c9 c9 	movl   $0xc9c9c9c9,0x18(%ebx)
 804f991:	c7 43 1c c9 c9 c9 c9 	movl   $0xc9c9c9c9,0x1c(%ebx)
 804f998:	c7 43 20 c9 c9 c9 c9 	movl   $0xc9c9c9c9,0x20(%ebx)
 804f99f:	c7 43 24 c9 c9 c9 c9 	movl   $0xc9c9c9c9,0x24(%ebx)
 804f9a6:	c7 43 28 c9 c9 c9 c9 	movl   $0xc9c9c9c9,0x28(%ebx)
 804f9ad:	c7 43 2c c9 c9 c9 c9 	movl   $0xc9c9c9c9,0x2c(%ebx)
 804f9b4:	c7 43 30 c9 c9 c9 c9 	movl   $0xc9c9c9c9,0x30(%ebx)
 804f9bb:	c7 43 34 c9 c9 c9 c9 	movl   $0xc9c9c9c9,0x34(%ebx)
 804f9c2:	c7 43 38 c9 c9 c9 c9 	movl   $0xc9c9c9c9,0x38(%ebx)
 804f9c9:	c7 43 3c c9 c9 c9 c9 	movl   $0xc9c9c9c9,0x3c(%ebx)
 804f9d0:	83 c4 2c             	add    $0x2c,%esp
 804f9d3:	5b                   	pop    %ebx
 804f9d4:	5e                   	pop    %esi
 804f9d5:	5f                   	pop    %edi
 804f9d6:	5d                   	pop    %ebp
 804f9d7:	c3                   	ret    
 804f9d8:	8d 41 01             	lea    0x1(%ecx),%eax
 804f9db:	83 c6 01             	add    $0x1,%esi
 804f9de:	e9 ef fe ff ff       	jmp    804f8d2 <geteuid@plt+0x60fa>
 804f9e3:	8d b6 00 00 00 00    	lea    0x0(%esi),%esi
 804f9e9:	8d bc 27 00 00 00 00 	lea    0x0(%edi,%eiz,1),%edi
 804f9f0:	55                   	push   %ebp
 804f9f1:	89 e5                	mov    %esp,%ebp
 804f9f3:	57                   	push   %edi
 804f9f4:	56                   	push   %esi
 804f9f5:	53                   	push   %ebx
 804f9f6:	83 ec 2c             	sub    $0x2c,%esp
 804f9f9:	8b 75 08             	mov    0x8(%ebp),%esi
 804f9fc:	c6 05 20 2d 06 08 5b 	movb   $0x5b,0x8062d20
 804fa03:	0f b6 06             	movzbl (%esi),%eax
 804fa06:	3c ff                	cmp    $0xff,%al
 804fa08:	74 6e                	je     804fa78 <geteuid@plt+0x62a0>
 804fa0a:	31 db                	xor    %ebx,%ebx
 804fa0c:	3c c9                	cmp    $0xc9,%al
 804fa0e:	75 12                	jne    804fa22 <geteuid@plt+0x624a>
 804fa10:	eb 66                	jmp    804fa78 <geteuid@plt+0x62a0>
 804fa12:	8d b6 00 00 00 00    	lea    0x0(%esi),%esi
 804fa18:	3c c9                	cmp    $0xc9,%al
 804fa1a:	74 44                	je     804fa60 <geteuid@plt+0x6288>
 804fa1c:	83 fb 40             	cmp    $0x40,%ebx
 804fa1f:	90                   	nop
 804fa20:	74 3e                	je     804fa60 <geteuid@plt+0x6288>
 804fa22:	83 c3 01             	add    $0x1,%ebx
 804fa25:	0f b6 c0             	movzbl %al,%eax
 804fa28:	89 44 24 10          	mov    %eax,0x10(%esp)
 804fa2c:	8d 83 20 2d 06 08    	lea    0x8062d20(%ebx),%eax
 804fa32:	c7 44 24 0c ae e2 05 	movl   $0x805e2ae,0xc(%esp)
 804fa39:	08 
 804fa3a:	8d bb 21 2d 06 08    	lea    0x8062d21(%ebx),%edi
 804fa40:	c7 44 24 08 7f 00 00 	movl   $0x7f,0x8(%esp)
 804fa47:	00 
 804fa48:	c7 44 24 04 01 00 00 	movl   $0x1,0x4(%esp)
 804fa4f:	00 
 804fa50:	89 04 24             	mov    %eax,(%esp)
 804fa53:	e8 c0 9c ff ff       	call   8049718 <__sprintf_chk@plt>
 804fa58:	0f b6 04 1e          	movzbl (%esi,%ebx,1),%eax
 804fa5c:	3c ff                	cmp    $0xff,%al
 804fa5e:	75 b8                	jne    804fa18 <geteuid@plt+0x6240>
 804fa60:	8d 47 01             	lea    0x1(%edi),%eax
 804fa63:	c6 07 5d             	movb   $0x5d,(%edi)
 804fa66:	c6 00 00             	movb   $0x0,(%eax)
 804fa69:	83 c4 2c             	add    $0x2c,%esp
 804fa6c:	b8 20 2d 06 08       	mov    $0x8062d20,%eax
 804fa71:	5b                   	pop    %ebx
 804fa72:	5e                   	pop    %esi
 804fa73:	5f                   	pop    %edi
 804fa74:	5d                   	pop    %ebp
 804fa75:	c3                   	ret    
 804fa76:	66 90                	xchg   %ax,%ax
 804fa78:	b8 22 2d 06 08       	mov    $0x8062d22,%eax
 804fa7d:	bf 21 2d 06 08       	mov    $0x8062d21,%edi
 804fa82:	eb df                	jmp    804fa63 <geteuid@plt+0x628b>
 804fa84:	8d b6 00 00 00 00    	lea    0x0(%esi),%esi
 804fa8a:	8d bf 00 00 00 00    	lea    0x0(%edi),%edi
 804fa90:	55                   	push   %ebp
 804fa91:	89 e5                	mov    %esp,%ebp
 804fa93:	83 ec 18             	sub    $0x18,%esp
 804fa96:	8b 45 08             	mov    0x8(%ebp),%eax
 804fa99:	66 83 38 12          	cmpw   $0x12,(%eax)
 804fa9d:	74 21                	je     804fac0 <geteuid@plt+0x62e8>
 804fa9f:	c7 44 24 08 40 00 00 	movl   $0x40,0x8(%esp)
 804faa6:	00 
 804faa7:	c7 44 24 04 b2 e2 05 	movl   $0x805e2b2,0x4(%esp)
 804faae:	08 
 804faaf:	c7 04 24 e0 2c 06 08 	movl   $0x8062ce0,(%esp)
 804fab6:	e8 c5 8c 00 00       	call   8058780 <geteuid@plt+0xefa8>
 804fabb:	c9                   	leave  
 804fabc:	c3                   	ret    
 804fabd:	8d 76 00             	lea    0x0(%esi),%esi
 804fac0:	83 c0 02             	add    $0x2,%eax
 804fac3:	89 45 08             	mov    %eax,0x8(%ebp)
 804fac6:	c9                   	leave  
 804fac7:	e9 24 ff ff ff       	jmp    804f9f0 <geteuid@plt+0x6218>
 804facc:	90                   	nop
 804facd:	90                   	nop
 804face:	90                   	nop
 804facf:	90                   	nop
 804fad0:	55                   	push   %ebp
 804fad1:	89 e5                	mov    %esp,%ebp
 804fad3:	83 ec 28             	sub    $0x28,%esp
 804fad6:	8b 45 08             	mov    0x8(%ebp),%eax
 804fad9:	85 c0                	test   %eax,%eax
 804fadb:	74 2b                	je     804fb08 <geteuid@plt+0x6330>
 804fadd:	c7 44 24 10 00 2e 06 	movl   $0x8062e00,0x10(%esp)
 804fae4:	08 
 804fae5:	89 44 24 0c          	mov    %eax,0xc(%esp)
 804fae9:	c7 44 24 08 df e2 05 	movl   $0x805e2df,0x8(%esp)
 804faf0:	08 
 804faf1:	c7 44 24 04 01 00 00 	movl   $0x1,0x4(%esp)
 804faf8:	00 
 804faf9:	a1 80 28 06 08       	mov    0x8062880,%eax
 804fafe:	89 04 24             	mov    %eax,(%esp)
 804fb01:	e8 02 98 ff ff       	call   8049308 <__fprintf_chk@plt>
 804fb06:	c9                   	leave  
 804fb07:	c3                   	ret    
 804fb08:	c7 44 24 0c 00 2e 06 	movl   $0x8062e00,0xc(%esp)
 804fb0f:	08 
 804fb10:	c7 44 24 08 61 be 05 	movl   $0x805be61,0x8(%esp)
 804fb17:	08 
 804fb18:	c7 44 24 04 01 00 00 	movl   $0x1,0x4(%esp)
 804fb1f:	00 
 804fb20:	a1 80 28 06 08       	mov    0x8062880,%eax
 804fb25:	89 04 24             	mov    %eax,(%esp)
 804fb28:	e8 db 97 ff ff       	call   8049308 <__fprintf_chk@plt>
 804fb2d:	c9                   	leave  
 804fb2e:	c3                   	ret    
 804fb2f:	90                   	nop
 804fb30:	55                   	push   %ebp
 804fb31:	89 e5                	mov    %esp,%ebp
 804fb33:	57                   	push   %edi
 804fb34:	56                   	push   %esi
 804fb35:	53                   	push   %ebx
 804fb36:	83 ec 2c             	sub    $0x2c,%esp
 804fb39:	8b 4d 10             	mov    0x10(%ebp),%ecx
 804fb3c:	8b 7d 0c             	mov    0xc(%ebp),%edi
 804fb3f:	a1 48 21 06 08       	mov    0x8062148,%eax
 804fb44:	66 89 01             	mov    %ax,(%ecx)
 804fb47:	0f b6 17             	movzbl (%edi),%edx
 804fb4a:	83 c1 02             	add    $0x2,%ecx
 804fb4d:	89 cb                	mov    %ecx,%ebx
 804fb4f:	80 fa 2d             	cmp    $0x2d,%dl
 804fb52:	0f 84 88 01 00 00    	je     804fce0 <geteuid@plt+0x6508>
 804fb58:	84 d2                	test   %dl,%dl
 804fb5a:	0f 84 80 01 00 00    	je     804fce0 <geteuid@plt+0x6508>
 804fb60:	88 55 dc             	mov    %dl,-0x24(%ebp)
 804fb63:	be 01 00 00 00       	mov    $0x1,%esi
 804fb68:	89 4d d8             	mov    %ecx,-0x28(%ebp)
 804fb6b:	e8 68 99 ff ff       	call   80494d8 <__ctype_b_loc@plt>
 804fb70:	0f b6 55 dc          	movzbl -0x24(%ebp),%edx
 804fb74:	8b 4d d8             	mov    -0x28(%ebp),%ecx
 804fb77:	89 d3                	mov    %edx,%ebx
 804fb79:	89 ca                	mov    %ecx,%edx
 804fb7b:	89 45 e0             	mov    %eax,-0x20(%ebp)
 804fb7e:	8b 45 e0             	mov    -0x20(%ebp),%eax
 804fb81:	0f be db             	movsbl %bl,%ebx
 804fb84:	8b 08                	mov    (%eax),%ecx
 804fb86:	0f b7 04 59          	movzwl (%ecx,%ebx,2),%eax
 804fb8a:	f6 c4 02             	test   $0x2,%ah
 804fb8d:	74 1b                	je     804fbaa <geteuid@plt+0x63d2>
 804fb8f:	89 55 dc             	mov    %edx,-0x24(%ebp)
 804fb92:	89 4d d8             	mov    %ecx,-0x28(%ebp)
 804fb95:	e8 be 98 ff ff       	call   8049458 <__ctype_toupper_loc@plt>
 804fb9a:	8b 4d d8             	mov    -0x28(%ebp),%ecx
 804fb9d:	8b 55 dc             	mov    -0x24(%ebp),%edx
 804fba0:	8b 00                	mov    (%eax),%eax
 804fba2:	0f be 1c 98          	movsbl (%eax,%ebx,4),%ebx
 804fba6:	0f b7 04 59          	movzwl (%ecx,%ebx,2),%eax
 804fbaa:	f6 c4 09             	test   $0x9,%ah
 804fbad:	0f 84 c5 00 00 00    	je     804fc78 <geteuid@plt+0x64a0>
 804fbb3:	01 db                	add    %ebx,%ebx
 804fbb5:	83 c7 01             	add    $0x1,%edi
 804fbb8:	88 5c 32 ff          	mov    %bl,-0x1(%edx,%esi,1)
 804fbbc:	8d 0c 32             	lea    (%edx,%esi,1),%ecx
 804fbbf:	89 75 e4             	mov    %esi,-0x1c(%ebp)
 804fbc2:	0f b6 07             	movzbl (%edi),%eax
 804fbc5:	3c 2d                	cmp    $0x2d,%al
 804fbc7:	89 c3                	mov    %eax,%ebx
 804fbc9:	74 04                	je     804fbcf <geteuid@plt+0x63f7>
 804fbcb:	84 c0                	test   %al,%al
 804fbcd:	75 51                	jne    804fc20 <geteuid@plt+0x6448>
 804fbcf:	83 7d e4 06          	cmpl   $0x6,-0x1c(%ebp)
 804fbd3:	89 da                	mov    %ebx,%edx
 804fbd5:	89 cb                	mov    %ecx,%ebx
 804fbd7:	74 5d                	je     804fc36 <geteuid@plt+0x645e>
 804fbd9:	8b 55 e4             	mov    -0x1c(%ebp),%edx
 804fbdc:	83 c2 01             	add    $0x1,%edx
 804fbdf:	83 7d e4 05          	cmpl   $0x5,-0x1c(%ebp)
 804fbe3:	0f 87 01 01 00 00    	ja     804fcea <geteuid@plt+0x6512>
 804fbe9:	8d b4 26 00 00 00 00 	lea    0x0(%esi,%eiz,1),%esi
 804fbf0:	83 c2 01             	add    $0x1,%edx
 804fbf3:	8d 42 ff             	lea    -0x1(%edx),%eax
 804fbf6:	c6 03 40             	movb   $0x40,(%ebx)
 804fbf9:	83 c3 01             	add    $0x1,%ebx
 804fbfc:	83 f8 05             	cmp    $0x5,%eax
 804fbff:	76 ef                	jbe    804fbf0 <geteuid@plt+0x6418>
 804fc01:	0f b6 17             	movzbl (%edi),%edx
 804fc04:	80 fa 2d             	cmp    $0x2d,%dl
 804fc07:	0f 84 a7 00 00 00    	je     804fcb4 <geteuid@plt+0x64dc>
 804fc0d:	c6 03 00             	movb   $0x0,(%ebx)
 804fc10:	31 c0                	xor    %eax,%eax
 804fc12:	83 c4 2c             	add    $0x2c,%esp
 804fc15:	5b                   	pop    %ebx
 804fc16:	5e                   	pop    %esi
 804fc17:	5f                   	pop    %edi
 804fc18:	5d                   	pop    %ebp
 804fc19:	c3                   	ret    
 804fc1a:	8d b6 00 00 00 00    	lea    0x0(%esi),%esi
 804fc20:	83 c6 01             	add    $0x1,%esi
 804fc23:	83 fe 07             	cmp    $0x7,%esi
 804fc26:	0f 85 52 ff ff ff    	jne    804fb7e <geteuid@plt+0x63a6>
 804fc2c:	83 7d e4 06          	cmpl   $0x6,-0x1c(%ebp)
 804fc30:	89 da                	mov    %ebx,%edx
 804fc32:	89 cb                	mov    %ecx,%ebx
 804fc34:	75 a3                	jne    804fbd9 <geteuid@plt+0x6401>
 804fc36:	3c 2d                	cmp    $0x2d,%al
 804fc38:	74 ca                	je     804fc04 <geteuid@plt+0x642c>
 804fc3a:	84 c0                	test   %al,%al
 804fc3c:	74 c6                	je     804fc04 <geteuid@plt+0x642c>
 804fc3e:	c7 04 24 f8 e2 05 08 	movl   $0x805e2f8,(%esp)
 804fc45:	e8 de 97 ff ff       	call   8049428 <gettext@plt>
 804fc4a:	c7 44 24 08 80 00 00 	movl   $0x80,0x8(%esp)
 804fc51:	00 
 804fc52:	c7 04 24 00 2e 06 08 	movl   $0x8062e00,(%esp)
 804fc59:	89 44 24 04          	mov    %eax,0x4(%esp)
 804fc5d:	e8 86 99 ff ff       	call   80495e8 <__strcpy_chk@plt>
 804fc62:	e8 11 96 ff ff       	call   8049278 <__errno_location@plt>
 804fc67:	c7 00 07 00 00 00    	movl   $0x7,(%eax)
 804fc6d:	83 c8 ff             	or     $0xffffffff,%eax
 804fc70:	eb a0                	jmp    804fc12 <geteuid@plt+0x643a>
 804fc72:	8d b6 00 00 00 00    	lea    0x0(%esi),%esi
 804fc78:	c7 04 24 e7 e2 05 08 	movl   $0x805e2e7,(%esp)
 804fc7f:	e8 a4 97 ff ff       	call   8049428 <gettext@plt>
 804fc84:	c7 44 24 08 80 00 00 	movl   $0x80,0x8(%esp)
 804fc8b:	00 
 804fc8c:	c7 04 24 00 2e 06 08 	movl   $0x8062e00,(%esp)
 804fc93:	89 44 24 04          	mov    %eax,0x4(%esp)
 804fc97:	e8 e4 8a 00 00       	call   8058780 <geteuid@plt+0xefa8>
 804fc9c:	e8 d7 95 ff ff       	call   8049278 <__errno_location@plt>
 804fca1:	c7 00 16 00 00 00    	movl   $0x16,(%eax)
 804fca7:	83 c4 2c             	add    $0x2c,%esp
 804fcaa:	b8 ff ff ff ff       	mov    $0xffffffff,%eax
 804fcaf:	5b                   	pop    %ebx
 804fcb0:	5e                   	pop    %esi
 804fcb1:	5f                   	pop    %edi
 804fcb2:	5d                   	pop    %ebp
 804fcb3:	c3                   	ret    
 804fcb4:	83 c7 01             	add    $0x1,%edi
 804fcb7:	c7 44 24 08 0a 00 00 	movl   $0xa,0x8(%esp)
 804fcbe:	00 
 804fcbf:	c7 44 24 04 00 00 00 	movl   $0x0,0x4(%esp)
 804fcc6:	00 
 804fcc7:	89 3c 24             	mov    %edi,(%esp)
 804fcca:	e8 79 97 ff ff       	call   8049448 <strtol@plt>
 804fccf:	01 c0                	add    %eax,%eax
 804fcd1:	88 03                	mov    %al,(%ebx)
 804fcd3:	31 c0                	xor    %eax,%eax
 804fcd5:	e9 38 ff ff ff       	jmp    804fc12 <geteuid@plt+0x643a>
 804fcda:	8d b6 00 00 00 00    	lea    0x0(%esi),%esi
 804fce0:	ba 01 00 00 00       	mov    $0x1,%edx
 804fce5:	e9 06 ff ff ff       	jmp    804fbf0 <geteuid@plt+0x6418>
 804fcea:	89 c2                	mov    %eax,%edx
 804fcec:	e9 13 ff ff ff       	jmp    804fc04 <geteuid@plt+0x642c>
 804fcf1:	eb 0d                	jmp    804fd00 <geteuid@plt+0x6528>
 804fcf3:	90                   	nop
 804fcf4:	90                   	nop
 804fcf5:	90                   	nop
 804fcf6:	90                   	nop
 804fcf7:	90                   	nop
 804fcf8:	90                   	nop
 804fcf9:	90                   	nop
 804fcfa:	90                   	nop
 804fcfb:	90                   	nop
 804fcfc:	90                   	nop
 804fcfd:	90                   	nop
 804fcfe:	90                   	nop
 804fcff:	90                   	nop
 804fd00:	55                   	push   %ebp
 804fd01:	89 e5                	mov    %esp,%ebp
 804fd03:	53                   	push   %ebx
 804fd04:	83 ec 14             	sub    $0x14,%esp
 804fd07:	8b 5d 0c             	mov    0xc(%ebp),%ebx
 804fd0a:	8b 45 08             	mov    0x8(%ebp),%eax
 804fd0d:	c7 04 24 00 00 00 00 	movl   $0x0,(%esp)
 804fd14:	89 5c 24 08          	mov    %ebx,0x8(%esp)
 804fd18:	89 44 24 04          	mov    %eax,0x4(%esp)
 804fd1c:	e8 0f fe ff ff       	call   804fb30 <geteuid@plt+0x6358>
 804fd21:	89 c2                	mov    %eax,%edx
 804fd23:	b8 ff ff ff ff       	mov    $0xffffffff,%eax
 804fd28:	85 d2                	test   %edx,%edx
 804fd2a:	78 07                	js     804fd33 <geteuid@plt+0x655b>
 804fd2c:	66 c7 03 03 00       	movw   $0x3,(%ebx)
 804fd31:	31 c0                	xor    %eax,%eax
 804fd33:	83 c4 14             	add    $0x14,%esp
 804fd36:	5b                   	pop    %ebx
 804fd37:	5d                   	pop    %ebp
 804fd38:	c3                   	ret    
 804fd39:	8d b4 26 00 00 00 00 	lea    0x0(%esi,%eiz,1),%esi
 804fd40:	55                   	push   %ebp
 804fd41:	31 c0                	xor    %eax,%eax
 804fd43:	89 e5                	mov    %esp,%ebp
 804fd45:	53                   	push   %ebx
 804fd46:	83 ec 24             	sub    $0x24,%esp
 804fd49:	8b 5d 08             	mov    0x8(%ebp),%ebx
 804fd4c:	8d 74 26 00          	lea    0x0(%esi,%eiz,1),%esi
 804fd50:	0f b6 14 03          	movzbl (%ebx,%eax,1),%edx
 804fd54:	d0 ea                	shr    %dl
 804fd56:	80 fa 20             	cmp    $0x20,%dl
 804fd59:	0f 94 c1             	sete   %cl
 804fd5c:	83 e9 01             	sub    $0x1,%ecx
 804fd5f:	21 d1                	and    %edx,%ecx
 804fd61:	88 88 e0 2d 06 08    	mov    %cl,0x8062de0(%eax)
 804fd67:	83 c0 01             	add    $0x1,%eax
 804fd6a:	83 f8 06             	cmp    $0x6,%eax
 804fd6d:	75 e1                	jne    804fd50 <geteuid@plt+0x6578>
 804fd6f:	c6 05 e6 2d 06 08 00 	movb   $0x0,0x8062de6
 804fd76:	0f b6 5b 06          	movzbl 0x6(%ebx),%ebx
 804fd7a:	83 e3 1e             	and    $0x1e,%ebx
 804fd7d:	d1 fb                	sar    %ebx
 804fd7f:	74 35                	je     804fdb6 <geteuid@plt+0x65de>
 804fd81:	c7 04 24 e0 2d 06 08 	movl   $0x8062de0,(%esp)
 804fd88:	e8 bb 97 ff ff       	call   8049548 <strlen@plt>
 804fd8d:	89 5c 24 10          	mov    %ebx,0x10(%esp)
 804fd91:	c7 44 24 0c 0a e3 05 	movl   $0x805e30a,0xc(%esp)
 804fd98:	08 
 804fd99:	c7 44 24 08 ff ff ff 	movl   $0xffffffff,0x8(%esp)
 804fda0:	ff 
 804fda1:	c7 44 24 04 01 00 00 	movl   $0x1,0x4(%esp)
 804fda8:	00 
 804fda9:	05 e0 2d 06 08       	add    $0x8062de0,%eax
 804fdae:	89 04 24             	mov    %eax,(%esp)
 804fdb1:	e8 62 99 ff ff       	call   8049718 <__sprintf_chk@plt>
 804fdb6:	83 c4 24             	add    $0x24,%esp
 804fdb9:	b8 e0 2d 06 08       	mov    $0x8062de0,%eax
 804fdbe:	5b                   	pop    %ebx
 804fdbf:	5d                   	pop    %ebp
 804fdc0:	c3                   	ret    
 804fdc1:	eb 0d                	jmp    804fdd0 <geteuid@plt+0x65f8>
 804fdc3:	90                   	nop
 804fdc4:	90                   	nop
 804fdc5:	90                   	nop
 804fdc6:	90                   	nop
 804fdc7:	90                   	nop
 804fdc8:	90                   	nop
 804fdc9:	90                   	nop
 804fdca:	90                   	nop
 804fdcb:	90                   	nop
 804fdcc:	90                   	nop
 804fdcd:	90                   	nop
 804fdce:	90                   	nop
 804fdcf:	90                   	nop
 804fdd0:	55                   	push   %ebp
 804fdd1:	89 e5                	mov    %esp,%ebp
 804fdd3:	83 ec 18             	sub    $0x18,%esp
 804fdd6:	8b 45 08             	mov    0x8(%ebp),%eax
 804fdd9:	0f b7 10             	movzwl (%eax),%edx
 804fddc:	83 ea 01             	sub    $0x1,%edx
 804fddf:	66 83 fa fd          	cmp    $0xfffd,%dx
 804fde3:	77 13                	ja     804fdf8 <geteuid@plt+0x6620>
 804fde5:	83 c0 02             	add    $0x2,%eax
 804fde8:	89 45 08             	mov    %eax,0x8(%ebp)
 804fdeb:	c9                   	leave  
 804fdec:	e9 4f ff ff ff       	jmp    804fd40 <geteuid@plt+0x6568>
 804fdf1:	8d b4 26 00 00 00 00 	lea    0x0(%esi,%eiz,1),%esi
 804fdf8:	c7 04 24 b2 e2 05 08 	movl   $0x805e2b2,(%esp)
 804fdff:	e8 24 96 ff ff       	call   8049428 <gettext@plt>
 804fe04:	c7 44 24 08 40 00 00 	movl   $0x40,0x8(%esp)
 804fe0b:	00 
 804fe0c:	c7 04 24 a0 2d 06 08 	movl   $0x8062da0,(%esp)
 804fe13:	89 44 24 04          	mov    %eax,0x4(%esp)
 804fe17:	e8 64 89 00 00       	call   8058780 <geteuid@plt+0xefa8>
 804fe1c:	c9                   	leave  
 804fe1d:	c3                   	ret    
 804fe1e:	90                   	nop
 804fe1f:	90                   	nop
 804fe20:	55                   	push   %ebp
 804fe21:	89 e5                	mov    %esp,%ebp
 804fe23:	83 ec 28             	sub    $0x28,%esp
 804fe26:	8b 55 08             	mov    0x8(%ebp),%edx
 804fe29:	83 ea 02             	sub    $0x2,%edx
 804fe2c:	0f b7 42 04          	movzwl 0x4(%edx),%eax
 804fe30:	0f b6 52 06          	movzbl 0x6(%edx),%edx
 804fe34:	66 c1 c8 08          	ror    $0x8,%ax
 804fe38:	0f b7 c0             	movzwl %ax,%eax
 804fe3b:	89 44 24 10          	mov    %eax,0x10(%esp)
 804fe3f:	89 54 24 14          	mov    %edx,0x14(%esp)
 804fe43:	c7 44 24 0c 0e e3 05 	movl   $0x805e30e,0xc(%esp)
 804fe4a:	08 
 804fe4b:	c7 44 24 08 40 00 00 	movl   $0x40,0x8(%esp)
 804fe52:	00 
 804fe53:	c7 44 24 04 01 00 00 	movl   $0x1,0x4(%esp)
 804fe5a:	00 
 804fe5b:	c7 04 24 c0 2e 06 08 	movl   $0x8062ec0,(%esp)
 804fe62:	e8 b1 98 ff ff       	call   8049718 <__sprintf_chk@plt>
 804fe67:	b8 c0 2e 06 08       	mov    $0x8062ec0,%eax
 804fe6c:	c9                   	leave  
 804fe6d:	c3                   	ret    
 804fe6e:	66 90                	xchg   %ax,%ax
 804fe70:	55                   	push   %ebp
 804fe71:	89 e5                	mov    %esp,%ebp
 804fe73:	83 ec 18             	sub    $0x18,%esp
 804fe76:	8b 45 08             	mov    0x8(%ebp),%eax
 804fe79:	66 83 38 05          	cmpw   $0x5,(%eax)
 804fe7d:	74 29                	je     804fea8 <geteuid@plt+0x66d0>
 804fe7f:	c7 04 24 b2 e2 05 08 	movl   $0x805e2b2,(%esp)
 804fe86:	e8 9d 95 ff ff       	call   8049428 <gettext@plt>
 804fe8b:	c7 44 24 08 40 00 00 	movl   $0x40,0x8(%esp)
 804fe92:	00 
 804fe93:	c7 04 24 80 2e 06 08 	movl   $0x8062e80,(%esp)
 804fe9a:	89 44 24 04          	mov    %eax,0x4(%esp)
 804fe9e:	e8 dd 88 00 00       	call   8058780 <geteuid@plt+0xefa8>
 804fea3:	c9                   	leave  
 804fea4:	c3                   	ret    
 804fea5:	8d 76 00             	lea    0x0(%esi),%esi
 804fea8:	83 c0 02             	add    $0x2,%eax
 804feab:	89 45 08             	mov    %eax,0x8(%ebp)
 804feae:	c9                   	leave  
 804feaf:	e9 6c ff ff ff       	jmp    804fe20 <geteuid@plt+0x6648>
 804feb4:	90                   	nop
 804feb5:	90                   	nop
 804feb6:	90                   	nop
 804feb7:	90                   	nop
 804feb8:	90                   	nop
 804feb9:	90                   	nop
 804feba:	90                   	nop
 804febb:	90                   	nop
 804febc:	90                   	nop
 804febd:	90                   	nop
 804febe:	90                   	nop
 804febf:	90                   	nop
 804fec0:	55                   	push   %ebp
 804fec1:	89 e5                	mov    %esp,%ebp
 804fec3:	83 ec 38             	sub    $0x38,%esp
 804fec6:	89 5d f4             	mov    %ebx,-0xc(%ebp)
 804fec9:	8b 5d 0c             	mov    0xc(%ebp),%ebx
 804fecc:	8d 45 e4             	lea    -0x1c(%ebp),%eax
 804fecf:	89 75 f8             	mov    %esi,-0x8(%ebp)
 804fed2:	8d 75 e0             	lea    -0x20(%ebp),%esi
 804fed5:	89 7d fc             	mov    %edi,-0x4(%ebp)
 804fed8:	8b 7d 10             	mov    0x10(%ebp),%edi
 804fedb:	89 74 24 0c          	mov    %esi,0xc(%esp)
 804fedf:	89 44 24 08          	mov    %eax,0x8(%esp)
 804fee3:	c7 44 24 04 eb f8 05 	movl   $0x805f8eb,0x4(%esp)
 804feea:	08 
 804feeb:	89 1c 24             	mov    %ebx,(%esp)
 804feee:	e8 f5 97 ff ff       	call   80496e8 <sscanf@plt>
 804fef3:	83 f8 01             	cmp    $0x1,%eax
 804fef6:	74 18                	je     804ff10 <geteuid@plt+0x6738>
 804fef8:	83 f8 02             	cmp    $0x2,%eax
 804fefb:	74 3b                	je     804ff38 <geteuid@plt+0x6760>
 804fefd:	b8 ff ff ff ff       	mov    $0xffffffff,%eax
 804ff02:	8b 5d f4             	mov    -0xc(%ebp),%ebx
 804ff05:	8b 75 f8             	mov    -0x8(%ebp),%esi
 804ff08:	8b 7d fc             	mov    -0x4(%ebp),%edi
 804ff0b:	89 ec                	mov    %ebp,%esp
 804ff0d:	5d                   	pop    %ebp
 804ff0e:	c3                   	ret    
 804ff0f:	90                   	nop
 804ff10:	89 74 24 08          	mov    %esi,0x8(%esp)
 804ff14:	c7 44 24 04 d3 bb 05 	movl   $0x805bbd3,0x4(%esp)
 804ff1b:	08 
 804ff1c:	89 1c 24             	mov    %ebx,(%esp)
 804ff1f:	e8 c4 97 ff ff       	call   80496e8 <sscanf@plt>
 804ff24:	83 f8 01             	cmp    $0x1,%eax
 804ff27:	75 d4                	jne    804fefd <geteuid@plt+0x6725>
 804ff29:	c6 47 06 00          	movb   $0x0,0x6(%edi)
 804ff2d:	8b 45 e0             	mov    -0x20(%ebp),%eax
 804ff30:	88 47 05             	mov    %al,0x5(%edi)
 804ff33:	31 c0                	xor    %eax,%eax
 804ff35:	eb cb                	jmp    804ff02 <geteuid@plt+0x672a>
 804ff37:	90                   	nop
 804ff38:	8b 45 e0             	mov    -0x20(%ebp),%eax
 804ff3b:	88 47 05             	mov    %al,0x5(%edi)
 804ff3e:	8b 45 e4             	mov    -0x1c(%ebp),%eax
 804ff41:	88 47 06             	mov    %al,0x6(%edi)
 804ff44:	31 c0                	xor    %eax,%eax
 804ff46:	eb ba                	jmp    804ff02 <geteuid@plt+0x672a>
 804ff48:	90                   	nop
 804ff49:	8d b4 26 00 00 00 00 	lea    0x0(%esi,%eiz,1),%esi
 804ff50:	55                   	push   %ebp
 804ff51:	89 e5                	mov    %esp,%ebp
 804ff53:	83 ec 28             	sub    $0x28,%esp
 804ff56:	8b 45 08             	mov    0x8(%ebp),%eax
 804ff59:	0f b6 10             	movzbl (%eax),%edx
 804ff5c:	89 54 24 14          	mov    %edx,0x14(%esp)
 804ff60:	0f b6 40 01          	movzbl 0x1(%eax),%eax
 804ff64:	c7 44 24 0c eb f8 05 	movl   $0x805f8eb,0xc(%esp)
 804ff6b:	08 
 804ff6c:	c7 44 24 08 40 00 00 	movl   $0x40,0x8(%esp)
 804ff73:	00 
 804ff74:	c7 44 24 04 01 00 00 	movl   $0x1,0x4(%esp)
 804ff7b:	00 
 804ff7c:	89 44 24 10          	mov    %eax,0x10(%esp)
 804ff80:	c7 04 24 00 2f 06 08 	movl   $0x8062f00,(%esp)
 804ff87:	e8 8c 97 ff ff       	call   8049718 <__sprintf_chk@plt>
 804ff8c:	b8 00 2f 06 08       	mov    $0x8062f00,%eax
 804ff91:	c9                   	leave  
 804ff92:	c3                   	ret    
 804ff93:	8d b6 00 00 00 00    	lea    0x0(%esi),%esi
 804ff99:	8d bc 27 00 00 00 00 	lea    0x0(%edi,%eiz,1),%edi
 804ffa0:	55                   	push   %ebp
 804ffa1:	89 e5                	mov    %esp,%ebp
 804ffa3:	83 ec 08             	sub    $0x8,%esp
 804ffa6:	8b 45 08             	mov    0x8(%ebp),%eax
 804ffa9:	66 83 38 13          	cmpw   $0x13,(%eax)
 804ffad:	74 11                	je     804ffc0 <geteuid@plt+0x67e8>
 804ffaf:	c7 45 08 b2 e2 05 08 	movl   $0x805e2b2,0x8(%ebp)
 804ffb6:	c9                   	leave  
 804ffb7:	e9 6c 94 ff ff       	jmp    8049428 <gettext@plt>
 804ffbc:	8d 74 26 00          	lea    0x0(%esi,%eiz,1),%esi
 804ffc0:	83 c0 05             	add    $0x5,%eax
 804ffc3:	89 45 08             	mov    %eax,0x8(%ebp)
 804ffc6:	c9                   	leave  
 804ffc7:	eb 87                	jmp    804ff50 <geteuid@plt+0x6778>
 804ffc9:	90                   	nop
 804ffca:	90                   	nop
 804ffcb:	90                   	nop
 804ffcc:	90                   	nop
 804ffcd:	90                   	nop
 804ffce:	90                   	nop
 804ffcf:	90                   	nop
 804ffd0:	55                   	push   %ebp
 804ffd1:	89 e5                	mov    %esp,%ebp
 804ffd3:	c7 05 20 22 06 08 60 	movl   $0x8053e60,0x8062220
 804ffda:	3e 05 08 
 804ffdd:	c7 05 60 22 06 08 f0 	movl   $0x8051cf0,0x8062260
 804ffe4:	1c 05 08 
 804ffe7:	c7 05 a0 23 06 08 90 	movl   $0x8057a90,0x80623a0
 804ffee:	7a 05 08 
 804fff1:	c7 05 60 21 06 08 80 	movl   $0x8059080,0x8062160
 804fff8:	90 05 08 
 804fffb:	c7 05 40 23 06 08 40 	movl   $0x8056c40,0x8062340
 8050002:	6c 05 08 
 8050005:	c7 05 a0 21 06 08 d0 	movl   $0x80591d0,0x80621a0
 805000c:	91 05 08 
 805000f:	c7 05 e0 24 06 08 00 	movl   $0x8058b00,0x80624e0
 8050016:	8b 05 08 
 8050019:	5d                   	pop    %ebp
 805001a:	c3                   	ret    
 805001b:	90                   	nop
 805001c:	8d 74 26 00          	lea    0x0(%esi,%eiz,1),%esi
 8050020:	55                   	push   %ebp
 8050021:	89 e5                	mov    %esp,%ebp
 8050023:	57                   	push   %edi
 8050024:	bf 08 00 00 00       	mov    $0x8,%edi
 8050029:	56                   	push   %esi
 805002a:	53                   	push   %ebx
 805002b:	81 ec 2c 01 00 00    	sub    $0x12c,%esp
 8050031:	65 a1 14 00 00 00    	mov    %gs:0x14,%eax
 8050037:	89 45 e4             	mov    %eax,-0x1c(%ebp)
 805003a:	31 c0                	xor    %eax,%eax
 805003c:	8b 45 08             	mov    0x8(%ebp),%eax
 805003f:	8d b5 e4 fe ff ff    	lea    -0x11c(%ebp),%esi
 8050045:	c7 44 24 08 00 01 00 	movl   $0x100,0x8(%esp)
 805004c:	00 
 805004d:	89 34 24             	mov    %esi,(%esp)
 8050050:	89 44 24 04          	mov    %eax,0x4(%esp)
 8050054:	e8 27 87 00 00       	call   8058780 <geteuid@plt+0xefa8>
 8050059:	eb 0b                	jmp    8050066 <geteuid@plt+0x688e>
 805005b:	90                   	nop
 805005c:	8d 74 26 00          	lea    0x0(%esi,%eiz,1),%esi
 8050060:	85 db                	test   %ebx,%ebx
 8050062:	89 de                	mov    %ebx,%esi
 8050064:	74 48                	je     80500ae <geteuid@plt+0x68d6>
 8050066:	c7 44 24 04 2c 00 00 	movl   $0x2c,0x4(%esp)
 805006d:	00 
 805006e:	89 34 24             	mov    %esi,(%esp)
 8050071:	e8 c2 96 ff ff       	call   8049738 <index@plt>
 8050076:	85 c0                	test   %eax,%eax
 8050078:	89 c3                	mov    %eax,%ebx
 805007a:	74 06                	je     8050082 <geteuid@plt+0x68aa>
 805007c:	c6 00 00             	movb   $0x0,(%eax)
 805007f:	83 c3 01             	add    $0x1,%ebx
 8050082:	80 3e 00             	cmpb   $0x0,(%esi)
 8050085:	74 d9                	je     8050060 <geteuid@plt+0x6888>
 8050087:	89 34 24             	mov    %esi,(%esp)
 805008a:	e8 b1 f4 ff ff       	call   804f540 <geteuid@plt+0x5d68>
 805008f:	85 c0                	test   %eax,%eax
 8050091:	74 34                	je     80500c7 <geteuid@plt+0x68ef>
 8050093:	8b 50 20             	mov    0x20(%eax),%edx
 8050096:	85 d2                	test   %edx,%edx
 8050098:	74 5d                	je     80500f7 <geteuid@plt+0x691f>
 805009a:	8b 45 0c             	mov    0xc(%ebp),%eax
 805009d:	89 04 24             	mov    %eax,(%esp)
 80500a0:	ff d2                	call   *%edx
 80500a2:	85 c0                	test   %eax,%eax
 80500a4:	75 0a                	jne    80500b0 <geteuid@plt+0x68d8>
 80500a6:	31 ff                	xor    %edi,%edi
 80500a8:	85 db                	test   %ebx,%ebx
 80500aa:	89 de                	mov    %ebx,%esi
 80500ac:	75 b8                	jne    8050066 <geteuid@plt+0x688e>
 80500ae:	89 f8                	mov    %edi,%eax
 80500b0:	8b 55 e4             	mov    -0x1c(%ebp),%edx
 80500b3:	65 33 15 14 00 00 00 	xor    %gs:0x14,%edx
 80500ba:	75 4f                	jne    805010b <geteuid@plt+0x6933>
 80500bc:	81 c4 2c 01 00 00    	add    $0x12c,%esp
 80500c2:	5b                   	pop    %ebx
 80500c3:	5e                   	pop    %esi
 80500c4:	5f                   	pop    %edi
 80500c5:	5d                   	pop    %ebp
 80500c6:	c3                   	ret    
 80500c7:	c7 04 24 40 e3 05 08 	movl   $0x805e340,(%esp)
 80500ce:	e8 55 93 ff ff       	call   8049428 <gettext@plt>
 80500d3:	89 74 24 0c          	mov    %esi,0xc(%esp)
 80500d7:	89 44 24 08          	mov    %eax,0x8(%esp)
 80500db:	a1 80 28 06 08       	mov    0x8062880,%eax
 80500e0:	c7 44 24 04 01 00 00 	movl   $0x1,0x4(%esp)
 80500e7:	00 
 80500e8:	89 04 24             	mov    %eax,(%esp)
 80500eb:	e8 18 92 ff ff       	call   8049308 <__fprintf_chk@plt>
 80500f0:	b8 03 00 00 00       	mov    $0x3,%eax
 80500f5:	eb b9                	jmp    80500b0 <geteuid@plt+0x68d8>
 80500f7:	8b 18                	mov    (%eax),%ebx
 80500f9:	c7 04 24 64 e3 05 08 	movl   $0x805e364,(%esp)
 8050100:	e8 23 93 ff ff       	call   8049428 <gettext@plt>
 8050105:	89 5c 24 0c          	mov    %ebx,0xc(%esp)
 8050109:	eb cc                	jmp    80500d7 <geteuid@plt+0x68ff>
 805010b:	e8 58 95 ff ff       	call   8049668 <__stack_chk_fail@plt>
 8050110:	55                   	push   %ebp
 8050111:	89 e5                	mov    %esp,%ebp
 8050113:	83 ec 48             	sub    $0x48,%esp
 8050116:	8b 45 08             	mov    0x8(%ebp),%eax
 8050119:	c7 44 24 04 2f 00 00 	movl   $0x2f,0x4(%esp)
 8050120:	00 
 8050121:	89 5d f4             	mov    %ebx,-0xc(%ebp)
 8050124:	8b 5d 0c             	mov    0xc(%ebp),%ebx
 8050127:	89 75 f8             	mov    %esi,-0x8(%ebp)
 805012a:	8b 75 10             	mov    0x10(%ebp),%esi
 805012d:	89 04 24             	mov    %eax,(%esp)
 8050130:	89 7d fc             	mov    %edi,-0x4(%ebp)
 8050133:	e8 40 92 ff ff       	call   8049378 <strchr@plt>
 8050138:	31 d2                	xor    %edx,%edx
 805013a:	85 c0                	test   %eax,%eax
 805013c:	75 12                	jne    8050150 <geteuid@plt+0x6978>
 805013e:	8b 5d f4             	mov    -0xc(%ebp),%ebx
 8050141:	89 d0                	mov    %edx,%eax
 8050143:	8b 75 f8             	mov    -0x8(%ebp),%esi
 8050146:	8b 7d fc             	mov    -0x4(%ebp),%edi
 8050149:	89 ec                	mov    %ebp,%esp
 805014b:	5d                   	pop    %ebp
 805014c:	c3                   	ret    
 805014d:	8d 76 00             	lea    0x0(%esi),%esi
 8050150:	c6 00 00             	movb   $0x0,(%eax)
 8050153:	8d 55 e4             	lea    -0x1c(%ebp),%edx
 8050156:	83 c0 01             	add    $0x1,%eax
 8050159:	89 54 24 04          	mov    %edx,0x4(%esp)
 805015d:	c7 44 24 08 00 00 00 	movl   $0x0,0x8(%esp)
 8050164:	00 
 8050165:	89 04 24             	mov    %eax,(%esp)
 8050168:	e8 cb 93 ff ff       	call   8049538 <strtoul@plt>
 805016d:	ba ff ff ff ff       	mov    $0xffffffff,%edx
 8050172:	89 c7                	mov    %eax,%edi
 8050174:	8b 45 e4             	mov    -0x1c(%ebp),%eax
 8050177:	80 38 00             	cmpb   $0x0,(%eax)
 805017a:	75 c2                	jne    805013e <geteuid@plt+0x6966>
 805017c:	85 f6                	test   %esi,%esi
 805017e:	74 24                	je     80501a4 <geteuid@plt+0x69cc>
 8050180:	89 7c 24 10          	mov    %edi,0x10(%esp)
 8050184:	c7 44 24 0c 10 e3 05 	movl   $0x805e310,0xc(%esp)
 805018b:	08 
 805018c:	c7 44 24 08 ff ff ff 	movl   $0xffffffff,0x8(%esp)
 8050193:	ff 
 8050194:	c7 44 24 04 01 00 00 	movl   $0x1,0x4(%esp)
 805019b:	00 
 805019c:	89 34 24             	mov    %esi,(%esp)
 805019f:	e8 74 95 ff ff       	call   8049718 <__sprintf_chk@plt>
 80501a4:	ba ff ff ff ff       	mov    $0xffffffff,%edx
 80501a9:	89 f9                	mov    %edi,%ecx
 80501ab:	d3 ea                	shr    %cl,%edx
 80501ad:	f7 d2                	not    %edx
 80501af:	66 c7 03 02 00       	movw   $0x2,(%ebx)
 80501b4:	0f ca                	bswap  %edx
 80501b6:	89 53 04             	mov    %edx,0x4(%ebx)
 80501b9:	ba 01 00 00 00       	mov    $0x1,%edx
 80501be:	e9 7b ff ff ff       	jmp    805013e <geteuid@plt+0x6966>
 80501c3:	8d b6 00 00 00 00    	lea    0x0(%esi),%esi
 80501c9:	8d bc 27 00 00 00 00 	lea    0x0(%edi,%eiz,1),%edi
 80501d0:	55                   	push   %ebp
 80501d1:	89 e5                	mov    %esp,%ebp
 80501d3:	83 ec 08             	sub    $0x8,%esp
 80501d6:	c9                   	leave  
 80501d7:	e9 cc 95 ff ff       	jmp    80497a8 <herror@plt>
 80501dc:	8d 74 26 00          	lea    0x0(%esi,%eiz,1),%esi
 80501e0:	55                   	push   %ebp
 80501e1:	89 e5                	mov    %esp,%ebp
 80501e3:	83 ec 38             	sub    $0x38,%esp
 80501e6:	89 5d f4             	mov    %ebx,-0xc(%ebp)
 80501e9:	89 d3                	mov    %edx,%ebx
 80501eb:	89 75 f8             	mov    %esi,-0x8(%ebp)
 80501ee:	89 c6                	mov    %eax,%esi
 80501f0:	89 7d fc             	mov    %edi,-0x4(%ebp)
 80501f3:	bf 89 e3 05 08       	mov    $0x805e389,%edi
 80501f8:	89 4d e0             	mov    %ecx,-0x20(%ebp)
 80501fb:	b9 08 00 00 00       	mov    $0x8,%ecx
 8050200:	89 45 e4             	mov    %eax,-0x1c(%ebp)
 8050203:	66 c7 02 02 00       	movw   $0x2,(%edx)
 8050208:	66 c7 42 02 00 00    	movw   $0x0,0x2(%edx)
 805020e:	f3 a6                	repz cmpsb %es:(%edi),%ds:(%esi)
 8050210:	75 1e                	jne    8050230 <geteuid@plt+0x6a58>
 8050212:	c7 42 04 00 00 00 00 	movl   $0x0,0x4(%edx)
 8050219:	b8 01 00 00 00       	mov    $0x1,%eax
 805021e:	8b 5d f4             	mov    -0xc(%ebp),%ebx
 8050221:	8b 75 f8             	mov    -0x8(%ebp),%esi
 8050224:	8b 7d fc             	mov    -0x4(%ebp),%edi
 8050227:	89 ec                	mov    %ebp,%esp
 8050229:	5d                   	pop    %ebp
 805022a:	c3                   	ret    
 805022b:	90                   	nop
 805022c:	8d 74 26 00          	lea    0x0(%esi,%eiz,1),%esi
 8050230:	8d 42 04             	lea    0x4(%edx),%eax
 8050233:	89 44 24 04          	mov    %eax,0x4(%esp)
 8050237:	8b 45 e4             	mov    -0x1c(%ebp),%eax
 805023a:	89 04 24             	mov    %eax,(%esp)
 805023d:	e8 a6 92 ff ff       	call   80494e8 <inet_aton@plt>
 8050242:	89 c2                	mov    %eax,%edx
 8050244:	31 c0                	xor    %eax,%eax
 8050246:	85 d2                	test   %edx,%edx
 8050248:	75 d4                	jne    805021e <geteuid@plt+0x6a46>
 805024a:	8b 55 e0             	mov    -0x20(%ebp),%edx
 805024d:	85 d2                	test   %edx,%edx
 805024f:	74 1f                	je     8050270 <geteuid@plt+0x6a98>
 8050251:	8b 45 e4             	mov    -0x1c(%ebp),%eax
 8050254:	89 04 24             	mov    %eax,(%esp)
 8050257:	e8 1c 95 ff ff       	call   8049778 <gethostbyname@plt>
 805025c:	85 c0                	test   %eax,%eax
 805025e:	74 10                	je     8050270 <geteuid@plt+0x6a98>
 8050260:	8b 40 10             	mov    0x10(%eax),%eax
 8050263:	8b 00                	mov    (%eax),%eax
 8050265:	8b 00                	mov    (%eax),%eax
 8050267:	89 43 04             	mov    %eax,0x4(%ebx)
 805026a:	31 c0                	xor    %eax,%eax
 805026c:	eb b0                	jmp    805021e <geteuid@plt+0x6a46>
 805026e:	66 90                	xchg   %ax,%ax
 8050270:	8b 45 e4             	mov    -0x1c(%ebp),%eax
 8050273:	89 04 24             	mov    %eax,(%esp)
 8050276:	e8 ed 92 ff ff       	call   8049568 <getnetbyname@plt>
 805027b:	85 c0                	test   %eax,%eax
 805027d:	74 11                	je     8050290 <geteuid@plt+0x6ab8>
 805027f:	8b 40 0c             	mov    0xc(%eax),%eax
 8050282:	0f c8                	bswap  %eax
 8050284:	89 43 04             	mov    %eax,0x4(%ebx)
 8050287:	b8 01 00 00 00       	mov    $0x1,%eax
 805028c:	eb 90                	jmp    805021e <geteuid@plt+0x6a46>
 805028e:	66 90                	xchg   %ax,%ax
 8050290:	8b 45 e0             	mov    -0x20(%ebp),%eax
 8050293:	85 c0                	test   %eax,%eax
 8050295:	75 0f                	jne    80502a6 <geteuid@plt+0x6ace>
 8050297:	8b 45 e4             	mov    -0x1c(%ebp),%eax
 805029a:	89 04 24             	mov    %eax,(%esp)
 805029d:	e8 d6 94 ff ff       	call   8049778 <gethostbyname@plt>
 80502a2:	85 c0                	test   %eax,%eax
 80502a4:	75 ba                	jne    8050260 <geteuid@plt+0x6a88>
 80502a6:	e8 cd 8f ff ff       	call   8049278 <__errno_location@plt>
 80502ab:	89 c3                	mov    %eax,%ebx
 80502ad:	e8 e6 92 ff ff       	call   8049598 <__h_errno_location@plt>
 80502b2:	8b 00                	mov    (%eax),%eax
 80502b4:	89 03                	mov    %eax,(%ebx)
 80502b6:	b8 ff ff ff ff       	mov    $0xffffffff,%eax
 80502bb:	e9 5e ff ff ff       	jmp    805021e <geteuid@plt+0x6a46>
 80502c0:	55                   	push   %ebp
 80502c1:	89 e5                	mov    %esp,%ebp
 80502c3:	57                   	push   %edi
 80502c4:	56                   	push   %esi
 80502c5:	53                   	push   %ebx
 80502c6:	83 ec 1c             	sub    $0x1c,%esp
 80502c9:	8b 45 08             	mov    0x8(%ebp),%eax
 80502cc:	83 f8 01             	cmp    $0x1,%eax
 80502cf:	74 27                	je     80502f8 <geteuid@plt+0x6b20>
 80502d1:	3d 00 01 00 00       	cmp    $0x100,%eax
 80502d6:	0f 84 a4 00 00 00    	je     8050380 <geteuid@plt+0x6ba8>
 80502dc:	8b 55 10             	mov    0x10(%ebp),%edx
 80502df:	31 c9                	xor    %ecx,%ecx
 80502e1:	8b 45 0c             	mov    0xc(%ebp),%eax
 80502e4:	e8 f7 fe ff ff       	call   80501e0 <geteuid@plt+0x6a08>
 80502e9:	83 c4 1c             	add    $0x1c,%esp
 80502ec:	5b                   	pop    %ebx
 80502ed:	5e                   	pop    %esi
 80502ee:	5f                   	pop    %edi
 80502ef:	5d                   	pop    %ebp
 80502f0:	c3                   	ret    
 80502f1:	8d b4 26 00 00 00 00 	lea    0x0(%esi,%eiz,1),%esi
 80502f8:	8b 45 10             	mov    0x10(%ebp),%eax
 80502fb:	8d 7d e8             	lea    -0x18(%ebp),%edi
 80502fe:	c7 45 e4 00 00 00 00 	movl   $0x0,-0x1c(%ebp)
 8050305:	66 c7 00 02 00       	movw   $0x2,(%eax)
 805030a:	66 c7 40 02 00 00    	movw   $0x0,0x2(%eax)
 8050310:	e8 43 91 ff ff       	call   8049458 <__ctype_toupper_loc@plt>
 8050315:	8b 4d 0c             	mov    0xc(%ebp),%ecx
 8050318:	8d 55 e4             	lea    -0x1c(%ebp),%edx
 805031b:	89 c6                	mov    %eax,%esi
 805031d:	8b 06                	mov    (%esi),%eax
 805031f:	0f be 19             	movsbl (%ecx),%ebx
 8050322:	8b 1c 98             	mov    (%eax,%ebx,4),%ebx
 8050325:	89 d8                	mov    %ebx,%eax
 8050327:	88 19                	mov    %bl,(%ecx)
 8050329:	8d 58 bf             	lea    -0x41(%eax),%ebx
 805032c:	80 fb 05             	cmp    $0x5,%bl
 805032f:	77 67                	ja     8050398 <geteuid@plt+0x6bc0>
 8050331:	83 e8 37             	sub    $0x37,%eax
 8050334:	0a 02                	or     (%edx),%al
 8050336:	88 02                	mov    %al,(%edx)
 8050338:	0f be c0             	movsbl %al,%eax
 805033b:	c1 e0 04             	shl    $0x4,%eax
 805033e:	88 02                	mov    %al,(%edx)
 8050340:	8b 06                	mov    (%esi),%eax
 8050342:	0f be 59 01          	movsbl 0x1(%ecx),%ebx
 8050346:	8b 1c 98             	mov    (%eax,%ebx,4),%ebx
 8050349:	89 d8                	mov    %ebx,%eax
 805034b:	88 59 01             	mov    %bl,0x1(%ecx)
 805034e:	8d 58 bf             	lea    -0x41(%eax),%ebx
 8050351:	80 fb 05             	cmp    $0x5,%bl
 8050354:	77 52                	ja     80503a8 <geteuid@plt+0x6bd0>
 8050356:	83 e8 37             	sub    $0x37,%eax
 8050359:	08 02                	or     %al,(%edx)
 805035b:	83 c2 01             	add    $0x1,%edx
 805035e:	83 c1 02             	add    $0x2,%ecx
 8050361:	39 fa                	cmp    %edi,%edx
 8050363:	75 b8                	jne    805031d <geteuid@plt+0x6b45>
 8050365:	8b 55 10             	mov    0x10(%ebp),%edx
 8050368:	8b 45 e4             	mov    -0x1c(%ebp),%eax
 805036b:	0f c8                	bswap  %eax
 805036d:	89 42 04             	mov    %eax,0x4(%edx)
 8050370:	89 c8                	mov    %ecx,%eax
 8050372:	2b 45 0c             	sub    0xc(%ebp),%eax
 8050375:	83 c4 1c             	add    $0x1c,%esp
 8050378:	5b                   	pop    %ebx
 8050379:	5e                   	pop    %esi
 805037a:	5f                   	pop    %edi
 805037b:	5d                   	pop    %ebp
 805037c:	c3                   	ret    
 805037d:	8d 76 00             	lea    0x0(%esi),%esi
 8050380:	8b 55 10             	mov    0x10(%ebp),%edx
 8050383:	b9 01 00 00 00       	mov    $0x1,%ecx
 8050388:	8b 45 0c             	mov    0xc(%ebp),%eax
 805038b:	e8 50 fe ff ff       	call   80501e0 <geteuid@plt+0x6a08>
 8050390:	83 c4 1c             	add    $0x1c,%esp
 8050393:	5b                   	pop    %ebx
 8050394:	5e                   	pop    %esi
 8050395:	5f                   	pop    %edi
 8050396:	5d                   	pop    %ebp
 8050397:	c3                   	ret    
 8050398:	83 e8 30             	sub    $0x30,%eax
 805039b:	3c 09                	cmp    $0x9,%al
 805039d:	77 14                	ja     80503b3 <geteuid@plt+0x6bdb>
 805039f:	0a 02                	or     (%edx),%al
 80503a1:	88 02                	mov    %al,(%edx)
 80503a3:	eb 93                	jmp    8050338 <geteuid@plt+0x6b60>
 80503a5:	8d 76 00             	lea    0x0(%esi),%esi
 80503a8:	83 e8 30             	sub    $0x30,%eax
 80503ab:	3c 09                	cmp    $0x9,%al
 80503ad:	77 04                	ja     80503b3 <geteuid@plt+0x6bdb>
 80503af:	08 02                	or     %al,(%edx)
 80503b1:	eb a8                	jmp    805035b <geteuid@plt+0x6b83>
 80503b3:	b8 ff ff ff ff       	mov    $0xffffffff,%eax
 80503b8:	e9 2c ff ff ff       	jmp    80502e9 <geteuid@plt+0x6b11>
 80503bd:	8d 76 00             	lea    0x0(%esi),%esi
 80503c0:	55                   	push   %ebp
 80503c1:	89 e5                	mov    %esp,%ebp
 80503c3:	83 ec 08             	sub    $0x8,%esp
 80503c6:	8b 45 08             	mov    0x8(%ebp),%eax
 80503c9:	8b 00                	mov    (%eax),%eax
 80503cb:	89 45 08             	mov    %eax,0x8(%ebp)
 80503ce:	c9                   	leave  
 80503cf:	e9 04 8f ff ff       	jmp    80492d8 <inet_ntoa@plt>
 80503d4:	8d b6 00 00 00 00    	lea    0x0(%esi),%esi
 80503da:	8d bf 00 00 00 00    	lea    0x0(%edi),%edi
 80503e0:	55                   	push   %ebp
 80503e1:	b8 91 e3 05 08       	mov    $0x805e391,%eax
 80503e6:	89 e5                	mov    %esp,%ebp
 80503e8:	57                   	push   %edi
 80503e9:	56                   	push   %esi
 80503ea:	53                   	push   %ebx
 80503eb:	83 ec 3c             	sub    $0x3c,%esp
 80503ee:	8b 5d 08             	mov    0x8(%ebp),%ebx
 80503f1:	8b 7d 0c             	mov    0xc(%ebp),%edi
 80503f4:	85 db                	test   %ebx,%ebx
 80503f6:	74 3b                	je     8050433 <geteuid@plt+0x6c5b>
 80503f8:	8b 4d 10             	mov    0x10(%ebp),%ecx
 80503fb:	85 c9                	test   %ecx,%ecx
 80503fd:	74 41                	je     8050440 <geteuid@plt+0x6c68>
 80503ff:	66 c1 cb 08          	ror    $0x8,%bx
 8050403:	0f b7 db             	movzwl %bx,%ebx
 8050406:	89 5c 24 10          	mov    %ebx,0x10(%esp)
 805040a:	c7 44 24 0c d3 bb 05 	movl   $0x805bbd3,0xc(%esp)
 8050411:	08 
 8050412:	c7 44 24 08 40 00 00 	movl   $0x40,0x8(%esp)
 8050419:	00 
 805041a:	c7 44 24 04 01 00 00 	movl   $0x1,0x4(%esp)
 8050421:	00 
 8050422:	c7 04 24 e0 2f 06 08 	movl   $0x8062fe0,(%esp)
 8050429:	e8 ea 92 ff ff       	call   8049718 <__sprintf_chk@plt>
 805042e:	b8 e0 2f 06 08       	mov    $0x8062fe0,%eax
 8050433:	83 c4 3c             	add    $0x3c,%esp
 8050436:	5b                   	pop    %ebx
 8050437:	5e                   	pop    %esi
 8050438:	5f                   	pop    %edi
 8050439:	5d                   	pop    %ebp
 805043a:	c3                   	ret    
 805043b:	90                   	nop
 805043c:	8d 74 26 00          	lea    0x0(%esi,%eiz,1),%esi
 8050440:	80 3d d0 2f 06 08 00 	cmpb   $0x0,0x8062fd0
 8050447:	0f 84 5b 01 00 00    	je     80505a8 <geteuid@plt+0x6dd0>
 805044d:	c6 05 e0 2f 06 08 00 	movb   $0x0,0x8062fe0
 8050454:	0f b6 15 dd ba 05 08 	movzbl 0x805badd,%edx
 805045b:	0f b6 07             	movzbl (%edi),%eax
 805045e:	39 d0                	cmp    %edx,%eax
 8050460:	0f 85 92 00 00 00    	jne    80504f8 <geteuid@plt+0x6d20>
 8050466:	0f b6 57 01          	movzbl 0x1(%edi),%edx
 805046a:	3a 15 de ba 05 08    	cmp    0x805bade,%dl
 8050470:	0f 85 82 00 00 00    	jne    80504f8 <geteuid@plt+0x6d20>
 8050476:	0f b6 57 02          	movzbl 0x2(%edi),%edx
 805047a:	3a 15 df ba 05 08    	cmp    0x805badf,%dl
 8050480:	75 76                	jne    80504f8 <geteuid@plt+0x6d20>
 8050482:	0f b6 57 03          	movzbl 0x3(%edi),%edx
 8050486:	3a 15 e0 ba 05 08    	cmp    0x805bae0,%dl
 805048c:	75 6a                	jne    80504f8 <geteuid@plt+0x6d20>
 805048e:	a1 c4 2f 06 08       	mov    0x8062fc4,%eax
 8050493:	85 c0                	test   %eax,%eax
 8050495:	75 10                	jne    80504a7 <geteuid@plt+0x6ccf>
 8050497:	eb 4f                	jmp    80504e8 <geteuid@plt+0x6d10>
 8050499:	8d b4 26 00 00 00 00 	lea    0x0(%esi,%eiz,1),%esi
 80504a0:	8b 40 08             	mov    0x8(%eax),%eax
 80504a3:	85 c0                	test   %eax,%eax
 80504a5:	74 41                	je     80504e8 <geteuid@plt+0x6d10>
 80504a7:	3b 18                	cmp    (%eax),%ebx
 80504a9:	75 f5                	jne    80504a0 <geteuid@plt+0x6cc8>
 80504ab:	8b 40 04             	mov    0x4(%eax),%eax
 80504ae:	c7 44 24 0c 70 f4 05 	movl   $0x805f470,0xc(%esp)
 80504b5:	08 
 80504b6:	c7 44 24 08 40 00 00 	movl   $0x40,0x8(%esp)
 80504bd:	00 
 80504be:	c7 44 24 04 01 00 00 	movl   $0x1,0x4(%esp)
 80504c5:	00 
 80504c6:	89 44 24 10          	mov    %eax,0x10(%esp)
 80504ca:	c7 04 24 e0 2f 06 08 	movl   $0x8062fe0,(%esp)
 80504d1:	e8 42 92 ff ff       	call   8049718 <__sprintf_chk@plt>
 80504d6:	80 3d e0 2f 06 08 00 	cmpb   $0x0,0x8062fe0
 80504dd:	0f 85 4b ff ff ff    	jne    805042e <geteuid@plt+0x6c56>
 80504e3:	90                   	nop
 80504e4:	8d 74 26 00          	lea    0x0(%esi,%eiz,1),%esi
 80504e8:	66 c1 cb 08          	ror    $0x8,%bx
 80504ec:	e9 12 ff ff ff       	jmp    8050403 <geteuid@plt+0x6c2b>
 80504f1:	8d b4 26 00 00 00 00 	lea    0x0(%esi,%eiz,1),%esi
 80504f8:	0f b6 15 4e bb 05 08 	movzbl 0x805bb4e,%edx
 80504ff:	39 d0                	cmp    %edx,%eax
 8050501:	75 45                	jne    8050548 <geteuid@plt+0x6d70>
 8050503:	0f b6 57 01          	movzbl 0x1(%edi),%edx
 8050507:	3a 15 4f bb 05 08    	cmp    0x805bb4f,%dl
 805050d:	75 39                	jne    8050548 <geteuid@plt+0x6d70>
 805050f:	0f b6 57 02          	movzbl 0x2(%edi),%edx
 8050513:	3a 15 50 bb 05 08    	cmp    0x805bb50,%dl
 8050519:	75 2d                	jne    8050548 <geteuid@plt+0x6d70>
 805051b:	0f b6 57 03          	movzbl 0x3(%edi),%edx
 805051f:	3a 15 51 bb 05 08    	cmp    0x805bb51,%dl
 8050525:	75 21                	jne    8050548 <geteuid@plt+0x6d70>
 8050527:	a1 c8 2f 06 08       	mov    0x8062fc8,%eax
 805052c:	85 c0                	test   %eax,%eax
 805052e:	75 0f                	jne    805053f <geteuid@plt+0x6d67>
 8050530:	eb b6                	jmp    80504e8 <geteuid@plt+0x6d10>
 8050532:	8d b6 00 00 00 00    	lea    0x0(%esi),%esi
 8050538:	8b 40 08             	mov    0x8(%eax),%eax
 805053b:	85 c0                	test   %eax,%eax
 805053d:	74 a9                	je     80504e8 <geteuid@plt+0x6d10>
 805053f:	3b 18                	cmp    (%eax),%ebx
 8050541:	75 f5                	jne    8050538 <geteuid@plt+0x6d60>
 8050543:	e9 63 ff ff ff       	jmp    80504ab <geteuid@plt+0x6cd3>
 8050548:	0f b6 15 97 bb 05 08 	movzbl 0x805bb97,%edx
 805054f:	39 d0                	cmp    %edx,%eax
 8050551:	75 95                	jne    80504e8 <geteuid@plt+0x6d10>
 8050553:	0f b6 47 01          	movzbl 0x1(%edi),%eax
 8050557:	3a 05 98 bb 05 08    	cmp    0x805bb98,%al
 805055d:	75 89                	jne    80504e8 <geteuid@plt+0x6d10>
 805055f:	0f b6 47 02          	movzbl 0x2(%edi),%eax
 8050563:	3a 05 99 bb 05 08    	cmp    0x805bb99,%al
 8050569:	0f 85 79 ff ff ff    	jne    80504e8 <geteuid@plt+0x6d10>
 805056f:	0f b6 47 03          	movzbl 0x3(%edi),%eax
 8050573:	3a 05 9a bb 05 08    	cmp    0x805bb9a,%al
 8050579:	0f 85 69 ff ff ff    	jne    80504e8 <geteuid@plt+0x6d10>
 805057f:	a1 cc 2f 06 08       	mov    0x8062fcc,%eax
 8050584:	85 c0                	test   %eax,%eax
 8050586:	75 13                	jne    805059b <geteuid@plt+0x6dc3>
 8050588:	e9 5b ff ff ff       	jmp    80504e8 <geteuid@plt+0x6d10>
 805058d:	8d 76 00             	lea    0x0(%esi),%esi
 8050590:	8b 40 08             	mov    0x8(%eax),%eax
 8050593:	85 c0                	test   %eax,%eax
 8050595:	0f 84 4d ff ff ff    	je     80504e8 <geteuid@plt+0x6d10>
 805059b:	3b 18                	cmp    (%eax),%ebx
 805059d:	8d 76 00             	lea    0x0(%esi),%esi
 80505a0:	75 ee                	jne    8050590 <geteuid@plt+0x6db8>
 80505a2:	e9 04 ff ff ff       	jmp    80504ab <geteuid@plt+0x6cd3>
 80505a7:	90                   	nop
 80505a8:	c7 04 24 01 00 00 00 	movl   $0x1,(%esp)
 80505af:	90                   	nop
 80505b0:	e8 b3 8d ff ff       	call   8049368 <setservent@plt>
 80505b5:	8d 76 00             	lea    0x0(%esi),%esi
 80505b8:	e8 5b 8f ff ff       	call   8049518 <getservent@plt>
 80505bd:	85 c0                	test   %eax,%eax
 80505bf:	89 c2                	mov    %eax,%edx
 80505c1:	0f 84 9e 00 00 00    	je     8050665 <geteuid@plt+0x6e8d>
 80505c7:	89 55 e4             	mov    %edx,-0x1c(%ebp)
 80505ca:	c7 04 24 0c 00 00 00 	movl   $0xc,(%esp)
 80505d1:	e8 82 90 ff ff       	call   8049658 <malloc@plt>
 80505d6:	8b 55 e4             	mov    -0x1c(%ebp),%edx
 80505d9:	85 c0                	test   %eax,%eax
 80505db:	89 c6                	mov    %eax,%esi
 80505dd:	0f 84 05 02 00 00    	je     80507e8 <geteuid@plt+0x7010>
 80505e3:	8b 02                	mov    (%edx),%eax
 80505e5:	89 55 e4             	mov    %edx,-0x1c(%ebp)
 80505e8:	89 04 24             	mov    %eax,(%esp)
 80505eb:	e8 c8 91 ff ff       	call   80497b8 <__strdup@plt>
 80505f0:	8b 55 e4             	mov    -0x1c(%ebp),%edx
 80505f3:	89 46 04             	mov    %eax,0x4(%esi)
 80505f6:	8b 42 08             	mov    0x8(%edx),%eax
 80505f9:	89 06                	mov    %eax,(%esi)
 80505fb:	8b 42 0c             	mov    0xc(%edx),%eax
 80505fe:	0f b6 0d dd ba 05 08 	movzbl 0x805badd,%ecx
 8050605:	0f b6 10             	movzbl (%eax),%edx
 8050608:	39 ca                	cmp    %ecx,%edx
 805060a:	0f 85 e0 00 00 00    	jne    80506f0 <geteuid@plt+0x6f18>
 8050610:	0f b6 48 01          	movzbl 0x1(%eax),%ecx
 8050614:	3a 0d de ba 05 08    	cmp    0x805bade,%cl
 805061a:	0f 85 d0 00 00 00    	jne    80506f0 <geteuid@plt+0x6f18>
 8050620:	0f b6 48 02          	movzbl 0x2(%eax),%ecx
 8050624:	3a 0d df ba 05 08    	cmp    0x805badf,%cl
 805062a:	0f 85 c0 00 00 00    	jne    80506f0 <geteuid@plt+0x6f18>
 8050630:	0f b6 48 03          	movzbl 0x3(%eax),%ecx
 8050634:	3a 0d e0 ba 05 08    	cmp    0x805bae0,%cl
 805063a:	0f 85 b0 00 00 00    	jne    80506f0 <geteuid@plt+0x6f18>
 8050640:	a1 c4 2f 06 08       	mov    0x8062fc4,%eax
 8050645:	85 c0                	test   %eax,%eax
 8050647:	0f 84 6b 01 00 00    	je     80507b8 <geteuid@plt+0x6fe0>
 805064d:	89 46 08             	mov    %eax,0x8(%esi)
 8050650:	89 35 c4 2f 06 08    	mov    %esi,0x8062fc4
 8050656:	e8 bd 8e ff ff       	call   8049518 <getservent@plt>
 805065b:	85 c0                	test   %eax,%eax
 805065d:	89 c2                	mov    %eax,%edx
 805065f:	0f 85 62 ff ff ff    	jne    80505c7 <geteuid@plt+0x6def>
 8050665:	e8 1e 8c ff ff       	call   8049288 <endservent@plt>
 805066a:	c7 04 24 01 00 00 00 	movl   $0x1,(%esp)
 8050671:	e8 12 90 ff ff       	call   8049688 <setprotoent@plt>
 8050676:	e8 ad 8f ff ff       	call   8049628 <getprotoent@plt>
 805067b:	85 c0                	test   %eax,%eax
 805067d:	89 c2                	mov    %eax,%edx
 805067f:	74 5c                	je     80506dd <geteuid@plt+0x6f05>
 8050681:	89 55 e4             	mov    %edx,-0x1c(%ebp)
 8050684:	c7 04 24 0c 00 00 00 	movl   $0xc,(%esp)
 805068b:	e8 c8 8f ff ff       	call   8049658 <malloc@plt>
 8050690:	8b 55 e4             	mov    -0x1c(%ebp),%edx
 8050693:	85 c0                	test   %eax,%eax
 8050695:	89 c6                	mov    %eax,%esi
 8050697:	0f 84 33 01 00 00    	je     80507d0 <geteuid@plt+0x6ff8>
 805069d:	8b 02                	mov    (%edx),%eax
 805069f:	89 55 e4             	mov    %edx,-0x1c(%ebp)
 80506a2:	89 04 24             	mov    %eax,(%esp)
 80506a5:	e8 0e 91 ff ff       	call   80497b8 <__strdup@plt>
 80506aa:	8b 55 e4             	mov    -0x1c(%ebp),%edx
 80506ad:	89 46 04             	mov    %eax,0x4(%esi)
 80506b0:	8b 42 08             	mov    0x8(%edx),%eax
 80506b3:	66 c1 c8 08          	ror    $0x8,%ax
 80506b7:	0f b7 c0             	movzwl %ax,%eax
 80506ba:	89 06                	mov    %eax,(%esi)
 80506bc:	a1 cc 2f 06 08       	mov    0x8062fcc,%eax
 80506c1:	85 c0                	test   %eax,%eax
 80506c3:	0f 84 d7 00 00 00    	je     80507a0 <geteuid@plt+0x6fc8>
 80506c9:	89 46 08             	mov    %eax,0x8(%esi)
 80506cc:	89 35 cc 2f 06 08    	mov    %esi,0x8062fcc
 80506d2:	e8 51 8f ff ff       	call   8049628 <getprotoent@plt>
 80506d7:	85 c0                	test   %eax,%eax
 80506d9:	89 c2                	mov    %eax,%edx
 80506db:	75 a4                	jne    8050681 <geteuid@plt+0x6ea9>
 80506dd:	e8 f6 8e ff ff       	call   80495d8 <endprotoent@plt>
 80506e2:	c6 05 d0 2f 06 08 01 	movb   $0x1,0x8062fd0
 80506e9:	e9 5f fd ff ff       	jmp    805044d <geteuid@plt+0x6c75>
 80506ee:	66 90                	xchg   %ax,%ax
 80506f0:	0f b6 0d 4e bb 05 08 	movzbl 0x805bb4e,%ecx
 80506f7:	39 ca                	cmp    %ecx,%edx
 80506f9:	75 45                	jne    8050740 <geteuid@plt+0x6f68>
 80506fb:	0f b6 48 01          	movzbl 0x1(%eax),%ecx
 80506ff:	3a 0d 4f bb 05 08    	cmp    0x805bb4f,%cl
 8050705:	75 39                	jne    8050740 <geteuid@plt+0x6f68>
 8050707:	0f b6 48 02          	movzbl 0x2(%eax),%ecx
 805070b:	3a 0d 50 bb 05 08    	cmp    0x805bb50,%cl
 8050711:	75 2d                	jne    8050740 <geteuid@plt+0x6f68>
 8050713:	0f b6 48 03          	movzbl 0x3(%eax),%ecx
 8050717:	3a 0d 51 bb 05 08    	cmp    0x805bb51,%cl
 805071d:	75 21                	jne    8050740 <geteuid@plt+0x6f68>
 805071f:	a1 c8 2f 06 08       	mov    0x8062fc8,%eax
 8050724:	85 c0                	test   %eax,%eax
 8050726:	0f 84 d4 00 00 00    	je     8050800 <geteuid@plt+0x7028>
 805072c:	89 46 08             	mov    %eax,0x8(%esi)
 805072f:	89 35 c8 2f 06 08    	mov    %esi,0x8062fc8
 8050735:	e9 7e fe ff ff       	jmp    80505b8 <geteuid@plt+0x6de0>
 805073a:	8d b6 00 00 00 00    	lea    0x0(%esi),%esi
 8050740:	0f b6 0d 97 bb 05 08 	movzbl 0x805bb97,%ecx
 8050747:	39 ca                	cmp    %ecx,%edx
 8050749:	0f 85 69 fe ff ff    	jne    80505b8 <geteuid@plt+0x6de0>
 805074f:	0f b6 50 01          	movzbl 0x1(%eax),%edx
 8050753:	3a 15 98 bb 05 08    	cmp    0x805bb98,%dl
 8050759:	0f 85 59 fe ff ff    	jne    80505b8 <geteuid@plt+0x6de0>
 805075f:	0f b6 50 02          	movzbl 0x2(%eax),%edx
 8050763:	3a 15 99 bb 05 08    	cmp    0x805bb99,%dl
 8050769:	0f 85 49 fe ff ff    	jne    80505b8 <geteuid@plt+0x6de0>
 805076f:	0f b6 40 03          	movzbl 0x3(%eax),%eax
 8050773:	3a 05 9a bb 05 08    	cmp    0x805bb9a,%al
 8050779:	0f 85 39 fe ff ff    	jne    80505b8 <geteuid@plt+0x6de0>
 805077f:	a1 cc 2f 06 08       	mov    0x8062fcc,%eax
 8050784:	85 c0                	test   %eax,%eax
 8050786:	0f 84 8c 00 00 00    	je     8050818 <geteuid@plt+0x7040>
 805078c:	89 46 08             	mov    %eax,0x8(%esi)
 805078f:	89 35 cc 2f 06 08    	mov    %esi,0x8062fcc
 8050795:	e9 1e fe ff ff       	jmp    80505b8 <geteuid@plt+0x6de0>
 805079a:	8d b6 00 00 00 00    	lea    0x0(%esi),%esi
 80507a0:	89 35 cc 2f 06 08    	mov    %esi,0x8062fcc
 80507a6:	c7 46 08 00 00 00 00 	movl   $0x0,0x8(%esi)
 80507ad:	e9 c4 fe ff ff       	jmp    8050676 <geteuid@plt+0x6e9e>
 80507b2:	8d b6 00 00 00 00    	lea    0x0(%esi),%esi
 80507b8:	89 35 c4 2f 06 08    	mov    %esi,0x8062fc4
 80507be:	c7 46 08 00 00 00 00 	movl   $0x0,0x8(%esi)
 80507c5:	e9 ee fd ff ff       	jmp    80505b8 <geteuid@plt+0x6de0>
 80507ca:	8d b6 00 00 00 00    	lea    0x0(%esi),%esi
 80507d0:	c7 04 24 ac c4 05 08 	movl   $0x805c4ac,(%esp)
 80507d7:	e8 2c 8c ff ff       	call   8049408 <perror@plt>
 80507dc:	8b 55 e4             	mov    -0x1c(%ebp),%edx
 80507df:	e9 b9 fe ff ff       	jmp    805069d <geteuid@plt+0x6ec5>
 80507e4:	8d 74 26 00          	lea    0x0(%esi,%eiz,1),%esi
 80507e8:	c7 04 24 ac c4 05 08 	movl   $0x805c4ac,(%esp)
 80507ef:	e8 14 8c ff ff       	call   8049408 <perror@plt>
 80507f4:	8b 55 e4             	mov    -0x1c(%ebp),%edx
 80507f7:	e9 e7 fd ff ff       	jmp    80505e3 <geteuid@plt+0x6e0b>
 80507fc:	8d 74 26 00          	lea    0x0(%esi,%eiz,1),%esi
 8050800:	89 35 c8 2f 06 08    	mov    %esi,0x8062fc8
 8050806:	c7 46 08 00 00 00 00 	movl   $0x0,0x8(%esi)
 805080d:	e9 a6 fd ff ff       	jmp    80505b8 <geteuid@plt+0x6de0>
 8050812:	8d b6 00 00 00 00    	lea    0x0(%esi),%esi
 8050818:	89 35 cc 2f 06 08    	mov    %esi,0x8062fcc
 805081e:	c7 46 08 00 00 00 00 	movl   $0x0,0x8(%esi)
 8050825:	e9 8e fd ff ff       	jmp    80505b8 <geteuid@plt+0x6de0>
 805082a:	8d b6 00 00 00 00    	lea    0x0(%esi),%esi
 8050830:	55                   	push   %ebp
 8050831:	89 e5                	mov    %esp,%ebp
 8050833:	57                   	push   %edi
 8050834:	56                   	push   %esi
 8050835:	89 d6                	mov    %edx,%esi
 8050837:	53                   	push   %ebx
 8050838:	89 c3                	mov    %eax,%ebx
 805083a:	83 ec 3c             	sub    $0x3c,%esp
 805083d:	66 83 3a 02          	cmpw   $0x2,(%edx)
 8050841:	0f 85 e9 01 00 00    	jne    8050a30 <geteuid@plt+0x7258>
 8050847:	8b 52 04             	mov    0x4(%edx),%edx
 805084a:	85 d2                	test   %edx,%edx
 805084c:	89 55 e4             	mov    %edx,-0x1c(%ebp)
 805084f:	74 67                	je     80508b8 <geteuid@plt+0x70e0>
 8050851:	f7 c1 ff 0f 00 00    	test   $0xfff,%ecx
 8050857:	75 6b                	jne    80508c4 <geteuid@plt+0x70ec>
 8050859:	8b 45 08             	mov    0x8(%ebp),%eax
 805085c:	bf 01 00 00 00       	mov    $0x1,%edi
 8050861:	f7 d0                	not    %eax
 8050863:	85 d0                	test   %edx,%eax
 8050865:	75 08                	jne    805086f <geteuid@plt+0x7097>
 8050867:	89 cf                	mov    %ecx,%edi
 8050869:	c1 ef 0e             	shr    $0xe,%edi
 805086c:	83 e7 01             	and    $0x1,%edi
 805086f:	a1 c0 2f 06 08       	mov    0x8062fc0,%eax
 8050874:	85 c0                	test   %eax,%eax
 8050876:	74 78                	je     80508f0 <geteuid@plt+0x7118>
 8050878:	eb 0d                	jmp    8050887 <geteuid@plt+0x70af>
 805087a:	8d b6 00 00 00 00    	lea    0x0(%esi),%esi
 8050880:	8b 40 18             	mov    0x18(%eax),%eax
 8050883:	85 c0                	test   %eax,%eax
 8050885:	74 69                	je     80508f0 <geteuid@plt+0x7118>
 8050887:	3b 50 04             	cmp    0x4(%eax),%edx
 805088a:	75 f4                	jne    8050880 <geteuid@plt+0x70a8>
 805088c:	39 78 14             	cmp    %edi,0x14(%eax)
 805088f:	90                   	nop
 8050890:	75 ee                	jne    8050880 <geteuid@plt+0x70a8>
 8050892:	c7 44 24 08 80 00 00 	movl   $0x80,0x8(%esp)
 8050899:	00 
 805089a:	8b 40 10             	mov    0x10(%eax),%eax
 805089d:	89 1c 24             	mov    %ebx,(%esp)
 80508a0:	89 44 24 04          	mov    %eax,0x4(%esp)
 80508a4:	e8 d7 7e 00 00       	call   8058780 <geteuid@plt+0xefa8>
 80508a9:	31 c0                	xor    %eax,%eax
 80508ab:	83 c4 3c             	add    $0x3c,%esp
 80508ae:	5b                   	pop    %ebx
 80508af:	5e                   	pop    %esi
 80508b0:	5f                   	pop    %edi
 80508b1:	5d                   	pop    %ebp
 80508b2:	c3                   	ret    
 80508b3:	90                   	nop
 80508b4:	8d 74 26 00          	lea    0x0(%esi,%eiz,1),%esi
 80508b8:	f7 c1 ff 0f 00 00    	test   $0xfff,%ecx
 80508be:	0f 84 dc 00 00 00    	je     80509a0 <geteuid@plt+0x71c8>
 80508c4:	8b 46 04             	mov    0x4(%esi),%eax
 80508c7:	89 04 24             	mov    %eax,(%esp)
 80508ca:	e8 09 8a ff ff       	call   80492d8 <inet_ntoa@plt>
 80508cf:	89 1c 24             	mov    %ebx,(%esp)
 80508d2:	c7 44 24 08 80 00 00 	movl   $0x80,0x8(%esp)
 80508d9:	00 
 80508da:	89 44 24 04          	mov    %eax,0x4(%esp)
 80508de:	e8 9d 7e 00 00       	call   8058780 <geteuid@plt+0xefa8>
 80508e3:	83 c4 3c             	add    $0x3c,%esp
 80508e6:	31 c0                	xor    %eax,%eax
 80508e8:	5b                   	pop    %ebx
 80508e9:	5e                   	pop    %esi
 80508ea:	5f                   	pop    %edi
 80508eb:	5d                   	pop    %ebp
 80508ec:	c3                   	ret    
 80508ed:	8d 76 00             	lea    0x0(%esi),%esi
 80508f0:	0f ca                	bswap  %edx
 80508f2:	85 ff                	test   %edi,%edi
 80508f4:	0f 84 ce 00 00 00    	je     80509c8 <geteuid@plt+0x71f0>
 80508fa:	8d 45 e4             	lea    -0x1c(%ebp),%eax
 80508fd:	c7 44 24 08 02 00 00 	movl   $0x2,0x8(%esp)
 8050904:	00 
 8050905:	c7 44 24 04 04 00 00 	movl   $0x4,0x4(%esp)
 805090c:	00 
 805090d:	89 04 24             	mov    %eax,(%esp)
 8050910:	e8 b3 8c ff ff       	call   80495c8 <gethostbyaddr@plt>
 8050915:	85 c0                	test   %eax,%eax
 8050917:	0f 84 c3 00 00 00    	je     80509e0 <geteuid@plt+0x7208>
 805091d:	c7 44 24 08 80 00 00 	movl   $0x80,0x8(%esp)
 8050924:	00 
 8050925:	8b 00                	mov    (%eax),%eax
 8050927:	89 1c 24             	mov    %ebx,(%esp)
 805092a:	89 44 24 04          	mov    %eax,0x4(%esp)
 805092e:	e8 4d 7e 00 00       	call   8058780 <geteuid@plt+0xefa8>
 8050933:	c7 04 24 1c 00 00 00 	movl   $0x1c,(%esp)
 805093a:	e8 19 8d ff ff       	call   8049658 <malloc@plt>
 805093f:	89 c2                	mov    %eax,%edx
 8050941:	8b 06                	mov    (%esi),%eax
 8050943:	89 02                	mov    %eax,(%edx)
 8050945:	8b 46 04             	mov    0x4(%esi),%eax
 8050948:	89 42 04             	mov    %eax,0x4(%edx)
 805094b:	8b 46 08             	mov    0x8(%esi),%eax
 805094e:	89 42 08             	mov    %eax,0x8(%edx)
 8050951:	8b 46 0c             	mov    0xc(%esi),%eax
 8050954:	89 7a 14             	mov    %edi,0x14(%edx)
 8050957:	89 42 0c             	mov    %eax,0xc(%edx)
 805095a:	a1 c0 2f 06 08       	mov    0x8062fc0,%eax
 805095f:	89 42 18             	mov    %eax,0x18(%edx)
 8050962:	89 1c 24             	mov    %ebx,(%esp)
 8050965:	89 55 d4             	mov    %edx,-0x2c(%ebp)
 8050968:	e8 db 8b ff ff       	call   8049548 <strlen@plt>
 805096d:	83 c0 01             	add    $0x1,%eax
 8050970:	89 04 24             	mov    %eax,(%esp)
 8050973:	e8 e0 8c ff ff       	call   8049658 <malloc@plt>
 8050978:	8b 55 d4             	mov    -0x2c(%ebp),%edx
 805097b:	89 42 10             	mov    %eax,0x10(%edx)
 805097e:	89 5c 24 04          	mov    %ebx,0x4(%esp)
 8050982:	89 04 24             	mov    %eax,(%esp)
 8050985:	e8 2e 8c ff ff       	call   80495b8 <strcpy@plt>
 805098a:	8b 55 d4             	mov    -0x2c(%ebp),%edx
 805098d:	31 c0                	xor    %eax,%eax
 805098f:	89 15 c0 2f 06 08    	mov    %edx,0x8062fc0
 8050995:	83 c4 3c             	add    $0x3c,%esp
 8050998:	5b                   	pop    %ebx
 8050999:	5e                   	pop    %esi
 805099a:	5f                   	pop    %edi
 805099b:	5d                   	pop    %ebp
 805099c:	c3                   	ret    
 805099d:	8d 76 00             	lea    0x0(%esi),%esi
 80509a0:	66 85 c9             	test   %cx,%cx
 80509a3:	79 63                	jns    8050a08 <geteuid@plt+0x7230>
 80509a5:	c7 44 24 08 80 00 00 	movl   $0x80,0x8(%esp)
 80509ac:	00 
 80509ad:	c7 44 24 04 89 e3 05 	movl   $0x805e389,0x4(%esp)
 80509b4:	08 
 80509b5:	89 04 24             	mov    %eax,(%esp)
 80509b8:	e8 c3 7d 00 00       	call   8058780 <geteuid@plt+0xefa8>
 80509bd:	83 c4 3c             	add    $0x3c,%esp
 80509c0:	31 c0                	xor    %eax,%eax
 80509c2:	5b                   	pop    %ebx
 80509c3:	5e                   	pop    %esi
 80509c4:	5f                   	pop    %edi
 80509c5:	5d                   	pop    %ebp
 80509c6:	c3                   	ret    
 80509c7:	90                   	nop
 80509c8:	c7 44 24 04 02 00 00 	movl   $0x2,0x4(%esp)
 80509cf:	00 
 80509d0:	89 14 24             	mov    %edx,(%esp)
 80509d3:	e8 40 89 ff ff       	call   8049318 <getnetbyaddr@plt>
 80509d8:	85 c0                	test   %eax,%eax
 80509da:	0f 85 3d ff ff ff    	jne    805091d <geteuid@plt+0x7145>
 80509e0:	8b 46 04             	mov    0x4(%esi),%eax
 80509e3:	89 04 24             	mov    %eax,(%esp)
 80509e6:	e8 ed 88 ff ff       	call   80492d8 <inet_ntoa@plt>
 80509eb:	c7 44 24 08 80 00 00 	movl   $0x80,0x8(%esp)
 80509f2:	00 
 80509f3:	89 1c 24             	mov    %ebx,(%esp)
 80509f6:	89 44 24 04          	mov    %eax,0x4(%esp)
 80509fa:	e8 81 7d 00 00       	call   8058780 <geteuid@plt+0xefa8>
 80509ff:	e9 2f ff ff ff       	jmp    8050933 <geteuid@plt+0x715b>
 8050a04:	8d 74 26 00          	lea    0x0(%esi,%eiz,1),%esi
 8050a08:	c7 44 24 08 80 00 00 	movl   $0x80,0x8(%esp)
 8050a0f:	00 
 8050a10:	c7 44 24 04 91 e3 05 	movl   $0x805e391,0x4(%esp)
 8050a17:	08 
 8050a18:	89 04 24             	mov    %eax,(%esp)
 8050a1b:	e8 60 7d 00 00       	call   8058780 <geteuid@plt+0xefa8>
 8050a20:	83 c4 3c             	add    $0x3c,%esp
 8050a23:	31 c0                	xor    %eax,%eax
 8050a25:	5b                   	pop    %ebx
 8050a26:	5e                   	pop    %esi
 8050a27:	5f                   	pop    %edi
 8050a28:	5d                   	pop    %ebp
 8050a29:	c3                   	ret    
 8050a2a:	8d b6 00 00 00 00    	lea    0x0(%esi),%esi
 8050a30:	e8 43 88 ff ff       	call   8049278 <__errno_location@plt>
 8050a35:	c7 00 61 00 00 00    	movl   $0x61,(%eax)
 8050a3b:	b8 ff ff ff ff       	mov    $0xffffffff,%eax
 8050a40:	e9 66 fe ff ff       	jmp    80508ab <geteuid@plt+0x70d3>
 8050a45:	8d 74 26 00          	lea    0x0(%esi,%eiz,1),%esi
 8050a49:	8d bc 27 00 00 00 00 	lea    0x0(%edi,%eiz,1),%edi
 8050a50:	55                   	push   %ebp
 8050a51:	89 e5                	mov    %esp,%ebp
 8050a53:	53                   	push   %ebx
 8050a54:	83 ec 14             	sub    $0x14,%esp
 8050a57:	8b 55 08             	mov    0x8(%ebp),%edx
 8050a5a:	8b 4d 0c             	mov    0xc(%ebp),%ecx
 8050a5d:	8b 5d 10             	mov    0x10(%ebp),%ebx
 8050a60:	0f b7 02             	movzwl (%edx),%eax
 8050a63:	83 e8 01             	sub    $0x1,%eax
 8050a66:	66 83 f8 fd          	cmp    $0xfffd,%ax
 8050a6a:	76 2c                	jbe    8050a98 <geteuid@plt+0x72c0>
 8050a6c:	c7 04 24 b2 e2 05 08 	movl   $0x805e2b2,(%esp)
 8050a73:	e8 b0 89 ff ff       	call   8049428 <gettext@plt>
 8050a78:	c7 45 10 80 00 00 00 	movl   $0x80,0x10(%ebp)
 8050a7f:	c7 45 08 20 30 06 08 	movl   $0x8063020,0x8(%ebp)
 8050a86:	89 45 0c             	mov    %eax,0xc(%ebp)
 8050a89:	83 c4 14             	add    $0x14,%esp
 8050a8c:	5b                   	pop    %ebx
 8050a8d:	5d                   	pop    %ebp
 8050a8e:	e9 ed 7c 00 00       	jmp    8058780 <geteuid@plt+0xefa8>
 8050a93:	90                   	nop
 8050a94:	8d 74 26 00          	lea    0x0(%esi,%eiz,1),%esi
 8050a98:	b8 20 30 06 08       	mov    $0x8063020,%eax
 8050a9d:	89 1c 24             	mov    %ebx,(%esp)
 8050aa0:	e8 8b fd ff ff       	call   8050830 <geteuid@plt+0x7058>
 8050aa5:	83 f8 01             	cmp    $0x1,%eax
 8050aa8:	19 c0                	sbb    %eax,%eax
 8050aaa:	83 c4 14             	add    $0x14,%esp
 8050aad:	25 20 30 06 08       	and    $0x8063020,%eax
 8050ab2:	5b                   	pop    %ebx
 8050ab3:	5d                   	pop    %ebp
 8050ab4:	c3                   	ret    
 8050ab5:	8d 74 26 00          	lea    0x0(%esi,%eiz,1),%esi
 8050ab9:	8d bc 27 00 00 00 00 	lea    0x0(%edi,%eiz,1),%edi
 8050ac0:	55                   	push   %ebp
 8050ac1:	89 e5                	mov    %esp,%ebp
 8050ac3:	83 ec 18             	sub    $0x18,%esp
 8050ac6:	8b 55 08             	mov    0x8(%ebp),%edx
 8050ac9:	0f b7 02             	movzwl (%edx),%eax
 8050acc:	83 e8 01             	sub    $0x1,%eax
 8050acf:	66 83 f8 fd          	cmp    $0xfffd,%ax
 8050ad3:	76 2b                	jbe    8050b00 <geteuid@plt+0x7328>
 8050ad5:	c7 04 24 b2 e2 05 08 	movl   $0x805e2b2,(%esp)
 8050adc:	e8 47 89 ff ff       	call   8049428 <gettext@plt>
 8050ae1:	c7 44 24 08 80 00 00 	movl   $0x80,0x8(%esp)
 8050ae8:	00 
 8050ae9:	c7 04 24 40 2f 06 08 	movl   $0x8062f40,(%esp)
 8050af0:	89 44 24 04          	mov    %eax,0x4(%esp)
 8050af4:	e8 87 7c 00 00       	call   8058780 <geteuid@plt+0xefa8>
 8050af9:	c9                   	leave  
 8050afa:	c3                   	ret    
 8050afb:	90                   	nop
 8050afc:	8d 74 26 00          	lea    0x0(%esi,%eiz,1),%esi
 8050b00:	c7 04 24 00 ff ff ff 	movl   $0xffffff00,(%esp)
 8050b07:	8b 4d 0c             	mov    0xc(%ebp),%ecx
 8050b0a:	b8 40 2f 06 08       	mov    $0x8062f40,%eax
 8050b0f:	e8 1c fd ff ff       	call   8050830 <geteuid@plt+0x7058>
 8050b14:	c9                   	leave  
 8050b15:	83 f8 01             	cmp    $0x1,%eax
 8050b18:	19 c0                	sbb    %eax,%eax
 8050b1a:	25 40 2f 06 08       	and    $0x8062f40,%eax
 8050b1f:	c3                   	ret    
 8050b20:	55                   	push   %ebp
 8050b21:	89 e5                	mov    %esp,%ebp
 8050b23:	83 ec 08             	sub    $0x8,%esp
 8050b26:	c9                   	leave  
 8050b27:	e9 7c 8c ff ff       	jmp    80497a8 <herror@plt>
 8050b2c:	8d 74 26 00          	lea    0x0(%esi,%eiz,1),%esi
 8050b30:	55                   	push   %ebp
 8050b31:	89 e5                	mov    %esp,%ebp
 8050b33:	53                   	push   %ebx
 8050b34:	83 ec 14             	sub    $0x14,%esp
 8050b37:	8b 45 0c             	mov    0xc(%ebp),%eax
 8050b3a:	8b 5d 08             	mov    0x8(%ebp),%ebx
 8050b3d:	8b 08                	mov    (%eax),%ecx
 8050b3f:	85 c9                	test   %ecx,%ecx
 8050b41:	75 07                	jne    8050b4a <geteuid@plt+0x7372>
 8050b43:	8b 50 04             	mov    0x4(%eax),%edx
 8050b46:	85 d2                	test   %edx,%edx
 8050b48:	74 0e                	je     8050b58 <geteuid@plt+0x7380>
 8050b4a:	89 d8                	mov    %ebx,%eax
 8050b4c:	83 c4 14             	add    $0x14,%esp
 8050b4f:	5b                   	pop    %ebx
 8050b50:	5d                   	pop    %ebp
 8050b51:	c3                   	ret    
 8050b52:	8d b6 00 00 00 00    	lea    0x0(%esi),%esi
 8050b58:	81 78 08 00 00 ff ff 	cmpl   $0xffff0000,0x8(%eax)
 8050b5f:	75 e9                	jne    8050b4a <geteuid@plt+0x7372>
 8050b61:	c7 44 24 04 2e 00 00 	movl   $0x2e,0x4(%esp)
 8050b68:	00 
 8050b69:	89 1c 24             	mov    %ebx,(%esp)
 8050b6c:	e8 07 88 ff ff       	call   8049378 <strchr@plt>
 8050b71:	85 c0                	test   %eax,%eax
 8050b73:	74 d5                	je     8050b4a <geteuid@plt+0x7372>
 8050b75:	39 c3                	cmp    %eax,%ebx
 8050b77:	72 19                	jb     8050b92 <geteuid@plt+0x73ba>
 8050b79:	8d b4 26 00 00 00 00 	lea    0x0(%esi,%eiz,1),%esi
 8050b80:	eb 26                	jmp    8050ba8 <geteuid@plt+0x73d0>
 8050b82:	8d b6 00 00 00 00    	lea    0x0(%esi),%esi
 8050b88:	83 e8 01             	sub    $0x1,%eax
 8050b8b:	39 c3                	cmp    %eax,%ebx
 8050b8d:	8d 76 00             	lea    0x0(%esi),%esi
 8050b90:	73 16                	jae    8050ba8 <geteuid@plt+0x73d0>
 8050b92:	80 38 3a             	cmpb   $0x3a,(%eax)
 8050b95:	75 f1                	jne    8050b88 <geteuid@plt+0x73b0>
 8050b97:	83 c0 01             	add    $0x1,%eax
 8050b9a:	75 b0                	jne    8050b4c <geteuid@plt+0x7374>
 8050b9c:	8d 74 26 00          	lea    0x0(%esi,%eiz,1),%esi
 8050ba0:	eb a8                	jmp    8050b4a <geteuid@plt+0x7372>
 8050ba2:	8d b6 00 00 00 00    	lea    0x0(%esi),%esi
 8050ba8:	80 38 3a             	cmpb   $0x3a,(%eax)
 8050bab:	90                   	nop
 8050bac:	8d 74 26 00          	lea    0x0(%esi,%eiz,1),%esi
 8050bb0:	75 98                	jne    8050b4a <geteuid@plt+0x7372>
 8050bb2:	8d b6 00 00 00 00    	lea    0x0(%esi),%esi
 8050bb8:	eb dd                	jmp    8050b97 <geteuid@plt+0x73bf>
 8050bba:	8d b6 00 00 00 00    	lea    0x0(%esi),%esi
 8050bc0:	55                   	push   %ebp
 8050bc1:	89 e5                	mov    %esp,%ebp
 8050bc3:	53                   	push   %ebx
 8050bc4:	83 ec 14             	sub    $0x14,%esp
 8050bc7:	8b 5d 08             	mov    0x8(%ebp),%ebx
 8050bca:	c7 44 24 0c 50 00 00 	movl   $0x50,0xc(%esp)
 8050bd1:	00 
 8050bd2:	c7 44 24 08 20 31 06 	movl   $0x8063120,0x8(%esp)
 8050bd9:	08 
 8050bda:	c7 04 24 0a 00 00 00 	movl   $0xa,(%esp)
 8050be1:	89 5c 24 04          	mov    %ebx,0x4(%esp)
 8050be5:	e8 ae 86 ff ff       	call   8049298 <inet_ntop@plt>
 8050bea:	89 5c 24 04          	mov    %ebx,0x4(%esp)
 8050bee:	c7 04 24 20 31 06 08 	movl   $0x8063120,(%esp)
 8050bf5:	e8 36 ff ff ff       	call   8050b30 <geteuid@plt+0x7358>
 8050bfa:	83 c4 14             	add    $0x14,%esp
 8050bfd:	5b                   	pop    %ebx
 8050bfe:	5d                   	pop    %ebp
 8050bff:	c3                   	ret    
 8050c00:	55                   	push   %ebp
 8050c01:	89 e5                	mov    %esp,%ebp
 8050c03:	56                   	push   %esi
 8050c04:	53                   	push   %ebx
 8050c05:	83 ec 50             	sub    $0x50,%esp
 8050c08:	8b 75 0c             	mov    0xc(%ebp),%esi
 8050c0b:	83 7d 08 01          	cmpl   $0x1,0x8(%ebp)
 8050c0f:	8b 5d 10             	mov    0x10(%ebp),%ebx
 8050c12:	0f 84 80 00 00 00    	je     8050c98 <geteuid@plt+0x74c0>
 8050c18:	8d 55 d4             	lea    -0x2c(%ebp),%edx
 8050c1b:	31 c0                	xor    %eax,%eax
 8050c1d:	c7 04 02 00 00 00 00 	movl   $0x0,(%edx,%eax,1)
 8050c24:	83 c0 04             	add    $0x4,%eax
 8050c27:	83 f8 20             	cmp    $0x20,%eax
 8050c2a:	72 f1                	jb     8050c1d <geteuid@plt+0x7445>
 8050c2c:	c7 45 d8 0a 00 00 00 	movl   $0xa,-0x28(%ebp)
 8050c33:	8d 45 f4             	lea    -0xc(%ebp),%eax
 8050c36:	89 44 24 0c          	mov    %eax,0xc(%esp)
 8050c3a:	89 54 24 08          	mov    %edx,0x8(%esp)
 8050c3e:	c7 44 24 04 00 00 00 	movl   $0x0,0x4(%esp)
 8050c45:	00 
 8050c46:	89 34 24             	mov    %esi,(%esp)
 8050c49:	e8 aa 88 ff ff       	call   80494f8 <getaddrinfo@plt>
 8050c4e:	85 c0                	test   %eax,%eax
 8050c50:	0f 85 ad 00 00 00    	jne    8050d03 <geteuid@plt+0x752b>
 8050c56:	8b 55 f4             	mov    -0xc(%ebp),%edx
 8050c59:	8b 42 14             	mov    0x14(%edx),%eax
 8050c5c:	8b 08                	mov    (%eax),%ecx
 8050c5e:	89 0b                	mov    %ecx,(%ebx)
 8050c60:	8b 48 04             	mov    0x4(%eax),%ecx
 8050c63:	89 4b 04             	mov    %ecx,0x4(%ebx)
 8050c66:	8b 48 08             	mov    0x8(%eax),%ecx
 8050c69:	89 4b 08             	mov    %ecx,0x8(%ebx)
 8050c6c:	8b 48 0c             	mov    0xc(%eax),%ecx
 8050c6f:	89 4b 0c             	mov    %ecx,0xc(%ebx)
 8050c72:	8b 48 10             	mov    0x10(%eax),%ecx
 8050c75:	89 4b 10             	mov    %ecx,0x10(%ebx)
 8050c78:	8b 48 14             	mov    0x14(%eax),%ecx
 8050c7b:	89 4b 14             	mov    %ecx,0x14(%ebx)
 8050c7e:	8b 40 18             	mov    0x18(%eax),%eax
 8050c81:	89 43 18             	mov    %eax,0x18(%ebx)
 8050c84:	89 14 24             	mov    %edx,(%esp)
 8050c87:	e8 5c 86 ff ff       	call   80492e8 <freeaddrinfo@plt>
 8050c8c:	83 c4 50             	add    $0x50,%esp
 8050c8f:	31 c0                	xor    %eax,%eax
 8050c91:	5b                   	pop    %ebx
 8050c92:	5e                   	pop    %esi
 8050c93:	5d                   	pop    %ebp
 8050c94:	c3                   	ret    
 8050c95:	8d 76 00             	lea    0x0(%esi),%esi
 8050c98:	66 c7 03 0a 00       	movw   $0xa,(%ebx)
 8050c9d:	66 c7 43 02 00 00    	movw   $0x0,0x2(%ebx)
 8050ca3:	83 c3 08             	add    $0x8,%ebx
 8050ca6:	89 5c 24 08          	mov    %ebx,0x8(%esp)
 8050caa:	89 74 24 04          	mov    %esi,0x4(%esp)
 8050cae:	c7 04 24 0a 00 00 00 	movl   $0xa,(%esp)
 8050cb5:	e8 be 87 ff ff       	call   8049478 <inet_pton@plt>
 8050cba:	89 c2                	mov    %eax,%edx
 8050cbc:	b8 ff ff ff ff       	mov    $0xffffffff,%eax
 8050cc1:	85 d2                	test   %edx,%edx
 8050cc3:	7e 37                	jle    8050cfc <geteuid@plt+0x7524>
 8050cc5:	89 5c 24 04          	mov    %ebx,0x4(%esp)
 8050cc9:	89 34 24             	mov    %esi,(%esp)
 8050ccc:	e8 5f fe ff ff       	call   8050b30 <geteuid@plt+0x7358>
 8050cd1:	89 c3                	mov    %eax,%ebx
 8050cd3:	b8 10 00 00 00       	mov    $0x10,%eax
 8050cd8:	39 de                	cmp    %ebx,%esi
 8050cda:	74 20                	je     8050cfc <geteuid@plt+0x7524>
 8050cdc:	89 1c 24             	mov    %ebx,(%esp)
 8050cdf:	e8 64 88 ff ff       	call   8049548 <strlen@plt>
 8050ce4:	89 5c 24 04          	mov    %ebx,0x4(%esp)
 8050ce8:	89 34 24             	mov    %esi,(%esp)
 8050ceb:	83 c0 01             	add    $0x1,%eax
 8050cee:	89 44 24 08          	mov    %eax,0x8(%esp)
 8050cf2:	e8 31 88 ff ff       	call   8049528 <memcpy@plt>
 8050cf7:	b8 10 00 00 00       	mov    $0x10,%eax
 8050cfc:	83 c4 50             	add    $0x50,%esp
 8050cff:	5b                   	pop    %ebx
 8050d00:	5e                   	pop    %esi
 8050d01:	5d                   	pop    %ebp
 8050d02:	c3                   	ret    
 8050d03:	89 44 24 10          	mov    %eax,0x10(%esp)
 8050d07:	a1 80 28 06 08       	mov    0x8062880,%eax
 8050d0c:	89 74 24 0c          	mov    %esi,0xc(%esp)
 8050d10:	c7 44 24 08 93 e3 05 	movl   $0x805e393,0x8(%esp)
 8050d17:	08 
 8050d18:	c7 44 24 04 01 00 00 	movl   $0x1,0x4(%esp)
 8050d1f:	00 
 8050d20:	89 04 24             	mov    %eax,(%esp)
 8050d23:	e8 e0 85 ff ff       	call   8049308 <__fprintf_chk@plt>
 8050d28:	b8 ff ff ff ff       	mov    $0xffffffff,%eax
 8050d2d:	eb cd                	jmp    8050cfc <geteuid@plt+0x7524>
 8050d2f:	90                   	nop
 8050d30:	55                   	push   %ebp
 8050d31:	89 e5                	mov    %esp,%ebp
 8050d33:	53                   	push   %ebx
 8050d34:	83 ec 24             	sub    $0x24,%esp
 8050d37:	8b 5d 08             	mov    0x8(%ebp),%ebx
 8050d3a:	8b 55 0c             	mov    0xc(%ebp),%edx
 8050d3d:	0f b7 03             	movzwl (%ebx),%eax
 8050d40:	83 e8 01             	sub    $0x1,%eax
 8050d43:	66 83 f8 fd          	cmp    $0xfffd,%ax
 8050d47:	77 7f                	ja     8050dc8 <geteuid@plt+0x75f0>
 8050d49:	66 83 3b 0a          	cmpw   $0xa,(%ebx)
 8050d4d:	0f 85 05 01 00 00    	jne    8050e58 <geteuid@plt+0x7680>
 8050d53:	f7 c2 ff 7f 00 00    	test   $0x7fff,%edx
 8050d59:	0f 85 d1 00 00 00    	jne    8050e30 <geteuid@plt+0x7658>
 8050d5f:	8b 4b 08             	mov    0x8(%ebx),%ecx
 8050d62:	85 c9                	test   %ecx,%ecx
 8050d64:	75 0b                	jne    8050d71 <geteuid@plt+0x7599>
 8050d66:	8b 43 0c             	mov    0xc(%ebx),%eax
 8050d69:	85 c0                	test   %eax,%eax
 8050d6b:	0f 84 87 00 00 00    	je     8050df8 <geteuid@plt+0x7620>
 8050d71:	c7 44 24 18 00 00 00 	movl   $0x0,0x18(%esp)
 8050d78:	00 
 8050d79:	c7 44 24 14 00 00 00 	movl   $0x0,0x14(%esp)
 8050d80:	00 
 8050d81:	c7 44 24 10 00 00 00 	movl   $0x0,0x10(%esp)
 8050d88:	00 
 8050d89:	c7 44 24 0c ff 00 00 	movl   $0xff,0xc(%esp)
 8050d90:	00 
 8050d91:	c7 44 24 08 a0 30 06 	movl   $0x80630a0,0x8(%esp)
 8050d98:	08 
 8050d99:	c7 44 24 04 1c 00 00 	movl   $0x1c,0x4(%esp)
 8050da0:	00 
 8050da1:	89 1c 24             	mov    %ebx,(%esp)
 8050da4:	e8 0f 89 ff ff       	call   80496b8 <getnameinfo@plt>
 8050da9:	85 c0                	test   %eax,%eax
 8050dab:	0f 85 d8 00 00 00    	jne    8050e89 <geteuid@plt+0x76b1>
 8050db1:	83 c3 08             	add    $0x8,%ebx
 8050db4:	89 5d 0c             	mov    %ebx,0xc(%ebp)
 8050db7:	c7 45 08 a0 30 06 08 	movl   $0x80630a0,0x8(%ebp)
 8050dbe:	83 c4 24             	add    $0x24,%esp
 8050dc1:	5b                   	pop    %ebx
 8050dc2:	5d                   	pop    %ebp
 8050dc3:	e9 68 fd ff ff       	jmp    8050b30 <geteuid@plt+0x7358>
 8050dc8:	c7 04 24 b2 e2 05 08 	movl   $0x805e2b2,(%esp)
 8050dcf:	e8 54 86 ff ff       	call   8049428 <gettext@plt>
 8050dd4:	c7 44 24 08 80 00 00 	movl   $0x80,0x8(%esp)
 8050ddb:	00 
 8050ddc:	c7 04 24 a0 30 06 08 	movl   $0x80630a0,(%esp)
 8050de3:	89 44 24 04          	mov    %eax,0x4(%esp)
 8050de7:	e8 94 79 00 00       	call   8058780 <geteuid@plt+0xefa8>
 8050dec:	83 c4 24             	add    $0x24,%esp
 8050def:	5b                   	pop    %ebx
 8050df0:	5d                   	pop    %ebp
 8050df1:	c3                   	ret    
 8050df2:	8d b6 00 00 00 00    	lea    0x0(%esi),%esi
 8050df8:	8b 4b 10             	mov    0x10(%ebx),%ecx
 8050dfb:	85 c9                	test   %ecx,%ecx
 8050dfd:	0f 85 6e ff ff ff    	jne    8050d71 <geteuid@plt+0x7599>
 8050e03:	8b 43 14             	mov    0x14(%ebx),%eax
 8050e06:	85 c0                	test   %eax,%eax
 8050e08:	0f 85 63 ff ff ff    	jne    8050d71 <geteuid@plt+0x7599>
 8050e0e:	66 85 d2             	test   %dx,%dx
 8050e11:	79 5d                	jns    8050e70 <geteuid@plt+0x7698>
 8050e13:	c7 05 a0 30 06 08 64 	movl   $0x61666564,0x80630a0
 8050e1a:	65 66 61 
 8050e1d:	83 c3 08             	add    $0x8,%ebx
 8050e20:	c7 05 a4 30 06 08 75 	movl   $0x746c75,0x80630a4
 8050e27:	6c 74 00 
 8050e2a:	eb 88                	jmp    8050db4 <geteuid@plt+0x75dc>
 8050e2c:	8d 74 26 00          	lea    0x0(%esi,%eiz,1),%esi
 8050e30:	83 c3 08             	add    $0x8,%ebx
 8050e33:	c7 44 24 0c 50 00 00 	movl   $0x50,0xc(%esp)
 8050e3a:	00 
 8050e3b:	c7 44 24 08 a0 30 06 	movl   $0x80630a0,0x8(%esp)
 8050e42:	08 
 8050e43:	89 5c 24 04          	mov    %ebx,0x4(%esp)
 8050e47:	c7 04 24 0a 00 00 00 	movl   $0xa,(%esp)
 8050e4e:	e8 45 84 ff ff       	call   8049298 <inet_ntop@plt>
 8050e53:	e9 5c ff ff ff       	jmp    8050db4 <geteuid@plt+0x75dc>
 8050e58:	e8 1b 84 ff ff       	call   8049278 <__errno_location@plt>
 8050e5d:	c7 00 61 00 00 00    	movl   $0x61,(%eax)
 8050e63:	c7 04 24 bc e3 05 08 	movl   $0x805e3bc,(%esp)
 8050e6a:	e9 60 ff ff ff       	jmp    8050dcf <geteuid@plt+0x75f7>
 8050e6f:	90                   	nop
 8050e70:	c7 05 a0 30 06 08 5b 	movl   $0x5d3a3a5b,0x80630a0
 8050e77:	3a 3a 5d 
 8050e7a:	83 c3 08             	add    $0x8,%ebx
 8050e7d:	c6 05 a4 30 06 08 00 	movb   $0x0,0x80630a4
 8050e84:	e9 2b ff ff ff       	jmp    8050db4 <geteuid@plt+0x75dc>
 8050e89:	a1 80 28 06 08       	mov    0x8062880,%eax
 8050e8e:	c7 44 24 08 13 00 00 	movl   $0x13,0x8(%esp)
 8050e95:	00 
 8050e96:	c7 44 24 04 01 00 00 	movl   $0x1,0x4(%esp)
 8050e9d:	00 
 8050e9e:	c7 04 24 a8 e3 05 08 	movl   $0x805e3a8,(%esp)
 8050ea5:	89 44 24 0c          	mov    %eax,0xc(%esp)
 8050ea9:	e8 6a 87 ff ff       	call   8049618 <fwrite@plt>
 8050eae:	eb b3                	jmp    8050e63 <geteuid@plt+0x768b>
 8050eb0:	55                   	push   %ebp
 8050eb1:	89 e5                	mov    %esp,%ebp
 8050eb3:	57                   	push   %edi
 8050eb4:	56                   	push   %esi
 8050eb5:	53                   	push   %ebx
 8050eb6:	81 ec 9c 12 00 00    	sub    $0x129c,%esp
 8050ebc:	8b 5d 0c             	mov    0xc(%ebp),%ebx
 8050ebf:	65 a1 14 00 00 00    	mov    %gs:0x14,%eax
 8050ec5:	89 45 e4             	mov    %eax,-0x1c(%ebp)
 8050ec8:	31 c0                	xor    %eax,%eax
 8050eca:	c7 44 24 04 7a bf 05 	movl   $0x805bf7a,0x4(%esp)
 8050ed1:	08 
 8050ed2:	c7 04 24 d9 e3 05 08 	movl   $0x805e3d9,(%esp)
 8050ed9:	e8 7a 86 ff ff       	call   8049558 <fopen@plt>
 8050ede:	85 c0                	test   %eax,%eax
 8050ee0:	89 85 f4 ed ff ff    	mov    %eax,-0x120c(%ebp)
 8050ee6:	0f 84 bb 06 00 00    	je     80515a7 <geteuid@plt+0x7dcf>
 8050eec:	81 e3 00 00 00 01    	and    $0x1000000,%ebx
 8050ef2:	89 9d f0 ed ff ff    	mov    %ebx,-0x1210(%ebp)
 8050ef8:	0f 85 6a 04 00 00    	jne    8051368 <geteuid@plt+0x7b90>
 8050efe:	c7 04 24 09 e4 05 08 	movl   $0x805e409,(%esp)
 8050f05:	e8 1e 85 ff ff       	call   8049428 <gettext@plt>
 8050f0a:	c7 04 24 01 00 00 00 	movl   $0x1,(%esp)
 8050f11:	89 44 24 04          	mov    %eax,0x4(%esp)
 8050f15:	e8 3e 84 ff ff       	call   8049358 <__printf_chk@plt>
 8050f1a:	c7 04 24 c4 e4 05 08 	movl   $0x805e4c4,(%esp)
 8050f21:	e8 02 85 ff ff       	call   8049428 <gettext@plt>
 8050f26:	c7 04 24 01 00 00 00 	movl   $0x1,(%esp)
 8050f2d:	89 44 24 04          	mov    %eax,0x4(%esp)
 8050f31:	e8 22 84 ff ff       	call   8049358 <__printf_chk@plt>
 8050f36:	66 90                	xchg   %ax,%ax
 8050f38:	8b 95 f4 ed ff ff    	mov    -0x120c(%ebp),%edx
 8050f3e:	8d 85 8c ee ff ff    	lea    -0x1174(%ebp),%eax
 8050f44:	c7 44 24 04 ff 03 00 	movl   $0x3ff,0x4(%esp)
 8050f4b:	00 
 8050f4c:	89 04 24             	mov    %eax,(%esp)
 8050f4f:	89 54 24 08          	mov    %edx,0x8(%esp)
 8050f53:	e8 50 84 ff ff       	call   80493a8 <fgets@plt>
 8050f58:	85 c0                	test   %eax,%eax
 8050f5a:	0f 84 20 06 00 00    	je     8051580 <geteuid@plt+0x7da8>
 8050f60:	8d 45 d4             	lea    -0x2c(%ebp),%eax
 8050f63:	89 84 24 80 00 00 00 	mov    %eax,0x80(%esp)
 8050f6a:	8d 85 88 ee ff ff    	lea    -0x1178(%ebp),%eax
 8050f70:	89 44 24 7c          	mov    %eax,0x7c(%esp)
 8050f74:	8d 85 7c ee ff ff    	lea    -0x1184(%ebp),%eax
 8050f7a:	89 44 24 78          	mov    %eax,0x78(%esp)
 8050f7e:	8d 85 80 ee ff ff    	lea    -0x1180(%ebp),%eax
 8050f84:	89 44 24 74          	mov    %eax,0x74(%esp)
 8050f88:	8d 85 84 ee ff ff    	lea    -0x117c(%ebp),%eax
 8050f8e:	89 44 24 70          	mov    %eax,0x70(%esp)
 8050f92:	8d 85 1f ee ff ff    	lea    -0x11e1(%ebp),%eax
 8050f98:	89 44 24 6c          	mov    %eax,0x6c(%esp)
 8050f9c:	8d 85 1a ee ff ff    	lea    -0x11e6(%ebp),%eax
 8050fa2:	89 44 24 68          	mov    %eax,0x68(%esp)
 8050fa6:	8d 85 15 ee ff ff    	lea    -0x11eb(%ebp),%eax
 8050fac:	89 44 24 64          	mov    %eax,0x64(%esp)
 8050fb0:	8d 85 10 ee ff ff    	lea    -0x11f0(%ebp),%eax
 8050fb6:	89 44 24 60          	mov    %eax,0x60(%esp)
 8050fba:	8d 85 0b ee ff ff    	lea    -0x11f5(%ebp),%eax
 8050fc0:	89 44 24 5c          	mov    %eax,0x5c(%esp)
 8050fc4:	8d 85 06 ee ff ff    	lea    -0x11fa(%ebp),%eax
 8050fca:	89 44 24 58          	mov    %eax,0x58(%esp)
 8050fce:	8d 85 01 ee ff ff    	lea    -0x11ff(%ebp),%eax
 8050fd4:	89 44 24 54          	mov    %eax,0x54(%esp)
 8050fd8:	8d 85 fc ed ff ff    	lea    -0x1204(%ebp),%eax
 8050fde:	89 44 24 50          	mov    %eax,0x50(%esp)
 8050fe2:	8d 85 74 ee ff ff    	lea    -0x118c(%ebp),%eax
 8050fe8:	89 44 24 4c          	mov    %eax,0x4c(%esp)
 8050fec:	8d 85 47 ee ff ff    	lea    -0x11b9(%ebp),%eax
 8050ff2:	89 44 24 48          	mov    %eax,0x48(%esp)
 8050ff6:	8d 85 42 ee ff ff    	lea    -0x11be(%ebp),%eax
 8050ffc:	89 44 24 44          	mov    %eax,0x44(%esp)
 8051000:	8d 85 3d ee ff ff    	lea    -0x11c3(%ebp),%eax
 8051006:	89 44 24 40          	mov    %eax,0x40(%esp)
 805100a:	8d 85 38 ee ff ff    	lea    -0x11c8(%ebp),%eax
 8051010:	89 44 24 3c          	mov    %eax,0x3c(%esp)
 8051014:	8d 85 33 ee ff ff    	lea    -0x11cd(%ebp),%eax
 805101a:	89 44 24 38          	mov    %eax,0x38(%esp)
 805101e:	8d 85 2e ee ff ff    	lea    -0x11d2(%ebp),%eax
 8051024:	89 44 24 34          	mov    %eax,0x34(%esp)
 8051028:	8d 85 29 ee ff ff    	lea    -0x11d7(%ebp),%eax
 805102e:	89 44 24 30          	mov    %eax,0x30(%esp)
 8051032:	8d 85 24 ee ff ff    	lea    -0x11dc(%ebp),%eax
 8051038:	89 44 24 2c          	mov    %eax,0x2c(%esp)
 805103c:	8d 85 78 ee ff ff    	lea    -0x1188(%ebp),%eax
 8051042:	89 44 24 28          	mov    %eax,0x28(%esp)
 8051046:	8d 85 56 ee ff ff    	lea    -0x11aa(%ebp),%eax
 805104c:	89 44 24 10          	mov    %eax,0x10(%esp)
 8051050:	8d 85 51 ee ff ff    	lea    -0x11af(%ebp),%eax
 8051056:	89 44 24 0c          	mov    %eax,0xc(%esp)
 805105a:	8d 85 4c ee ff ff    	lea    -0x11b4(%ebp),%eax
 8051060:	8d 95 6f ee ff ff    	lea    -0x1191(%ebp),%edx
 8051066:	8d 8d 5b ee ff ff    	lea    -0x11a5(%ebp),%ecx
 805106c:	89 44 24 08          	mov    %eax,0x8(%esp)
 8051070:	8d bd 6a ee ff ff    	lea    -0x1196(%ebp),%edi
 8051076:	8d 85 8c ee ff ff    	lea    -0x1174(%ebp),%eax
 805107c:	8d b5 65 ee ff ff    	lea    -0x119b(%ebp),%esi
 8051082:	8d 9d 60 ee ff ff    	lea    -0x11a0(%ebp),%ebx
 8051088:	89 54 24 24          	mov    %edx,0x24(%esp)
 805108c:	89 4c 24 14          	mov    %ecx,0x14(%esp)
 8051090:	89 04 24             	mov    %eax,(%esp)
 8051093:	89 7c 24 20          	mov    %edi,0x20(%esp)
 8051097:	89 74 24 1c          	mov    %esi,0x1c(%esp)
 805109b:	89 5c 24 18          	mov    %ebx,0x18(%esp)
 805109f:	c7 44 24 04 14 e5 05 	movl   $0x805e514,0x4(%esp)
 80510a6:	08 
 80510a7:	89 95 e8 ed ff ff    	mov    %edx,-0x1218(%ebp)
 80510ad:	89 8d ec ed ff ff    	mov    %ecx,-0x1214(%ebp)
 80510b3:	e8 30 86 ff ff       	call   80496e8 <sscanf@plt>
 80510b8:	8b 95 e8 ed ff ff    	mov    -0x1218(%ebp),%edx
 80510be:	f6 85 8b ee ff ff 01 	testb  $0x1,-0x1175(%ebp)
 80510c5:	8b 8d ec ed ff ff    	mov    -0x1214(%ebp),%ecx
 80510cb:	0f 84 bf 02 00 00    	je     8051390 <geteuid@plt+0x7bb8>
 80510d1:	8b 85 f0 ed ff ff    	mov    -0x1210(%ebp),%eax
 80510d7:	85 c0                	test   %eax,%eax
 80510d9:	0f 84 59 fe ff ff    	je     8050f38 <geteuid@plt+0x7760>
 80510df:	89 54 24 30          	mov    %edx,0x30(%esp)
 80510e3:	8d 85 51 ee ff ff    	lea    -0x11af(%ebp),%eax
 80510e9:	8d 95 56 ee ff ff    	lea    -0x11aa(%ebp),%edx
 80510ef:	89 54 24 1c          	mov    %edx,0x1c(%esp)
 80510f3:	8d 95 4c ee ff ff    	lea    -0x11b4(%ebp),%edx
 80510f9:	89 44 24 18          	mov    %eax,0x18(%esp)
 80510fd:	8d 85 0c ff ff ff    	lea    -0xf4(%ebp),%eax
 8051103:	89 4c 24 20          	mov    %ecx,0x20(%esp)
 8051107:	89 74 24 28          	mov    %esi,0x28(%esp)
 805110b:	89 5c 24 24          	mov    %ebx,0x24(%esp)
 805110f:	8d 5d a8             	lea    -0x58(%ebp),%ebx
 8051112:	89 54 24 14          	mov    %edx,0x14(%esp)
 8051116:	89 7c 24 2c          	mov    %edi,0x2c(%esp)
 805111a:	c7 44 24 10 24 e4 05 	movl   $0x805e424,0x10(%esp)
 8051121:	08 
 8051122:	c7 44 24 0c 80 00 00 	movl   $0x80,0xc(%esp)
 8051129:	00 
 805112a:	c7 44 24 08 01 00 00 	movl   $0x1,0x8(%esp)
 8051131:	00 
 8051132:	c7 44 24 04 80 00 00 	movl   $0x80,0x4(%esp)
 8051139:	00 
 805113a:	89 04 24             	mov    %eax,(%esp)
 805113d:	e8 06 86 ff ff       	call   8049748 <__snprintf_chk@plt>
 8051142:	8d 95 0c ff ff ff    	lea    -0xf4(%ebp),%edx
 8051148:	89 54 24 04          	mov    %edx,0x4(%esp)
 805114c:	89 5c 24 08          	mov    %ebx,0x8(%esp)
 8051150:	c7 04 24 01 00 00 00 	movl   $0x1,(%esp)
 8051157:	ff 15 58 22 06 08    	call   *0x8062258
 805115d:	8b b5 78 ee ff ff    	mov    -0x1188(%ebp),%esi
 8051163:	89 1c 24             	mov    %ebx,(%esp)
 8051166:	8d 9d 8c fe ff ff    	lea    -0x174(%ebp),%ebx
 805116c:	c7 44 24 04 01 00 00 	movl   $0x1,0x4(%esp)
 8051173:	00 
 8051174:	ff 15 54 22 06 08    	call   *0x8062254
 805117a:	89 74 24 18          	mov    %esi,0x18(%esp)
 805117e:	8d 75 8c             	lea    -0x74(%ebp),%esi
 8051181:	c7 44 24 10 39 ee 05 	movl   $0x805ee39,0x10(%esp)
 8051188:	08 
 8051189:	c7 44 24 0c 80 00 00 	movl   $0x80,0xc(%esp)
 8051190:	00 
 8051191:	c7 44 24 08 01 00 00 	movl   $0x1,0x8(%esp)
 8051198:	00 
 8051199:	c7 44 24 04 80 00 00 	movl   $0x80,0x4(%esp)
 80511a0:	00 
 80511a1:	89 44 24 14          	mov    %eax,0x14(%esp)
 80511a5:	8d 85 0c ff ff ff    	lea    -0xf4(%ebp),%eax
 80511ab:	89 04 24             	mov    %eax,(%esp)
 80511ae:	e8 95 85 ff ff       	call   8049748 <__snprintf_chk@plt>
 80511b3:	8d 95 1f ee ff ff    	lea    -0x11e1(%ebp),%edx
 80511b9:	8d 85 1a ee ff ff    	lea    -0x11e6(%ebp),%eax
 80511bf:	89 54 24 30          	mov    %edx,0x30(%esp)
 80511c3:	8d 95 15 ee ff ff    	lea    -0x11eb(%ebp),%edx
 80511c9:	89 44 24 2c          	mov    %eax,0x2c(%esp)
 80511cd:	8d 85 10 ee ff ff    	lea    -0x11f0(%ebp),%eax
 80511d3:	89 54 24 28          	mov    %edx,0x28(%esp)
 80511d7:	8d 95 0b ee ff ff    	lea    -0x11f5(%ebp),%edx
 80511dd:	89 44 24 24          	mov    %eax,0x24(%esp)
 80511e1:	8d 85 06 ee ff ff    	lea    -0x11fa(%ebp),%eax
 80511e7:	89 54 24 20          	mov    %edx,0x20(%esp)
 80511eb:	8d 95 01 ee ff ff    	lea    -0x11ff(%ebp),%edx
 80511f1:	89 44 24 1c          	mov    %eax,0x1c(%esp)
 80511f5:	8d 85 fc ed ff ff    	lea    -0x1204(%ebp),%eax
 80511fb:	89 54 24 18          	mov    %edx,0x18(%esp)
 80511ff:	89 44 24 14          	mov    %eax,0x14(%esp)
 8051203:	c7 44 24 10 24 e4 05 	movl   $0x805e424,0x10(%esp)
 805120a:	08 
 805120b:	c7 44 24 0c 80 00 00 	movl   $0x80,0xc(%esp)
 8051212:	00 
 8051213:	c7 44 24 08 01 00 00 	movl   $0x1,0x8(%esp)
 805121a:	00 
 805121b:	c7 44 24 04 80 00 00 	movl   $0x80,0x4(%esp)
 8051222:	00 
 8051223:	89 1c 24             	mov    %ebx,(%esp)
 8051226:	e8 1d 85 ff ff       	call   8049748 <__snprintf_chk@plt>
 805122b:	89 74 24 08          	mov    %esi,0x8(%esp)
 805122f:	89 5c 24 04          	mov    %ebx,0x4(%esp)
 8051233:	c7 04 24 01 00 00 00 	movl   $0x1,(%esp)
 805123a:	ff 15 58 22 06 08    	call   *0x8062258
 8051240:	89 34 24             	mov    %esi,(%esp)
 8051243:	8d 75 c4             	lea    -0x3c(%ebp),%esi
 8051246:	c7 44 24 04 01 00 00 	movl   $0x1,0x4(%esp)
 805124d:	00 
 805124e:	ff 15 54 22 06 08    	call   *0x8062254
 8051254:	c7 44 24 10 70 f4 05 	movl   $0x805f470,0x10(%esp)
 805125b:	08 
 805125c:	c7 44 24 0c 80 00 00 	movl   $0x80,0xc(%esp)
 8051263:	00 
 8051264:	c7 44 24 08 01 00 00 	movl   $0x1,0x8(%esp)
 805126b:	00 
 805126c:	c7 44 24 04 80 00 00 	movl   $0x80,0x4(%esp)
 8051273:	00 
 8051274:	89 1c 24             	mov    %ebx,(%esp)
 8051277:	89 44 24 14          	mov    %eax,0x14(%esp)
 805127b:	e8 c8 84 ff ff       	call   8049748 <__snprintf_chk@plt>
 8051280:	8b 85 88 ee ff ff    	mov    -0x1178(%ebp),%eax
 8051286:	c6 45 c4 00          	movb   $0x0,-0x3c(%ebp)
 805128a:	a8 01                	test   $0x1,%al
 805128c:	0f 85 c6 02 00 00    	jne    8051558 <geteuid@plt+0x7d80>
 8051292:	f6 c4 02             	test   $0x2,%ah
 8051295:	0f 85 f5 01 00 00    	jne    8051490 <geteuid@plt+0x7cb8>
 805129b:	a8 02                	test   $0x2,%al
 805129d:	0f 85 13 02 00 00    	jne    80514b6 <geteuid@plt+0x7cde>
 80512a3:	a8 04                	test   $0x4,%al
 80512a5:	0f 85 31 02 00 00    	jne    80514dc <geteuid@plt+0x7d04>
 80512ab:	a9 00 00 01 00       	test   $0x10000,%eax
 80512b0:	0f 85 4f 02 00 00    	jne    8051505 <geteuid@plt+0x7d2d>
 80512b6:	a9 00 00 04 00       	test   $0x40000,%eax
 80512bb:	90                   	nop
 80512bc:	8d 74 26 00          	lea    0x0(%esi,%eiz,1),%esi
 80512c0:	0f 85 68 02 00 00    	jne    805152e <geteuid@plt+0x7d56>
 80512c6:	a9 00 00 00 01       	test   $0x1000000,%eax
 80512cb:	90                   	nop
 80512cc:	8d 74 26 00          	lea    0x0(%esi,%eiz,1),%esi
 80512d0:	0f 85 92 01 00 00    	jne    8051468 <geteuid@plt+0x7c90>
 80512d6:	a9 00 00 02 00       	test   $0x20000,%eax
 80512db:	90                   	nop
 80512dc:	8d 74 26 00          	lea    0x0(%esi,%eiz,1),%esi
 80512e0:	0f 85 5a 01 00 00    	jne    8051440 <geteuid@plt+0x7c68>
 80512e6:	a9 00 00 40 00       	test   $0x400000,%eax
 80512eb:	90                   	nop
 80512ec:	8d 74 26 00          	lea    0x0(%esi,%eiz,1),%esi
 80512f0:	0f 85 22 01 00 00    	jne    8051418 <geteuid@plt+0x7c40>
 80512f6:	a8 20                	test   $0x20,%al
 80512f8:	0f 85 f2 00 00 00    	jne    80513f0 <geteuid@plt+0x7c18>
 80512fe:	a9 00 00 20 00       	test   $0x200000,%eax
 8051303:	0f 85 bf 00 00 00    	jne    80513c8 <geteuid@plt+0x7bf0>
 8051309:	a9 00 00 00 02       	test   $0x2000000,%eax
 805130e:	66 90                	xchg   %ax,%ax
 8051310:	0f 85 92 00 00 00    	jne    80513a8 <geteuid@plt+0x7bd0>
 8051316:	8b 85 7c ee ff ff    	mov    -0x1184(%ebp),%eax
 805131c:	8d 55 d4             	lea    -0x2c(%ebp),%edx
 805131f:	89 54 24 20          	mov    %edx,0x20(%esp)
 8051323:	89 74 24 10          	mov    %esi,0x10(%esp)
 8051327:	89 5c 24 0c          	mov    %ebx,0xc(%esp)
 805132b:	89 44 24 1c          	mov    %eax,0x1c(%esp)
 805132f:	8b 85 80 ee ff ff    	mov    -0x1180(%ebp),%eax
 8051335:	c7 44 24 04 84 e5 05 	movl   $0x805e584,0x4(%esp)
 805133c:	08 
 805133d:	c7 04 24 01 00 00 00 	movl   $0x1,(%esp)
 8051344:	89 44 24 18          	mov    %eax,0x18(%esp)
 8051348:	8b 85 84 ee ff ff    	mov    -0x117c(%ebp),%eax
 805134e:	89 44 24 14          	mov    %eax,0x14(%esp)
 8051352:	8d 85 0c ff ff ff    	lea    -0xf4(%ebp),%eax
 8051358:	89 44 24 08          	mov    %eax,0x8(%esp)
 805135c:	e8 f7 7f ff ff       	call   8049358 <__printf_chk@plt>
 8051361:	e9 d2 fb ff ff       	jmp    8050f38 <geteuid@plt+0x7760>
 8051366:	66 90                	xchg   %ax,%ax
 8051368:	c7 04 24 ee e3 05 08 	movl   $0x805e3ee,(%esp)
 805136f:	e8 b4 80 ff ff       	call   8049428 <gettext@plt>
 8051374:	c7 04 24 01 00 00 00 	movl   $0x1,(%esp)
 805137b:	89 44 24 04          	mov    %eax,0x4(%esp)
 805137f:	e8 d4 7f ff ff       	call   8049358 <__printf_chk@plt>
 8051384:	e9 91 fb ff ff       	jmp    8050f1a <geteuid@plt+0x7742>
 8051389:	8d b4 26 00 00 00 00 	lea    0x0(%esi,%eiz,1),%esi
 8051390:	8b 85 f0 ed ff ff    	mov    -0x1210(%ebp),%eax
 8051396:	85 c0                	test   %eax,%eax
 8051398:	0f 85 9a fb ff ff    	jne    8050f38 <geteuid@plt+0x7760>
 805139e:	66 90                	xchg   %ax,%ax
 80513a0:	e9 3a fd ff ff       	jmp    80510df <geteuid@plt+0x7907>
 80513a5:	8d 76 00             	lea    0x0(%esi),%esi
 80513a8:	c7 44 24 08 10 00 00 	movl   $0x10,0x8(%esp)
 80513af:	00 
 80513b0:	c7 44 24 04 45 e8 05 	movl   $0x805e845,0x4(%esp)
 80513b7:	08 
 80513b8:	89 34 24             	mov    %esi,(%esp)
 80513bb:	e8 58 80 ff ff       	call   8049418 <__strcat_chk@plt>
 80513c0:	e9 51 ff ff ff       	jmp    8051316 <geteuid@plt+0x7b3e>
 80513c5:	8d 76 00             	lea    0x0(%esi),%esi
 80513c8:	c7 44 24 08 10 00 00 	movl   $0x10,0x8(%esp)
 80513cf:	00 
 80513d0:	c7 44 24 04 f6 e2 05 	movl   $0x805e2f6,0x4(%esp)
 80513d7:	08 
 80513d8:	89 34 24             	mov    %esi,(%esp)
 80513db:	e8 38 80 ff ff       	call   8049418 <__strcat_chk@plt>
 80513e0:	8b 85 88 ee ff ff    	mov    -0x1178(%ebp),%eax
 80513e6:	e9 1e ff ff ff       	jmp    8051309 <geteuid@plt+0x7b31>
 80513eb:	90                   	nop
 80513ec:	8d 74 26 00          	lea    0x0(%esi,%eiz,1),%esi
 80513f0:	c7 44 24 08 10 00 00 	movl   $0x10,0x8(%esp)
 80513f7:	00 
 80513f8:	c7 44 24 04 84 ce 05 	movl   $0x805ce84,0x4(%esp)
 80513ff:	08 
 8051400:	89 34 24             	mov    %esi,(%esp)
 8051403:	e8 10 80 ff ff       	call   8049418 <__strcat_chk@plt>
 8051408:	8b 85 88 ee ff ff    	mov    -0x1178(%ebp),%eax
 805140e:	e9 eb fe ff ff       	jmp    80512fe <geteuid@plt+0x7b26>
 8051413:	90                   	nop
 8051414:	8d 74 26 00          	lea    0x0(%esi,%eiz,1),%esi
 8051418:	c7 44 24 08 10 00 00 	movl   $0x10,0x8(%esp)
 805141f:	00 
 8051420:	c7 44 24 04 b6 e8 05 	movl   $0x805e8b6,0x4(%esp)
 8051427:	08 
 8051428:	89 34 24             	mov    %esi,(%esp)
 805142b:	e8 e8 7f ff ff       	call   8049418 <__strcat_chk@plt>
 8051430:	8b 85 88 ee ff ff    	mov    -0x1178(%ebp),%eax
 8051436:	e9 bb fe ff ff       	jmp    80512f6 <geteuid@plt+0x7b1e>
 805143b:	90                   	nop
 805143c:	8d 74 26 00          	lea    0x0(%esi,%eiz,1),%esi
 8051440:	c7 44 24 08 10 00 00 	movl   $0x10,0x8(%esp)
 8051447:	00 
 8051448:	c7 44 24 04 90 fd 05 	movl   $0x805fd90,0x4(%esp)
 805144f:	08 
 8051450:	89 34 24             	mov    %esi,(%esp)
 8051453:	e8 c0 7f ff ff       	call   8049418 <__strcat_chk@plt>
 8051458:	8b 85 88 ee ff ff    	mov    -0x1178(%ebp),%eax
 805145e:	e9 83 fe ff ff       	jmp    80512e6 <geteuid@plt+0x7b0e>
 8051463:	90                   	nop
 8051464:	8d 74 26 00          	lea    0x0(%esi,%eiz,1),%esi
 8051468:	c7 44 24 08 10 00 00 	movl   $0x10,0x8(%esp)
 805146f:	00 
 8051470:	c7 44 24 04 99 e1 05 	movl   $0x805e199,0x4(%esp)
 8051477:	08 
 8051478:	89 34 24             	mov    %esi,(%esp)
 805147b:	e8 98 7f ff ff       	call   8049418 <__strcat_chk@plt>
 8051480:	8b 85 88 ee ff ff    	mov    -0x1178(%ebp),%eax
 8051486:	e9 4b fe ff ff       	jmp    80512d6 <geteuid@plt+0x7afe>
 805148b:	90                   	nop
 805148c:	8d 74 26 00          	lea    0x0(%esi,%eiz,1),%esi
 8051490:	c7 44 24 08 10 00 00 	movl   $0x10,0x8(%esp)
 8051497:	00 
 8051498:	c7 44 24 04 3c e4 05 	movl   $0x805e43c,0x4(%esp)
 805149f:	08 
 80514a0:	89 34 24             	mov    %esi,(%esp)
 80514a3:	e8 70 7f ff ff       	call   8049418 <__strcat_chk@plt>
 80514a8:	8b 85 88 ee ff ff    	mov    -0x1178(%ebp),%eax
 80514ae:	a8 02                	test   $0x2,%al
 80514b0:	0f 84 ed fd ff ff    	je     80512a3 <geteuid@plt+0x7acb>
 80514b6:	c7 44 24 08 10 00 00 	movl   $0x10,0x8(%esp)
 80514bd:	00 
 80514be:	c7 44 24 04 31 bd 05 	movl   $0x805bd31,0x4(%esp)
 80514c5:	08 
 80514c6:	89 34 24             	mov    %esi,(%esp)
 80514c9:	e8 4a 7f ff ff       	call   8049418 <__strcat_chk@plt>
 80514ce:	8b 85 88 ee ff ff    	mov    -0x1178(%ebp),%eax
 80514d4:	a8 04                	test   $0x4,%al
 80514d6:	0f 84 cf fd ff ff    	je     80512ab <geteuid@plt+0x7ad3>
 80514dc:	c7 44 24 08 10 00 00 	movl   $0x10,0x8(%esp)
 80514e3:	00 
 80514e4:	c7 44 24 04 2f e8 05 	movl   $0x805e82f,0x4(%esp)
 80514eb:	08 
 80514ec:	89 34 24             	mov    %esi,(%esp)
 80514ef:	e8 24 7f ff ff       	call   8049418 <__strcat_chk@plt>
 80514f4:	8b 85 88 ee ff ff    	mov    -0x1178(%ebp),%eax
 80514fa:	a9 00 00 01 00       	test   $0x10000,%eax
 80514ff:	0f 84 b1 fd ff ff    	je     80512b6 <geteuid@plt+0x7ade>
 8051505:	c7 44 24 08 10 00 00 	movl   $0x10,0x8(%esp)
 805150c:	00 
 805150d:	c7 44 24 04 26 bb 05 	movl   $0x805bb26,0x4(%esp)
 8051514:	08 
 8051515:	89 34 24             	mov    %esi,(%esp)
 8051518:	e8 fb 7e ff ff       	call   8049418 <__strcat_chk@plt>
 805151d:	8b 85 88 ee ff ff    	mov    -0x1178(%ebp),%eax
 8051523:	a9 00 00 04 00       	test   $0x40000,%eax
 8051528:	0f 84 98 fd ff ff    	je     80512c6 <geteuid@plt+0x7aee>
 805152e:	c7 44 24 08 10 00 00 	movl   $0x10,0x8(%esp)
 8051535:	00 
 8051536:	c7 44 24 04 3e e4 05 	movl   $0x805e43e,0x4(%esp)
 805153d:	08 
 805153e:	89 34 24             	mov    %esi,(%esp)
 8051541:	e8 d2 7e ff ff       	call   8049418 <__strcat_chk@plt>
 8051546:	8b 85 88 ee ff ff    	mov    -0x1178(%ebp),%eax
 805154c:	e9 75 fd ff ff       	jmp    80512c6 <geteuid@plt+0x7aee>
 8051551:	8d b4 26 00 00 00 00 	lea    0x0(%esi,%eiz,1),%esi
 8051558:	c7 44 24 08 10 00 00 	movl   $0x10,0x8(%esp)
 805155f:	00 
 8051560:	c7 44 24 04 72 e8 05 	movl   $0x805e872,0x4(%esp)
 8051567:	08 
 8051568:	89 34 24             	mov    %esi,(%esp)
 805156b:	e8 a8 7e ff ff       	call   8049418 <__strcat_chk@plt>
 8051570:	8b 85 88 ee ff ff    	mov    -0x1178(%ebp),%eax
 8051576:	e9 17 fd ff ff       	jmp    8051292 <geteuid@plt+0x7aba>
 805157b:	90                   	nop
 805157c:	8d 74 26 00          	lea    0x0(%esi,%eiz,1),%esi
 8051580:	8b 95 f4 ed ff ff    	mov    -0x120c(%ebp),%edx
 8051586:	89 14 24             	mov    %edx,(%esp)
 8051589:	e8 7a 7f ff ff       	call   8049508 <fclose@plt>
 805158e:	31 c0                	xor    %eax,%eax
 8051590:	8b 55 e4             	mov    -0x1c(%ebp),%edx
 8051593:	65 33 15 14 00 00 00 	xor    %gs:0x14,%edx
 805159a:	75 3a                	jne    80515d6 <geteuid@plt+0x7dfe>
 805159c:	81 c4 9c 12 00 00    	add    $0x129c,%esp
 80515a2:	5b                   	pop    %ebx
 80515a3:	5e                   	pop    %esi
 80515a4:	5f                   	pop    %edi
 80515a5:	5d                   	pop    %ebp
 80515a6:	c3                   	ret    
 80515a7:	c7 04 24 d9 e3 05 08 	movl   $0x805e3d9,(%esp)
 80515ae:	e8 55 7e ff ff       	call   8049408 <perror@plt>
 80515b3:	c7 04 24 94 e4 05 08 	movl   $0x805e494,(%esp)
 80515ba:	e8 69 7e ff ff       	call   8049428 <gettext@plt>
 80515bf:	c7 04 24 01 00 00 00 	movl   $0x1,(%esp)
 80515c6:	89 44 24 04          	mov    %eax,0x4(%esp)
 80515ca:	e8 89 7d ff ff       	call   8049358 <__printf_chk@plt>
 80515cf:	b8 01 00 00 00       	mov    $0x1,%eax
 80515d4:	eb ba                	jmp    8051590 <geteuid@plt+0x7db8>
 80515d6:	e8 8d 80 ff ff       	call   8049668 <__stack_chk_fail@plt>
 80515db:	90                   	nop
 80515dc:	8d 74 26 00          	lea    0x0(%esi,%eiz,1),%esi
 80515e0:	55                   	push   %ebp
 80515e1:	89 e5                	mov    %esp,%ebp
 80515e3:	57                   	push   %edi
 80515e4:	56                   	push   %esi
 80515e5:	53                   	push   %ebx
 80515e6:	81 ec dc 11 00 00    	sub    $0x11dc,%esp
 80515ec:	c7 44 24 04 7a bf 05 	movl   $0x805bf7a,0x4(%esp)
 80515f3:	08 
 80515f4:	65 a1 14 00 00 00    	mov    %gs:0x14,%eax
 80515fa:	89 45 e4             	mov    %eax,-0x1c(%ebp)
 80515fd:	31 c0                	xor    %eax,%eax
 80515ff:	c7 04 24 40 e4 05 08 	movl   $0x805e440,(%esp)
 8051606:	e8 4d 7f ff ff       	call   8049558 <fopen@plt>
 805160b:	85 c0                	test   %eax,%eax
 805160d:	89 85 94 ee ff ff    	mov    %eax,-0x116c(%ebp)
 8051613:	0f 84 af 06 00 00    	je     8051cc8 <geteuid@plt+0x84f0>
 8051619:	c7 04 24 50 e4 05 08 	movl   $0x805e450,(%esp)
 8051620:	e8 03 7e ff ff       	call   8049428 <gettext@plt>
 8051625:	c7 04 24 01 00 00 00 	movl   $0x1,(%esp)
 805162c:	89 44 24 04          	mov    %eax,0x4(%esp)
 8051630:	e8 23 7d ff ff       	call   8049358 <__printf_chk@plt>
 8051635:	83 7d 08 02          	cmpl   $0x2,0x8(%ebp)
 8051639:	0f 84 61 06 00 00    	je     8051ca0 <geteuid@plt+0x84c8>
 805163f:	c7 04 24 00 e6 05 08 	movl   $0x805e600,(%esp)
 8051646:	e8 dd 7d ff ff       	call   8049428 <gettext@plt>
 805164b:	c7 04 24 01 00 00 00 	movl   $0x1,(%esp)
 8051652:	89 44 24 04          	mov    %eax,0x4(%esp)
 8051656:	e8 fd 7c ff ff       	call   8049358 <__printf_chk@plt>
 805165b:	e9 3e 01 00 00       	jmp    805179e <geteuid@plt+0x7fc6>
 8051660:	83 f8 01             	cmp    $0x1,%eax
 8051663:	0f 84 cf 05 00 00    	je     8051c38 <geteuid@plt+0x8460>
 8051669:	8d b4 26 00 00 00 00 	lea    0x0(%esi,%eiz,1),%esi
 8051670:	0f 8e 0a 06 00 00    	jle    8051c80 <geteuid@plt+0x84a8>
 8051676:	83 f8 02             	cmp    $0x2,%eax
 8051679:	8d b4 26 00 00 00 00 	lea    0x0(%esi,%eiz,1),%esi
 8051680:	0f 84 92 05 00 00    	je     8051c18 <geteuid@plt+0x8440>
 8051686:	83 f8 04             	cmp    $0x4,%eax
 8051689:	8d b4 26 00 00 00 00 	lea    0x0(%esi,%eiz,1),%esi
 8051690:	0f 84 6a 05 00 00    	je     8051c00 <geteuid@plt+0x8428>
 8051696:	8d 55 9c             	lea    -0x64(%ebp),%edx
 8051699:	89 14 24             	mov    %edx,(%esp)
 805169c:	89 95 90 ee ff ff    	mov    %edx,-0x1170(%ebp)
 80516a2:	89 44 24 14          	mov    %eax,0x14(%esp)
 80516a6:	c7 44 24 10 6f e4 05 	movl   $0x805e46f,0x10(%esp)
 80516ad:	08 
 80516ae:	c7 44 24 0c 14 00 00 	movl   $0x14,0xc(%esp)
 80516b5:	00 
 80516b6:	c7 44 24 08 01 00 00 	movl   $0x1,0x8(%esp)
 80516bd:	00 
 80516be:	c7 44 24 04 14 00 00 	movl   $0x14,0x4(%esp)
 80516c5:	00 
 80516c6:	e8 7d 80 ff ff       	call   8049748 <__snprintf_chk@plt>
 80516cb:	8b 95 90 ee ff ff    	mov    -0x1170(%ebp),%edx
 80516d1:	8d b4 26 00 00 00 00 	lea    0x0(%esi,%eiz,1),%esi
 80516d8:	8b 85 f8 ee ff ff    	mov    -0x1108(%ebp),%eax
 80516de:	89 54 24 1c          	mov    %edx,0x1c(%esp)
 80516e2:	89 74 24 14          	mov    %esi,0x14(%esp)
 80516e6:	89 7c 24 0c          	mov    %edi,0xc(%esp)
 80516ea:	89 44 24 18          	mov    %eax,0x18(%esp)
 80516ee:	8d 45 d4             	lea    -0x2c(%ebp),%eax
 80516f1:	89 44 24 10          	mov    %eax,0x10(%esp)
 80516f5:	89 5c 24 08          	mov    %ebx,0x8(%esp)
 80516f9:	c7 44 24 04 e4 e6 05 	movl   $0x805e6e4,0x4(%esp)
 8051700:	08 
 8051701:	c7 04 24 01 00 00 00 	movl   $0x1,(%esp)
 8051708:	e8 4b 7c ff ff       	call   8049358 <__printf_chk@plt>
 805170d:	83 bd ec ee ff ff 02 	cmpl   $0x2,-0x1114(%ebp)
 8051714:	0f 84 26 04 00 00    	je     8051b40 <geteuid@plt+0x8368>
 805171a:	8b 85 e4 ee ff ff    	mov    -0x111c(%ebp),%eax
 8051720:	31 c9                	xor    %ecx,%ecx
 8051722:	8b 95 e8 ee ff ff    	mov    -0x1118(%ebp),%edx
 8051728:	89 d3                	mov    %edx,%ebx
 805172a:	29 c3                	sub    %eax,%ebx
 805172c:	39 d0                	cmp    %edx,%eax
 805172e:	0f 9d c0             	setge  %al
 8051731:	0f b6 c0             	movzbl %al,%eax
 8051734:	83 e8 01             	sub    $0x1,%eax
 8051737:	21 c3                	and    %eax,%ebx
 8051739:	83 7d 08 02          	cmpl   $0x2,0x8(%ebp)
 805173d:	74 4b                	je     805178a <geteuid@plt+0x7fb2>
 805173f:	89 c8                	mov    %ecx,%eax
 8051741:	be 1f 85 eb 51       	mov    $0x51eb851f,%esi
 8051746:	f7 ee                	imul   %esi
 8051748:	c1 f9 1f             	sar    $0x1f,%ecx
 805174b:	c7 44 24 04 7d e4 05 	movl   $0x805e47d,0x4(%esp)
 8051752:	08 
 8051753:	c7 04 24 01 00 00 00 	movl   $0x1,(%esp)
 805175a:	c1 fa 05             	sar    $0x5,%edx
 805175d:	29 ca                	sub    %ecx,%edx
 805175f:	89 54 24 08          	mov    %edx,0x8(%esp)
 8051763:	e8 f0 7b ff ff       	call   8049358 <__printf_chk@plt>
 8051768:	8b 95 f8 ee ff ff    	mov    -0x1108(%ebp),%edx
 805176e:	85 d2                	test   %edx,%edx
 8051770:	0f 84 f2 03 00 00    	je     8051b68 <geteuid@plt+0x8390>
 8051776:	c7 44 24 04 85 e4 05 	movl   $0x805e485,0x4(%esp)
 805177d:	08 
 805177e:	c7 04 24 01 00 00 00 	movl   $0x1,(%esp)
 8051785:	e8 ce 7b ff ff       	call   8049358 <__printf_chk@plt>
 805178a:	c7 44 24 04 2d f8 05 	movl   $0x805f82d,0x4(%esp)
 8051791:	08 
 8051792:	c7 04 24 01 00 00 00 	movl   $0x1,(%esp)
 8051799:	e8 ba 7b ff ff       	call   8049358 <__printf_chk@plt>
 805179e:	8b 95 94 ee ff ff    	mov    -0x116c(%ebp),%edx
 80517a4:	8d 85 00 ef ff ff    	lea    -0x1100(%ebp),%eax
 80517aa:	c7 44 24 04 ff 03 00 	movl   $0x3ff,0x4(%esp)
 80517b1:	00 
 80517b2:	89 04 24             	mov    %eax,(%esp)
 80517b5:	89 54 24 08          	mov    %edx,0x8(%esp)
 80517b9:	e8 ea 7b ff ff       	call   80493a8 <fgets@plt>
 80517be:	85 c0                	test   %eax,%eax
 80517c0:	0f 84 92 04 00 00    	je     8051c58 <geteuid@plt+0x8480>
 80517c6:	8d 85 d5 ee ff ff    	lea    -0x112b(%ebp),%eax
 80517cc:	89 44 24 68          	mov    %eax,0x68(%esp)
 80517d0:	8d 85 d2 ee ff ff    	lea    -0x112e(%ebp),%eax
 80517d6:	89 44 24 64          	mov    %eax,0x64(%esp)
 80517da:	8d 85 cf ee ff ff    	lea    -0x1131(%ebp),%eax
 80517e0:	89 44 24 60          	mov    %eax,0x60(%esp)
 80517e4:	8d 85 cc ee ff ff    	lea    -0x1134(%ebp),%eax
 80517ea:	89 44 24 5c          	mov    %eax,0x5c(%esp)
 80517ee:	8d 85 c9 ee ff ff    	lea    -0x1137(%ebp),%eax
 80517f4:	89 44 24 58          	mov    %eax,0x58(%esp)
 80517f8:	8d 85 c6 ee ff ff    	lea    -0x113a(%ebp),%eax
 80517fe:	89 44 24 54          	mov    %eax,0x54(%esp)
 8051802:	8d 45 d4             	lea    -0x2c(%ebp),%eax
 8051805:	89 44 24 50          	mov    %eax,0x50(%esp)
 8051809:	8d 85 dc ee ff ff    	lea    -0x1124(%ebp),%eax
 805180f:	89 44 24 4c          	mov    %eax,0x4c(%esp)
 8051813:	8d 85 f8 ee ff ff    	lea    -0x1108(%ebp),%eax
 8051819:	89 44 24 48          	mov    %eax,0x48(%esp)
 805181d:	8d 85 e8 ee ff ff    	lea    -0x1118(%ebp),%eax
 8051823:	89 44 24 44          	mov    %eax,0x44(%esp)
 8051827:	8d 85 d8 ee ff ff    	lea    -0x1128(%ebp),%eax
 805182d:	89 44 24 40          	mov    %eax,0x40(%esp)
 8051831:	8d 85 e4 ee ff ff    	lea    -0x111c(%ebp),%eax
 8051837:	89 44 24 3c          	mov    %eax,0x3c(%esp)
 805183b:	8d 85 e0 ee ff ff    	lea    -0x1120(%ebp),%eax
 8051841:	89 44 24 38          	mov    %eax,0x38(%esp)
 8051845:	8d 85 ec ee ff ff    	lea    -0x1114(%ebp),%eax
 805184b:	89 44 24 34          	mov    %eax,0x34(%esp)
 805184f:	8d 85 fc ee ff ff    	lea    -0x1104(%ebp),%eax
 8051855:	89 44 24 30          	mov    %eax,0x30(%esp)
 8051859:	8d 85 f4 ee ff ff    	lea    -0x110c(%ebp),%eax
 805185f:	89 44 24 2c          	mov    %eax,0x2c(%esp)
 8051863:	8d 85 f0 ee ff ff    	lea    -0x1110(%ebp),%eax
 8051869:	89 44 24 28          	mov    %eax,0x28(%esp)
 805186d:	8d 85 ad ee ff ff    	lea    -0x1153(%ebp),%eax
 8051873:	89 44 24 14          	mov    %eax,0x14(%esp)
 8051877:	8d 85 a8 ee ff ff    	lea    -0x1158(%ebp),%eax
 805187d:	89 44 24 10          	mov    %eax,0x10(%esp)
 8051881:	8d 85 a3 ee ff ff    	lea    -0x115d(%ebp),%eax
 8051887:	89 44 24 0c          	mov    %eax,0xc(%esp)
 805188b:	8d 85 9e ee ff ff    	lea    -0x1162(%ebp),%eax
 8051891:	8d 95 c1 ee ff ff    	lea    -0x113f(%ebp),%edx
 8051897:	8d 8d b2 ee ff ff    	lea    -0x114e(%ebp),%ecx
 805189d:	8d bd bc ee ff ff    	lea    -0x1144(%ebp),%edi
 80518a3:	8d b5 b7 ee ff ff    	lea    -0x1149(%ebp),%esi
 80518a9:	89 44 24 08          	mov    %eax,0x8(%esp)
 80518ad:	8d 85 00 ef ff ff    	lea    -0x1100(%ebp),%eax
 80518b3:	89 54 24 24          	mov    %edx,0x24(%esp)
 80518b7:	8d 9d 00 ff ff ff    	lea    -0x100(%ebp),%ebx
 80518bd:	89 7c 24 20          	mov    %edi,0x20(%esp)
 80518c1:	89 74 24 1c          	mov    %esi,0x1c(%esp)
 80518c5:	89 4c 24 18          	mov    %ecx,0x18(%esp)
 80518c9:	89 95 90 ee ff ff    	mov    %edx,-0x1170(%ebp)
 80518cf:	89 8d 8c ee ff ff    	mov    %ecx,-0x1174(%ebp)
 80518d5:	c7 44 24 04 7c e6 05 	movl   $0x805e67c,0x4(%esp)
 80518dc:	08 
 80518dd:	89 04 24             	mov    %eax,(%esp)
 80518e0:	e8 03 7e ff ff       	call   80496e8 <sscanf@plt>
 80518e5:	8b 95 90 ee ff ff    	mov    -0x1170(%ebp),%edx
 80518eb:	8d 85 a8 ee ff ff    	lea    -0x1158(%ebp),%eax
 80518f1:	8b 8d 8c ee ff ff    	mov    -0x1174(%ebp),%ecx
 80518f7:	89 74 24 28          	mov    %esi,0x28(%esp)
 80518fb:	8d 75 80             	lea    -0x80(%ebp),%esi
 80518fe:	89 44 24 1c          	mov    %eax,0x1c(%esp)
 8051902:	8d 85 9e ee ff ff    	lea    -0x1162(%ebp),%eax
 8051908:	89 54 24 30          	mov    %edx,0x30(%esp)
 805190c:	8d 95 ad ee ff ff    	lea    -0x1153(%ebp),%edx
 8051912:	89 54 24 20          	mov    %edx,0x20(%esp)
 8051916:	8d 95 a3 ee ff ff    	lea    -0x115d(%ebp),%edx
 805191c:	89 4c 24 24          	mov    %ecx,0x24(%esp)
 8051920:	89 54 24 18          	mov    %edx,0x18(%esp)
 8051924:	89 7c 24 2c          	mov    %edi,0x2c(%esp)
 8051928:	89 44 24 14          	mov    %eax,0x14(%esp)
 805192c:	c7 44 24 10 24 e4 05 	movl   $0x805e424,0x10(%esp)
 8051933:	08 
 8051934:	c7 44 24 0c 80 00 00 	movl   $0x80,0xc(%esp)
 805193b:	00 
 805193c:	c7 44 24 08 01 00 00 	movl   $0x1,0x8(%esp)
 8051943:	00 
 8051944:	c7 44 24 04 80 00 00 	movl   $0x80,0x4(%esp)
 805194b:	00 
 805194c:	89 1c 24             	mov    %ebx,(%esp)
 805194f:	e8 f4 7d ff ff       	call   8049748 <__snprintf_chk@plt>
 8051954:	89 74 24 08          	mov    %esi,0x8(%esp)
 8051958:	89 5c 24 04          	mov    %ebx,0x4(%esp)
 805195c:	c7 04 24 01 00 00 00 	movl   $0x1,(%esp)
 8051963:	ff 15 58 22 06 08    	call   *0x8062258
 8051969:	8b 55 0c             	mov    0xc(%ebp),%edx
 805196c:	8b bd f4 ee ff ff    	mov    -0x110c(%ebp),%edi
 8051972:	89 34 24             	mov    %esi,(%esp)
 8051975:	8d 75 c4             	lea    -0x3c(%ebp),%esi
 8051978:	89 54 24 04          	mov    %edx,0x4(%esp)
 805197c:	ff 15 54 22 06 08    	call   *0x8062254
 8051982:	89 7c 24 18          	mov    %edi,0x18(%esp)
 8051986:	8d 7d b0             	lea    -0x50(%ebp),%edi
 8051989:	c7 44 24 10 39 ee 05 	movl   $0x805ee39,0x10(%esp)
 8051990:	08 
 8051991:	c7 44 24 0c 80 00 00 	movl   $0x80,0xc(%esp)
 8051998:	00 
 8051999:	c7 44 24 08 01 00 00 	movl   $0x1,0x8(%esp)
 80519a0:	00 
 80519a1:	c7 44 24 04 80 00 00 	movl   $0x80,0x4(%esp)
 80519a8:	00 
 80519a9:	89 44 24 14          	mov    %eax,0x14(%esp)
 80519ad:	89 1c 24             	mov    %ebx,(%esp)
 80519b0:	e8 93 7d ff ff       	call   8049748 <__snprintf_chk@plt>
 80519b5:	8d 85 d5 ee ff ff    	lea    -0x112b(%ebp),%eax
 80519bb:	8d 95 d2 ee ff ff    	lea    -0x112e(%ebp),%edx
 80519c1:	89 44 24 28          	mov    %eax,0x28(%esp)
 80519c5:	8d 85 cf ee ff ff    	lea    -0x1131(%ebp),%eax
 80519cb:	89 54 24 24          	mov    %edx,0x24(%esp)
 80519cf:	8d 95 cc ee ff ff    	lea    -0x1134(%ebp),%edx
 80519d5:	89 44 24 20          	mov    %eax,0x20(%esp)
 80519d9:	8d 85 c9 ee ff ff    	lea    -0x1137(%ebp),%eax
 80519df:	89 54 24 1c          	mov    %edx,0x1c(%esp)
 80519e3:	8d 95 c6 ee ff ff    	lea    -0x113a(%ebp),%edx
 80519e9:	89 44 24 18          	mov    %eax,0x18(%esp)
 80519ed:	89 54 24 14          	mov    %edx,0x14(%esp)
 80519f1:	c7 44 24 10 2a e4 05 	movl   $0x805e42a,0x10(%esp)
 80519f8:	08 
 80519f9:	c7 44 24 0c 14 00 00 	movl   $0x14,0xc(%esp)
 8051a00:	00 
 8051a01:	c7 44 24 08 01 00 00 	movl   $0x1,0x8(%esp)
 8051a08:	00 
 8051a09:	c7 44 24 04 14 00 00 	movl   $0x14,0x4(%esp)
 8051a10:	00 
 8051a11:	89 3c 24             	mov    %edi,(%esp)
 8051a14:	e8 2f 7d ff ff       	call   8049748 <__snprintf_chk@plt>
 8051a19:	8b 85 dc ee ff ff    	mov    -0x1124(%ebp),%eax
 8051a1f:	c6 45 c4 00          	movb   $0x0,-0x3c(%ebp)
 8051a23:	84 c0                	test   %al,%al
 8051a25:	0f 88 ed 00 00 00    	js     8051b18 <geteuid@plt+0x8340>
 8051a2b:	a8 04                	test   $0x4,%al
 8051a2d:	0f 85 bd 00 00 00    	jne    8051af0 <geteuid@plt+0x8318>
 8051a33:	a8 02                	test   $0x2,%al
 8051a35:	0f 85 8d 00 00 00    	jne    8051ac8 <geteuid@plt+0x82f0>
 8051a3b:	a8 08                	test   $0x8,%al
 8051a3d:	8d 76 00             	lea    0x0(%esi),%esi
 8051a40:	75 4e                	jne    8051a90 <geteuid@plt+0x82b8>
 8051a42:	8b 85 ec ee ff ff    	mov    -0x1114(%ebp),%eax
 8051a48:	83 f8 08             	cmp    $0x8,%eax
 8051a4b:	74 66                	je     8051ab3 <geteuid@plt+0x82db>
 8051a4d:	0f 8e 0d fc ff ff    	jle    8051660 <geteuid@plt+0x7e88>
 8051a53:	83 f8 20             	cmp    $0x20,%eax
 8051a56:	0f 84 84 01 00 00    	je     8051be0 <geteuid@plt+0x8408>
 8051a5c:	8d 74 26 00          	lea    0x0(%esi,%eiz,1),%esi
 8051a60:	0f 8f 32 01 00 00    	jg     8051b98 <geteuid@plt+0x83c0>
 8051a66:	83 f8 10             	cmp    $0x10,%eax
 8051a69:	8d b4 26 00 00 00 00 	lea    0x0(%esi,%eiz,1),%esi
 8051a70:	0f 85 20 fc ff ff    	jne    8051696 <geteuid@plt+0x7ebe>
 8051a76:	8d 55 9c             	lea    -0x64(%ebp),%edx
 8051a79:	c7 45 9c 50 52 4f 42 	movl   $0x424f5250,-0x64(%ebp)
 8051a80:	66 c7 45 a0 45 00    	movw   $0x45,-0x60(%ebp)
 8051a86:	e9 4d fc ff ff       	jmp    80516d8 <geteuid@plt+0x7f00>
 8051a8b:	90                   	nop
 8051a8c:	8d 74 26 00          	lea    0x0(%esi,%eiz,1),%esi
 8051a90:	c7 44 24 08 10 00 00 	movl   $0x10,0x8(%esp)
 8051a97:	00 
 8051a98:	c7 44 24 04 28 fd 05 	movl   $0x805fd28,0x4(%esp)
 8051a9f:	08 
 8051aa0:	89 34 24             	mov    %esi,(%esp)
 8051aa3:	e8 70 79 ff ff       	call   8049418 <__strcat_chk@plt>
 8051aa8:	8b 85 ec ee ff ff    	mov    -0x1114(%ebp),%eax
 8051aae:	83 f8 08             	cmp    $0x8,%eax
 8051ab1:	75 9a                	jne    8051a4d <geteuid@plt+0x8275>
 8051ab3:	8d 55 9c             	lea    -0x64(%ebp),%edx
 8051ab6:	c7 45 9c 44 45 4c 41 	movl   $0x414c4544,-0x64(%ebp)
 8051abd:	66 c7 45 a0 59 00    	movw   $0x59,-0x60(%ebp)
 8051ac3:	e9 10 fc ff ff       	jmp    80516d8 <geteuid@plt+0x7f00>
 8051ac8:	c7 44 24 08 10 00 00 	movl   $0x10,0x8(%esp)
 8051acf:	00 
 8051ad0:	c7 44 24 04 8a f7 05 	movl   $0x805f78a,0x4(%esp)
 8051ad7:	08 
 8051ad8:	89 34 24             	mov    %esi,(%esp)
 8051adb:	e8 38 79 ff ff       	call   8049418 <__strcat_chk@plt>
 8051ae0:	8b 85 dc ee ff ff    	mov    -0x1124(%ebp),%eax
 8051ae6:	e9 50 ff ff ff       	jmp    8051a3b <geteuid@plt+0x8263>
 8051aeb:	90                   	nop
 8051aec:	8d 74 26 00          	lea    0x0(%esi,%eiz,1),%esi
 8051af0:	c7 44 24 08 10 00 00 	movl   $0x10,0x8(%esp)
 8051af7:	00 
 8051af8:	c7 44 24 04 b0 e2 05 	movl   $0x805e2b0,0x4(%esp)
 8051aff:	08 
 8051b00:	89 34 24             	mov    %esi,(%esp)
 8051b03:	e8 10 79 ff ff       	call   8049418 <__strcat_chk@plt>
 8051b08:	8b 85 dc ee ff ff    	mov    -0x1124(%ebp),%eax
 8051b0e:	e9 20 ff ff ff       	jmp    8051a33 <geteuid@plt+0x825b>
 8051b13:	90                   	nop
 8051b14:	8d 74 26 00          	lea    0x0(%esi,%eiz,1),%esi
 8051b18:	c7 44 24 08 10 00 00 	movl   $0x10,0x8(%esp)
 8051b1f:	00 
 8051b20:	c7 44 24 04 6d e4 05 	movl   $0x805e46d,0x4(%esp)
 8051b27:	08 
 8051b28:	89 34 24             	mov    %esi,(%esp)
 8051b2b:	e8 e8 78 ff ff       	call   8049418 <__strcat_chk@plt>
 8051b30:	8b 85 dc ee ff ff    	mov    -0x1124(%ebp),%eax
 8051b36:	e9 f0 fe ff ff       	jmp    8051a2b <geteuid@plt+0x8253>
 8051b3b:	90                   	nop
 8051b3c:	8d 74 26 00          	lea    0x0(%esi,%eiz,1),%esi
 8051b40:	8b 95 d8 ee ff ff    	mov    -0x1128(%ebp),%edx
 8051b46:	8b 85 e4 ee ff ff    	mov    -0x111c(%ebp),%eax
 8051b4c:	89 d1                	mov    %edx,%ecx
 8051b4e:	29 c1                	sub    %eax,%ecx
 8051b50:	39 c2                	cmp    %eax,%edx
 8051b52:	0f 9e c2             	setle  %dl
 8051b55:	0f b6 d2             	movzbl %dl,%edx
 8051b58:	83 ea 01             	sub    $0x1,%edx
 8051b5b:	21 d1                	and    %edx,%ecx
 8051b5d:	e9 c0 fb ff ff       	jmp    8051722 <geteuid@plt+0x7f4a>
 8051b62:	8d b6 00 00 00 00    	lea    0x0(%esi),%esi
 8051b68:	89 d8                	mov    %ebx,%eax
 8051b6a:	f7 ee                	imul   %esi
 8051b6c:	c1 fb 1f             	sar    $0x1f,%ebx
 8051b6f:	c7 44 24 04 89 e4 05 	movl   $0x805e489,0x4(%esp)
 8051b76:	08 
 8051b77:	c7 04 24 01 00 00 00 	movl   $0x1,(%esp)
 8051b7e:	c1 fa 05             	sar    $0x5,%edx
 8051b81:	29 da                	sub    %ebx,%edx
 8051b83:	89 54 24 08          	mov    %edx,0x8(%esp)
 8051b87:	e8 cc 77 ff ff       	call   8049358 <__printf_chk@plt>
 8051b8c:	e9 f9 fb ff ff       	jmp    805178a <geteuid@plt+0x7fb2>
 8051b91:	8d b4 26 00 00 00 00 	lea    0x0(%esi,%eiz,1),%esi
 8051b98:	83 f8 40             	cmp    $0x40,%eax
 8051b9b:	74 2b                	je     8051bc8 <geteuid@plt+0x83f0>
 8051b9d:	3d 80 00 00 00       	cmp    $0x80,%eax
 8051ba2:	8d b6 00 00 00 00    	lea    0x0(%esi),%esi
 8051ba8:	0f 85 e8 fa ff ff    	jne    8051696 <geteuid@plt+0x7ebe>
 8051bae:	8d 55 9c             	lea    -0x64(%ebp),%edx
 8051bb1:	c7 45 9c 50 45 52 4d 	movl   $0x4d524550,-0x64(%ebp)
 8051bb8:	c6 45 a0 00          	movb   $0x0,-0x60(%ebp)
 8051bbc:	e9 17 fb ff ff       	jmp    80516d8 <geteuid@plt+0x7f00>
 8051bc1:	8d b4 26 00 00 00 00 	lea    0x0(%esi,%eiz,1),%esi
 8051bc8:	8d 55 9c             	lea    -0x64(%ebp),%edx
 8051bcb:	c7 45 9c 4e 4f 41 52 	movl   $0x52414f4e,-0x64(%ebp)
 8051bd2:	66 c7 45 a0 50 00    	movw   $0x50,-0x60(%ebp)
 8051bd8:	e9 fb fa ff ff       	jmp    80516d8 <geteuid@plt+0x7f00>
 8051bdd:	8d 76 00             	lea    0x0(%esi),%esi
 8051be0:	8d 55 9c             	lea    -0x64(%ebp),%edx
 8051be3:	c7 45 9c 46 41 49 4c 	movl   $0x4c494146,-0x64(%ebp)
 8051bea:	66 c7 45 a0 45 44    	movw   $0x4445,-0x60(%ebp)
 8051bf0:	c6 45 a2 00          	movb   $0x0,-0x5e(%ebp)
 8051bf4:	e9 df fa ff ff       	jmp    80516d8 <geteuid@plt+0x7f00>
 8051bf9:	8d b4 26 00 00 00 00 	lea    0x0(%esi,%eiz,1),%esi
 8051c00:	8d 55 9c             	lea    -0x64(%ebp),%edx
 8051c03:	c7 45 9c 53 54 41 4c 	movl   $0x4c415453,-0x64(%ebp)
 8051c0a:	66 c7 45 a0 45 00    	movw   $0x45,-0x60(%ebp)
 8051c10:	e9 c3 fa ff ff       	jmp    80516d8 <geteuid@plt+0x7f00>
 8051c15:	8d 76 00             	lea    0x0(%esi),%esi
 8051c18:	8d 55 9c             	lea    -0x64(%ebp),%edx
 8051c1b:	c7 45 9c 52 45 41 43 	movl   $0x43414552,-0x64(%ebp)
 8051c22:	c7 45 a0 48 41 42 4c 	movl   $0x4c424148,-0x60(%ebp)
 8051c29:	66 c7 45 a4 45 00    	movw   $0x45,-0x5c(%ebp)
 8051c2f:	e9 a4 fa ff ff       	jmp    80516d8 <geteuid@plt+0x7f00>
 8051c34:	8d 74 26 00          	lea    0x0(%esi,%eiz,1),%esi
 8051c38:	8d 55 9c             	lea    -0x64(%ebp),%edx
 8051c3b:	c7 45 9c 49 4e 43 4f 	movl   $0x4f434e49,-0x64(%ebp)
 8051c42:	c7 45 a0 4d 50 4c 45 	movl   $0x454c504d,-0x60(%ebp)
 8051c49:	66 c7 45 a4 54 45    	movw   $0x4554,-0x5c(%ebp)
 8051c4f:	c6 45 a6 00          	movb   $0x0,-0x5a(%ebp)
 8051c53:	e9 80 fa ff ff       	jmp    80516d8 <geteuid@plt+0x7f00>
 8051c58:	8b 95 94 ee ff ff    	mov    -0x116c(%ebp),%edx
 8051c5e:	89 14 24             	mov    %edx,(%esp)
 8051c61:	e8 a2 78 ff ff       	call   8049508 <fclose@plt>
 8051c66:	31 c0                	xor    %eax,%eax
 8051c68:	8b 55 e4             	mov    -0x1c(%ebp),%edx
 8051c6b:	65 33 15 14 00 00 00 	xor    %gs:0x14,%edx
 8051c72:	75 6d                	jne    8051ce1 <geteuid@plt+0x8509>
 8051c74:	81 c4 dc 11 00 00    	add    $0x11dc,%esp
 8051c7a:	5b                   	pop    %ebx
 8051c7b:	5e                   	pop    %esi
 8051c7c:	5f                   	pop    %edi
 8051c7d:	5d                   	pop    %ebp
 8051c7e:	c3                   	ret    
 8051c7f:	90                   	nop
 8051c80:	85 c0                	test   %eax,%eax
 8051c82:	0f 85 0e fa ff ff    	jne    8051696 <geteuid@plt+0x7ebe>
 8051c88:	8d 55 9c             	lea    -0x64(%ebp),%edx
 8051c8b:	c7 45 9c 4e 4f 4e 45 	movl   $0x454e4f4e,-0x64(%ebp)
 8051c92:	c6 45 a0 00          	movb   $0x0,-0x60(%ebp)
 8051c96:	e9 3d fa ff ff       	jmp    80516d8 <geteuid@plt+0x7f00>
 8051c9b:	90                   	nop
 8051c9c:	8d 74 26 00          	lea    0x0(%esi,%eiz,1),%esi
 8051ca0:	c7 04 24 a8 e5 05 08 	movl   $0x805e5a8,(%esp)
 8051ca7:	e8 7c 77 ff ff       	call   8049428 <gettext@plt>
 8051cac:	c7 04 24 01 00 00 00 	movl   $0x1,(%esp)
 8051cb3:	89 44 24 04          	mov    %eax,0x4(%esp)
 8051cb7:	e8 9c 76 ff ff       	call   8049358 <__printf_chk@plt>
 8051cbc:	e9 dd fa ff ff       	jmp    805179e <geteuid@plt+0x7fc6>
 8051cc1:	8d b4 26 00 00 00 00 	lea    0x0(%esi,%eiz,1),%esi
 8051cc8:	8b 45 0c             	mov    0xc(%ebp),%eax
 8051ccb:	8b 55 08             	mov    0x8(%ebp),%edx
 8051cce:	0d 00 00 00 01       	or     $0x1000000,%eax
 8051cd3:	89 44 24 04          	mov    %eax,0x4(%esp)
 8051cd7:	89 14 24             	mov    %edx,(%esp)
 8051cda:	e8 d1 f1 ff ff       	call   8050eb0 <geteuid@plt+0x76d8>
 8051cdf:	eb 87                	jmp    8051c68 <geteuid@plt+0x8490>
 8051ce1:	e8 82 79 ff ff       	call   8049668 <__stack_chk_fail@plt>
 8051ce6:	8d 76 00             	lea    0x0(%esi),%esi
 8051ce9:	8d bc 27 00 00 00 00 	lea    0x0(%edi,%eiz,1),%edi
 8051cf0:	55                   	push   %ebp
 8051cf1:	b8 02 00 00 00       	mov    $0x2,%eax
 8051cf6:	89 e5                	mov    %esp,%ebp
 8051cf8:	83 ec 28             	sub    $0x28,%esp
 8051cfb:	89 5d f4             	mov    %ebx,-0xc(%ebp)
 8051cfe:	8b 5d 08             	mov    0x8(%ebp),%ebx
 8051d01:	89 75 f8             	mov    %esi,-0x8(%ebp)
 8051d04:	89 7d fc             	mov    %edi,-0x4(%ebp)
 8051d07:	89 de                	mov    %ebx,%esi
 8051d09:	89 df                	mov    %ebx,%edi
 8051d0b:	83 e6 03             	and    $0x3,%esi
 8051d0e:	83 e7 24             	and    $0x24,%edi
 8051d11:	84 db                	test   %bl,%bl
 8051d13:	78 13                	js     8051d28 <geteuid@plt+0x8550>
 8051d15:	83 e3 40             	and    $0x40,%ebx
 8051d18:	75 26                	jne    8051d40 <geteuid@plt+0x8568>
 8051d1a:	8b 5d f4             	mov    -0xc(%ebp),%ebx
 8051d1d:	8b 75 f8             	mov    -0x8(%ebp),%esi
 8051d20:	8b 7d fc             	mov    -0x4(%ebp),%edi
 8051d23:	89 ec                	mov    %ebp,%esp
 8051d25:	5d                   	pop    %ebp
 8051d26:	c3                   	ret    
 8051d27:	90                   	nop
 8051d28:	89 7c 24 04          	mov    %edi,0x4(%esp)
 8051d2c:	89 34 24             	mov    %esi,(%esp)
 8051d2f:	e8 7c f1 ff ff       	call   8050eb0 <geteuid@plt+0x76d8>
 8051d34:	85 c0                	test   %eax,%eax
 8051d36:	75 e2                	jne    8051d1a <geteuid@plt+0x8542>
 8051d38:	83 e3 40             	and    $0x40,%ebx
 8051d3b:	74 dd                	je     8051d1a <geteuid@plt+0x8542>
 8051d3d:	8d 76 00             	lea    0x0(%esi),%esi
 8051d40:	89 7c 24 04          	mov    %edi,0x4(%esp)
 8051d44:	89 34 24             	mov    %esi,(%esp)
 8051d47:	e8 94 f8 ff ff       	call   80515e0 <geteuid@plt+0x7e08>
 8051d4c:	eb cc                	jmp    8051d1a <geteuid@plt+0x8542>
 8051d4e:	90                   	nop
 8051d4f:	90                   	nop
 8051d50:	55                   	push   %ebp
 8051d51:	89 e5                	mov    %esp,%ebp
 8051d53:	83 ec 18             	sub    $0x18,%esp
 8051d56:	c7 04 24 08 e7 05 08 	movl   $0x805e708,(%esp)
 8051d5d:	e8 c6 76 ff ff       	call   8049428 <gettext@plt>
 8051d62:	c7 44 24 04 01 00 00 	movl   $0x1,0x4(%esp)
 8051d69:	00 
 8051d6a:	89 44 24 08          	mov    %eax,0x8(%esp)
 8051d6e:	a1 80 28 06 08       	mov    0x8062880,%eax
 8051d73:	89 04 24             	mov    %eax,(%esp)
 8051d76:	e8 8d 75 ff ff       	call   8049308 <__fprintf_chk@plt>
 8051d7b:	c7 04 24 30 e7 05 08 	movl   $0x805e730,(%esp)
 8051d82:	e8 a1 76 ff ff       	call   8049428 <gettext@plt>
 8051d87:	c7 44 24 04 01 00 00 	movl   $0x1,0x4(%esp)
 8051d8e:	00 
 8051d8f:	89 44 24 08          	mov    %eax,0x8(%esp)
 8051d93:	a1 80 28 06 08       	mov    0x8062880,%eax
 8051d98:	89 04 24             	mov    %eax,(%esp)
 8051d9b:	e8 68 75 ff ff       	call   8049308 <__fprintf_chk@plt>
 8051da0:	c7 04 24 74 e7 05 08 	movl   $0x805e774,(%esp)
 8051da7:	e8 7c 76 ff ff       	call   8049428 <gettext@plt>
 8051dac:	c7 44 24 04 01 00 00 	movl   $0x1,0x4(%esp)
 8051db3:	00 
 8051db4:	89 44 24 08          	mov    %eax,0x8(%esp)
 8051db8:	a1 80 28 06 08       	mov    0x8062880,%eax
 8051dbd:	89 04 24             	mov    %eax,(%esp)
 8051dc0:	e8 43 75 ff ff       	call   8049308 <__fprintf_chk@plt>
 8051dc5:	b8 04 00 00 00       	mov    $0x4,%eax
 8051dca:	c9                   	leave  
 8051dcb:	c3                   	ret    
 8051dcc:	8d 74 26 00          	lea    0x0(%esi,%eiz,1),%esi
 8051dd0:	55                   	push   %ebp
 8051dd1:	89 e5                	mov    %esp,%ebp
 8051dd3:	57                   	push   %edi
 8051dd4:	56                   	push   %esi
 8051dd5:	53                   	push   %ebx
 8051dd6:	81 ec cc 01 00 00    	sub    $0x1cc,%esp
 8051ddc:	89 85 48 fe ff ff    	mov    %eax,-0x1b8(%ebp)
 8051de2:	8d bd 68 fe ff ff    	lea    -0x198(%ebp),%edi
 8051de8:	65 a1 14 00 00 00    	mov    %gs:0x14,%eax
 8051dee:	89 45 e4             	mov    %eax,-0x1c(%ebp)
 8051df1:	31 c0                	xor    %eax,%eax
 8051df3:	89 8d 54 fe ff ff    	mov    %ecx,-0x1ac(%ebp)
 8051df9:	b9 1e 00 00 00       	mov    $0x1e,%ecx
 8051dfe:	8b 95 54 fe ff ff    	mov    -0x1ac(%ebp),%edx
 8051e04:	c7 85 60 fe ff ff 4e 	movl   $0x454e4f4e,-0x1a0(%ebp)
 8051e0b:	4f 4e 45 
 8051e0e:	c7 85 64 fe ff ff 00 	movl   $0x0,-0x19c(%ebp)
 8051e15:	00 00 00 
 8051e18:	f3 ab                	rep stos %eax,%es:(%edi)
 8051e1a:	8b 02                	mov    (%edx),%eax
 8051e1c:	85 c0                	test   %eax,%eax
 8051e1e:	0f 84 46 01 00 00    	je     8051f6a <geteuid@plt+0x8792>
 8051e24:	8d 9d e0 fe ff ff    	lea    -0x120(%ebp),%ebx
 8051e2a:	bf 89 e3 05 08       	mov    $0x805e389,%edi
 8051e2f:	c7 44 24 08 80 00 00 	movl   $0x80,0x8(%esp)
 8051e36:	00 
 8051e37:	89 de                	mov    %ebx,%esi
 8051e39:	89 44 24 04          	mov    %eax,0x4(%esp)
 8051e3d:	89 1c 24             	mov    %ebx,(%esp)
 8051e40:	e8 a3 77 ff ff       	call   80495e8 <__strcpy_chk@plt>
 8051e45:	b9 08 00 00 00       	mov    $0x8,%ecx
 8051e4a:	f3 a6                	repz cmpsb %es:(%edi),%ds:(%esi)
 8051e4c:	0f 84 ce 02 00 00    	je     8052120 <geteuid@plt+0x8948>
 8051e52:	c7 44 24 04 2f 00 00 	movl   $0x2f,0x4(%esp)
 8051e59:	00 
 8051e5a:	be 80 00 00 00       	mov    $0x80,%esi
 8051e5f:	89 1c 24             	mov    %ebx,(%esp)
 8051e62:	e8 11 75 ff ff       	call   8049378 <strchr@plt>
 8051e67:	85 c0                	test   %eax,%eax
 8051e69:	89 c7                	mov    %eax,%edi
 8051e6b:	74 2b                	je     8051e98 <geteuid@plt+0x86c0>
 8051e6d:	8d 40 01             	lea    0x1(%eax),%eax
 8051e70:	c7 44 24 08 0a 00 00 	movl   $0xa,0x8(%esp)
 8051e77:	00 
 8051e78:	c7 44 24 04 00 00 00 	movl   $0x0,0x4(%esp)
 8051e7f:	00 
 8051e80:	89 04 24             	mov    %eax,(%esp)
 8051e83:	e8 c0 75 ff ff       	call   8049448 <strtol@plt>
 8051e88:	3d 80 00 00 00       	cmp    $0x80,%eax
 8051e8d:	89 c6                	mov    %eax,%esi
 8051e8f:	0f 87 a3 03 00 00    	ja     8052238 <geteuid@plt+0x8a60>
 8051e95:	c6 07 00             	movb   $0x0,(%edi)
 8051e98:	8d 45 c8             	lea    -0x38(%ebp),%eax
 8051e9b:	89 85 50 fe ff ff    	mov    %eax,-0x1b0(%ebp)
 8051ea1:	89 44 24 08          	mov    %eax,0x8(%esp)
 8051ea5:	89 5c 24 04          	mov    %ebx,0x4(%esp)
 8051ea9:	c7 04 24 01 00 00 00 	movl   $0x1,(%esp)
 8051eb0:	ff 15 58 22 06 08    	call   *0x8062258
 8051eb6:	85 c0                	test   %eax,%eax
 8051eb8:	0f 88 8a 03 00 00    	js     8052248 <geteuid@plt+0x8a70>
 8051ebe:	8d 8d 60 ff ff ff    	lea    -0xa0(%ebp),%ecx
 8051ec4:	31 c0                	xor    %eax,%eax
 8051ec6:	89 8d 4c fe ff ff    	mov    %ecx,-0x1b4(%ebp)
 8051ecc:	8b bd 4c fe ff ff    	mov    -0x1b4(%ebp),%edi
 8051ed2:	b9 12 00 00 00       	mov    $0x12,%ecx
 8051ed7:	f3 ab                	rep stos %eax,%es:(%edi)
 8051ed9:	8b 45 d0             	mov    -0x30(%ebp),%eax
 8051edc:	c7 45 a0 01 00 00 00 	movl   $0x1,-0x60(%ebp)
 8051ee3:	89 85 60 ff ff ff    	mov    %eax,-0xa0(%ebp)
 8051ee9:	8b 45 d4             	mov    -0x2c(%ebp),%eax
 8051eec:	89 85 64 ff ff ff    	mov    %eax,-0x9c(%ebp)
 8051ef2:	8b 45 d8             	mov    -0x28(%ebp),%eax
 8051ef5:	89 85 68 ff ff ff    	mov    %eax,-0x98(%ebp)
 8051efb:	8b 45 dc             	mov    -0x24(%ebp),%eax
 8051efe:	89 85 6c ff ff ff    	mov    %eax,-0x94(%ebp)
 8051f04:	89 f0                	mov    %esi,%eax
 8051f06:	83 c6 80             	add    $0xffffff80,%esi
 8051f09:	0f 84 a9 01 00 00    	je     80520b8 <geteuid@plt+0x88e0>
 8051f0f:	8b 95 54 fe ff ff    	mov    -0x1ac(%ebp),%edx
 8051f15:	8b 9d 54 fe ff ff    	mov    -0x1ac(%ebp),%ebx
 8051f1b:	66 89 45 94          	mov    %ax,-0x6c(%ebp)
 8051f1f:	c7 45 98 01 00 00 00 	movl   $0x1,-0x68(%ebp)
 8051f26:	8b 42 04             	mov    0x4(%edx),%eax
 8051f29:	83 c3 04             	add    $0x4,%ebx
 8051f2c:	c7 85 54 fe ff ff 00 	movl   $0x0,-0x1ac(%ebp)
 8051f33:	00 00 00 
 8051f36:	85 c0                	test   %eax,%eax
 8051f38:	0f 84 5a 03 00 00    	je     8052298 <geteuid@plt+0x8ac0>
 8051f3e:	b9 07 00 00 00       	mov    $0x7,%ecx
 8051f43:	89 c6                	mov    %eax,%esi
 8051f45:	bf d6 e7 05 08       	mov    $0x805e7d6,%edi
 8051f4a:	f3 a6                	repz cmpsb %es:(%edi),%ds:(%esi)
 8051f4c:	75 42                	jne    8051f90 <geteuid@plt+0x87b8>
 8051f4e:	8b 73 04             	mov    0x4(%ebx),%esi
 8051f51:	85 f6                	test   %esi,%esi
 8051f53:	74 15                	je     8051f6a <geteuid@plt+0x8792>
 8051f55:	e8 7e 75 ff ff       	call   80494d8 <__ctype_b_loc@plt>
 8051f5a:	0f be 16             	movsbl (%esi),%edx
 8051f5d:	8b 00                	mov    (%eax),%eax
 8051f5f:	f6 44 50 01 08       	testb  $0x8,0x1(%eax,%edx,2)
 8051f64:	0f 85 66 01 00 00    	jne    80520d0 <geteuid@plt+0x88f8>
 8051f6a:	e8 e1 fd ff ff       	call   8051d50 <geteuid@plt+0x8578>
 8051f6f:	8b 55 e4             	mov    -0x1c(%ebp),%edx
 8051f72:	65 33 15 14 00 00 00 	xor    %gs:0x14,%edx
 8051f79:	0f 85 68 04 00 00    	jne    80523e7 <geteuid@plt+0x8c0f>
 8051f7f:	81 c4 cc 01 00 00    	add    $0x1cc,%esp
 8051f85:	5b                   	pop    %ebx
 8051f86:	5e                   	pop    %esi
 8051f87:	5f                   	pop    %edi
 8051f88:	5d                   	pop    %ebp
 8051f89:	c3                   	ret    
 8051f8a:	8d b6 00 00 00 00    	lea    0x0(%esi),%esi
 8051f90:	0f b6 08             	movzbl (%eax),%ecx
 8051f93:	89 8d 44 fe ff ff    	mov    %ecx,-0x1bc(%ebp)
 8051f99:	0f b6 0d dd e7 05 08 	movzbl 0x805e7dd,%ecx
 8051fa0:	39 8d 44 fe ff ff    	cmp    %ecx,-0x1bc(%ebp)
 8051fa6:	0f 85 a4 00 00 00    	jne    8052050 <geteuid@plt+0x8878>
 8051fac:	0f b6 48 01          	movzbl 0x1(%eax),%ecx
 8051fb0:	3a 0d de e7 05 08    	cmp    0x805e7de,%cl
 8051fb6:	0f 85 94 00 00 00    	jne    8052050 <geteuid@plt+0x8878>
 8051fbc:	0f b6 48 02          	movzbl 0x2(%eax),%ecx
 8051fc0:	3a 0d df e7 05 08    	cmp    0x805e7df,%cl
 8051fc6:	0f 85 84 00 00 00    	jne    8052050 <geteuid@plt+0x8878>
 8051fcc:	8b 43 04             	mov    0x4(%ebx),%eax
 8051fcf:	85 c0                	test   %eax,%eax
 8051fd1:	74 97                	je     8051f6a <geteuid@plt+0x8792>
 8051fd3:	f6 45 a0 02          	testb  $0x2,-0x60(%ebp)
 8051fd7:	75 91                	jne    8051f6a <geteuid@plt+0x8792>
 8051fd9:	89 44 24 04          	mov    %eax,0x4(%esp)
 8051fdd:	8d 85 60 fe ff ff    	lea    -0x1a0(%ebp),%eax
 8051fe3:	c7 44 24 08 80 00 00 	movl   $0x80,0x8(%esp)
 8051fea:	00 
 8051feb:	89 04 24             	mov    %eax,(%esp)
 8051fee:	e8 f5 75 ff ff       	call   80495e8 <__strcpy_chk@plt>
 8051ff3:	8b 95 50 fe ff ff    	mov    -0x1b0(%ebp),%edx
 8051ff9:	8d 8d 60 fe ff ff    	lea    -0x1a0(%ebp),%ecx
 8051fff:	89 4c 24 04          	mov    %ecx,0x4(%esp)
 8052003:	c7 04 24 01 00 00 00 	movl   $0x1,(%esp)
 805200a:	89 54 24 08          	mov    %edx,0x8(%esp)
 805200e:	ff 15 58 22 06 08    	call   *0x8062258
 8052014:	85 c0                	test   %eax,%eax
 8052016:	0f 88 e4 00 00 00    	js     8052100 <geteuid@plt+0x8928>
 805201c:	8b 45 d0             	mov    -0x30(%ebp),%eax
 805201f:	83 c3 08             	add    $0x8,%ebx
 8052022:	83 4d a0 02          	orl    $0x2,-0x60(%ebp)
 8052026:	89 45 80             	mov    %eax,-0x80(%ebp)
 8052029:	8b 45 d4             	mov    -0x2c(%ebp),%eax
 805202c:	89 45 84             	mov    %eax,-0x7c(%ebp)
 805202f:	8b 45 d8             	mov    -0x28(%ebp),%eax
 8052032:	89 45 88             	mov    %eax,-0x78(%ebp)
 8052035:	8b 45 dc             	mov    -0x24(%ebp),%eax
 8052038:	89 45 8c             	mov    %eax,-0x74(%ebp)
 805203b:	8b 85 54 fe ff ff    	mov    -0x1ac(%ebp),%eax
 8052041:	8b 13                	mov    (%ebx),%edx
 8052043:	89 85 54 fe ff ff    	mov    %eax,-0x1ac(%ebp)
 8052049:	89 d0                	mov    %edx,%eax
 805204b:	e9 e6 fe ff ff       	jmp    8051f36 <geteuid@plt+0x875e>
 8052050:	bf e0 e7 05 08       	mov    $0x805e7e0,%edi
 8052055:	b9 08 00 00 00       	mov    $0x8,%ecx
 805205a:	89 c6                	mov    %eax,%esi
 805205c:	f3 a6                	repz cmpsb %es:(%edi),%ds:(%esi)
 805205e:	0f 84 68 ff ff ff    	je     8051fcc <geteuid@plt+0x87f4>
 8052064:	0f b6 0d e8 e7 05 08 	movzbl 0x805e7e8,%ecx
 805206b:	39 8d 44 fe ff ff    	cmp    %ecx,-0x1bc(%ebp)
 8052071:	0f 85 19 01 00 00    	jne    8052190 <geteuid@plt+0x89b8>
 8052077:	0f b6 48 01          	movzbl 0x1(%eax),%ecx
 805207b:	3a 0d e9 e7 05 08    	cmp    0x805e7e9,%cl
 8052081:	0f 85 09 01 00 00    	jne    8052190 <geteuid@plt+0x89b8>
 8052087:	0f b6 48 02          	movzbl 0x2(%eax),%ecx
 805208b:	3a 0d ea e7 05 08    	cmp    0x805e7ea,%cl
 8052091:	0f 85 f9 00 00 00    	jne    8052190 <geteuid@plt+0x89b8>
 8052097:	0f b6 48 03          	movzbl 0x3(%eax),%ecx
 805209b:	3a 0d eb e7 05 08    	cmp    0x805e7eb,%cl
 80520a1:	0f 85 e9 00 00 00    	jne    8052190 <geteuid@plt+0x89b8>
 80520a7:	83 c3 04             	add    $0x4,%ebx
 80520aa:	8b 85 54 fe ff ff    	mov    -0x1ac(%ebp),%eax
 80520b0:	83 4d a0 20          	orl    $0x20,-0x60(%ebp)
 80520b4:	8b 13                	mov    (%ebx),%edx
 80520b6:	eb 8b                	jmp    8052043 <geteuid@plt+0x886b>
 80520b8:	c7 45 a0 05 00 00 00 	movl   $0x5,-0x60(%ebp)
 80520bf:	b8 80 00 00 00       	mov    $0x80,%eax
 80520c4:	e9 46 fe ff ff       	jmp    8051f0f <geteuid@plt+0x8737>
 80520c9:	8d b4 26 00 00 00 00 	lea    0x0(%esi,%eiz,1),%esi
 80520d0:	c7 44 24 08 0a 00 00 	movl   $0xa,0x8(%esp)
 80520d7:	00 
 80520d8:	83 c3 08             	add    $0x8,%ebx
 80520db:	c7 44 24 04 00 00 00 	movl   $0x0,0x4(%esp)
 80520e2:	00 
 80520e3:	89 34 24             	mov    %esi,(%esp)
 80520e6:	e8 5d 73 ff ff       	call   8049448 <strtol@plt>
 80520eb:	8b 13                	mov    (%ebx),%edx
 80520ed:	89 45 98             	mov    %eax,-0x68(%ebp)
 80520f0:	8b 85 54 fe ff ff    	mov    -0x1ac(%ebp),%eax
 80520f6:	e9 48 ff ff ff       	jmp    8052043 <geteuid@plt+0x886b>
 80520fb:	90                   	nop
 80520fc:	8d 74 26 00          	lea    0x0(%esi,%eiz,1),%esi
 8052100:	8d 85 60 fe ff ff    	lea    -0x1a0(%ebp),%eax
 8052106:	89 04 24             	mov    %eax,(%esp)
 8052109:	ff 15 5c 22 06 08    	call   *0x806225c
 805210f:	b8 06 00 00 00       	mov    $0x6,%eax
 8052114:	e9 56 fe ff ff       	jmp    8051f6f <geteuid@plt+0x8797>
 8052119:	8d b4 26 00 00 00 00 	lea    0x0(%esi,%eiz,1),%esi
 8052120:	8d 4d c8             	lea    -0x38(%ebp),%ecx
 8052123:	31 c0                	xor    %eax,%eax
 8052125:	89 8d 50 fe ff ff    	mov    %ecx,-0x1b0(%ebp)
 805212b:	8b 95 50 fe ff ff    	mov    -0x1b0(%ebp),%edx
 8052131:	c7 04 02 00 00 00 00 	movl   $0x0,(%edx,%eax,1)
 8052138:	83 c0 04             	add    $0x4,%eax
 805213b:	83 f8 1c             	cmp    $0x1c,%eax
 805213e:	72 eb                	jb     805212b <geteuid@plt+0x8953>
 8052140:	8d 8d 60 ff ff ff    	lea    -0xa0(%ebp),%ecx
 8052146:	31 c0                	xor    %eax,%eax
 8052148:	89 8d 4c fe ff ff    	mov    %ecx,-0x1b4(%ebp)
 805214e:	8b bd 4c fe ff ff    	mov    -0x1b4(%ebp),%edi
 8052154:	b9 12 00 00 00       	mov    $0x12,%ecx
 8052159:	f3 ab                	rep stos %eax,%es:(%edi)
 805215b:	8b 45 d0             	mov    -0x30(%ebp),%eax
 805215e:	c7 45 a0 01 00 00 00 	movl   $0x1,-0x60(%ebp)
 8052165:	89 85 60 ff ff ff    	mov    %eax,-0xa0(%ebp)
 805216b:	8b 45 d4             	mov    -0x2c(%ebp),%eax
 805216e:	89 85 64 ff ff ff    	mov    %eax,-0x9c(%ebp)
 8052174:	8b 45 d8             	mov    -0x28(%ebp),%eax
 8052177:	89 85 68 ff ff ff    	mov    %eax,-0x98(%ebp)
 805217d:	8b 45 dc             	mov    -0x24(%ebp),%eax
 8052180:	89 85 6c ff ff ff    	mov    %eax,-0x94(%ebp)
 8052186:	31 c0                	xor    %eax,%eax
 8052188:	e9 82 fd ff ff       	jmp    8051f0f <geteuid@plt+0x8737>
 805218d:	8d 76 00             	lea    0x0(%esi),%esi
 8052190:	0f b6 0d ec e7 05 08 	movzbl 0x805e7ec,%ecx
 8052197:	39 8d 44 fe ff ff    	cmp    %ecx,-0x1bc(%ebp)
 805219d:	75 39                	jne    80521d8 <geteuid@plt+0x8a00>
 805219f:	0f b6 48 01          	movzbl 0x1(%eax),%ecx
 80521a3:	3a 0d ed e7 05 08    	cmp    0x805e7ed,%cl
 80521a9:	75 2d                	jne    80521d8 <geteuid@plt+0x8a00>
 80521ab:	0f b6 48 02          	movzbl 0x2(%eax),%ecx
 80521af:	3a 0d ee e7 05 08    	cmp    0x805e7ee,%cl
 80521b5:	75 21                	jne    80521d8 <geteuid@plt+0x8a00>
 80521b7:	0f b6 48 03          	movzbl 0x3(%eax),%ecx
 80521bb:	3a 0d ef e7 05 08    	cmp    0x805e7ef,%cl
 80521c1:	75 15                	jne    80521d8 <geteuid@plt+0x8a00>
 80521c3:	83 c3 04             	add    $0x4,%ebx
 80521c6:	8b 85 54 fe ff ff    	mov    -0x1ac(%ebp),%eax
 80521cc:	83 4d a0 10          	orl    $0x10,-0x60(%ebp)
 80521d0:	8b 13                	mov    (%ebx),%edx
 80521d2:	e9 6c fe ff ff       	jmp    8052043 <geteuid@plt+0x886b>
 80521d7:	90                   	nop
 80521d8:	bf f0 e7 05 08       	mov    $0x805e7f0,%edi
 80521dd:	b9 07 00 00 00       	mov    $0x7,%ecx
 80521e2:	89 c6                	mov    %eax,%esi
 80521e4:	f3 a6                	repz cmpsb %es:(%edi),%ds:(%esi)
 80521e6:	0f 84 94 00 00 00    	je     8052280 <geteuid@plt+0x8aa8>
 80521ec:	0f b6 0d 67 f0 05 08 	movzbl 0x805f067,%ecx
 80521f3:	39 8d 44 fe ff ff    	cmp    %ecx,-0x1bc(%ebp)
 80521f9:	75 25                	jne    8052220 <geteuid@plt+0x8a48>
 80521fb:	0f b6 50 01          	movzbl 0x1(%eax),%edx
 80521ff:	3a 15 68 f0 05 08    	cmp    0x805f068,%dl
 8052205:	75 19                	jne    8052220 <geteuid@plt+0x8a48>
 8052207:	0f b6 50 02          	movzbl 0x2(%eax),%edx
 805220b:	3a 15 69 f0 05 08    	cmp    0x805f069,%dl
 8052211:	75 0d                	jne    8052220 <geteuid@plt+0x8a48>
 8052213:	0f b6 50 03          	movzbl 0x3(%eax),%edx
 8052217:	3a 15 6a f0 05 08    	cmp    0x805f06a,%dl
 805221d:	74 61                	je     8052280 <geteuid@plt+0x8aa8>
 805221f:	90                   	nop
 8052220:	83 c3 04             	add    $0x4,%ebx
 8052223:	8b 0b                	mov    (%ebx),%ecx
 8052225:	85 c9                	test   %ecx,%ecx
 8052227:	0f 85 3d fd ff ff    	jne    8051f6a <geteuid@plt+0x8792>
 805222d:	31 d2                	xor    %edx,%edx
 805222f:	e9 0f fe ff ff       	jmp    8052043 <geteuid@plt+0x886b>
 8052234:	8d 74 26 00          	lea    0x0(%esi,%eiz,1),%esi
 8052238:	e8 13 fb ff ff       	call   8051d50 <geteuid@plt+0x8578>
 805223d:	8d 76 00             	lea    0x0(%esi),%esi
 8052240:	e9 50 fc ff ff       	jmp    8051e95 <geteuid@plt+0x86bd>
 8052245:	8d 76 00             	lea    0x0(%esi),%esi
 8052248:	8b 95 50 fe ff ff    	mov    -0x1b0(%ebp),%edx
 805224e:	89 5c 24 04          	mov    %ebx,0x4(%esp)
 8052252:	c7 04 24 00 00 00 00 	movl   $0x0,(%esp)
 8052259:	89 54 24 08          	mov    %edx,0x8(%esp)
 805225d:	ff 15 58 22 06 08    	call   *0x8062258
 8052263:	85 c0                	test   %eax,%eax
 8052265:	0f 89 53 fc ff ff    	jns    8051ebe <geteuid@plt+0x86e6>
 805226b:	89 1c 24             	mov    %ebx,(%esp)
 805226e:	ff 15 5c 22 06 08    	call   *0x806225c
 8052274:	b8 01 00 00 00       	mov    $0x1,%eax
 8052279:	e9 f1 fc ff ff       	jmp    8051f6f <geteuid@plt+0x8797>
 805227e:	66 90                	xchg   %ax,%ax
 8052280:	8b 43 04             	mov    0x4(%ebx),%eax
 8052283:	85 c0                	test   %eax,%eax
 8052285:	0f 84 df fc ff ff    	je     8051f6a <geteuid@plt+0x8792>
 805228b:	83 c3 08             	add    $0x8,%ebx
 805228e:	8b 13                	mov    (%ebx),%edx
 8052290:	e9 ae fd ff ff       	jmp    8052043 <geteuid@plt+0x886b>
 8052295:	8d 76 00             	lea    0x0(%esi),%esi
 8052298:	c7 44 24 08 00 00 00 	movl   $0x0,0x8(%esp)
 805229f:	00 
 80522a0:	c7 44 24 04 02 00 00 	movl   $0x2,0x4(%esp)
 80522a7:	00 
 80522a8:	c7 04 24 0a 00 00 00 	movl   $0xa,(%esp)
 80522af:	e8 14 72 ff ff       	call   80494c8 <socket@plt>
 80522b4:	85 c0                	test   %eax,%eax
 80522b6:	a3 74 22 06 08       	mov    %eax,0x8062274
 80522bb:	0f 88 a7 00 00 00    	js     8052368 <geteuid@plt+0x8b90>
 80522c1:	8b 95 54 fe ff ff    	mov    -0x1ac(%ebp),%edx
 80522c7:	85 d2                	test   %edx,%edx
 80522c9:	0f 84 af 00 00 00    	je     805237e <geteuid@plt+0x8ba6>
 80522cf:	8d 5d a8             	lea    -0x58(%ebp),%ebx
 80522d2:	31 c0                	xor    %eax,%eax
 80522d4:	c7 04 03 00 00 00 00 	movl   $0x0,(%ebx,%eax,1)
 80522db:	83 c0 04             	add    $0x4,%eax
 80522de:	83 f8 20             	cmp    $0x20,%eax
 80522e1:	72 f1                	jb     80522d4 <geteuid@plt+0x8afc>
 80522e3:	8b 85 54 fe ff ff    	mov    -0x1ac(%ebp),%eax
 80522e9:	c7 44 24 08 10 00 00 	movl   $0x10,0x8(%esp)
 80522f0:	00 
 80522f1:	89 1c 24             	mov    %ebx,(%esp)
 80522f4:	89 44 24 04          	mov    %eax,0x4(%esp)
 80522f8:	e8 eb 72 ff ff       	call   80495e8 <__strcpy_chk@plt>
 80522fd:	a1 74 22 06 08       	mov    0x8062274,%eax
 8052302:	89 5c 24 08          	mov    %ebx,0x8(%esp)
 8052306:	c7 44 24 04 33 89 00 	movl   $0x8933,0x4(%esp)
 805230d:	00 
 805230e:	89 04 24             	mov    %eax,(%esp)
 8052311:	e8 a2 71 ff ff       	call   80494b8 <ioctl@plt>
 8052316:	85 c0                	test   %eax,%eax
 8052318:	0f 88 aa 00 00 00    	js     80523c8 <geteuid@plt+0x8bf0>
 805231e:	8b 45 b8             	mov    -0x48(%ebp),%eax
 8052321:	89 45 a4             	mov    %eax,-0x5c(%ebp)
 8052324:	a1 74 22 06 08       	mov    0x8062274,%eax
 8052329:	83 bd 48 fe ff ff 02 	cmpl   $0x2,-0x1b8(%ebp)
 8052330:	74 55                	je     8052387 <geteuid@plt+0x8baf>
 8052332:	8b 8d 4c fe ff ff    	mov    -0x1b4(%ebp),%ecx
 8052338:	c7 44 24 04 0b 89 00 	movl   $0x890b,0x4(%esp)
 805233f:	00 
 8052340:	89 04 24             	mov    %eax,(%esp)
 8052343:	89 4c 24 08          	mov    %ecx,0x8(%esp)
 8052347:	e8 6c 71 ff ff       	call   80494b8 <ioctl@plt>
 805234c:	85 c0                	test   %eax,%eax
 805234e:	0f 88 8a 00 00 00    	js     80523de <geteuid@plt+0x8c06>
 8052354:	a1 74 22 06 08       	mov    0x8062274,%eax
 8052359:	89 04 24             	mov    %eax,(%esp)
 805235c:	e8 a7 72 ff ff       	call   8049608 <close@plt>
 8052361:	31 c0                	xor    %eax,%eax
 8052363:	e9 07 fc ff ff       	jmp    8051f6f <geteuid@plt+0x8797>
 8052368:	c7 04 24 93 bd 05 08 	movl   $0x805bd93,(%esp)
 805236f:	e8 94 70 ff ff       	call   8049408 <perror@plt>
 8052374:	b8 07 00 00 00       	mov    $0x7,%eax
 8052379:	e9 f1 fb ff ff       	jmp    8051f6f <geteuid@plt+0x8797>
 805237e:	c7 45 a4 00 00 00 00 	movl   $0x0,-0x5c(%ebp)
 8052385:	eb a2                	jmp    8052329 <geteuid@plt+0x8b51>
 8052387:	8b 95 4c fe ff ff    	mov    -0x1b4(%ebp),%edx
 805238d:	c7 44 24 04 0c 89 00 	movl   $0x890c,0x4(%esp)
 8052394:	00 
 8052395:	89 04 24             	mov    %eax,(%esp)
 8052398:	89 54 24 08          	mov    %edx,0x8(%esp)
 805239c:	e8 17 71 ff ff       	call   80494b8 <ioctl@plt>
 80523a1:	85 c0                	test   %eax,%eax
 80523a3:	79 af                	jns    8052354 <geteuid@plt+0x8b7c>
 80523a5:	c7 04 24 03 e8 05 08 	movl   $0x805e803,(%esp)
 80523ac:	e8 57 70 ff ff       	call   8049408 <perror@plt>
 80523b1:	a1 74 22 06 08       	mov    0x8062274,%eax
 80523b6:	89 04 24             	mov    %eax,(%esp)
 80523b9:	e8 4a 72 ff ff       	call   8049608 <close@plt>
 80523be:	b8 07 00 00 00       	mov    $0x7,%eax
 80523c3:	e9 a7 fb ff ff       	jmp    8051f6f <geteuid@plt+0x8797>
 80523c8:	c7 04 24 f7 e7 05 08 	movl   $0x805e7f7,(%esp)
 80523cf:	e8 34 70 ff ff       	call   8049408 <perror@plt>
 80523d4:	b8 07 00 00 00       	mov    $0x7,%eax
 80523d9:	e9 91 fb ff ff       	jmp    8051f6f <geteuid@plt+0x8797>
 80523de:	c7 04 24 0d e8 05 08 	movl   $0x805e80d,(%esp)
 80523e5:	eb c5                	jmp    80523ac <geteuid@plt+0x8bd4>
 80523e7:	e8 7c 72 ff ff       	call   8049668 <__stack_chk_fail@plt>
 80523ec:	8d 74 26 00          	lea    0x0(%esi,%eiz,1),%esi
 80523f0:	55                   	push   %ebp
 80523f1:	89 e5                	mov    %esp,%ebp
 80523f3:	83 ec 18             	sub    $0x18,%esp
 80523f6:	8b 45 08             	mov    0x8(%ebp),%eax
 80523f9:	8b 55 0c             	mov    0xc(%ebp),%edx
 80523fc:	8b 4d 10             	mov    0x10(%ebp),%ecx
 80523ff:	83 f8 04             	cmp    $0x4,%eax
 8052402:	74 1c                	je     8052420 <geteuid@plt+0x8c48>
 8052404:	83 39 00             	cmpl   $0x0,(%ecx)
 8052407:	74 0f                	je     8052418 <geteuid@plt+0x8c40>
 8052409:	83 f8 03             	cmp    $0x3,%eax
 805240c:	74 0a                	je     8052418 <geteuid@plt+0x8c40>
 805240e:	c9                   	leave  
 805240f:	90                   	nop
 8052410:	e9 bb f9 ff ff       	jmp    8051dd0 <geteuid@plt+0x85f8>
 8052415:	8d 76 00             	lea    0x0(%esi),%esi
 8052418:	c9                   	leave  
 8052419:	e9 32 f9 ff ff       	jmp    8051d50 <geteuid@plt+0x8578>
 805241e:	66 90                	xchg   %ax,%ax
 8052420:	c7 04 24 a8 e7 05 08 	movl   $0x805e7a8,(%esp)
 8052427:	e8 fc 6f ff ff       	call   8049428 <gettext@plt>
 805242c:	c7 44 24 04 01 00 00 	movl   $0x1,0x4(%esp)
 8052433:	00 
 8052434:	89 44 24 08          	mov    %eax,0x8(%esp)
 8052438:	a1 80 28 06 08       	mov    0x8062880,%eax
 805243d:	89 04 24             	mov    %eax,(%esp)
 8052440:	e8 c3 6e ff ff       	call   8049308 <__fprintf_chk@plt>
 8052445:	c9                   	leave  
 8052446:	e9 05 f9 ff ff       	jmp    8051d50 <geteuid@plt+0x8578>
 805244b:	90                   	nop
 805244c:	90                   	nop
 805244d:	90                   	nop
 805244e:	90                   	nop
 805244f:	90                   	nop
 8052450:	55                   	push   %ebp
 8052451:	89 e5                	mov    %esp,%ebp
 8052453:	57                   	push   %edi
 8052454:	56                   	push   %esi
 8052455:	53                   	push   %ebx
 8052456:	81 ec 5c 07 00 00    	sub    $0x75c,%esp
 805245c:	c7 44 24 04 7a bf 05 	movl   $0x805bf7a,0x4(%esp)
 8052463:	08 
 8052464:	65 a1 14 00 00 00    	mov    %gs:0x14,%eax
 805246a:	89 45 e4             	mov    %eax,-0x1c(%ebp)
 805246d:	31 c0                	xor    %eax,%eax
 805246f:	c7 04 24 17 e8 05 08 	movl   $0x805e817,(%esp)
 8052476:	e8 dd 70 ff ff       	call   8049558 <fopen@plt>
 805247b:	85 c0                	test   %eax,%eax
 805247d:	89 85 38 f9 ff ff    	mov    %eax,-0x6c8(%ebp)
 8052483:	0f 84 1f 0e 00 00    	je     80532a8 <geteuid@plt+0x9ad0>
 8052489:	8b 95 38 f9 ff ff    	mov    -0x6c8(%ebp),%edx
 805248f:	c7 44 24 40 00 00 00 	movl   $0x0,0x40(%esp)
 8052496:	00 
 8052497:	c7 44 24 3c 40 00 00 	movl   $0x40,0x3c(%esp)
 805249e:	00 
 805249f:	c7 44 24 38 2a e8 05 	movl   $0x805e82a,0x38(%esp)
 80524a6:	08 
 80524a7:	89 54 24 04          	mov    %edx,0x4(%esp)
 80524ab:	c7 44 24 34 20 00 00 	movl   $0x20,0x34(%esp)
 80524b2:	00 
 80524b3:	c7 44 24 30 2e e8 05 	movl   $0x805e82e,0x30(%esp)
 80524ba:	08 
 80524bb:	c7 44 24 2c 10 00 00 	movl   $0x10,0x2c(%esp)
 80524c2:	00 
 80524c3:	c7 44 24 28 31 e8 05 	movl   $0x805e831,0x28(%esp)
 80524ca:	08 
 80524cb:	c7 44 24 24 08 00 00 	movl   $0x8,0x24(%esp)
 80524d2:	00 
 80524d3:	c7 44 24 20 39 e8 05 	movl   $0x805e839,0x20(%esp)
 80524da:	08 
 80524db:	c7 44 24 1c 04 00 00 	movl   $0x4,0x1c(%esp)
 80524e2:	00 
 80524e3:	c7 44 24 18 41 e8 05 	movl   $0x805e841,0x18(%esp)
 80524ea:	08 
 80524eb:	c7 44 24 14 02 00 00 	movl   $0x2,0x14(%esp)
 80524f2:	00 
 80524f3:	c7 44 24 10 47 e8 05 	movl   $0x805e847,0x10(%esp)
 80524fa:	08 
 80524fb:	c7 44 24 0c 01 00 00 	movl   $0x1,0xc(%esp)
 8052502:	00 
 8052503:	c7 44 24 08 4b e8 05 	movl   $0x805e84b,0x8(%esp)
 805250a:	08 
 805250b:	c7 04 24 17 e8 05 08 	movl   $0x805e817,(%esp)
 8052512:	e8 19 5b 00 00       	call   8058030 <geteuid@plt+0xe858>
 8052517:	c7 04 24 50 e8 05 08 	movl   $0x805e850,(%esp)
 805251e:	89 c6                	mov    %eax,%esi
 8052520:	e8 03 6f ff ff       	call   8049428 <gettext@plt>
 8052525:	c7 04 24 01 00 00 00 	movl   $0x1,(%esp)
 805252c:	89 44 24 04          	mov    %eax,0x4(%esp)
 8052530:	e8 23 6e ff ff       	call   8049358 <__printf_chk@plt>
 8052535:	83 fe 61             	cmp    $0x61,%esi
 8052538:	0f 84 12 0b 00 00    	je     8053050 <geteuid@plt+0x9878>
 805253e:	0f 8e 2c 04 00 00    	jle    8052970 <geteuid@plt+0x9198>
 8052544:	89 74 24 0c          	mov    %esi,0xc(%esp)
 8052548:	c7 44 24 08 17 e8 05 	movl   $0x805e817,0x8(%esp)
 805254f:	08 
 8052550:	c7 44 24 04 1c e9 05 	movl   $0x805e91c,0x4(%esp)
 8052557:	08 
 8052558:	c7 04 24 01 00 00 00 	movl   $0x1,(%esp)
 805255f:	e8 f4 6d ff ff       	call   8049358 <__printf_chk@plt>
 8052564:	8b 85 38 f9 ff ff    	mov    -0x6c8(%ebp),%eax
 805256a:	89 04 24             	mov    %eax,(%esp)
 805256d:	e8 d6 6d ff ff       	call   8049348 <rewind@plt>
 8052572:	83 7d 08 01          	cmpl   $0x1,0x8(%ebp)
 8052576:	0f 84 8c 0d 00 00    	je     8053308 <geteuid@plt+0x9b30>
 805257c:	83 7d 08 02          	cmpl   $0x2,0x8(%ebp)
 8052580:	0f 84 5a 0d 00 00    	je     80532e0 <geteuid@plt+0x9b08>
 8052586:	83 fe 01             	cmp    $0x1,%esi
 8052589:	0f 84 d1 0a 00 00    	je     8053060 <geteuid@plt+0x9888>
 805258f:	83 fe 02             	cmp    $0x2,%esi
 8052592:	c7 85 34 f9 ff ff 00 	movl   $0x0,-0x6cc(%ebp)
 8052599:	00 00 00 
 805259c:	0f 84 ce 0b 00 00    	je     8053170 <geteuid@plt+0x9998>
 80525a2:	c7 85 68 f9 ff ff 00 	movl   $0x0,-0x698(%ebp)
 80525a9:	00 00 00 
 80525ac:	8d 5d c4             	lea    -0x3c(%ebp),%ebx
 80525af:	c7 85 6c f9 ff ff 00 	movl   $0x0,-0x694(%ebp)
 80525b6:	00 00 00 
 80525b9:	8d 7d 84             	lea    -0x7c(%ebp),%edi
 80525bc:	c7 85 70 f9 ff ff 00 	movl   $0x0,-0x690(%ebp)
 80525c3:	00 00 00 
 80525c6:	c7 85 64 f9 ff ff 00 	movl   $0x0,-0x69c(%ebp)
 80525cd:	00 00 00 
 80525d0:	c7 85 60 f9 ff ff 00 	movl   $0x0,-0x6a0(%ebp)
 80525d7:	00 00 00 
 80525da:	c7 85 5c f9 ff ff 00 	movl   $0x0,-0x6a4(%ebp)
 80525e1:	00 00 00 
 80525e4:	c7 85 58 f9 ff ff 00 	movl   $0x0,-0x6a8(%ebp)
 80525eb:	00 00 00 
 80525ee:	c7 85 54 f9 ff ff 00 	movl   $0x0,-0x6ac(%ebp)
 80525f5:	00 00 00 
 80525f8:	8b 95 38 f9 ff ff    	mov    -0x6c8(%ebp),%edx
 80525fe:	8d 85 84 f9 ff ff    	lea    -0x67c(%ebp),%eax
 8052604:	c7 44 24 04 ff 03 00 	movl   $0x3ff,0x4(%esp)
 805260b:	00 
 805260c:	89 04 24             	mov    %eax,(%esp)
 805260f:	89 54 24 08          	mov    %edx,0x8(%esp)
 8052613:	e8 90 6d ff ff       	call   80493a8 <fgets@plt>
 8052618:	85 c0                	test   %eax,%eax
 805261a:	0f 84 88 09 00 00    	je     8052fa8 <geteuid@plt+0x97d0>
 8052620:	83 fe 01             	cmp    $0x1,%esi
 8052623:	0f 84 67 08 00 00    	je     8052e90 <geteuid@plt+0x96b8>
 8052629:	83 fe 02             	cmp    $0x2,%esi
 805262c:	8d 74 26 00          	lea    0x0(%esi,%eiz,1),%esi
 8052630:	0f 84 62 03 00 00    	je     8052998 <geteuid@plt+0x91c0>
 8052636:	8d 95 84 fd ff ff    	lea    -0x27c(%ebp),%edx
 805263c:	89 95 40 f9 ff ff    	mov    %edx,-0x6c0(%ebp)
 8052642:	8d 85 04 ff ff ff    	lea    -0xfc(%ebp),%eax
 8052648:	8d 95 84 fe ff ff    	lea    -0x17c(%ebp),%edx
 805264e:	89 85 3c f9 ff ff    	mov    %eax,-0x6c4(%ebp)
 8052654:	89 95 44 f9 ff ff    	mov    %edx,-0x6bc(%ebp)
 805265a:	8b 85 44 f9 ff ff    	mov    -0x6bc(%ebp),%eax
 8052660:	89 5c 24 08          	mov    %ebx,0x8(%esp)
 8052664:	c7 04 24 01 00 00 00 	movl   $0x1,(%esp)
 805266b:	89 44 24 04          	mov    %eax,0x4(%esp)
 805266f:	ff 15 18 22 06 08    	call   *0x8062218
 8052675:	8b 55 0c             	mov    0xc(%ebp),%edx
 8052678:	89 1c 24             	mov    %ebx,(%esp)
 805267b:	89 54 24 04          	mov    %edx,0x4(%esp)
 805267f:	ff 15 14 22 06 08    	call   *0x8062214
 8052685:	c7 44 24 08 80 00 00 	movl   $0x80,0x8(%esp)
 805268c:	00 
 805268d:	89 44 24 04          	mov    %eax,0x4(%esp)
 8052691:	8b 85 44 f9 ff ff    	mov    -0x6bc(%ebp),%eax
 8052697:	89 04 24             	mov    %eax,(%esp)
 805269a:	e8 49 6f ff ff       	call   80495e8 <__strcpy_chk@plt>
 805269f:	8b 95 3c f9 ff ff    	mov    -0x6c4(%ebp),%edx
 80526a5:	c6 85 93 fe ff ff 00 	movb   $0x0,-0x16d(%ebp)
 80526ac:	89 5c 24 08          	mov    %ebx,0x8(%esp)
 80526b0:	c7 04 24 01 00 00 00 	movl   $0x1,(%esp)
 80526b7:	89 54 24 04          	mov    %edx,0x4(%esp)
 80526bb:	ff 15 18 22 06 08    	call   *0x8062218
 80526c1:	8b 45 0c             	mov    0xc(%ebp),%eax
 80526c4:	89 1c 24             	mov    %ebx,(%esp)
 80526c7:	89 44 24 04          	mov    %eax,0x4(%esp)
 80526cb:	ff 15 14 22 06 08    	call   *0x8062214
 80526d1:	8b 95 3c f9 ff ff    	mov    -0x6c4(%ebp),%edx
 80526d7:	c7 44 24 08 80 00 00 	movl   $0x80,0x8(%esp)
 80526de:	00 
 80526df:	89 14 24             	mov    %edx,(%esp)
 80526e2:	89 44 24 04          	mov    %eax,0x4(%esp)
 80526e6:	e8 fd 6e ff ff       	call   80495e8 <__strcpy_chk@plt>
 80526eb:	8b 85 40 f9 ff ff    	mov    -0x6c0(%ebp),%eax
 80526f1:	c6 85 13 ff ff ff 00 	movb   $0x0,-0xed(%ebp)
 80526f8:	89 5c 24 08          	mov    %ebx,0x8(%esp)
 80526fc:	c7 04 24 01 00 00 00 	movl   $0x1,(%esp)
 8052703:	89 44 24 04          	mov    %eax,0x4(%esp)
 8052707:	ff 15 18 22 06 08    	call   *0x8062218
 805270d:	8b 55 0c             	mov    0xc(%ebp),%edx
 8052710:	89 1c 24             	mov    %ebx,(%esp)
 8052713:	89 54 24 04          	mov    %edx,0x4(%esp)
 8052717:	ff 15 14 22 06 08    	call   *0x8062214
 805271d:	c7 44 24 08 80 00 00 	movl   $0x80,0x8(%esp)
 8052724:	00 
 8052725:	89 44 24 04          	mov    %eax,0x4(%esp)
 8052729:	8b 85 40 f9 ff ff    	mov    -0x6c0(%ebp),%eax
 805272f:	89 04 24             	mov    %eax,(%esp)
 8052732:	e8 b1 6e ff ff       	call   80495e8 <__strcpy_chk@plt>
 8052737:	8d 95 04 fe ff ff    	lea    -0x1fc(%ebp),%edx
 805273d:	89 54 24 04          	mov    %edx,0x4(%esp)
 8052741:	c6 85 93 fd ff ff 00 	movb   $0x0,-0x26d(%ebp)
 8052748:	89 5c 24 08          	mov    %ebx,0x8(%esp)
 805274c:	c7 04 24 01 00 00 00 	movl   $0x1,(%esp)
 8052753:	ff 15 18 22 06 08    	call   *0x8062218
 8052759:	8b 45 0c             	mov    0xc(%ebp),%eax
 805275c:	89 1c 24             	mov    %ebx,(%esp)
 805275f:	89 44 24 04          	mov    %eax,0x4(%esp)
 8052763:	ff 15 14 22 06 08    	call   *0x8062214
 8052769:	8d 95 04 fe ff ff    	lea    -0x1fc(%ebp),%edx
 805276f:	c7 44 24 08 80 00 00 	movl   $0x80,0x8(%esp)
 8052776:	00 
 8052777:	89 14 24             	mov    %edx,(%esp)
 805277a:	89 44 24 04          	mov    %eax,0x4(%esp)
 805277e:	e8 65 6e ff ff       	call   80495e8 <__strcpy_chk@plt>
 8052783:	83 fe 01             	cmp    $0x1,%esi
 8052786:	c6 85 13 fe ff ff 00 	movb   $0x0,-0x1ed(%ebp)
 805278d:	c6 45 84 00          	movb   $0x0,-0x7c(%ebp)
 8052791:	0f 84 c1 06 00 00    	je     8052e58 <geteuid@plt+0x9680>
 8052797:	8b 95 80 f9 ff ff    	mov    -0x680(%ebp),%edx
 805279d:	89 d0                	mov    %edx,%eax
 805279f:	f6 c2 02             	test   $0x2,%dl
 80527a2:	0f 85 88 06 00 00    	jne    8052e30 <geteuid@plt+0x9658>
 80527a8:	f6 c6 02             	test   $0x2,%dh
 80527ab:	0f 85 6f 06 00 00    	jne    8052e20 <geteuid@plt+0x9648>
 80527b1:	f6 c2 08             	test   $0x8,%dl
 80527b4:	0f 85 3e 06 00 00    	jne    8052df8 <geteuid@plt+0x9620>
 80527ba:	f6 c2 10             	test   $0x10,%dl
 80527bd:	8d 76 00             	lea    0x0(%esi),%esi
 80527c0:	0f 85 0a 06 00 00    	jne    8052dd0 <geteuid@plt+0x95f8>
 80527c6:	f6 c2 20             	test   $0x20,%dl
 80527c9:	0f 85 a1 05 00 00    	jne    8052d70 <geteuid@plt+0x9598>
 80527cf:	83 fe 02             	cmp    $0x2,%esi
 80527d2:	0f 84 c1 05 00 00    	je     8052d99 <geteuid@plt+0x95c1>
 80527d8:	89 d0                	mov    %edx,%eax
 80527da:	a9 00 00 01 00       	test   $0x10000,%eax
 80527df:	90                   	nop
 80527e0:	0f 85 62 05 00 00    	jne    8052d48 <geteuid@plt+0x9570>
 80527e6:	a9 00 00 02 00       	test   $0x20000,%eax
 80527eb:	0f 85 2f 05 00 00    	jne    8052d20 <geteuid@plt+0x9548>
 80527f1:	a9 00 00 08 00       	test   $0x80000,%eax
 80527f6:	0f 85 fc 04 00 00    	jne    8052cf8 <geteuid@plt+0x9520>
 80527fc:	a9 00 00 20 00       	test   $0x200000,%eax
 8052801:	0f 85 c9 04 00 00    	jne    8052cd0 <geteuid@plt+0x94f8>
 8052807:	a9 00 00 40 00       	test   $0x400000,%eax
 805280c:	8d 74 26 00          	lea    0x0(%esi,%eiz,1),%esi
 8052810:	0f 85 92 04 00 00    	jne    8052ca8 <geteuid@plt+0x94d0>
 8052816:	a9 00 00 80 00       	test   $0x800000,%eax
 805281b:	90                   	nop
 805281c:	8d 74 26 00          	lea    0x0(%esi,%eiz,1),%esi
 8052820:	0f 85 5a 04 00 00    	jne    8052c80 <geteuid@plt+0x94a8>
 8052826:	a9 00 00 00 01       	test   $0x1000000,%eax
 805282b:	90                   	nop
 805282c:	8d 74 26 00          	lea    0x0(%esi,%eiz,1),%esi
 8052830:	0f 85 22 04 00 00    	jne    8052c58 <geteuid@plt+0x9480>
 8052836:	a9 00 00 00 04       	test   $0x4000000,%eax
 805283b:	90                   	nop
 805283c:	8d 74 26 00          	lea    0x0(%esi,%eiz,1),%esi
 8052840:	0f 85 ea 03 00 00    	jne    8052c30 <geteuid@plt+0x9458>
 8052846:	a9 00 00 00 08       	test   $0x8000000,%eax
 805284b:	90                   	nop
 805284c:	8d 74 26 00          	lea    0x0(%esi,%eiz,1),%esi
 8052850:	0f 85 b2 03 00 00    	jne    8052c08 <geteuid@plt+0x9430>
 8052856:	a9 00 00 00 10       	test   $0x10000000,%eax
 805285b:	90                   	nop
 805285c:	8d 74 26 00          	lea    0x0(%esi,%eiz,1),%esi
 8052860:	0f 85 7a 03 00 00    	jne    8052be0 <geteuid@plt+0x9408>
 8052866:	a9 00 00 00 20       	test   $0x20000000,%eax
 805286b:	90                   	nop
 805286c:	8d 74 26 00          	lea    0x0(%esi,%eiz,1),%esi
 8052870:	0f 85 42 03 00 00    	jne    8052bb8 <geteuid@plt+0x93e0>
 8052876:	a9 00 00 00 40       	test   $0x40000000,%eax
 805287b:	90                   	nop
 805287c:	8d 74 26 00          	lea    0x0(%esi,%eiz,1),%esi
 8052880:	0f 85 e2 01 00 00    	jne    8052a68 <geteuid@plt+0x9290>
 8052886:	85 c0                	test   %eax,%eax
 8052888:	0f 88 00 02 00 00    	js     8052a8e <geteuid@plt+0x92b6>
 805288e:	83 7d 08 01          	cmpl   $0x1,0x8(%ebp)
 8052892:	0f 84 18 02 00 00    	je     8052ab0 <geteuid@plt+0x92d8>
 8052898:	83 7d 08 02          	cmpl   $0x2,0x8(%ebp)
 805289c:	8d 74 26 00          	lea    0x0(%esi,%eiz,1),%esi
 80528a0:	0f 84 a2 06 00 00    	je     8052f48 <geteuid@plt+0x9770>
 80528a6:	83 fe 01             	cmp    $0x1,%esi
 80528a9:	0f 84 69 02 00 00    	je     8052b18 <geteuid@plt+0x9340>
 80528af:	83 fe 02             	cmp    $0x2,%esi
 80528b2:	0f 85 40 fd ff ff    	jne    80525f8 <geteuid@plt+0x8e20>
 80528b8:	83 7d 08 02          	cmpl   $0x2,0x8(%ebp)
 80528bc:	8d 74 26 00          	lea    0x0(%esi,%eiz,1),%esi
 80528c0:	0f 8e 32 fd ff ff    	jle    80525f8 <geteuid@plt+0x8e20>
 80528c6:	8d 85 04 fe ff ff    	lea    -0x1fc(%ebp),%eax
 80528cc:	89 44 24 40          	mov    %eax,0x40(%esp)
 80528d0:	8b 85 5c f9 ff ff    	mov    -0x6a4(%ebp),%eax
 80528d6:	8d 55 d4             	lea    -0x2c(%ebp),%edx
 80528d9:	89 54 24 24          	mov    %edx,0x24(%esp)
 80528dd:	8b 95 44 f9 ff ff    	mov    -0x6bc(%ebp),%edx
 80528e3:	89 7c 24 14          	mov    %edi,0x14(%esp)
 80528e7:	c7 44 24 04 78 eb 05 	movl   $0x805eb78,0x4(%esp)
 80528ee:	08 
 80528ef:	89 44 24 3c          	mov    %eax,0x3c(%esp)
 80528f3:	8b 85 60 f9 ff ff    	mov    -0x6a0(%ebp),%eax
 80528f9:	89 54 24 0c          	mov    %edx,0xc(%esp)
 80528fd:	c7 04 24 01 00 00 00 	movl   $0x1,(%esp)
 8052904:	89 44 24 38          	mov    %eax,0x38(%esp)
 8052908:	8b 85 54 f9 ff ff    	mov    -0x6ac(%ebp),%eax
 805290e:	89 44 24 34          	mov    %eax,0x34(%esp)
 8052912:	8b 85 68 f9 ff ff    	mov    -0x698(%ebp),%eax
 8052918:	89 44 24 30          	mov    %eax,0x30(%esp)
 805291c:	8b 85 6c f9 ff ff    	mov    -0x694(%ebp),%eax
 8052922:	89 44 24 2c          	mov    %eax,0x2c(%esp)
 8052926:	8b 85 70 f9 ff ff    	mov    -0x690(%ebp),%eax
 805292c:	89 44 24 28          	mov    %eax,0x28(%esp)
 8052930:	8b 85 74 f9 ff ff    	mov    -0x68c(%ebp),%eax
 8052936:	89 44 24 20          	mov    %eax,0x20(%esp)
 805293a:	8b 85 78 f9 ff ff    	mov    -0x688(%ebp),%eax
 8052940:	89 44 24 1c          	mov    %eax,0x1c(%esp)
 8052944:	8b 85 7c f9 ff ff    	mov    -0x684(%ebp),%eax
 805294a:	89 44 24 18          	mov    %eax,0x18(%esp)
 805294e:	8b 85 3c f9 ff ff    	mov    -0x6c4(%ebp),%eax
 8052954:	89 44 24 10          	mov    %eax,0x10(%esp)
 8052958:	8b 85 40 f9 ff ff    	mov    -0x6c0(%ebp),%eax
 805295e:	89 44 24 08          	mov    %eax,0x8(%esp)
 8052962:	e8 f1 69 ff ff       	call   8049358 <__printf_chk@plt>
 8052967:	e9 8c fc ff ff       	jmp    80525f8 <geteuid@plt+0x8e20>
 805296c:	8d 74 26 00          	lea    0x0(%esi,%eiz,1),%esi
 8052970:	83 fe ff             	cmp    $0xffffffff,%esi
 8052973:	0f 84 bf 06 00 00    	je     8053038 <geteuid@plt+0x9860>
 8052979:	83 fe 3f             	cmp    $0x3f,%esi
 805297c:	8d 74 26 00          	lea    0x0(%esi,%eiz,1),%esi
 8052980:	0f 85 be fb ff ff    	jne    8052544 <geteuid@plt+0x8d6c>
 8052986:	be 02 00 00 00       	mov    $0x2,%esi
 805298b:	90                   	nop
 805298c:	8d 74 26 00          	lea    0x0(%esi,%eiz,1),%esi
 8052990:	e9 cf fb ff ff       	jmp    8052564 <geteuid@plt+0x8d8c>
 8052995:	8d 76 00             	lea    0x0(%esi),%esi
 8052998:	8d 85 04 fe ff ff    	lea    -0x1fc(%ebp),%eax
 805299e:	89 44 24 40          	mov    %eax,0x40(%esp)
 80529a2:	8d 85 60 f9 ff ff    	lea    -0x6a0(%ebp),%eax
 80529a8:	89 44 24 38          	mov    %eax,0x38(%esp)
 80529ac:	8d 85 54 f9 ff ff    	lea    -0x6ac(%ebp),%eax
 80529b2:	89 44 24 34          	mov    %eax,0x34(%esp)
 80529b6:	8d 85 68 f9 ff ff    	lea    -0x698(%ebp),%eax
 80529bc:	89 44 24 30          	mov    %eax,0x30(%esp)
 80529c0:	8d 85 6c f9 ff ff    	lea    -0x694(%ebp),%eax
 80529c6:	89 44 24 2c          	mov    %eax,0x2c(%esp)
 80529ca:	8d 85 70 f9 ff ff    	lea    -0x690(%ebp),%eax
 80529d0:	89 44 24 28          	mov    %eax,0x28(%esp)
 80529d4:	8d 85 84 fd ff ff    	lea    -0x27c(%ebp),%eax
 80529da:	89 85 40 f9 ff ff    	mov    %eax,-0x6c0(%ebp)
 80529e0:	8d 95 5c f9 ff ff    	lea    -0x6a4(%ebp),%edx
 80529e6:	89 44 24 24          	mov    %eax,0x24(%esp)
 80529ea:	8d 85 7c f9 ff ff    	lea    -0x684(%ebp),%eax
 80529f0:	89 44 24 20          	mov    %eax,0x20(%esp)
 80529f4:	8d 85 74 f9 ff ff    	lea    -0x68c(%ebp),%eax
 80529fa:	89 44 24 1c          	mov    %eax,0x1c(%esp)
 80529fe:	8d 85 78 f9 ff ff    	lea    -0x688(%ebp),%eax
 8052a04:	89 44 24 18          	mov    %eax,0x18(%esp)
 8052a08:	8d 85 80 f9 ff ff    	lea    -0x680(%ebp),%eax
 8052a0e:	89 44 24 14          	mov    %eax,0x14(%esp)
 8052a12:	8d 85 84 fe ff ff    	lea    -0x17c(%ebp),%eax
 8052a18:	89 85 44 f9 ff ff    	mov    %eax,-0x6bc(%ebp)
 8052a1e:	89 44 24 0c          	mov    %eax,0xc(%esp)
 8052a22:	8b 85 34 f9 ff ff    	mov    -0x6cc(%ebp),%eax
 8052a28:	89 54 24 3c          	mov    %edx,0x3c(%esp)
 8052a2c:	8d 95 04 ff ff ff    	lea    -0xfc(%ebp),%edx
 8052a32:	89 95 3c f9 ff ff    	mov    %edx,-0x6c4(%ebp)
 8052a38:	89 54 24 10          	mov    %edx,0x10(%esp)
 8052a3c:	8d 55 d4             	lea    -0x2c(%ebp),%edx
 8052a3f:	89 54 24 08          	mov    %edx,0x8(%esp)
 8052a43:	8d 95 84 f9 ff ff    	lea    -0x67c(%ebp),%edx
 8052a49:	89 44 24 04          	mov    %eax,0x4(%esp)
 8052a4d:	89 14 24             	mov    %edx,(%esp)
 8052a50:	e8 93 6c ff ff       	call   80496e8 <sscanf@plt>
 8052a55:	83 f8 0b             	cmp    $0xb,%eax
 8052a58:	0f 8e 9a fb ff ff    	jle    80525f8 <geteuid@plt+0x8e20>
 8052a5e:	e9 f7 fb ff ff       	jmp    805265a <geteuid@plt+0x8e82>
 8052a63:	90                   	nop
 8052a64:	8d 74 26 00          	lea    0x0(%esi,%eiz,1),%esi
 8052a68:	c7 44 24 08 40 00 00 	movl   $0x40,0x8(%esp)
 8052a6f:	00 
 8052a70:	c7 44 24 04 c0 e8 05 	movl   $0x805e8c0,0x4(%esp)
 8052a77:	08 
 8052a78:	89 3c 24             	mov    %edi,(%esp)
 8052a7b:	e8 98 69 ff ff       	call   8049418 <__strcat_chk@plt>
 8052a80:	8b 85 80 f9 ff ff    	mov    -0x680(%ebp),%eax
 8052a86:	85 c0                	test   %eax,%eax
 8052a88:	0f 89 00 fe ff ff    	jns    805288e <geteuid@plt+0x90b6>
 8052a8e:	c7 44 24 08 40 00 00 	movl   $0x40,0x8(%esp)
 8052a95:	00 
 8052a96:	c7 44 24 04 4c ee 05 	movl   $0x805ee4c,0x4(%esp)
 8052a9d:	08 
 8052a9e:	89 3c 24             	mov    %edi,(%esp)
 8052aa1:	e8 72 69 ff ff       	call   8049418 <__strcat_chk@plt>
 8052aa6:	83 7d 08 01          	cmpl   $0x1,0x8(%ebp)
 8052aaa:	0f 85 e8 fd ff ff    	jne    8052898 <geteuid@plt+0x90c0>
 8052ab0:	8d 45 d4             	lea    -0x2c(%ebp),%eax
 8052ab3:	8b 95 3c f9 ff ff    	mov    -0x6c4(%ebp),%edx
 8052ab9:	89 44 24 24          	mov    %eax,0x24(%esp)
 8052abd:	8b 85 74 f9 ff ff    	mov    -0x68c(%ebp),%eax
 8052ac3:	89 7c 24 14          	mov    %edi,0x14(%esp)
 8052ac7:	c7 44 24 04 dc ea 05 	movl   $0x805eadc,0x4(%esp)
 8052ace:	08 
 8052acf:	89 54 24 10          	mov    %edx,0x10(%esp)
 8052ad3:	8b 95 40 f9 ff ff    	mov    -0x6c0(%ebp),%edx
 8052ad9:	89 44 24 20          	mov    %eax,0x20(%esp)
 8052add:	8b 85 78 f9 ff ff    	mov    -0x688(%ebp),%eax
 8052ae3:	c7 04 24 01 00 00 00 	movl   $0x1,(%esp)
 8052aea:	89 54 24 08          	mov    %edx,0x8(%esp)
 8052aee:	89 44 24 1c          	mov    %eax,0x1c(%esp)
 8052af2:	8b 85 7c f9 ff ff    	mov    -0x684(%ebp),%eax
 8052af8:	89 44 24 18          	mov    %eax,0x18(%esp)
 8052afc:	8b 85 44 f9 ff ff    	mov    -0x6bc(%ebp),%eax
 8052b02:	89 44 24 0c          	mov    %eax,0xc(%esp)
 8052b06:	e8 4d 68 ff ff       	call   8049358 <__printf_chk@plt>
 8052b0b:	83 fe 01             	cmp    $0x1,%esi
 8052b0e:	0f 85 9b fd ff ff    	jne    80528af <geteuid@plt+0x90d7>
 8052b14:	8d 74 26 00          	lea    0x0(%esi,%eiz,1),%esi
 8052b18:	83 7d 08 02          	cmpl   $0x2,0x8(%ebp)
 8052b1c:	0f 8e d6 fa ff ff    	jle    80525f8 <geteuid@plt+0x8e20>
 8052b22:	8b 85 58 f9 ff ff    	mov    -0x6a8(%ebp),%eax
 8052b28:	8b 95 3c f9 ff ff    	mov    -0x6c4(%ebp),%edx
 8052b2e:	89 7c 24 14          	mov    %edi,0x14(%esp)
 8052b32:	c7 44 24 04 30 eb 05 	movl   $0x805eb30,0x4(%esp)
 8052b39:	08 
 8052b3a:	89 44 24 38          	mov    %eax,0x38(%esp)
 8052b3e:	8b 85 64 f9 ff ff    	mov    -0x69c(%ebp),%eax
 8052b44:	89 54 24 10          	mov    %edx,0x10(%esp)
 8052b48:	8b 95 40 f9 ff ff    	mov    -0x6c0(%ebp),%edx
 8052b4e:	c7 04 24 01 00 00 00 	movl   $0x1,(%esp)
 8052b55:	89 44 24 34          	mov    %eax,0x34(%esp)
 8052b59:	8b 85 68 f9 ff ff    	mov    -0x698(%ebp),%eax
 8052b5f:	89 54 24 08          	mov    %edx,0x8(%esp)
 8052b63:	89 44 24 30          	mov    %eax,0x30(%esp)
 8052b67:	8b 85 6c f9 ff ff    	mov    -0x694(%ebp),%eax
 8052b6d:	89 44 24 2c          	mov    %eax,0x2c(%esp)
 8052b71:	8b 85 70 f9 ff ff    	mov    -0x690(%ebp),%eax
 8052b77:	89 44 24 28          	mov    %eax,0x28(%esp)
 8052b7b:	8d 45 d4             	lea    -0x2c(%ebp),%eax
 8052b7e:	89 44 24 24          	mov    %eax,0x24(%esp)
 8052b82:	8b 85 74 f9 ff ff    	mov    -0x68c(%ebp),%eax
 8052b88:	89 44 24 20          	mov    %eax,0x20(%esp)
 8052b8c:	8b 85 78 f9 ff ff    	mov    -0x688(%ebp),%eax
 8052b92:	89 44 24 1c          	mov    %eax,0x1c(%esp)
 8052b96:	8b 85 7c f9 ff ff    	mov    -0x684(%ebp),%eax
 8052b9c:	89 44 24 18          	mov    %eax,0x18(%esp)
 8052ba0:	8b 85 44 f9 ff ff    	mov    -0x6bc(%ebp),%eax
 8052ba6:	89 44 24 0c          	mov    %eax,0xc(%esp)
 8052baa:	e8 a9 67 ff ff       	call   8049358 <__printf_chk@plt>
 8052baf:	e9 44 fa ff ff       	jmp    80525f8 <geteuid@plt+0x8e20>
 8052bb4:	8d 74 26 00          	lea    0x0(%esi,%eiz,1),%esi
 8052bb8:	c7 44 24 08 40 00 00 	movl   $0x40,0x8(%esp)
 8052bbf:	00 
 8052bc0:	c7 44 24 04 84 ce 05 	movl   $0x805ce84,0x4(%esp)
 8052bc7:	08 
 8052bc8:	89 3c 24             	mov    %edi,(%esp)
 8052bcb:	e8 48 68 ff ff       	call   8049418 <__strcat_chk@plt>
 8052bd0:	8b 85 80 f9 ff ff    	mov    -0x680(%ebp),%eax
 8052bd6:	e9 9b fc ff ff       	jmp    8052876 <geteuid@plt+0x909e>
 8052bdb:	90                   	nop
 8052bdc:	8d 74 26 00          	lea    0x0(%esi,%eiz,1),%esi
 8052be0:	c7 44 24 08 40 00 00 	movl   $0x40,0x8(%esp)
 8052be7:	00 
 8052be8:	c7 44 24 04 31 d1 05 	movl   $0x805d131,0x4(%esp)
 8052bef:	08 
 8052bf0:	89 3c 24             	mov    %edi,(%esp)
 8052bf3:	e8 20 68 ff ff       	call   8049418 <__strcat_chk@plt>
 8052bf8:	8b 85 80 f9 ff ff    	mov    -0x680(%ebp),%eax
 8052bfe:	e9 63 fc ff ff       	jmp    8052866 <geteuid@plt+0x908e>
 8052c03:	90                   	nop
 8052c04:	8d 74 26 00          	lea    0x0(%esi,%eiz,1),%esi
 8052c08:	c7 44 24 08 40 00 00 	movl   $0x40,0x8(%esp)
 8052c0f:	00 
 8052c10:	c7 44 24 04 bd e8 05 	movl   $0x805e8bd,0x4(%esp)
 8052c17:	08 
 8052c18:	89 3c 24             	mov    %edi,(%esp)
 8052c1b:	e8 f8 67 ff ff       	call   8049418 <__strcat_chk@plt>
 8052c20:	8b 85 80 f9 ff ff    	mov    -0x680(%ebp),%eax
 8052c26:	e9 2b fc ff ff       	jmp    8052856 <geteuid@plt+0x907e>
 8052c2b:	90                   	nop
 8052c2c:	8d 74 26 00          	lea    0x0(%esi,%eiz,1),%esi
 8052c30:	c7 44 24 08 40 00 00 	movl   $0x40,0x8(%esp)
 8052c37:	00 
 8052c38:	c7 44 24 04 ce fe 05 	movl   $0x805fece,0x4(%esp)
 8052c3f:	08 
 8052c40:	89 3c 24             	mov    %edi,(%esp)
 8052c43:	e8 d0 67 ff ff       	call   8049418 <__strcat_chk@plt>
 8052c48:	8b 85 80 f9 ff ff    	mov    -0x680(%ebp),%eax
 8052c4e:	e9 f3 fb ff ff       	jmp    8052846 <geteuid@plt+0x906e>
 8052c53:	90                   	nop
 8052c54:	8d 74 26 00          	lea    0x0(%esi,%eiz,1),%esi
 8052c58:	c7 44 24 08 40 00 00 	movl   $0x40,0x8(%esp)
 8052c5f:	00 
 8052c60:	c7 44 24 04 7a bf 05 	movl   $0x805bf7a,0x4(%esp)
 8052c67:	08 
 8052c68:	89 3c 24             	mov    %edi,(%esp)
 8052c6b:	e8 a8 67 ff ff       	call   8049418 <__strcat_chk@plt>
 8052c70:	8b 85 80 f9 ff ff    	mov    -0x680(%ebp),%eax
 8052c76:	e9 bb fb ff ff       	jmp    8052836 <geteuid@plt+0x905e>
 8052c7b:	90                   	nop
 8052c7c:	8d 74 26 00          	lea    0x0(%esi,%eiz,1),%esi
 8052c80:	c7 44 24 08 40 00 00 	movl   $0x40,0x8(%esp)
 8052c87:	00 
 8052c88:	c7 44 24 04 ba e8 05 	movl   $0x805e8ba,0x4(%esp)
 8052c8f:	08 
 8052c90:	89 3c 24             	mov    %edi,(%esp)
 8052c93:	e8 80 67 ff ff       	call   8049418 <__strcat_chk@plt>
 8052c98:	8b 85 80 f9 ff ff    	mov    -0x680(%ebp),%eax
 8052c9e:	e9 83 fb ff ff       	jmp    8052826 <geteuid@plt+0x904e>
 8052ca3:	90                   	nop
 8052ca4:	8d 74 26 00          	lea    0x0(%esi,%eiz,1),%esi
 8052ca8:	c7 44 24 08 40 00 00 	movl   $0x40,0x8(%esp)
 8052caf:	00 
 8052cb0:	c7 44 24 04 b8 e8 05 	movl   $0x805e8b8,0x4(%esp)
 8052cb7:	08 
 8052cb8:	89 3c 24             	mov    %edi,(%esp)
 8052cbb:	e8 58 67 ff ff       	call   8049418 <__strcat_chk@plt>
 8052cc0:	8b 85 80 f9 ff ff    	mov    -0x680(%ebp),%eax
 8052cc6:	e9 4b fb ff ff       	jmp    8052816 <geteuid@plt+0x903e>
 8052ccb:	90                   	nop
 8052ccc:	8d 74 26 00          	lea    0x0(%esi,%eiz,1),%esi
 8052cd0:	c7 44 24 08 40 00 00 	movl   $0x40,0x8(%esp)
 8052cd7:	00 
 8052cd8:	c7 44 24 04 45 e8 05 	movl   $0x805e845,0x4(%esp)
 8052cdf:	08 
 8052ce0:	89 3c 24             	mov    %edi,(%esp)
 8052ce3:	e8 30 67 ff ff       	call   8049418 <__strcat_chk@plt>
 8052ce8:	8b 85 80 f9 ff ff    	mov    -0x680(%ebp),%eax
 8052cee:	e9 14 fb ff ff       	jmp    8052807 <geteuid@plt+0x902f>
 8052cf3:	90                   	nop
 8052cf4:	8d 74 26 00          	lea    0x0(%esi,%eiz,1),%esi
 8052cf8:	c7 44 24 08 40 00 00 	movl   $0x40,0x8(%esp)
 8052cff:	00 
 8052d00:	c7 44 24 04 5d ee 05 	movl   $0x805ee5d,0x4(%esp)
 8052d07:	08 
 8052d08:	89 3c 24             	mov    %edi,(%esp)
 8052d0b:	e8 08 67 ff ff       	call   8049418 <__strcat_chk@plt>
 8052d10:	8b 85 80 f9 ff ff    	mov    -0x680(%ebp),%eax
 8052d16:	e9 e1 fa ff ff       	jmp    80527fc <geteuid@plt+0x9024>
 8052d1b:	90                   	nop
 8052d1c:	8d 74 26 00          	lea    0x0(%esi,%eiz,1),%esi
 8052d20:	c7 44 24 08 40 00 00 	movl   $0x40,0x8(%esp)
 8052d27:	00 
 8052d28:	c7 44 24 04 d4 bb 05 	movl   $0x805bbd4,0x4(%esp)
 8052d2f:	08 
 8052d30:	89 3c 24             	mov    %edi,(%esp)
 8052d33:	e8 e0 66 ff ff       	call   8049418 <__strcat_chk@plt>
 8052d38:	8b 85 80 f9 ff ff    	mov    -0x680(%ebp),%eax
 8052d3e:	e9 ae fa ff ff       	jmp    80527f1 <geteuid@plt+0x9019>
 8052d43:	90                   	nop
 8052d44:	8d 74 26 00          	lea    0x0(%esi,%eiz,1),%esi
 8052d48:	c7 44 24 08 40 00 00 	movl   $0x40,0x8(%esp)
 8052d4f:	00 
 8052d50:	c7 44 24 04 f6 e2 05 	movl   $0x805e2f6,0x4(%esp)
 8052d57:	08 
 8052d58:	89 3c 24             	mov    %edi,(%esp)
 8052d5b:	e8 b8 66 ff ff       	call   8049418 <__strcat_chk@plt>
 8052d60:	8b 85 80 f9 ff ff    	mov    -0x680(%ebp),%eax
 8052d66:	e9 7b fa ff ff       	jmp    80527e6 <geteuid@plt+0x900e>
 8052d6b:	90                   	nop
 8052d6c:	8d 74 26 00          	lea    0x0(%esi,%eiz,1),%esi
 8052d70:	c7 44 24 08 40 00 00 	movl   $0x40,0x8(%esp)
 8052d77:	00 
 8052d78:	c7 44 24 04 0a bd 05 	movl   $0x805bd0a,0x4(%esp)
 8052d7f:	08 
 8052d80:	89 3c 24             	mov    %edi,(%esp)
 8052d83:	e8 90 66 ff ff       	call   8049418 <__strcat_chk@plt>
 8052d88:	8b 95 80 f9 ff ff    	mov    -0x680(%ebp),%edx
 8052d8e:	83 fe 02             	cmp    $0x2,%esi
 8052d91:	89 d0                	mov    %edx,%eax
 8052d93:	0f 85 3f fa ff ff    	jne    80527d8 <geteuid@plt+0x9000>
 8052d99:	83 e2 01             	and    $0x1,%edx
 8052d9c:	0f 85 6e 02 00 00    	jne    8053010 <geteuid@plt+0x9838>
 8052da2:	a8 04                	test   $0x4,%al
 8052da4:	0f 84 30 fa ff ff    	je     80527da <geteuid@plt+0x9002>
 8052daa:	c7 44 24 08 40 00 00 	movl   $0x40,0x8(%esp)
 8052db1:	00 
 8052db2:	c7 44 24 04 8a d5 05 	movl   $0x805d58a,0x4(%esp)
 8052db9:	08 
 8052dba:	89 3c 24             	mov    %edi,(%esp)
 8052dbd:	e8 56 66 ff ff       	call   8049418 <__strcat_chk@plt>
 8052dc2:	8b 85 80 f9 ff ff    	mov    -0x680(%ebp),%eax
 8052dc8:	e9 0d fa ff ff       	jmp    80527da <geteuid@plt+0x9002>
 8052dcd:	8d 76 00             	lea    0x0(%esi),%esi
 8052dd0:	c7 44 24 08 40 00 00 	movl   $0x40,0x8(%esp)
 8052dd7:	00 
 8052dd8:	c7 44 24 04 26 bb 05 	movl   $0x805bb26,0x4(%esp)
 8052ddf:	08 
 8052de0:	89 3c 24             	mov    %edi,(%esp)
 8052de3:	e8 30 66 ff ff       	call   8049418 <__strcat_chk@plt>
 8052de8:	8b 95 80 f9 ff ff    	mov    -0x680(%ebp),%edx
 8052dee:	89 d0                	mov    %edx,%eax
 8052df0:	e9 d1 f9 ff ff       	jmp    80527c6 <geteuid@plt+0x8fee>
 8052df5:	8d 76 00             	lea    0x0(%esi),%esi
 8052df8:	c7 44 24 08 40 00 00 	movl   $0x40,0x8(%esp)
 8052dff:	00 
 8052e00:	c7 44 24 04 6d e4 05 	movl   $0x805e46d,0x4(%esp)
 8052e07:	08 
 8052e08:	89 3c 24             	mov    %edi,(%esp)
 8052e0b:	e8 08 66 ff ff       	call   8049418 <__strcat_chk@plt>
 8052e10:	8b 95 80 f9 ff ff    	mov    -0x680(%ebp),%edx
 8052e16:	89 d0                	mov    %edx,%eax
 8052e18:	e9 9d f9 ff ff       	jmp    80527ba <geteuid@plt+0x8fe2>
 8052e1d:	8d 76 00             	lea    0x0(%esi),%esi
 8052e20:	66 c7 07 21 00       	movw   $0x21,(%edi)
 8052e25:	89 d0                	mov    %edx,%eax
 8052e27:	e9 85 f9 ff ff       	jmp    80527b1 <geteuid@plt+0x8fd9>
 8052e2c:	8d 74 26 00          	lea    0x0(%esi,%eiz,1),%esi
 8052e30:	c7 44 24 08 40 00 00 	movl   $0x40,0x8(%esp)
 8052e37:	00 
 8052e38:	c7 44 24 04 31 bd 05 	movl   $0x805bd31,0x4(%esp)
 8052e3f:	08 
 8052e40:	89 3c 24             	mov    %edi,(%esp)
 8052e43:	e8 d0 65 ff ff       	call   8049418 <__strcat_chk@plt>
 8052e48:	8b 95 80 f9 ff ff    	mov    -0x680(%ebp),%edx
 8052e4e:	89 d0                	mov    %edx,%eax
 8052e50:	e9 53 f9 ff ff       	jmp    80527a8 <geteuid@plt+0x8fd0>
 8052e55:	8d 76 00             	lea    0x0(%esi),%esi
 8052e58:	8b 95 80 f9 ff ff    	mov    -0x680(%ebp),%edx
 8052e5e:	f6 c2 01             	test   $0x1,%dl
 8052e61:	89 d0                	mov    %edx,%eax
 8052e63:	0f 85 7f 01 00 00    	jne    8052fe8 <geteuid@plt+0x9810>
 8052e69:	f6 c2 04             	test   $0x4,%dl
 8052e6c:	0f 84 2d f9 ff ff    	je     805279f <geteuid@plt+0x8fc7>
 8052e72:	c7 44 24 08 40 00 00 	movl   $0x40,0x8(%esp)
 8052e79:	00 
 8052e7a:	c7 44 24 04 2f e8 05 	movl   $0x805e82f,0x4(%esp)
 8052e81:	08 
 8052e82:	89 3c 24             	mov    %edi,(%esp)
 8052e85:	e8 8e 65 ff ff       	call   8049418 <__strcat_chk@plt>
 8052e8a:	e9 08 f9 ff ff       	jmp    8052797 <geteuid@plt+0x8fbf>
 8052e8f:	90                   	nop
 8052e90:	8d 85 58 f9 ff ff    	lea    -0x6a8(%ebp),%eax
 8052e96:	89 44 24 38          	mov    %eax,0x38(%esp)
 8052e9a:	8d 85 64 f9 ff ff    	lea    -0x69c(%ebp),%eax
 8052ea0:	89 44 24 34          	mov    %eax,0x34(%esp)
 8052ea4:	8d 85 68 f9 ff ff    	lea    -0x698(%ebp),%eax
 8052eaa:	89 44 24 30          	mov    %eax,0x30(%esp)
 8052eae:	8d 85 6c f9 ff ff    	lea    -0x694(%ebp),%eax
 8052eb4:	89 44 24 2c          	mov    %eax,0x2c(%esp)
 8052eb8:	8d 85 70 f9 ff ff    	lea    -0x690(%ebp),%eax
 8052ebe:	89 44 24 28          	mov    %eax,0x28(%esp)
 8052ec2:	8d 85 7c f9 ff ff    	lea    -0x684(%ebp),%eax
 8052ec8:	8d 95 84 fd ff ff    	lea    -0x27c(%ebp),%edx
 8052ece:	89 44 24 20          	mov    %eax,0x20(%esp)
 8052ed2:	8d 85 74 f9 ff ff    	lea    -0x68c(%ebp),%eax
 8052ed8:	89 95 40 f9 ff ff    	mov    %edx,-0x6c0(%ebp)
 8052ede:	89 54 24 24          	mov    %edx,0x24(%esp)
 8052ee2:	8d 95 84 fe ff ff    	lea    -0x17c(%ebp),%edx
 8052ee8:	89 44 24 1c          	mov    %eax,0x1c(%esp)
 8052eec:	8d 85 78 f9 ff ff    	lea    -0x688(%ebp),%eax
 8052ef2:	89 44 24 18          	mov    %eax,0x18(%esp)
 8052ef6:	8d 85 80 f9 ff ff    	lea    -0x680(%ebp),%eax
 8052efc:	89 95 44 f9 ff ff    	mov    %edx,-0x6bc(%ebp)
 8052f02:	89 54 24 0c          	mov    %edx,0xc(%esp)
 8052f06:	8b 95 34 f9 ff ff    	mov    -0x6cc(%ebp),%edx
 8052f0c:	89 44 24 14          	mov    %eax,0x14(%esp)
 8052f10:	8d 85 04 ff ff ff    	lea    -0xfc(%ebp),%eax
 8052f16:	89 85 3c f9 ff ff    	mov    %eax,-0x6c4(%ebp)
 8052f1c:	89 44 24 10          	mov    %eax,0x10(%esp)
 8052f20:	8d 45 d4             	lea    -0x2c(%ebp),%eax
 8052f23:	89 44 24 08          	mov    %eax,0x8(%esp)
 8052f27:	8d 85 84 f9 ff ff    	lea    -0x67c(%ebp),%eax
 8052f2d:	89 54 24 04          	mov    %edx,0x4(%esp)
 8052f31:	89 04 24             	mov    %eax,(%esp)
 8052f34:	e8 af 67 ff ff       	call   80496e8 <sscanf@plt>
 8052f39:	83 f8 0b             	cmp    $0xb,%eax
 8052f3c:	0f 8e b6 f6 ff ff    	jle    80525f8 <geteuid@plt+0x8e20>
 8052f42:	e9 13 f7 ff ff       	jmp    805265a <geteuid@plt+0x8e82>
 8052f47:	90                   	nop
 8052f48:	8d 45 d4             	lea    -0x2c(%ebp),%eax
 8052f4b:	8b 95 3c f9 ff ff    	mov    -0x6c4(%ebp),%edx
 8052f51:	89 44 24 24          	mov    %eax,0x24(%esp)
 8052f55:	8b 85 68 f9 ff ff    	mov    -0x698(%ebp),%eax
 8052f5b:	89 7c 24 14          	mov    %edi,0x14(%esp)
 8052f5f:	c7 44 24 04 08 eb 05 	movl   $0x805eb08,0x4(%esp)
 8052f66:	08 
 8052f67:	89 54 24 10          	mov    %edx,0x10(%esp)
 8052f6b:	8b 95 40 f9 ff ff    	mov    -0x6c0(%ebp),%edx
 8052f71:	89 44 24 20          	mov    %eax,0x20(%esp)
 8052f75:	8b 85 6c f9 ff ff    	mov    -0x694(%ebp),%eax
 8052f7b:	c7 04 24 01 00 00 00 	movl   $0x1,(%esp)
 8052f82:	89 54 24 08          	mov    %edx,0x8(%esp)
 8052f86:	89 44 24 1c          	mov    %eax,0x1c(%esp)
 8052f8a:	8b 85 70 f9 ff ff    	mov    -0x690(%ebp),%eax
 8052f90:	89 44 24 18          	mov    %eax,0x18(%esp)
 8052f94:	8b 85 44 f9 ff ff    	mov    -0x6bc(%ebp),%eax
 8052f9a:	89 44 24 0c          	mov    %eax,0xc(%esp)
 8052f9e:	e8 b5 63 ff ff       	call   8049358 <__printf_chk@plt>
 8052fa3:	e9 fe f8 ff ff       	jmp    80528a6 <geteuid@plt+0x90ce>
 8052fa8:	8b 95 34 f9 ff ff    	mov    -0x6cc(%ebp),%edx
 8052fae:	89 14 24             	mov    %edx,(%esp)
 8052fb1:	e8 b2 64 ff ff       	call   8049468 <free@plt>
 8052fb6:	8b 85 38 f9 ff ff    	mov    -0x6c8(%ebp),%eax
 8052fbc:	89 04 24             	mov    %eax,(%esp)
 8052fbf:	e8 44 65 ff ff       	call   8049508 <fclose@plt>
 8052fc4:	31 c0                	xor    %eax,%eax
 8052fc6:	8b 55 e4             	mov    -0x1c(%ebp),%edx
 8052fc9:	65 33 15 14 00 00 00 	xor    %gs:0x14,%edx
 8052fd0:	0f 85 95 03 00 00    	jne    805336b <geteuid@plt+0x9b93>
 8052fd6:	81 c4 5c 07 00 00    	add    $0x75c,%esp
 8052fdc:	5b                   	pop    %ebx
 8052fdd:	5e                   	pop    %esi
 8052fde:	5f                   	pop    %edi
 8052fdf:	5d                   	pop    %ebp
 8052fe0:	c3                   	ret    
 8052fe1:	8d b4 26 00 00 00 00 	lea    0x0(%esi,%eiz,1),%esi
 8052fe8:	c7 44 24 08 40 00 00 	movl   $0x40,0x8(%esp)
 8052fef:	00 
 8052ff0:	c7 44 24 04 72 e8 05 	movl   $0x805e872,0x4(%esp)
 8052ff7:	08 
 8052ff8:	89 3c 24             	mov    %edi,(%esp)
 8052ffb:	e8 18 64 ff ff       	call   8049418 <__strcat_chk@plt>
 8053000:	8b 95 80 f9 ff ff    	mov    -0x680(%ebp),%edx
 8053006:	89 d0                	mov    %edx,%eax
 8053008:	e9 5c fe ff ff       	jmp    8052e69 <geteuid@plt+0x9691>
 805300d:	8d 76 00             	lea    0x0(%esi),%esi
 8053010:	c7 44 24 08 40 00 00 	movl   $0x40,0x8(%esp)
 8053017:	00 
 8053018:	c7 44 24 04 df f8 05 	movl   $0x805f8df,0x4(%esp)
 805301f:	08 
 8053020:	89 3c 24             	mov    %edi,(%esp)
 8053023:	e8 f0 63 ff ff       	call   8049418 <__strcat_chk@plt>
 8053028:	8b 85 80 f9 ff ff    	mov    -0x680(%ebp),%eax
 805302e:	e9 6f fd ff ff       	jmp    8052da2 <geteuid@plt+0x95ca>
 8053033:	90                   	nop
 8053034:	8d 74 26 00          	lea    0x0(%esi,%eiz,1),%esi
 8053038:	c7 04 24 17 e8 05 08 	movl   $0x805e817,(%esp)
 805303f:	e8 c4 63 ff ff       	call   8049408 <perror@plt>
 8053044:	c7 04 24 ff ff ff ff 	movl   $0xffffffff,(%esp)
 805304b:	e8 78 67 ff ff       	call   80497c8 <exit@plt>
 8053050:	be 01 00 00 00       	mov    $0x1,%esi
 8053055:	e9 0a f5 ff ff       	jmp    8052564 <geteuid@plt+0x8d8c>
 805305a:	8d b6 00 00 00 00    	lea    0x0(%esi),%esi
 8053060:	83 7d 08 02          	cmpl   $0x2,0x8(%ebp)
 8053064:	0f 8f e0 02 00 00    	jg     805334a <geteuid@plt+0x9b72>
 805306a:	8b 95 38 f9 ff ff    	mov    -0x6c8(%ebp),%edx
 8053070:	c7 44 24 74 00 00 00 	movl   $0x0,0x74(%esp)
 8053077:	00 
 8053078:	c7 44 24 70 d3 bb 05 	movl   $0x805bbd3,0x70(%esp)
 805307f:	08 
 8053080:	c7 44 24 6c 2a e8 05 	movl   $0x805e82a,0x6c(%esp)
 8053087:	08 
 8053088:	c7 44 24 68 d3 bb 05 	movl   $0x805bbd3,0x68(%esp)
 805308f:	08 
 8053090:	c7 44 24 64 2e e8 05 	movl   $0x805e82e,0x64(%esp)
 8053097:	08 
 8053098:	c7 44 24 60 d3 bb 05 	movl   $0x805bbd3,0x60(%esp)
 805309f:	08 
 80530a0:	c7 44 24 5c 4b e8 05 	movl   $0x805e84b,0x5c(%esp)
 80530a7:	08 
 80530a8:	c7 44 24 58 d3 bb 05 	movl   $0x805bbd3,0x58(%esp)
 80530af:	08 
 80530b0:	c7 44 24 54 69 e8 05 	movl   $0x805e869,0x54(%esp)
 80530b7:	08 
 80530b8:	c7 44 24 50 d3 bb 05 	movl   $0x805bbd3,0x50(%esp)
 80530bf:	08 
 80530c0:	c7 44 24 4c 70 e8 05 	movl   $0x805e870,0x4c(%esp)
 80530c7:	08 
 80530c8:	c7 44 24 48 74 e8 05 	movl   $0x805e874,0x48(%esp)
 80530cf:	08 
 80530d0:	c7 44 24 44 7a e8 05 	movl   $0x805e87a,0x44(%esp)
 80530d7:	08 
 80530d8:	c7 44 24 40 d3 bb 05 	movl   $0x805bbd3,0x40(%esp)
 80530df:	08 
 80530e0:	c7 44 24 3c 81 e8 05 	movl   $0x805e881,0x3c(%esp)
 80530e7:	08 
 80530e8:	c7 44 24 38 d3 bb 05 	movl   $0x805bbd3,0x38(%esp)
 80530ef:	08 
 80530f0:	c7 44 24 34 88 e8 05 	movl   $0x805e888,0x34(%esp)
 80530f7:	08 
 80530f8:	c7 44 24 30 d3 bb 05 	movl   $0x805bbd3,0x30(%esp)
 80530ff:	08 
 8053100:	c7 44 24 2c 8c e8 05 	movl   $0x805e88c,0x2c(%esp)
 8053107:	08 
 8053108:	c7 44 24 28 46 ba 05 	movl   $0x805ba46,0x28(%esp)
 805310f:	08 
 8053110:	c7 44 24 24 93 e8 05 	movl   $0x805e893,0x24(%esp)
 8053117:	08 
 8053118:	c7 44 24 20 74 e8 05 	movl   $0x805e874,0x20(%esp)
 805311f:	08 
 8053120:	c7 44 24 1c 99 e8 05 	movl   $0x805e899,0x1c(%esp)
 8053127:	08 
 8053128:	c7 44 24 18 74 e8 05 	movl   $0x805e874,0x18(%esp)
 805312f:	08 
 8053130:	c7 44 24 14 a1 e8 05 	movl   $0x805e8a1,0x14(%esp)
 8053137:	08 
 8053138:	c7 44 24 10 ad e8 05 	movl   $0x805e8ad,0x10(%esp)
 805313f:	08 
 8053140:	c7 44 24 0c b2 e8 05 	movl   $0x805e8b2,0xc(%esp)
 8053147:	08 
 8053148:	89 54 24 08          	mov    %edx,0x8(%esp)
 805314c:	c7 44 24 04 00 00 00 	movl   $0x0,0x4(%esp)
 8053153:	00 
 8053154:	c7 04 24 17 e8 05 08 	movl   $0x805e817,(%esp)
 805315b:	e8 90 4f 00 00       	call   80580f0 <geteuid@plt+0xe918>
 8053160:	89 85 34 f9 ff ff    	mov    %eax,-0x6cc(%ebp)
 8053166:	e9 37 f4 ff ff       	jmp    80525a2 <geteuid@plt+0x8dca>
 805316b:	90                   	nop
 805316c:	8d 74 26 00          	lea    0x0(%esi,%eiz,1),%esi
 8053170:	83 7d 08 02          	cmpl   $0x2,0x8(%ebp)
 8053174:	0f 8f af 01 00 00    	jg     8053329 <geteuid@plt+0x9b51>
 805317a:	8b 85 38 f9 ff ff    	mov    -0x6c8(%ebp),%eax
 8053180:	c7 84 24 84 00 00 00 	movl   $0x0,0x84(%esp)
 8053187:	00 00 00 00 
 805318b:	c7 84 24 80 00 00 00 	movl   $0x805e874,0x80(%esp)
 8053192:	74 e8 05 08 
 8053196:	c7 44 24 7c 31 e8 05 	movl   $0x805e831,0x7c(%esp)
 805319d:	08 
 805319e:	89 44 24 08          	mov    %eax,0x8(%esp)
 80531a2:	c7 44 24 78 d3 bb 05 	movl   $0x805bbd3,0x78(%esp)
 80531a9:	08 
 80531aa:	c7 44 24 74 39 e8 05 	movl   $0x805e839,0x74(%esp)
 80531b1:	08 
 80531b2:	c7 44 24 70 d3 bb 05 	movl   $0x805bbd3,0x70(%esp)
 80531b9:	08 
 80531ba:	c7 44 24 6c 41 e8 05 	movl   $0x805e841,0x6c(%esp)
 80531c1:	08 
 80531c2:	c7 44 24 68 d3 bb 05 	movl   $0x805bbd3,0x68(%esp)
 80531c9:	08 
 80531ca:	c7 44 24 64 47 e8 05 	movl   $0x805e847,0x64(%esp)
 80531d1:	08 
 80531d2:	c7 44 24 60 d3 bb 05 	movl   $0x805bbd3,0x60(%esp)
 80531d9:	08 
 80531da:	c7 44 24 5c 4b e8 05 	movl   $0x805e84b,0x5c(%esp)
 80531e1:	08 
 80531e2:	c7 44 24 58 d3 bb 05 	movl   $0x805bbd3,0x58(%esp)
 80531e9:	08 
 80531ea:	c7 44 24 54 69 e8 05 	movl   $0x805e869,0x54(%esp)
 80531f1:	08 
 80531f2:	c7 44 24 50 d3 bb 05 	movl   $0x805bbd3,0x50(%esp)
 80531f9:	08 
 80531fa:	c7 44 24 4c 70 e8 05 	movl   $0x805e870,0x4c(%esp)
 8053201:	08 
 8053202:	c7 44 24 48 74 e8 05 	movl   $0x805e874,0x48(%esp)
 8053209:	08 
 805320a:	c7 44 24 44 7a e8 05 	movl   $0x805e87a,0x44(%esp)
 8053211:	08 
 8053212:	c7 44 24 40 d3 bb 05 	movl   $0x805bbd3,0x40(%esp)
 8053219:	08 
 805321a:	c7 44 24 3c 81 e8 05 	movl   $0x805e881,0x3c(%esp)
 8053221:	08 
 8053222:	c7 44 24 38 d3 bb 05 	movl   $0x805bbd3,0x38(%esp)
 8053229:	08 
 805322a:	c7 44 24 34 88 e8 05 	movl   $0x805e888,0x34(%esp)
 8053231:	08 
 8053232:	c7 44 24 30 d3 bb 05 	movl   $0x805bbd3,0x30(%esp)
 8053239:	08 
 805323a:	c7 44 24 2c 8c e8 05 	movl   $0x805e88c,0x2c(%esp)
 8053241:	08 
 8053242:	c7 44 24 28 46 ba 05 	movl   $0x805ba46,0x28(%esp)
 8053249:	08 
 805324a:	c7 44 24 24 93 e8 05 	movl   $0x805e893,0x24(%esp)
 8053251:	08 
 8053252:	c7 44 24 20 74 e8 05 	movl   $0x805e874,0x20(%esp)
 8053259:	08 
 805325a:	c7 44 24 1c 99 e8 05 	movl   $0x805e899,0x1c(%esp)
 8053261:	08 
 8053262:	c7 44 24 18 74 e8 05 	movl   $0x805e874,0x18(%esp)
 8053269:	08 
 805326a:	c7 44 24 14 a1 e8 05 	movl   $0x805e8a1,0x14(%esp)
 8053271:	08 
 8053272:	c7 44 24 10 ad e8 05 	movl   $0x805e8ad,0x10(%esp)
 8053279:	08 
 805327a:	c7 44 24 0c b2 e8 05 	movl   $0x805e8b2,0xc(%esp)
 8053281:	08 
 8053282:	c7 44 24 04 00 00 00 	movl   $0x0,0x4(%esp)
 8053289:	00 
 805328a:	c7 04 24 17 e8 05 08 	movl   $0x805e817,(%esp)
 8053291:	e8 5a 4e 00 00       	call   80580f0 <geteuid@plt+0xe918>
 8053296:	89 85 34 f9 ff ff    	mov    %eax,-0x6cc(%ebp)
 805329c:	e9 01 f3 ff ff       	jmp    80525a2 <geteuid@plt+0x8dca>
 80532a1:	8d b4 26 00 00 00 00 	lea    0x0(%esi,%eiz,1),%esi
 80532a8:	c7 04 24 17 e8 05 08 	movl   $0x805e817,(%esp)
 80532af:	e8 54 61 ff ff       	call   8049408 <perror@plt>
 80532b4:	c7 04 24 f0 e8 05 08 	movl   $0x805e8f0,(%esp)
 80532bb:	e8 68 61 ff ff       	call   8049428 <gettext@plt>
 80532c0:	c7 04 24 01 00 00 00 	movl   $0x1,(%esp)
 80532c7:	89 44 24 04          	mov    %eax,0x4(%esp)
 80532cb:	e8 88 60 ff ff       	call   8049358 <__printf_chk@plt>
 80532d0:	b8 01 00 00 00       	mov    $0x1,%eax
 80532d5:	e9 ec fc ff ff       	jmp    8052fc6 <geteuid@plt+0x97ee>
 80532da:	8d b6 00 00 00 00    	lea    0x0(%esi),%esi
 80532e0:	c7 04 24 98 e9 05 08 	movl   $0x805e998,(%esp)
 80532e7:	e8 3c 61 ff ff       	call   8049428 <gettext@plt>
 80532ec:	c7 04 24 01 00 00 00 	movl   $0x1,(%esp)
 80532f3:	89 44 24 04          	mov    %eax,0x4(%esp)
 80532f7:	e8 5c 60 ff ff       	call   8049358 <__printf_chk@plt>
 80532fc:	e9 85 f2 ff ff       	jmp    8052586 <geteuid@plt+0x8dae>
 8053301:	8d b4 26 00 00 00 00 	lea    0x0(%esi,%eiz,1),%esi
 8053308:	c7 04 24 48 e9 05 08 	movl   $0x805e948,(%esp)
 805330f:	e8 14 61 ff ff       	call   8049428 <gettext@plt>
 8053314:	c7 04 24 01 00 00 00 	movl   $0x1,(%esp)
 805331b:	89 44 24 04          	mov    %eax,0x4(%esp)
 805331f:	e8 34 60 ff ff       	call   8049358 <__printf_chk@plt>
 8053324:	e9 5d f2 ff ff       	jmp    8052586 <geteuid@plt+0x8dae>
 8053329:	c7 04 24 58 ea 05 08 	movl   $0x805ea58,(%esp)
 8053330:	e8 f3 60 ff ff       	call   8049428 <gettext@plt>
 8053335:	c7 04 24 01 00 00 00 	movl   $0x1,(%esp)
 805333c:	89 44 24 04          	mov    %eax,0x4(%esp)
 8053340:	e8 13 60 ff ff       	call   8049358 <__printf_chk@plt>
 8053345:	e9 30 fe ff ff       	jmp    805317a <geteuid@plt+0x99a2>
 805334a:	c7 04 24 e8 e9 05 08 	movl   $0x805e9e8,(%esp)
 8053351:	e8 d2 60 ff ff       	call   8049428 <gettext@plt>
 8053356:	c7 04 24 01 00 00 00 	movl   $0x1,(%esp)
 805335d:	89 44 24 04          	mov    %eax,0x4(%esp)
 8053361:	e8 f2 5f ff ff       	call   8049358 <__printf_chk@plt>
 8053366:	e9 ff fc ff ff       	jmp    805306a <geteuid@plt+0x9892>
 805336b:	e8 f8 62 ff ff       	call   8049668 <__stack_chk_fail@plt>
 8053370:	55                   	push   %ebp
 8053371:	89 e5                	mov    %esp,%ebp
 8053373:	57                   	push   %edi
 8053374:	56                   	push   %esi
 8053375:	53                   	push   %ebx
 8053376:	81 ec ac 06 00 00    	sub    $0x6ac,%esp
 805337c:	c7 44 24 04 7a bf 05 	movl   $0x805bf7a,0x4(%esp)
 8053383:	08 
 8053384:	65 a1 14 00 00 00    	mov    %gs:0x14,%eax
 805338a:	89 45 e4             	mov    %eax,-0x1c(%ebp)
 805338d:	31 c0                	xor    %eax,%eax
 805338f:	c7 04 24 c2 e8 05 08 	movl   $0x805e8c2,(%esp)
 8053396:	e8 bd 61 ff ff       	call   8049558 <fopen@plt>
 805339b:	85 c0                	test   %eax,%eax
 805339d:	89 85 c4 f9 ff ff    	mov    %eax,-0x63c(%ebp)
 80533a3:	0f 84 7f 0a 00 00    	je     8053e28 <geteuid@plt+0xa650>
 80533a9:	c7 04 24 d2 e8 05 08 	movl   $0x805e8d2,(%esp)
 80533b0:	e8 73 60 ff ff       	call   8049428 <gettext@plt>
 80533b5:	c7 04 24 01 00 00 00 	movl   $0x1,(%esp)
 80533bc:	89 44 24 04          	mov    %eax,0x4(%esp)
 80533c0:	e8 93 5f ff ff       	call   8049358 <__printf_chk@plt>
 80533c5:	83 7d 08 01          	cmpl   $0x1,0x8(%ebp)
 80533c9:	0f 84 31 0a 00 00    	je     8053e00 <geteuid@plt+0xa628>
 80533cf:	83 7d 08 02          	cmpl   $0x2,0x8(%ebp)
 80533d3:	0f 84 ff 09 00 00    	je     8053dd8 <geteuid@plt+0xa600>
 80533d9:	8d b4 26 00 00 00 00 	lea    0x0(%esi,%eiz,1),%esi
 80533e0:	0f 8f f2 04 00 00    	jg     80538d8 <geteuid@plt+0xa100>
 80533e6:	8b 95 c4 f9 ff ff    	mov    -0x63c(%ebp),%edx
 80533ec:	8d bd e4 f9 ff ff    	lea    -0x61c(%ebp),%edi
 80533f2:	c7 85 c8 f9 ff ff 00 	movl   $0x0,-0x638(%ebp)
 80533f9:	00 00 00 
 80533fc:	c7 85 cc f9 ff ff 00 	movl   $0x0,-0x634(%ebp)
 8053403:	00 00 00 
 8053406:	c7 85 d0 f9 ff ff 00 	movl   $0x0,-0x630(%ebp)
 805340d:	00 00 00 
 8053410:	89 54 24 08          	mov    %edx,0x8(%esp)
 8053414:	c7 44 24 64 00 00 00 	movl   $0x0,0x64(%esp)
 805341b:	00 
 805341c:	c7 44 24 60 d3 bb 05 	movl   $0x805bbd3,0x60(%esp)
 8053423:	08 
 8053424:	c7 44 24 5c 4b e8 05 	movl   $0x805e84b,0x5c(%esp)
 805342b:	08 
 805342c:	c7 44 24 58 d3 bb 05 	movl   $0x805bbd3,0x58(%esp)
 8053433:	08 
 8053434:	c7 44 24 54 69 e8 05 	movl   $0x805e869,0x54(%esp)
 805343b:	08 
 805343c:	c7 44 24 50 d3 bb 05 	movl   $0x805bbd3,0x50(%esp)
 8053443:	08 
 8053444:	c7 44 24 4c 70 e8 05 	movl   $0x805e870,0x4c(%esp)
 805344b:	08 
 805344c:	c7 44 24 48 74 e8 05 	movl   $0x805e874,0x48(%esp)
 8053453:	08 
 8053454:	c7 44 24 44 eb e8 05 	movl   $0x805e8eb,0x44(%esp)
 805345b:	08 
 805345c:	c7 44 24 40 d3 bb 05 	movl   $0x805bbd3,0x40(%esp)
 8053463:	08 
 8053464:	c7 44 24 3c 81 e8 05 	movl   $0x805e881,0x3c(%esp)
 805346b:	08 
 805346c:	c7 44 24 38 d3 bb 05 	movl   $0x805bbd3,0x38(%esp)
 8053473:	08 
 8053474:	c7 44 24 34 88 e8 05 	movl   $0x805e888,0x34(%esp)
 805347b:	08 
 805347c:	c7 44 24 30 d3 bb 05 	movl   $0x805bbd3,0x30(%esp)
 8053483:	08 
 8053484:	c7 44 24 2c 8c e8 05 	movl   $0x805e88c,0x2c(%esp)
 805348b:	08 
 805348c:	c7 44 24 28 46 ba 05 	movl   $0x805ba46,0x28(%esp)
 8053493:	08 
 8053494:	c7 44 24 24 93 e8 05 	movl   $0x805e893,0x24(%esp)
 805349b:	08 
 805349c:	c7 44 24 20 74 e8 05 	movl   $0x805e874,0x20(%esp)
 80534a3:	08 
 80534a4:	c7 44 24 1c 99 e8 05 	movl   $0x805e899,0x1c(%esp)
 80534ab:	08 
 80534ac:	c7 44 24 18 74 e8 05 	movl   $0x805e874,0x18(%esp)
 80534b3:	08 
 80534b4:	c7 44 24 14 a1 e8 05 	movl   $0x805e8a1,0x14(%esp)
 80534bb:	08 
 80534bc:	c7 44 24 10 ad e8 05 	movl   $0x805e8ad,0x10(%esp)
 80534c3:	08 
 80534c4:	c7 44 24 0c b2 e8 05 	movl   $0x805e8b2,0xc(%esp)
 80534cb:	08 
 80534cc:	c7 44 24 04 00 00 00 	movl   $0x0,0x4(%esp)
 80534d3:	00 
 80534d4:	c7 04 24 c2 e8 05 08 	movl   $0x805e8c2,(%esp)
 80534db:	e8 10 4c 00 00       	call   80580f0 <geteuid@plt+0xe918>
 80534e0:	89 85 c0 f9 ff ff    	mov    %eax,-0x640(%ebp)
 80534e6:	8b 95 c0 f9 ff ff    	mov    -0x640(%ebp),%edx
 80534ec:	b8 01 00 00 00       	mov    $0x1,%eax
 80534f1:	85 d2                	test   %edx,%edx
 80534f3:	0f 84 45 03 00 00    	je     805383e <geteuid@plt+0xa066>
 80534f9:	8d b4 26 00 00 00 00 	lea    0x0(%esi,%eiz,1),%esi
 8053500:	8b 85 c4 f9 ff ff    	mov    -0x63c(%ebp),%eax
 8053506:	c7 44 24 04 ff 03 00 	movl   $0x3ff,0x4(%esp)
 805350d:	00 
 805350e:	89 3c 24             	mov    %edi,(%esp)
 8053511:	89 44 24 08          	mov    %eax,0x8(%esp)
 8053515:	e8 8e 5e ff ff       	call   80493a8 <fgets@plt>
 805351a:	85 c0                	test   %eax,%eax
 805351c:	0f 84 fe 02 00 00    	je     8053820 <geteuid@plt+0xa048>
 8053522:	8d 85 c8 f9 ff ff    	lea    -0x638(%ebp),%eax
 8053528:	89 44 24 30          	mov    %eax,0x30(%esp)
 805352c:	8d 85 d0 f9 ff ff    	lea    -0x630(%ebp),%eax
 8053532:	89 44 24 28          	mov    %eax,0x28(%esp)
 8053536:	8d 85 dc f9 ff ff    	lea    -0x624(%ebp),%eax
 805353c:	89 44 24 20          	mov    %eax,0x20(%esp)
 8053540:	8d 85 d4 f9 ff ff    	lea    -0x62c(%ebp),%eax
 8053546:	89 44 24 1c          	mov    %eax,0x1c(%esp)
 805354a:	8d 85 d8 f9 ff ff    	lea    -0x628(%ebp),%eax
 8053550:	89 44 24 18          	mov    %eax,0x18(%esp)
 8053554:	8d 85 e0 f9 ff ff    	lea    -0x620(%ebp),%eax
 805355a:	89 44 24 14          	mov    %eax,0x14(%esp)
 805355e:	8b 85 c0 f9 ff ff    	mov    -0x640(%ebp),%eax
 8053564:	8d 95 cc f9 ff ff    	lea    -0x634(%ebp),%edx
 805356a:	89 54 24 2c          	mov    %edx,0x2c(%esp)
 805356e:	8d 95 e4 fd ff ff    	lea    -0x21c(%ebp),%edx
 8053574:	89 54 24 24          	mov    %edx,0x24(%esp)
 8053578:	8d b5 e4 fe ff ff    	lea    -0x11c(%ebp),%esi
 805357e:	8d 55 d4             	lea    -0x2c(%ebp),%edx
 8053581:	8d 9d 64 fe ff ff    	lea    -0x19c(%ebp),%ebx
 8053587:	89 74 24 10          	mov    %esi,0x10(%esp)
 805358b:	89 5c 24 0c          	mov    %ebx,0xc(%esp)
 805358f:	89 54 24 08          	mov    %edx,0x8(%esp)
 8053593:	89 44 24 04          	mov    %eax,0x4(%esp)
 8053597:	89 3c 24             	mov    %edi,(%esp)
 805359a:	e8 49 61 ff ff       	call   80496e8 <sscanf@plt>
 805359f:	83 f8 09             	cmp    $0x9,%eax
 80535a2:	0f 8e 58 ff ff ff    	jle    8053500 <geteuid@plt+0x9d28>
 80535a8:	f6 85 e0 f9 ff ff 01 	testb  $0x1,-0x620(%ebp)
 80535af:	0f 84 4b ff ff ff    	je     8053500 <geteuid@plt+0x9d28>
 80535b5:	8d 4d c4             	lea    -0x3c(%ebp),%ecx
 80535b8:	89 4c 24 08          	mov    %ecx,0x8(%esp)
 80535bc:	89 8d bc f9 ff ff    	mov    %ecx,-0x644(%ebp)
 80535c2:	89 5c 24 04          	mov    %ebx,0x4(%esp)
 80535c6:	c7 04 24 01 00 00 00 	movl   $0x1,(%esp)
 80535cd:	ff 15 18 22 06 08    	call   *0x8062218
 80535d3:	8d 55 b4             	lea    -0x4c(%ebp),%edx
 80535d6:	89 54 24 08          	mov    %edx,0x8(%esp)
 80535da:	89 74 24 04          	mov    %esi,0x4(%esp)
 80535de:	c7 04 24 01 00 00 00 	movl   $0x1,(%esp)
 80535e5:	ff 15 18 22 06 08    	call   *0x8062218
 80535eb:	8d 95 e4 fd ff ff    	lea    -0x21c(%ebp),%edx
 80535f1:	8d 45 a4             	lea    -0x5c(%ebp),%eax
 80535f4:	89 54 24 04          	mov    %edx,0x4(%esp)
 80535f8:	89 44 24 08          	mov    %eax,0x8(%esp)
 80535fc:	c7 04 24 01 00 00 00 	movl   $0x1,(%esp)
 8053603:	ff 15 18 22 06 08    	call   *0x8062218
 8053609:	8b 55 a8             	mov    -0x58(%ebp),%edx
 805360c:	8b 85 e0 f9 ff ff    	mov    -0x620(%ebp),%eax
 8053612:	8b 8d bc f9 ff ff    	mov    -0x644(%ebp),%ecx
 8053618:	89 54 24 08          	mov    %edx,0x8(%esp)
 805361c:	8b 55 0c             	mov    0xc(%ebp),%edx
 805361f:	83 e0 04             	and    $0x4,%eax
 8053622:	83 f8 01             	cmp    $0x1,%eax
 8053625:	19 c0                	sbb    %eax,%eax
 8053627:	f7 d0                	not    %eax
 8053629:	80 ce 80             	or     $0x80,%dh
 805362c:	25 00 40 00 00       	and    $0x4000,%eax
 8053631:	09 c2                	or     %eax,%edx
 8053633:	89 0c 24             	mov    %ecx,(%esp)
 8053636:	89 54 24 04          	mov    %edx,0x4(%esp)
 805363a:	e8 11 d4 ff ff       	call   8050a50 <geteuid@plt+0x7278>
 805363f:	c7 44 24 08 80 00 00 	movl   $0x80,0x8(%esp)
 8053646:	00 
 8053647:	89 1c 24             	mov    %ebx,(%esp)
 805364a:	89 44 24 04          	mov    %eax,0x4(%esp)
 805364e:	e8 95 5f ff ff       	call   80495e8 <__strcpy_chk@plt>
 8053653:	8b 45 0c             	mov    0xc(%ebp),%eax
 8053656:	c6 85 73 fe ff ff 00 	movb   $0x0,-0x18d(%ebp)
 805365d:	80 cc 40             	or     $0x40,%ah
 8053660:	89 44 24 04          	mov    %eax,0x4(%esp)
 8053664:	8d 45 b4             	lea    -0x4c(%ebp),%eax
 8053667:	89 04 24             	mov    %eax,(%esp)
 805366a:	ff 15 14 22 06 08    	call   *0x8062214
 8053670:	c7 44 24 08 80 00 00 	movl   $0x80,0x8(%esp)
 8053677:	00 
 8053678:	89 34 24             	mov    %esi,(%esp)
 805367b:	89 44 24 04          	mov    %eax,0x4(%esp)
 805367f:	e8 64 5f ff ff       	call   80495e8 <__strcpy_chk@plt>
 8053684:	8d 55 a4             	lea    -0x5c(%ebp),%edx
 8053687:	89 14 24             	mov    %edx,(%esp)
 805368a:	c6 85 f3 fe ff ff 00 	movb   $0x0,-0x10d(%ebp)
 8053691:	c7 44 24 04 01 00 00 	movl   $0x1,0x4(%esp)
 8053698:	00 
 8053699:	ff 15 14 22 06 08    	call   *0x8062214
 805369f:	c7 44 24 08 80 00 00 	movl   $0x80,0x8(%esp)
 80536a6:	00 
 80536a7:	89 44 24 04          	mov    %eax,0x4(%esp)
 80536ab:	8d 85 e4 fd ff ff    	lea    -0x21c(%ebp),%eax
 80536b1:	89 04 24             	mov    %eax,(%esp)
 80536b4:	e8 2f 5f ff ff       	call   80495e8 <__strcpy_chk@plt>
 80536b9:	8b 95 e0 f9 ff ff    	mov    -0x620(%ebp),%edx
 80536bf:	c6 85 f3 fd ff ff 00 	movb   $0x0,-0x20d(%ebp)
 80536c6:	c6 85 64 ff ff ff 00 	movb   $0x0,-0x9c(%ebp)
 80536cd:	f6 c2 01             	test   $0x1,%dl
 80536d0:	89 d0                	mov    %edx,%eax
 80536d2:	0f 85 20 04 00 00    	jne    8053af8 <geteuid@plt+0xa320>
 80536d8:	f6 c2 02             	test   $0x2,%dl
 80536db:	0f 85 46 04 00 00    	jne    8053b27 <geteuid@plt+0xa34f>
 80536e1:	f6 c6 02             	test   $0x2,%dh
 80536e4:	0f 85 6c 04 00 00    	jne    8053b56 <geteuid@plt+0xa37e>
 80536ea:	83 e2 04             	and    $0x4,%edx
 80536ed:	8d 76 00             	lea    0x0(%esi),%esi
 80536f0:	0f 85 74 04 00 00    	jne    8053b6a <geteuid@plt+0xa392>
 80536f6:	a8 08                	test   $0x8,%al
 80536f8:	0f 85 98 04 00 00    	jne    8053b96 <geteuid@plt+0xa3be>
 80536fe:	a8 10                	test   $0x10,%al
 8053700:	0f 85 bc 04 00 00    	jne    8053bc2 <geteuid@plt+0xa3ea>
 8053706:	a8 20                	test   $0x20,%al
 8053708:	0f 85 e0 04 00 00    	jne    8053bee <geteuid@plt+0xa416>
 805370e:	a9 00 00 01 00       	test   $0x10000,%eax
 8053713:	0f 85 04 05 00 00    	jne    8053c1d <geteuid@plt+0xa445>
 8053719:	a9 00 00 02 00       	test   $0x20000,%eax
 805371e:	66 90                	xchg   %ax,%ax
 8053720:	0f 85 26 05 00 00    	jne    8053c4c <geteuid@plt+0xa474>
 8053726:	a9 00 00 04 00       	test   $0x40000,%eax
 805372b:	90                   	nop
 805372c:	8d 74 26 00          	lea    0x0(%esi,%eiz,1),%esi
 8053730:	0f 85 45 05 00 00    	jne    8053c7b <geteuid@plt+0xa4a3>
 8053736:	a9 00 00 20 00       	test   $0x200000,%eax
 805373b:	90                   	nop
 805373c:	8d 74 26 00          	lea    0x0(%esi,%eiz,1),%esi
 8053740:	0f 85 64 05 00 00    	jne    8053caa <geteuid@plt+0xa4d2>
 8053746:	a9 00 00 40 00       	test   $0x400000,%eax
 805374b:	90                   	nop
 805374c:	8d 74 26 00          	lea    0x0(%esi,%eiz,1),%esi
 8053750:	0f 85 72 03 00 00    	jne    8053ac8 <geteuid@plt+0xa2f0>
 8053756:	a9 00 00 00 01       	test   $0x1000000,%eax
 805375b:	90                   	nop
 805375c:	8d 74 26 00          	lea    0x0(%esi,%eiz,1),%esi
 8053760:	0f 85 32 03 00 00    	jne    8053a98 <geteuid@plt+0xa2c0>
 8053766:	a9 00 00 00 02       	test   $0x2000000,%eax
 805376b:	90                   	nop
 805376c:	8d 74 26 00          	lea    0x0(%esi,%eiz,1),%esi
 8053770:	0f 85 f2 02 00 00    	jne    8053a68 <geteuid@plt+0xa290>
 8053776:	a9 00 00 00 04       	test   $0x4000000,%eax
 805377b:	90                   	nop
 805377c:	8d 74 26 00          	lea    0x0(%esi,%eiz,1),%esi
 8053780:	0f 85 8a 02 00 00    	jne    8053a10 <geteuid@plt+0xa238>
 8053786:	85 c0                	test   %eax,%eax
 8053788:	0f 88 ae 02 00 00    	js     8053a3c <geteuid@plt+0xa264>
 805378e:	a8 40                	test   $0x40,%al
 8053790:	0f 85 4a 02 00 00    	jne    80539e0 <geteuid@plt+0xa208>
 8053796:	84 c0                	test   %al,%al
 8053798:	0f 88 12 02 00 00    	js     80539b0 <geteuid@plt+0xa1d8>
 805379e:	f6 c4 01             	test   $0x1,%ah
 80537a1:	0f 85 d9 01 00 00    	jne    8053980 <geteuid@plt+0xa1a8>
 80537a7:	f6 c4 04             	test   $0x4,%ah
 80537aa:	0f 85 50 01 00 00    	jne    8053900 <geteuid@plt+0xa128>
 80537b0:	83 7d 08 01          	cmpl   $0x1,0x8(%ebp)
 80537b4:	0f 84 6e 01 00 00    	je     8053928 <geteuid@plt+0xa150>
 80537ba:	83 7d 08 02          	cmpl   $0x2,0x8(%ebp)
 80537be:	66 90                	xchg   %ax,%ax
 80537c0:	0f 84 12 05 00 00    	je     8053cd8 <geteuid@plt+0xa500>
 80537c6:	66 90                	xchg   %ax,%ax
 80537c8:	0f 8e 32 fd ff ff    	jle    8053500 <geteuid@plt+0x9d28>
 80537ce:	f6 85 e1 f9 ff ff 02 	testb  $0x2,-0x61f(%ebp)
 80537d5:	0f 84 85 00 00 00    	je     8053860 <geteuid@plt+0xa088>
 80537db:	8b 85 d4 f9 ff ff    	mov    -0x62c(%ebp),%eax
 80537e1:	8d 95 e4 fd ff ff    	lea    -0x21c(%ebp),%edx
 80537e7:	89 54 24 0c          	mov    %edx,0xc(%esp)
 80537eb:	89 5c 24 08          	mov    %ebx,0x8(%esp)
 80537ef:	c7 44 24 04 38 ed 05 	movl   $0x805ed38,0x4(%esp)
 80537f6:	08 
 80537f7:	89 44 24 18          	mov    %eax,0x18(%esp)
 80537fb:	8b 85 dc f9 ff ff    	mov    -0x624(%ebp),%eax
 8053801:	c7 04 24 01 00 00 00 	movl   $0x1,(%esp)
 8053808:	89 44 24 14          	mov    %eax,0x14(%esp)
 805380c:	8d 85 64 ff ff ff    	lea    -0x9c(%ebp),%eax
 8053812:	89 44 24 10          	mov    %eax,0x10(%esp)
 8053816:	e8 3d 5b ff ff       	call   8049358 <__printf_chk@plt>
 805381b:	e9 e0 fc ff ff       	jmp    8053500 <geteuid@plt+0x9d28>
 8053820:	8b 95 c0 f9 ff ff    	mov    -0x640(%ebp),%edx
 8053826:	89 14 24             	mov    %edx,(%esp)
 8053829:	e8 3a 5c ff ff       	call   8049468 <free@plt>
 805382e:	8b 85 c4 f9 ff ff    	mov    -0x63c(%ebp),%eax
 8053834:	89 04 24             	mov    %eax,(%esp)
 8053837:	e8 cc 5c ff ff       	call   8049508 <fclose@plt>
 805383c:	31 c0                	xor    %eax,%eax
 805383e:	8b 55 e4             	mov    -0x1c(%ebp),%edx
 8053841:	65 33 15 14 00 00 00 	xor    %gs:0x14,%edx
 8053848:	0f 85 0c 06 00 00    	jne    8053e5a <geteuid@plt+0xa682>
 805384e:	81 c4 ac 06 00 00    	add    $0x6ac,%esp
 8053854:	5b                   	pop    %ebx
 8053855:	5e                   	pop    %esi
 8053856:	5f                   	pop    %edi
 8053857:	5d                   	pop    %ebp
 8053858:	c3                   	ret    
 8053859:	8d b4 26 00 00 00 00 	lea    0x0(%esi,%eiz,1),%esi
 8053860:	8b 85 c8 f9 ff ff    	mov    -0x638(%ebp),%eax
 8053866:	8d 95 e4 fd ff ff    	lea    -0x21c(%ebp),%edx
 805386c:	89 54 24 10          	mov    %edx,0x10(%esp)
 8053870:	89 74 24 0c          	mov    %esi,0xc(%esp)
 8053874:	89 5c 24 08          	mov    %ebx,0x8(%esp)
 8053878:	89 44 24 30          	mov    %eax,0x30(%esp)
 805387c:	8b 85 cc f9 ff ff    	mov    -0x634(%ebp),%eax
 8053882:	c7 44 24 04 80 ed 05 	movl   $0x805ed80,0x4(%esp)
 8053889:	08 
 805388a:	c7 04 24 01 00 00 00 	movl   $0x1,(%esp)
 8053891:	89 44 24 2c          	mov    %eax,0x2c(%esp)
 8053895:	8b 85 d0 f9 ff ff    	mov    -0x630(%ebp),%eax
 805389b:	89 44 24 28          	mov    %eax,0x28(%esp)
 805389f:	8d 45 d4             	lea    -0x2c(%ebp),%eax
 80538a2:	89 44 24 24          	mov    %eax,0x24(%esp)
 80538a6:	8b 85 d4 f9 ff ff    	mov    -0x62c(%ebp),%eax
 80538ac:	89 44 24 20          	mov    %eax,0x20(%esp)
 80538b0:	8b 85 d8 f9 ff ff    	mov    -0x628(%ebp),%eax
 80538b6:	89 44 24 1c          	mov    %eax,0x1c(%esp)
 80538ba:	8b 85 dc f9 ff ff    	mov    -0x624(%ebp),%eax
 80538c0:	89 44 24 18          	mov    %eax,0x18(%esp)
 80538c4:	8d 85 64 ff ff ff    	lea    -0x9c(%ebp),%eax
 80538ca:	89 44 24 14          	mov    %eax,0x14(%esp)
 80538ce:	e8 85 5a ff ff       	call   8049358 <__printf_chk@plt>
 80538d3:	e9 28 fc ff ff       	jmp    8053500 <geteuid@plt+0x9d28>
 80538d8:	c7 04 24 6c ec 05 08 	movl   $0x805ec6c,(%esp)
 80538df:	e8 44 5b ff ff       	call   8049428 <gettext@plt>
 80538e4:	c7 04 24 01 00 00 00 	movl   $0x1,(%esp)
 80538eb:	89 44 24 04          	mov    %eax,0x4(%esp)
 80538ef:	e8 64 5a ff ff       	call   8049358 <__printf_chk@plt>
 80538f4:	e9 ed fa ff ff       	jmp    80533e6 <geteuid@plt+0x9c0e>
 80538f9:	8d b4 26 00 00 00 00 	lea    0x0(%esi,%eiz,1),%esi
 8053900:	8d 85 64 ff ff ff    	lea    -0x9c(%ebp),%eax
 8053906:	c7 44 24 08 40 00 00 	movl   $0x40,0x8(%esp)
 805390d:	00 
 805390e:	c7 44 24 04 f6 e2 05 	movl   $0x805e2f6,0x4(%esp)
 8053915:	08 
 8053916:	89 04 24             	mov    %eax,(%esp)
 8053919:	e8 fa 5a ff ff       	call   8049418 <__strcat_chk@plt>
 805391e:	83 7d 08 01          	cmpl   $0x1,0x8(%ebp)
 8053922:	0f 85 92 fe ff ff    	jne    80537ba <geteuid@plt+0x9fe2>
 8053928:	f6 85 e1 f9 ff ff 02 	testb  $0x2,-0x61f(%ebp)
 805392f:	0f 84 e3 03 00 00    	je     8053d18 <geteuid@plt+0xa540>
 8053935:	8b 85 d4 f9 ff ff    	mov    -0x62c(%ebp),%eax
 805393b:	8d 95 e4 fd ff ff    	lea    -0x21c(%ebp),%edx
 8053941:	89 54 24 0c          	mov    %edx,0xc(%esp)
 8053945:	89 5c 24 08          	mov    %ebx,0x8(%esp)
 8053949:	c7 44 24 04 d0 ec 05 	movl   $0x805ecd0,0x4(%esp)
 8053950:	08 
 8053951:	89 44 24 18          	mov    %eax,0x18(%esp)
 8053955:	8b 85 dc f9 ff ff    	mov    -0x624(%ebp),%eax
 805395b:	c7 04 24 01 00 00 00 	movl   $0x1,(%esp)
 8053962:	89 44 24 14          	mov    %eax,0x14(%esp)
 8053966:	8d 85 64 ff ff ff    	lea    -0x9c(%ebp),%eax
 805396c:	89 44 24 10          	mov    %eax,0x10(%esp)
 8053970:	e8 e3 59 ff ff       	call   8049358 <__printf_chk@plt>
 8053975:	e9 86 fb ff ff       	jmp    8053500 <geteuid@plt+0x9d28>
 805397a:	8d b6 00 00 00 00    	lea    0x0(%esi),%esi
 8053980:	8d 85 64 ff ff ff    	lea    -0x9c(%ebp),%eax
 8053986:	c7 44 24 08 40 00 00 	movl   $0x40,0x8(%esp)
 805398d:	00 
 805398e:	c7 44 24 04 ce fe 05 	movl   $0x805fece,0x4(%esp)
 8053995:	08 
 8053996:	89 04 24             	mov    %eax,(%esp)
 8053999:	e8 7a 5a ff ff       	call   8049418 <__strcat_chk@plt>
 805399e:	8b 85 e0 f9 ff ff    	mov    -0x620(%ebp),%eax
 80539a4:	e9 fe fd ff ff       	jmp    80537a7 <geteuid@plt+0x9fcf>
 80539a9:	8d b4 26 00 00 00 00 	lea    0x0(%esi,%eiz,1),%esi
 80539b0:	8d 85 64 ff ff ff    	lea    -0x9c(%ebp),%eax
 80539b6:	c7 44 24 08 40 00 00 	movl   $0x40,0x8(%esp)
 80539bd:	00 
 80539be:	c7 44 24 04 99 bb 05 	movl   $0x805bb99,0x4(%esp)
 80539c5:	08 
 80539c6:	89 04 24             	mov    %eax,(%esp)
 80539c9:	e8 4a 5a ff ff       	call   8049418 <__strcat_chk@plt>
 80539ce:	8b 85 e0 f9 ff ff    	mov    -0x620(%ebp),%eax
 80539d4:	e9 c5 fd ff ff       	jmp    805379e <geteuid@plt+0x9fc6>
 80539d9:	8d b4 26 00 00 00 00 	lea    0x0(%esi,%eiz,1),%esi
 80539e0:	8d 85 64 ff ff ff    	lea    -0x9c(%ebp),%eax
 80539e6:	c7 44 24 08 40 00 00 	movl   $0x40,0x8(%esp)
 80539ed:	00 
 80539ee:	c7 44 24 04 5e cd 05 	movl   $0x805cd5e,0x4(%esp)
 80539f5:	08 
 80539f6:	89 04 24             	mov    %eax,(%esp)
 80539f9:	e8 1a 5a ff ff       	call   8049418 <__strcat_chk@plt>
 80539fe:	8b 85 e0 f9 ff ff    	mov    -0x620(%ebp),%eax
 8053a04:	e9 8d fd ff ff       	jmp    8053796 <geteuid@plt+0x9fbe>
 8053a09:	8d b4 26 00 00 00 00 	lea    0x0(%esi,%eiz,1),%esi
 8053a10:	8d 85 64 ff ff ff    	lea    -0x9c(%ebp),%eax
 8053a16:	c7 44 24 08 40 00 00 	movl   $0x40,0x8(%esp)
 8053a1d:	00 
 8053a1e:	c7 44 24 04 a1 d5 05 	movl   $0x805d5a1,0x4(%esp)
 8053a25:	08 
 8053a26:	89 04 24             	mov    %eax,(%esp)
 8053a29:	e8 ea 59 ff ff       	call   8049418 <__strcat_chk@plt>
 8053a2e:	8b 85 e0 f9 ff ff    	mov    -0x620(%ebp),%eax
 8053a34:	85 c0                	test   %eax,%eax
 8053a36:	0f 89 52 fd ff ff    	jns    805378e <geteuid@plt+0x9fb6>
 8053a3c:	8d 85 64 ff ff ff    	lea    -0x9c(%ebp),%eax
 8053a42:	c7 44 24 08 40 00 00 	movl   $0x40,0x8(%esp)
 8053a49:	00 
 8053a4a:	c7 44 24 04 4c ee 05 	movl   $0x805ee4c,0x4(%esp)
 8053a51:	08 
 8053a52:	89 04 24             	mov    %eax,(%esp)
 8053a55:	e8 be 59 ff ff       	call   8049418 <__strcat_chk@plt>
 8053a5a:	8b 85 e0 f9 ff ff    	mov    -0x620(%ebp),%eax
 8053a60:	e9 29 fd ff ff       	jmp    805378e <geteuid@plt+0x9fb6>
 8053a65:	8d 76 00             	lea    0x0(%esi),%esi
 8053a68:	8d 85 64 ff ff ff    	lea    -0x9c(%ebp),%eax
 8053a6e:	c7 44 24 08 40 00 00 	movl   $0x40,0x8(%esp)
 8053a75:	00 
 8053a76:	c7 44 24 04 45 e8 05 	movl   $0x805e845,0x4(%esp)
 8053a7d:	08 
 8053a7e:	89 04 24             	mov    %eax,(%esp)
 8053a81:	e8 92 59 ff ff       	call   8049418 <__strcat_chk@plt>
 8053a86:	8b 85 e0 f9 ff ff    	mov    -0x620(%ebp),%eax
 8053a8c:	e9 e5 fc ff ff       	jmp    8053776 <geteuid@plt+0x9f9e>
 8053a91:	8d b4 26 00 00 00 00 	lea    0x0(%esi,%eiz,1),%esi
 8053a98:	8d 85 64 ff ff ff    	lea    -0x9c(%ebp),%eax
 8053a9e:	c7 44 24 08 40 00 00 	movl   $0x40,0x8(%esp)
 8053aa5:	00 
 8053aa6:	c7 44 24 04 6c f5 05 	movl   $0x805f56c,0x4(%esp)
 8053aad:	08 
 8053aae:	89 04 24             	mov    %eax,(%esp)
 8053ab1:	e8 62 59 ff ff       	call   8049418 <__strcat_chk@plt>
 8053ab6:	8b 85 e0 f9 ff ff    	mov    -0x620(%ebp),%eax
 8053abc:	e9 a5 fc ff ff       	jmp    8053766 <geteuid@plt+0x9f8e>
 8053ac1:	8d b4 26 00 00 00 00 	lea    0x0(%esi,%eiz,1),%esi
 8053ac8:	8d 85 64 ff ff ff    	lea    -0x9c(%ebp),%eax
 8053ace:	c7 44 24 08 40 00 00 	movl   $0x40,0x8(%esp)
 8053ad5:	00 
 8053ad6:	c7 44 24 04 b6 e8 05 	movl   $0x805e8b6,0x4(%esp)
 8053add:	08 
 8053ade:	89 04 24             	mov    %eax,(%esp)
 8053ae1:	e8 32 59 ff ff       	call   8049418 <__strcat_chk@plt>
 8053ae6:	8b 85 e0 f9 ff ff    	mov    -0x620(%ebp),%eax
 8053aec:	e9 65 fc ff ff       	jmp    8053756 <geteuid@plt+0x9f7e>
 8053af1:	8d b4 26 00 00 00 00 	lea    0x0(%esi,%eiz,1),%esi
 8053af8:	8d 85 64 ff ff ff    	lea    -0x9c(%ebp),%eax
 8053afe:	c7 44 24 08 40 00 00 	movl   $0x40,0x8(%esp)
 8053b05:	00 
 8053b06:	c7 44 24 04 72 e8 05 	movl   $0x805e872,0x4(%esp)
 8053b0d:	08 
 8053b0e:	89 04 24             	mov    %eax,(%esp)
 8053b11:	e8 02 59 ff ff       	call   8049418 <__strcat_chk@plt>
 8053b16:	8b 95 e0 f9 ff ff    	mov    -0x620(%ebp),%edx
 8053b1c:	f6 c2 02             	test   $0x2,%dl
 8053b1f:	89 d0                	mov    %edx,%eax
 8053b21:	0f 84 ba fb ff ff    	je     80536e1 <geteuid@plt+0x9f09>
 8053b27:	8d 85 64 ff ff ff    	lea    -0x9c(%ebp),%eax
 8053b2d:	c7 44 24 08 40 00 00 	movl   $0x40,0x8(%esp)
 8053b34:	00 
 8053b35:	c7 44 24 04 31 bd 05 	movl   $0x805bd31,0x4(%esp)
 8053b3c:	08 
 8053b3d:	89 04 24             	mov    %eax,(%esp)
 8053b40:	e8 d3 58 ff ff       	call   8049418 <__strcat_chk@plt>
 8053b45:	8b 95 e0 f9 ff ff    	mov    -0x620(%ebp),%edx
 8053b4b:	f6 c6 02             	test   $0x2,%dh
 8053b4e:	89 d0                	mov    %edx,%eax
 8053b50:	0f 84 94 fb ff ff    	je     80536ea <geteuid@plt+0x9f12>
 8053b56:	89 d0                	mov    %edx,%eax
 8053b58:	83 e2 04             	and    $0x4,%edx
 8053b5b:	66 c7 85 64 ff ff ff 	movw   $0x21,-0x9c(%ebp)
 8053b62:	21 00 
 8053b64:	0f 84 8c fb ff ff    	je     80536f6 <geteuid@plt+0x9f1e>
 8053b6a:	8d 85 64 ff ff ff    	lea    -0x9c(%ebp),%eax
 8053b70:	c7 44 24 08 40 00 00 	movl   $0x40,0x8(%esp)
 8053b77:	00 
 8053b78:	c7 44 24 04 2f e8 05 	movl   $0x805e82f,0x4(%esp)
 8053b7f:	08 
 8053b80:	89 04 24             	mov    %eax,(%esp)
 8053b83:	e8 90 58 ff ff       	call   8049418 <__strcat_chk@plt>
 8053b88:	8b 85 e0 f9 ff ff    	mov    -0x620(%ebp),%eax
 8053b8e:	a8 08                	test   $0x8,%al
 8053b90:	0f 84 68 fb ff ff    	je     80536fe <geteuid@plt+0x9f26>
 8053b96:	8d 85 64 ff ff ff    	lea    -0x9c(%ebp),%eax
 8053b9c:	c7 44 24 08 40 00 00 	movl   $0x40,0x8(%esp)
 8053ba3:	00 
 8053ba4:	c7 44 24 04 6d e4 05 	movl   $0x805e46d,0x4(%esp)
 8053bab:	08 
 8053bac:	89 04 24             	mov    %eax,(%esp)
 8053baf:	e8 64 58 ff ff       	call   8049418 <__strcat_chk@plt>
 8053bb4:	8b 85 e0 f9 ff ff    	mov    -0x620(%ebp),%eax
 8053bba:	a8 10                	test   $0x10,%al
 8053bbc:	0f 84 44 fb ff ff    	je     8053706 <geteuid@plt+0x9f2e>
 8053bc2:	8d 85 64 ff ff ff    	lea    -0x9c(%ebp),%eax
 8053bc8:	c7 44 24 08 40 00 00 	movl   $0x40,0x8(%esp)
 8053bcf:	00 
 8053bd0:	c7 44 24 04 26 bb 05 	movl   $0x805bb26,0x4(%esp)
 8053bd7:	08 
 8053bd8:	89 04 24             	mov    %eax,(%esp)
 8053bdb:	e8 38 58 ff ff       	call   8049418 <__strcat_chk@plt>
 8053be0:	8b 85 e0 f9 ff ff    	mov    -0x620(%ebp),%eax
 8053be6:	a8 20                	test   $0x20,%al
 8053be8:	0f 84 20 fb ff ff    	je     805370e <geteuid@plt+0x9f36>
 8053bee:	8d 85 64 ff ff ff    	lea    -0x9c(%ebp),%eax
 8053bf4:	c7 44 24 08 40 00 00 	movl   $0x40,0x8(%esp)
 8053bfb:	00 
 8053bfc:	c7 44 24 04 0a bd 05 	movl   $0x805bd0a,0x4(%esp)
 8053c03:	08 
 8053c04:	89 04 24             	mov    %eax,(%esp)
 8053c07:	e8 0c 58 ff ff       	call   8049418 <__strcat_chk@plt>
 8053c0c:	8b 85 e0 f9 ff ff    	mov    -0x620(%ebp),%eax
 8053c12:	a9 00 00 01 00       	test   $0x10000,%eax
 8053c17:	0f 84 fc fa ff ff    	je     8053719 <geteuid@plt+0x9f41>
 8053c1d:	8d 85 64 ff ff ff    	lea    -0x9c(%ebp),%eax
 8053c23:	c7 44 24 08 40 00 00 	movl   $0x40,0x8(%esp)
 8053c2a:	00 
 8053c2b:	c7 44 24 04 d4 bb 05 	movl   $0x805bbd4,0x4(%esp)
 8053c32:	08 
 8053c33:	89 04 24             	mov    %eax,(%esp)
 8053c36:	e8 dd 57 ff ff       	call   8049418 <__strcat_chk@plt>
 8053c3b:	8b 85 e0 f9 ff ff    	mov    -0x620(%ebp),%eax
 8053c41:	a9 00 00 02 00       	test   $0x20000,%eax
 8053c46:	0f 84 da fa ff ff    	je     8053726 <geteuid@plt+0x9f4e>
 8053c4c:	8d 85 64 ff ff ff    	lea    -0x9c(%ebp),%eax
 8053c52:	c7 44 24 08 40 00 00 	movl   $0x40,0x8(%esp)
 8053c59:	00 
 8053c5a:	c7 44 24 04 90 fd 05 	movl   $0x805fd90,0x4(%esp)
 8053c61:	08 
 8053c62:	89 04 24             	mov    %eax,(%esp)
 8053c65:	e8 ae 57 ff ff       	call   8049418 <__strcat_chk@plt>
 8053c6a:	8b 85 e0 f9 ff ff    	mov    -0x620(%ebp),%eax
 8053c70:	a9 00 00 04 00       	test   $0x40000,%eax
 8053c75:	0f 84 bb fa ff ff    	je     8053736 <geteuid@plt+0x9f5e>
 8053c7b:	8d 85 64 ff ff ff    	lea    -0x9c(%ebp),%eax
 8053c81:	c7 44 24 08 40 00 00 	movl   $0x40,0x8(%esp)
 8053c88:	00 
 8053c89:	c7 44 24 04 6c f5 05 	movl   $0x805f56c,0x4(%esp)
 8053c90:	08 
 8053c91:	89 04 24             	mov    %eax,(%esp)
 8053c94:	e8 7f 57 ff ff       	call   8049418 <__strcat_chk@plt>
 8053c99:	8b 85 e0 f9 ff ff    	mov    -0x620(%ebp),%eax
 8053c9f:	a9 00 00 20 00       	test   $0x200000,%eax
 8053ca4:	0f 84 9c fa ff ff    	je     8053746 <geteuid@plt+0x9f6e>
 8053caa:	8d 85 64 ff ff ff    	lea    -0x9c(%ebp),%eax
 8053cb0:	c7 44 24 08 40 00 00 	movl   $0x40,0x8(%esp)
 8053cb7:	00 
 8053cb8:	c7 44 24 04 8a d5 05 	movl   $0x805d58a,0x4(%esp)
 8053cbf:	08 
 8053cc0:	89 04 24             	mov    %eax,(%esp)
 8053cc3:	e8 50 57 ff ff       	call   8049418 <__strcat_chk@plt>
 8053cc8:	8b 85 e0 f9 ff ff    	mov    -0x620(%ebp),%eax
 8053cce:	e9 73 fa ff ff       	jmp    8053746 <geteuid@plt+0x9f6e>
 8053cd3:	90                   	nop
 8053cd4:	8d 74 26 00          	lea    0x0(%esi,%eiz,1),%esi
 8053cd8:	f6 85 e1 f9 ff ff 02 	testb  $0x2,-0x61f(%ebp)
 8053cdf:	0f 84 93 00 00 00    	je     8053d78 <geteuid@plt+0xa5a0>
 8053ce5:	8d 85 64 ff ff ff    	lea    -0x9c(%ebp),%eax
 8053ceb:	89 44 24 10          	mov    %eax,0x10(%esp)
 8053cef:	8d 85 e4 fd ff ff    	lea    -0x21c(%ebp),%eax
 8053cf5:	89 44 24 0c          	mov    %eax,0xc(%esp)
 8053cf9:	89 5c 24 08          	mov    %ebx,0x8(%esp)
 8053cfd:	c7 44 24 04 00 ed 05 	movl   $0x805ed00,0x4(%esp)
 8053d04:	08 
 8053d05:	c7 04 24 01 00 00 00 	movl   $0x1,(%esp)
 8053d0c:	e8 47 56 ff ff       	call   8049358 <__printf_chk@plt>
 8053d11:	e9 ea f7 ff ff       	jmp    8053500 <geteuid@plt+0x9d28>
 8053d16:	66 90                	xchg   %ax,%ax
 8053d18:	8d 45 d4             	lea    -0x2c(%ebp),%eax
 8053d1b:	89 44 24 24          	mov    %eax,0x24(%esp)
 8053d1f:	8b 85 d4 f9 ff ff    	mov    -0x62c(%ebp),%eax
 8053d25:	8d 95 e4 fd ff ff    	lea    -0x21c(%ebp),%edx
 8053d2b:	89 54 24 10          	mov    %edx,0x10(%esp)
 8053d2f:	89 74 24 0c          	mov    %esi,0xc(%esp)
 8053d33:	89 5c 24 08          	mov    %ebx,0x8(%esp)
 8053d37:	89 44 24 20          	mov    %eax,0x20(%esp)
 8053d3b:	8b 85 d8 f9 ff ff    	mov    -0x628(%ebp),%eax
 8053d41:	c7 44 24 04 dc ea 05 	movl   $0x805eadc,0x4(%esp)
 8053d48:	08 
 8053d49:	c7 04 24 01 00 00 00 	movl   $0x1,(%esp)
 8053d50:	89 44 24 1c          	mov    %eax,0x1c(%esp)
 8053d54:	8b 85 dc f9 ff ff    	mov    -0x624(%ebp),%eax
 8053d5a:	89 44 24 18          	mov    %eax,0x18(%esp)
 8053d5e:	8d 85 64 ff ff ff    	lea    -0x9c(%ebp),%eax
 8053d64:	89 44 24 14          	mov    %eax,0x14(%esp)
 8053d68:	e8 eb 55 ff ff       	call   8049358 <__printf_chk@plt>
 8053d6d:	e9 8e f7 ff ff       	jmp    8053500 <geteuid@plt+0x9d28>
 8053d72:	8d b6 00 00 00 00    	lea    0x0(%esi),%esi
 8053d78:	8b 85 c8 f9 ff ff    	mov    -0x638(%ebp),%eax
 8053d7e:	8d 55 d4             	lea    -0x2c(%ebp),%edx
 8053d81:	89 54 24 24          	mov    %edx,0x24(%esp)
 8053d85:	89 74 24 0c          	mov    %esi,0xc(%esp)
 8053d89:	89 5c 24 08          	mov    %ebx,0x8(%esp)
 8053d8d:	89 44 24 20          	mov    %eax,0x20(%esp)
 8053d91:	8b 85 cc f9 ff ff    	mov    -0x634(%ebp),%eax
 8053d97:	c7 44 24 04 08 eb 05 	movl   $0x805eb08,0x4(%esp)
 8053d9e:	08 
 8053d9f:	c7 04 24 01 00 00 00 	movl   $0x1,(%esp)
 8053da6:	89 44 24 1c          	mov    %eax,0x1c(%esp)
 8053daa:	8b 85 d0 f9 ff ff    	mov    -0x630(%ebp),%eax
 8053db0:	89 44 24 18          	mov    %eax,0x18(%esp)
 8053db4:	8d 85 64 ff ff ff    	lea    -0x9c(%ebp),%eax
 8053dba:	89 44 24 14          	mov    %eax,0x14(%esp)
 8053dbe:	8d 85 e4 fd ff ff    	lea    -0x21c(%ebp),%eax
 8053dc4:	89 44 24 10          	mov    %eax,0x10(%esp)
 8053dc8:	e8 8b 55 ff ff       	call   8049358 <__printf_chk@plt>
 8053dcd:	e9 2e f7 ff ff       	jmp    8053500 <geteuid@plt+0x9d28>
 8053dd2:	8d b6 00 00 00 00    	lea    0x0(%esi),%esi
 8053dd8:	c7 04 24 1c ec 05 08 	movl   $0x805ec1c,(%esp)
 8053ddf:	e8 44 56 ff ff       	call   8049428 <gettext@plt>
 8053de4:	c7 04 24 01 00 00 00 	movl   $0x1,(%esp)
 8053deb:	89 44 24 04          	mov    %eax,0x4(%esp)
 8053def:	e8 64 55 ff ff       	call   8049358 <__printf_chk@plt>
 8053df4:	e9 ed f5 ff ff       	jmp    80533e6 <geteuid@plt+0x9c0e>
 8053df9:	8d b4 26 00 00 00 00 	lea    0x0(%esi,%eiz,1),%esi
 8053e00:	c7 04 24 cc eb 05 08 	movl   $0x805ebcc,(%esp)
 8053e07:	e8 1c 56 ff ff       	call   8049428 <gettext@plt>
 8053e0c:	c7 04 24 01 00 00 00 	movl   $0x1,(%esp)
 8053e13:	89 44 24 04          	mov    %eax,0x4(%esp)
 8053e17:	e8 3c 55 ff ff       	call   8049358 <__printf_chk@plt>
 8053e1c:	e9 c5 f5 ff ff       	jmp    80533e6 <geteuid@plt+0x9c0e>
 8053e21:	8d b4 26 00 00 00 00 	lea    0x0(%esi,%eiz,1),%esi
 8053e28:	c7 04 24 c2 e8 05 08 	movl   $0x805e8c2,(%esp)
 8053e2f:	e8 d4 55 ff ff       	call   8049408 <perror@plt>
 8053e34:	c7 04 24 f0 e8 05 08 	movl   $0x805e8f0,(%esp)
 8053e3b:	e8 e8 55 ff ff       	call   8049428 <gettext@plt>
 8053e40:	c7 04 24 01 00 00 00 	movl   $0x1,(%esp)
 8053e47:	89 44 24 04          	mov    %eax,0x4(%esp)
 8053e4b:	e8 08 55 ff ff       	call   8049358 <__printf_chk@plt>
 8053e50:	b8 01 00 00 00       	mov    $0x1,%eax
 8053e55:	e9 e4 f9 ff ff       	jmp    805383e <geteuid@plt+0xa066>
 8053e5a:	e8 09 58 ff ff       	call   8049668 <__stack_chk_fail@plt>
 8053e5f:	90                   	nop
 8053e60:	55                   	push   %ebp
 8053e61:	b8 02 00 00 00       	mov    $0x2,%eax
 8053e66:	89 e5                	mov    %esp,%ebp
 8053e68:	83 ec 28             	sub    $0x28,%esp
 8053e6b:	89 5d f4             	mov    %ebx,-0xc(%ebp)
 8053e6e:	8b 5d 08             	mov    0x8(%ebp),%ebx
 8053e71:	89 75 f8             	mov    %esi,-0x8(%ebp)
 8053e74:	89 7d fc             	mov    %edi,-0x4(%ebp)
 8053e77:	89 de                	mov    %ebx,%esi
 8053e79:	89 df                	mov    %ebx,%edi
 8053e7b:	83 e6 03             	and    $0x3,%esi
 8053e7e:	83 e7 24             	and    $0x24,%edi
 8053e81:	84 db                	test   %bl,%bl
 8053e83:	78 13                	js     8053e98 <geteuid@plt+0xa6c0>
 8053e85:	83 e3 40             	and    $0x40,%ebx
 8053e88:	75 26                	jne    8053eb0 <geteuid@plt+0xa6d8>
 8053e8a:	8b 5d f4             	mov    -0xc(%ebp),%ebx
 8053e8d:	8b 75 f8             	mov    -0x8(%ebp),%esi
 8053e90:	8b 7d fc             	mov    -0x4(%ebp),%edi
 8053e93:	89 ec                	mov    %ebp,%esp
 8053e95:	5d                   	pop    %ebp
 8053e96:	c3                   	ret    
 8053e97:	90                   	nop
 8053e98:	89 7c 24 04          	mov    %edi,0x4(%esp)
 8053e9c:	89 34 24             	mov    %esi,(%esp)
 8053e9f:	e8 cc f4 ff ff       	call   8053370 <geteuid@plt+0x9b98>
 8053ea4:	85 c0                	test   %eax,%eax
 8053ea6:	75 e2                	jne    8053e8a <geteuid@plt+0xa6b2>
 8053ea8:	83 e3 40             	and    $0x40,%ebx
 8053eab:	74 dd                	je     8053e8a <geteuid@plt+0xa6b2>
 8053ead:	8d 76 00             	lea    0x0(%esi),%esi
 8053eb0:	89 7c 24 04          	mov    %edi,0x4(%esp)
 8053eb4:	89 34 24             	mov    %esi,(%esp)
 8053eb7:	e8 94 e5 ff ff       	call   8052450 <geteuid@plt+0x8c78>
 8053ebc:	eb cc                	jmp    8053e8a <geteuid@plt+0xa6b2>
 8053ebe:	90                   	nop
 8053ebf:	90                   	nop
 8053ec0:	55                   	push   %ebp
 8053ec1:	89 e5                	mov    %esp,%ebp
 8053ec3:	57                   	push   %edi
 8053ec4:	56                   	push   %esi
 8053ec5:	53                   	push   %ebx
 8053ec6:	81 ec 2c 01 00 00    	sub    $0x12c,%esp
 8053ecc:	8b 45 08             	mov    0x8(%ebp),%eax
 8053ecf:	65 8b 15 14 00 00 00 	mov    %gs:0x14,%edx
 8053ed6:	89 55 e4             	mov    %edx,-0x1c(%ebp)
 8053ed9:	31 d2                	xor    %edx,%edx
 8053edb:	89 85 44 ff ff ff    	mov    %eax,-0xbc(%ebp)
 8053ee1:	0f b7 40 38          	movzwl 0x38(%eax),%eax
 8053ee5:	89 04 24             	mov    %eax,(%esp)
 8053ee8:	e8 f3 b5 ff ff       	call   804f4e0 <geteuid@plt+0x5d08>
 8053eed:	85 c0                	test   %eax,%eax
 8053eef:	89 c6                	mov    %eax,%esi
 8053ef1:	0f 84 b1 13 00 00    	je     80552a8 <geteuid@plt+0xbad0>
 8053ef7:	8b 85 44 ff ff ff    	mov    -0xbc(%ebp),%eax
 8053efd:	0f bf 40 18          	movswl 0x18(%eax),%eax
 8053f01:	89 85 2c ff ff ff    	mov    %eax,-0xd4(%ebp)
 8053f07:	89 04 24             	mov    %eax,(%esp)
 8053f0a:	e8 51 5b 00 00       	call   8059a60 <geteuid@plt+0x10288>
 8053f0f:	85 c0                	test   %eax,%eax
 8053f11:	89 c3                	mov    %eax,%ebx
 8053f13:	0f 84 a2 13 00 00    	je     80552bb <geteuid@plt+0xbae3>
 8053f19:	8b 95 44 ff ff ff    	mov    -0xbc(%ebp),%edx
 8053f1f:	8b 7b 04             	mov    0x4(%ebx),%edi
 8053f22:	c7 04 24 bc ed 05 08 	movl   $0x805edbc,(%esp)
 8053f29:	83 c2 08             	add    $0x8,%edx
 8053f2c:	89 95 30 ff ff ff    	mov    %edx,-0xd0(%ebp)
 8053f32:	e8 f1 54 ff ff       	call   8049428 <gettext@plt>
 8053f37:	89 7c 24 0c          	mov    %edi,0xc(%esp)
 8053f3b:	8b bd 30 ff ff ff    	mov    -0xd0(%ebp),%edi
 8053f41:	c7 04 24 01 00 00 00 	movl   $0x1,(%esp)
 8053f48:	89 7c 24 08          	mov    %edi,0x8(%esp)
 8053f4c:	89 44 24 04          	mov    %eax,0x4(%esp)
 8053f50:	e8 03 54 ff ff       	call   8049358 <__printf_chk@plt>
 8053f55:	8b 4b 10             	mov    0x10(%ebx),%ecx
 8053f58:	85 c9                	test   %ecx,%ecx
 8053f5a:	74 4b                	je     8053fa7 <geteuid@plt+0xa7cf>
 8053f5c:	8b bd 44 ff ff ff    	mov    -0xbc(%ebp),%edi
 8053f62:	89 1c 24             	mov    %ebx,(%esp)
 8053f65:	81 c7 f8 00 00 00    	add    $0xf8,%edi
 8053f6b:	89 7c 24 04          	mov    %edi,0x4(%esp)
 8053f6f:	e8 ac 57 00 00       	call   8059720 <geteuid@plt+0xff48>
 8053f74:	85 c0                	test   %eax,%eax
 8053f76:	74 07                	je     8053f7f <geteuid@plt+0xa7a7>
 8053f78:	8b 53 1c             	mov    0x1c(%ebx),%edx
 8053f7b:	85 d2                	test   %edx,%edx
 8053f7d:	75 28                	jne    8053fa7 <geteuid@plt+0xa7cf>
 8053f7f:	89 3c 24             	mov    %edi,(%esp)
 8053f82:	ff 53 10             	call   *0x10(%ebx)
 8053f85:	c7 04 24 d1 ed 05 08 	movl   $0x805edd1,(%esp)
 8053f8c:	89 c3                	mov    %eax,%ebx
 8053f8e:	e8 95 54 ff ff       	call   8049428 <gettext@plt>
 8053f93:	89 5c 24 08          	mov    %ebx,0x8(%esp)
 8053f97:	c7 04 24 01 00 00 00 	movl   $0x1,(%esp)
 8053f9e:	89 44 24 04          	mov    %eax,0x4(%esp)
 8053fa2:	e8 b1 53 ff ff       	call   8049358 <__printf_chk@plt>
 8053fa7:	8b 85 44 ff ff ff    	mov    -0xbc(%ebp),%eax
 8053fad:	f6 40 1b 20          	testb  $0x20,0x1b(%eax)
 8053fb1:	0f 85 e9 0a 00 00    	jne    8054aa0 <geteuid@plt+0xb2c8>
 8053fb7:	c7 44 24 04 2d f8 05 	movl   $0x805f82d,0x4(%esp)
 8053fbe:	08 
 8053fbf:	c7 04 24 01 00 00 00 	movl   $0x1,(%esp)
 8053fc6:	e8 8d 53 ff ff       	call   8049358 <__printf_chk@plt>
 8053fcb:	8b bd 44 ff ff ff    	mov    -0xbc(%ebp),%edi
 8053fd1:	8b 87 d8 00 00 00    	mov    0xd8(%edi),%eax
 8053fd7:	85 c0                	test   %eax,%eax
 8053fd9:	0f 85 29 0a 00 00    	jne    8054a08 <geteuid@plt+0xb230>
 8053fdf:	c7 44 24 04 7a bf 05 	movl   $0x805bf7a,0x4(%esp)
 8053fe6:	08 
 8053fe7:	c7 04 24 c6 e3 05 08 	movl   $0x805e3c6,(%esp)
 8053fee:	e8 65 55 ff ff       	call   8049558 <fopen@plt>
 8053ff3:	85 c0                	test   %eax,%eax
 8053ff5:	89 85 38 ff ff ff    	mov    %eax,-0xc8(%ebp)
 8053ffb:	0f 84 ed 01 00 00    	je     80541ee <geteuid@plt+0xaa16>
 8054001:	8d bd 77 ff ff ff    	lea    -0x89(%ebp),%edi
 8054007:	8d b5 72 ff ff ff    	lea    -0x8e(%ebp),%esi
 805400d:	8d 5d d0             	lea    -0x30(%ebp),%ebx
 8054010:	8d 55 80             	lea    -0x80(%ebp),%edx
 8054013:	89 54 24 34          	mov    %edx,0x34(%esp)
 8054017:	8d 55 88             	lea    -0x78(%ebp),%edx
 805401a:	89 54 24 2c          	mov    %edx,0x2c(%esp)
 805401e:	8d 95 6d ff ff ff    	lea    -0x93(%ebp),%edx
 8054024:	89 54 24 1c          	mov    %edx,0x1c(%esp)
 8054028:	8d 95 63 ff ff ff    	lea    -0x9d(%ebp),%edx
 805402e:	8d 45 84             	lea    -0x7c(%ebp),%eax
 8054031:	89 54 24 14          	mov    %edx,0x14(%esp)
 8054035:	8d 95 59 ff ff ff    	lea    -0xa7(%ebp),%edx
 805403b:	89 44 24 30          	mov    %eax,0x30(%esp)
 805403f:	8d 85 7c ff ff ff    	lea    -0x84(%ebp),%eax
 8054045:	89 54 24 0c          	mov    %edx,0xc(%esp)
 8054049:	8b 95 38 ff ff ff    	mov    -0xc8(%ebp),%edx
 805404f:	89 44 24 28          	mov    %eax,0x28(%esp)
 8054053:	8d 85 68 ff ff ff    	lea    -0x98(%ebp),%eax
 8054059:	89 44 24 18          	mov    %eax,0x18(%esp)
 805405d:	8d 85 5e ff ff ff    	lea    -0xa2(%ebp),%eax
 8054063:	89 44 24 10          	mov    %eax,0x10(%esp)
 8054067:	8d 85 54 ff ff ff    	lea    -0xac(%ebp),%eax
 805406d:	89 5c 24 38          	mov    %ebx,0x38(%esp)
 8054071:	89 7c 24 24          	mov    %edi,0x24(%esp)
 8054075:	89 74 24 20          	mov    %esi,0x20(%esp)
 8054079:	89 44 24 08          	mov    %eax,0x8(%esp)
 805407d:	c7 44 24 04 cc f0 05 	movl   $0x805f0cc,0x4(%esp)
 8054084:	08 
 8054085:	89 14 24             	mov    %edx,(%esp)
 8054088:	e8 7b 56 ff ff       	call   8049708 <fscanf@plt>
 805408d:	83 f8 ff             	cmp    $0xffffffff,%eax
 8054090:	0f 84 4a 01 00 00    	je     80541e0 <geteuid@plt+0xaa08>
 8054096:	8b 85 30 ff ff ff    	mov    -0xd0(%ebp),%eax
 805409c:	89 1c 24             	mov    %ebx,(%esp)
 805409f:	89 44 24 04          	mov    %eax,0x4(%esp)
 80540a3:	e8 f0 56 ff ff       	call   8049798 <strcmp@plt>
 80540a8:	85 c0                	test   %eax,%eax
 80540aa:	0f 85 60 ff ff ff    	jne    8054010 <geteuid@plt+0xa838>
 80540b0:	8d 95 6d ff ff ff    	lea    -0x93(%ebp),%edx
 80540b6:	89 54 24 24          	mov    %edx,0x24(%esp)
 80540ba:	8d 85 68 ff ff ff    	lea    -0x98(%ebp),%eax
 80540c0:	8d 95 63 ff ff ff    	lea    -0x9d(%ebp),%edx
 80540c6:	89 44 24 20          	mov    %eax,0x20(%esp)
 80540ca:	8d 85 5e ff ff ff    	lea    -0xa2(%ebp),%eax
 80540d0:	89 54 24 1c          	mov    %edx,0x1c(%esp)
 80540d4:	8d 95 59 ff ff ff    	lea    -0xa7(%ebp),%edx
 80540da:	89 44 24 18          	mov    %eax,0x18(%esp)
 80540de:	8d 85 54 ff ff ff    	lea    -0xac(%ebp),%eax
 80540e4:	89 54 24 14          	mov    %edx,0x14(%esp)
 80540e8:	8d 55 8c             	lea    -0x74(%ebp),%edx
 80540eb:	89 14 24             	mov    %edx,(%esp)
 80540ee:	89 7c 24 2c          	mov    %edi,0x2c(%esp)
 80540f2:	89 74 24 28          	mov    %esi,0x28(%esp)
 80540f6:	89 44 24 10          	mov    %eax,0x10(%esp)
 80540fa:	c7 44 24 0c 24 e4 05 	movl   $0x805e424,0xc(%esp)
 8054101:	08 
 8054102:	c7 44 24 08 28 00 00 	movl   $0x28,0x8(%esp)
 8054109:	00 
 805410a:	c7 44 24 04 01 00 00 	movl   $0x1,0x4(%esp)
 8054111:	00 
 8054112:	e8 01 56 ff ff       	call   8049718 <__sprintf_chk@plt>
 8054117:	8d 55 8c             	lea    -0x74(%ebp),%edx
 805411a:	8d 45 b4             	lea    -0x4c(%ebp),%eax
 805411d:	89 54 24 04          	mov    %edx,0x4(%esp)
 8054121:	89 44 24 08          	mov    %eax,0x8(%esp)
 8054125:	c7 04 24 01 00 00 00 	movl   $0x1,(%esp)
 805412c:	ff 15 58 22 06 08    	call   *0x8062258
 8054132:	8b 55 88             	mov    -0x78(%ebp),%edx
 8054135:	8d 45 b4             	lea    -0x4c(%ebp),%eax
 8054138:	c7 44 24 04 01 00 00 	movl   $0x1,0x4(%esp)
 805413f:	00 
 8054140:	89 04 24             	mov    %eax,(%esp)
 8054143:	89 95 0c ff ff ff    	mov    %edx,-0xf4(%ebp)
 8054149:	ff 15 54 22 06 08    	call   *0x8062254
 805414f:	c7 04 24 23 ee 05 08 	movl   $0x805ee23,(%esp)
 8054156:	89 85 08 ff ff ff    	mov    %eax,-0xf8(%ebp)
 805415c:	e8 c7 52 ff ff       	call   8049428 <gettext@plt>
 8054161:	8b 95 0c ff ff ff    	mov    -0xf4(%ebp),%edx
 8054167:	8b 8d 08 ff ff ff    	mov    -0xf8(%ebp),%ecx
 805416d:	c7 04 24 01 00 00 00 	movl   $0x1,(%esp)
 8054174:	89 54 24 0c          	mov    %edx,0xc(%esp)
 8054178:	89 4c 24 08          	mov    %ecx,0x8(%esp)
 805417c:	89 44 24 04          	mov    %eax,0x4(%esp)
 8054180:	e8 d3 51 ff ff       	call   8049358 <__printf_chk@plt>
 8054185:	c7 04 24 3f ee 05 08 	movl   $0x805ee3f,(%esp)
 805418c:	e8 97 52 ff ff       	call   8049428 <gettext@plt>
 8054191:	c7 04 24 01 00 00 00 	movl   $0x1,(%esp)
 8054198:	89 44 24 04          	mov    %eax,0x4(%esp)
 805419c:	e8 b7 51 ff ff       	call   8049358 <__printf_chk@plt>
 80541a1:	8b 45 84             	mov    -0x7c(%ebp),%eax
 80541a4:	83 f8 20             	cmp    $0x20,%eax
 80541a7:	0f 84 bb 03 00 00    	je     8054568 <geteuid@plt+0xad90>
 80541ad:	0f 8f f5 02 00 00    	jg     80544a8 <geteuid@plt+0xacd0>
 80541b3:	85 c0                	test   %eax,%eax
 80541b5:	0f 85 45 03 00 00    	jne    8054500 <geteuid@plt+0xad28>
 80541bb:	c7 04 24 47 ee 05 08 	movl   $0x805ee47,(%esp)
 80541c2:	e8 61 52 ff ff       	call   8049428 <gettext@plt>
 80541c7:	c7 04 24 01 00 00 00 	movl   $0x1,(%esp)
 80541ce:	89 44 24 04          	mov    %eax,0x4(%esp)
 80541d2:	e8 81 51 ff ff       	call   8049358 <__printf_chk@plt>
 80541d7:	e9 04 03 00 00       	jmp    80544e0 <geteuid@plt+0xad08>
 80541dc:	8d 74 26 00          	lea    0x0(%esi,%eiz,1),%esi
 80541e0:	8b bd 38 ff ff ff    	mov    -0xc8(%ebp),%edi
 80541e6:	89 3c 24             	mov    %edi,(%esp)
 80541e9:	e8 1a 53 ff ff       	call   8049508 <fclose@plt>
 80541ee:	a1 7c 31 06 08       	mov    0x806317c,%eax
 80541f3:	85 c0                	test   %eax,%eax
 80541f5:	0f 84 8e 10 00 00    	je     8055289 <geteuid@plt+0xbab1>
 80541fb:	8b 95 44 ff ff ff    	mov    -0xbc(%ebp),%edx
 8054201:	8b ba dc 00 00 00    	mov    0xdc(%edx),%edi
 8054207:	85 ff                	test   %edi,%edi
 8054209:	0f 85 79 0a 00 00    	jne    8054c88 <geteuid@plt+0xb4b0>
 805420f:	8b bd 44 ff ff ff    	mov    -0xbc(%ebp),%edi
 8054215:	8b b7 e0 00 00 00    	mov    0xe0(%edi),%esi
 805421b:	85 f6                	test   %esi,%esi
 805421d:	0f 85 85 09 00 00    	jne    8054ba8 <geteuid@plt+0xb3d0>
 8054223:	8b 85 44 ff ff ff    	mov    -0xbc(%ebp),%eax
 8054229:	8b 98 e8 00 00 00    	mov    0xe8(%eax),%ebx
 805422f:	85 db                	test   %ebx,%ebx
 8054231:	0f 85 c1 09 00 00    	jne    8054bf8 <geteuid@plt+0xb420>
 8054237:	8b 95 44 ff ff ff    	mov    -0xbc(%ebp),%edx
 805423d:	8b 8a e4 00 00 00    	mov    0xe4(%edx),%ecx
 8054243:	85 c9                	test   %ecx,%ecx
 8054245:	0f 85 fb 09 00 00    	jne    8054c46 <geteuid@plt+0xb46e>
 805424b:	a1 74 31 06 08       	mov    0x8063174,%eax
 8054250:	85 c0                	test   %eax,%eax
 8054252:	0f 84 98 10 00 00    	je     80552f0 <geteuid@plt+0xbb18>
 8054258:	8b bd 44 ff ff ff    	mov    -0xbc(%ebp),%edi
 805425e:	8b 97 f0 00 00 00    	mov    0xf0(%edi),%edx
 8054264:	85 d2                	test   %edx,%edx
 8054266:	0f 85 94 0a 00 00    	jne    8054d00 <geteuid@plt+0xb528>
 805426c:	a1 78 31 06 08       	mov    0x8063178,%eax
 8054271:	85 c0                	test   %eax,%eax
 8054273:	0f 84 55 10 00 00    	je     80552ce <geteuid@plt+0xbaf6>
 8054279:	8b 95 44 ff ff ff    	mov    -0xbc(%ebp),%edx
 805427f:	8b b2 f4 00 00 00    	mov    0xf4(%edx),%esi
 8054285:	85 f6                	test   %esi,%esi
 8054287:	0f 85 33 0a 00 00    	jne    8054cc0 <geteuid@plt+0xb4e8>
 805428d:	c7 44 24 04 a2 ef 05 	movl   $0x805efa2,0x4(%esp)
 8054294:	08 
 8054295:	c7 04 24 01 00 00 00 	movl   $0x1,(%esp)
 805429c:	e8 b7 50 ff ff       	call   8049358 <__printf_chk@plt>
 80542a1:	8b bd 44 ff ff ff    	mov    -0xbc(%ebp),%edi
 80542a7:	0f b7 57 1a          	movzwl 0x1a(%edi),%edx
 80542ab:	66 85 d2             	test   %dx,%dx
 80542ae:	0f 84 2c 07 00 00    	je     80549e0 <geteuid@plt+0xb208>
 80542b4:	0f bf c2             	movswl %dx,%eax
 80542b7:	a8 01                	test   $0x1,%al
 80542b9:	0f 85 f1 06 00 00    	jne    80549b0 <geteuid@plt+0xb1d8>
 80542bf:	a8 02                	test   $0x2,%al
 80542c1:	0f 85 21 05 00 00    	jne    80547e8 <geteuid@plt+0xb010>
 80542c7:	a8 04                	test   $0x4,%al
 80542c9:	0f 85 e9 04 00 00    	jne    80547b8 <geteuid@plt+0xafe0>
 80542cf:	a8 08                	test   $0x8,%al
 80542d1:	0f 85 b1 04 00 00    	jne    8054788 <geteuid@plt+0xafb0>
 80542d7:	a8 10                	test   $0x10,%al
 80542d9:	0f 85 79 04 00 00    	jne    8054758 <geteuid@plt+0xaf80>
 80542df:	a8 20                	test   $0x20,%al
 80542e1:	0f 85 41 04 00 00    	jne    8054728 <geteuid@plt+0xaf50>
 80542e7:	a8 40                	test   $0x40,%al
 80542e9:	0f 85 09 04 00 00    	jne    80546f8 <geteuid@plt+0xaf20>
 80542ef:	84 c0                	test   %al,%al
 80542f1:	0f 88 d1 03 00 00    	js     80546c8 <geteuid@plt+0xaef0>
 80542f7:	f6 c4 01             	test   $0x1,%ah
 80542fa:	0f 85 98 03 00 00    	jne    8054698 <geteuid@plt+0xaec0>
 8054300:	f6 c4 02             	test   $0x2,%ah
 8054303:	0f 85 5f 03 00 00    	jne    8054668 <geteuid@plt+0xae90>
 8054309:	f6 c4 08             	test   $0x8,%ah
 805430c:	8d 74 26 00          	lea    0x0(%esi,%eiz,1),%esi
 8054310:	0f 85 22 03 00 00    	jne    8054638 <geteuid@plt+0xae60>
 8054316:	f6 c4 04             	test   $0x4,%ah
 8054319:	0f 85 e9 02 00 00    	jne    8054608 <geteuid@plt+0xae30>
 805431f:	f6 c4 10             	test   $0x10,%ah
 8054322:	0f 85 90 02 00 00    	jne    80545b8 <geteuid@plt+0xade0>
 8054328:	66 85 d2             	test   %dx,%dx
 805432b:	90                   	nop
 805432c:	8d 74 26 00          	lea    0x0(%esi,%eiz,1),%esi
 8054330:	0f 88 b1 02 00 00    	js     80545e7 <geteuid@plt+0xae0f>
 8054336:	8b 95 44 ff ff ff    	mov    -0xbc(%ebp),%edx
 805433c:	8b 5a 1c             	mov    0x1c(%edx),%ebx
 805433f:	85 db                	test   %ebx,%ebx
 8054341:	75 02                	jne    8054345 <geteuid@plt+0xab6d>
 8054343:	b3 01                	mov    $0x1,%bl
 8054345:	8b bd 44 ff ff ff    	mov    -0xbc(%ebp),%edi
 805434b:	8b 77 20             	mov    0x20(%edi),%esi
 805434e:	c7 04 24 11 ef 05 08 	movl   $0x805ef11,(%esp)
 8054355:	e8 ce 50 ff ff       	call   8049428 <gettext@plt>
 805435a:	89 5c 24 0c          	mov    %ebx,0xc(%esp)
 805435e:	89 74 24 08          	mov    %esi,0x8(%esp)
 8054362:	c7 04 24 01 00 00 00 	movl   $0x1,(%esp)
 8054369:	89 44 24 04          	mov    %eax,0x4(%esp)
 805436d:	e8 e6 4f ff ff       	call   8049358 <__printf_chk@plt>
 8054372:	8b 9f 8c 01 00 00    	mov    0x18c(%edi),%ebx
 8054378:	85 db                	test   %ebx,%ebx
 805437a:	0f 85 f8 00 00 00    	jne    8054478 <geteuid@plt+0xaca0>
 8054380:	8b 85 44 ff ff ff    	mov    -0xbc(%ebp),%eax
 8054386:	8b b0 88 01 00 00    	mov    0x188(%eax),%esi
 805438c:	85 f6                	test   %esi,%esi
 805438e:	0f 85 ea 00 00 00    	jne    805447e <geteuid@plt+0xaca6>
 8054394:	c7 44 24 04 2d f8 05 	movl   $0x805f82d,0x4(%esp)
 805439b:	08 
 805439c:	c7 04 24 01 00 00 00 	movl   $0x1,(%esp)
 80543a3:	e8 b0 4f ff ff       	call   8049358 <__printf_chk@plt>
 80543a8:	8b 95 44 ff ff ff    	mov    -0xbc(%ebp),%edx
 80543ae:	8b 9a 18 01 00 00    	mov    0x118(%edx),%ebx
 80543b4:	85 db                	test   %ebx,%ebx
 80543b6:	0f 85 5c 04 00 00    	jne    8054818 <geteuid@plt+0xb040>
 80543bc:	8b bd 44 ff ff ff    	mov    -0xbc(%ebp),%edi
 80543c2:	80 7f 32 00          	cmpb   $0x0,0x32(%edi)
 80543c6:	75 0b                	jne    80543d3 <geteuid@plt+0xabfb>
 80543c8:	8b 47 28             	mov    0x28(%edi),%eax
 80543cb:	85 c0                	test   %eax,%eax
 80543cd:	0f 84 55 01 00 00    	je     8054528 <geteuid@plt+0xad50>
 80543d3:	c7 44 24 04 a2 ef 05 	movl   $0x805efa2,0x4(%esp)
 80543da:	08 
 80543db:	c7 04 24 01 00 00 00 	movl   $0x1,(%esp)
 80543e2:	e8 71 4f ff ff       	call   8049358 <__printf_chk@plt>
 80543e7:	8b 85 44 ff ff ff    	mov    -0xbc(%ebp),%eax
 80543ed:	0f b6 58 32          	movzbl 0x32(%eax),%ebx
 80543f1:	84 db                	test   %bl,%bl
 80543f3:	0f 85 87 07 00 00    	jne    8054b80 <geteuid@plt+0xb3a8>
 80543f9:	8b 95 44 ff ff ff    	mov    -0xbc(%ebp),%edx
 80543ff:	0f b7 5a 30          	movzwl 0x30(%edx),%ebx
 8054403:	66 81 fb ff 00       	cmp    $0xff,%bx
 8054408:	0f 87 4a 07 00 00    	ja     8054b58 <geteuid@plt+0xb380>
 805440e:	8b bd 44 ff ff ff    	mov    -0xbc(%ebp),%edi
 8054414:	8b 5f 28             	mov    0x28(%edi),%ebx
 8054417:	85 db                	test   %ebx,%ebx
 8054419:	0f 85 09 07 00 00    	jne    8054b28 <geteuid@plt+0xb350>
 805441f:	8b 85 44 ff ff ff    	mov    -0xbc(%ebp),%eax
 8054425:	0f b6 58 33          	movzbl 0x33(%eax),%ebx
 8054429:	84 db                	test   %bl,%bl
 805442b:	0f 85 cf 06 00 00    	jne    8054b00 <geteuid@plt+0xb328>
 8054431:	c7 44 24 04 2d f8 05 	movl   $0x805f82d,0x4(%esp)
 8054438:	08 
 8054439:	c7 04 24 01 00 00 00 	movl   $0x1,(%esp)
 8054440:	e8 13 4f ff ff       	call   8049358 <__printf_chk@plt>
 8054445:	c7 44 24 04 2d f8 05 	movl   $0x805f82d,0x4(%esp)
 805444c:	08 
 805444d:	c7 04 24 01 00 00 00 	movl   $0x1,(%esp)
 8054454:	e8 ff 4e ff ff       	call   8049358 <__printf_chk@plt>
 8054459:	8b 55 e4             	mov    -0x1c(%ebp),%edx
 805445c:	65 33 15 14 00 00 00 	xor    %gs:0x14,%edx
 8054463:	0f 85 b3 0f 00 00    	jne    805541c <geteuid@plt+0xbc44>
 8054469:	81 c4 2c 01 00 00    	add    $0x12c,%esp
 805446f:	5b                   	pop    %ebx
 8054470:	5e                   	pop    %esi
 8054471:	5f                   	pop    %edi
 8054472:	5d                   	pop    %ebp
 8054473:	c3                   	ret    
 8054474:	8d 74 26 00          	lea    0x0(%esi,%eiz,1),%esi
 8054478:	8b b7 88 01 00 00    	mov    0x188(%edi),%esi
 805447e:	c7 04 24 24 ef 05 08 	movl   $0x805ef24,(%esp)
 8054485:	e8 9e 4f ff ff       	call   8049428 <gettext@plt>
 805448a:	89 74 24 0c          	mov    %esi,0xc(%esp)
 805448e:	89 5c 24 08          	mov    %ebx,0x8(%esp)
 8054492:	c7 04 24 01 00 00 00 	movl   $0x1,(%esp)
 8054499:	89 44 24 04          	mov    %eax,0x4(%esp)
 805449d:	e8 b6 4e ff ff       	call   8049358 <__printf_chk@plt>
 80544a2:	e9 ed fe ff ff       	jmp    8054394 <geteuid@plt+0xabbc>
 80544a7:	90                   	nop
 80544a8:	83 f8 40             	cmp    $0x40,%eax
 80544ab:	0f 84 df 00 00 00    	je     8054590 <geteuid@plt+0xadb8>
 80544b1:	83 c0 80             	add    $0xffffff80,%eax
 80544b4:	8d 74 26 00          	lea    0x0(%esi,%eiz,1),%esi
 80544b8:	0f 84 87 00 00 00    	je     8054545 <geteuid@plt+0xad6d>
 80544be:	c7 04 24 64 ee 05 08 	movl   $0x805ee64,(%esp)
 80544c5:	e8 5e 4f ff ff       	call   8049428 <gettext@plt>
 80544ca:	c7 04 24 01 00 00 00 	movl   $0x1,(%esp)
 80544d1:	89 44 24 04          	mov    %eax,0x4(%esp)
 80544d5:	e8 7e 4e ff ff       	call   8049358 <__printf_chk@plt>
 80544da:	8d b6 00 00 00 00    	lea    0x0(%esi),%esi
 80544e0:	c7 44 24 04 2d f8 05 	movl   $0x805f82d,0x4(%esp)
 80544e7:	08 
 80544e8:	c7 04 24 01 00 00 00 	movl   $0x1,(%esp)
 80544ef:	e8 64 4e ff ff       	call   8049358 <__printf_chk@plt>
 80544f4:	e9 17 fb ff ff       	jmp    8054010 <geteuid@plt+0xa838>
 80544f9:	8d b4 26 00 00 00 00 	lea    0x0(%esi,%eiz,1),%esi
 8054500:	83 f8 10             	cmp    $0x10,%eax
 8054503:	75 b9                	jne    80544be <geteuid@plt+0xace6>
 8054505:	c7 04 24 5f ee 05 08 	movl   $0x805ee5f,(%esp)
 805450c:	e8 17 4f ff ff       	call   8049428 <gettext@plt>
 8054511:	c7 04 24 01 00 00 00 	movl   $0x1,(%esp)
 8054518:	89 44 24 04          	mov    %eax,0x4(%esp)
 805451c:	e8 37 4e ff ff       	call   8049358 <__printf_chk@plt>
 8054521:	eb bd                	jmp    80544e0 <geteuid@plt+0xad08>
 8054523:	90                   	nop
 8054524:	8d 74 26 00          	lea    0x0(%esi,%eiz,1),%esi
 8054528:	80 7f 33 00          	cmpb   $0x0,0x33(%edi)
 805452c:	0f 85 a1 fe ff ff    	jne    80543d3 <geteuid@plt+0xabfb>
 8054532:	66 81 7f 30 ff 00    	cmpw   $0xff,0x30(%edi)
 8054538:	0f 87 95 fe ff ff    	ja     80543d3 <geteuid@plt+0xabfb>
 805453e:	66 90                	xchg   %ax,%ax
 8054540:	e9 00 ff ff ff       	jmp    8054445 <geteuid@plt+0xac6d>
 8054545:	c7 04 24 58 ee 05 08 	movl   $0x805ee58,(%esp)
 805454c:	e8 d7 4e ff ff       	call   8049428 <gettext@plt>
 8054551:	c7 04 24 01 00 00 00 	movl   $0x1,(%esp)
 8054558:	89 44 24 04          	mov    %eax,0x4(%esp)
 805455c:	e8 f7 4d ff ff       	call   8049358 <__printf_chk@plt>
 8054561:	e9 7a ff ff ff       	jmp    80544e0 <geteuid@plt+0xad08>
 8054566:	66 90                	xchg   %ax,%ax
 8054568:	c7 04 24 4e ee 05 08 	movl   $0x805ee4e,(%esp)
 805456f:	e8 b4 4e ff ff       	call   8049428 <gettext@plt>
 8054574:	c7 04 24 01 00 00 00 	movl   $0x1,(%esp)
 805457b:	89 44 24 04          	mov    %eax,0x4(%esp)
 805457f:	e8 d4 4d ff ff       	call   8049358 <__printf_chk@plt>
 8054584:	e9 57 ff ff ff       	jmp    80544e0 <geteuid@plt+0xad08>
 8054589:	8d b4 26 00 00 00 00 	lea    0x0(%esi,%eiz,1),%esi
 8054590:	c7 04 24 53 ee 05 08 	movl   $0x805ee53,(%esp)
 8054597:	e8 8c 4e ff ff       	call   8049428 <gettext@plt>
 805459c:	c7 04 24 01 00 00 00 	movl   $0x1,(%esp)
 80545a3:	89 44 24 04          	mov    %eax,0x4(%esp)
 80545a7:	e8 ac 4d ff ff       	call   8049358 <__printf_chk@plt>
 80545ac:	e9 2f ff ff ff       	jmp    80544e0 <geteuid@plt+0xad08>
 80545b1:	8d b4 26 00 00 00 00 	lea    0x0(%esi,%eiz,1),%esi
 80545b8:	c7 04 24 fd ee 05 08 	movl   $0x805eefd,(%esp)
 80545bf:	e8 64 4e ff ff       	call   8049428 <gettext@plt>
 80545c4:	c7 04 24 01 00 00 00 	movl   $0x1,(%esp)
 80545cb:	89 44 24 04          	mov    %eax,0x4(%esp)
 80545cf:	e8 84 4d ff ff       	call   8049358 <__printf_chk@plt>
 80545d4:	8b 85 44 ff ff ff    	mov    -0xbc(%ebp),%eax
 80545da:	0f b7 50 1a          	movzwl 0x1a(%eax),%edx
 80545de:	66 85 d2             	test   %dx,%dx
 80545e1:	0f 89 4f fd ff ff    	jns    8054336 <geteuid@plt+0xab5e>
 80545e7:	c7 04 24 08 ef 05 08 	movl   $0x805ef08,(%esp)
 80545ee:	e8 35 4e ff ff       	call   8049428 <gettext@plt>
 80545f3:	c7 04 24 01 00 00 00 	movl   $0x1,(%esp)
 80545fa:	89 44 24 04          	mov    %eax,0x4(%esp)
 80545fe:	e8 55 4d ff ff       	call   8049358 <__printf_chk@plt>
 8054603:	e9 2e fd ff ff       	jmp    8054336 <geteuid@plt+0xab5e>
 8054608:	c7 04 24 f5 ee 05 08 	movl   $0x805eef5,(%esp)
 805460f:	e8 14 4e ff ff       	call   8049428 <gettext@plt>
 8054614:	c7 04 24 01 00 00 00 	movl   $0x1,(%esp)
 805461b:	89 44 24 04          	mov    %eax,0x4(%esp)
 805461f:	e8 34 4d ff ff       	call   8049358 <__printf_chk@plt>
 8054624:	8b bd 44 ff ff ff    	mov    -0xbc(%ebp),%edi
 805462a:	0f b7 57 1a          	movzwl 0x1a(%edi),%edx
 805462e:	0f bf c2             	movswl %dx,%eax
 8054631:	e9 e9 fc ff ff       	jmp    805431f <geteuid@plt+0xab47>
 8054636:	66 90                	xchg   %ax,%ax
 8054638:	c7 04 24 ee ee 05 08 	movl   $0x805eeee,(%esp)
 805463f:	e8 e4 4d ff ff       	call   8049428 <gettext@plt>
 8054644:	c7 04 24 01 00 00 00 	movl   $0x1,(%esp)
 805464b:	89 44 24 04          	mov    %eax,0x4(%esp)
 805464f:	e8 04 4d ff ff       	call   8049358 <__printf_chk@plt>
 8054654:	8b 85 44 ff ff ff    	mov    -0xbc(%ebp),%eax
 805465a:	0f b7 50 1a          	movzwl 0x1a(%eax),%edx
 805465e:	0f bf c2             	movswl %dx,%eax
 8054661:	e9 b0 fc ff ff       	jmp    8054316 <geteuid@plt+0xab3e>
 8054666:	66 90                	xchg   %ax,%ax
 8054668:	c7 04 24 e4 ee 05 08 	movl   $0x805eee4,(%esp)
 805466f:	e8 b4 4d ff ff       	call   8049428 <gettext@plt>
 8054674:	c7 04 24 01 00 00 00 	movl   $0x1,(%esp)
 805467b:	89 44 24 04          	mov    %eax,0x4(%esp)
 805467f:	e8 d4 4c ff ff       	call   8049358 <__printf_chk@plt>
 8054684:	8b bd 44 ff ff ff    	mov    -0xbc(%ebp),%edi
 805468a:	0f b7 57 1a          	movzwl 0x1a(%edi),%edx
 805468e:	0f bf c2             	movswl %dx,%eax
 8054691:	e9 73 fc ff ff       	jmp    8054309 <geteuid@plt+0xab31>
 8054696:	66 90                	xchg   %ax,%ax
 8054698:	c7 04 24 db ee 05 08 	movl   $0x805eedb,(%esp)
 805469f:	e8 84 4d ff ff       	call   8049428 <gettext@plt>
 80546a4:	c7 04 24 01 00 00 00 	movl   $0x1,(%esp)
 80546ab:	89 44 24 04          	mov    %eax,0x4(%esp)
 80546af:	e8 a4 4c ff ff       	call   8049358 <__printf_chk@plt>
 80546b4:	8b 85 44 ff ff ff    	mov    -0xbc(%ebp),%eax
 80546ba:	0f b7 50 1a          	movzwl 0x1a(%eax),%edx
 80546be:	0f bf c2             	movswl %dx,%eax
 80546c1:	e9 3a fc ff ff       	jmp    8054300 <geteuid@plt+0xab28>
 80546c6:	66 90                	xchg   %ax,%ax
 80546c8:	c7 04 24 d4 ee 05 08 	movl   $0x805eed4,(%esp)
 80546cf:	e8 54 4d ff ff       	call   8049428 <gettext@plt>
 80546d4:	c7 04 24 01 00 00 00 	movl   $0x1,(%esp)
 80546db:	89 44 24 04          	mov    %eax,0x4(%esp)
 80546df:	e8 74 4c ff ff       	call   8049358 <__printf_chk@plt>
 80546e4:	8b bd 44 ff ff ff    	mov    -0xbc(%ebp),%edi
 80546ea:	0f b7 57 1a          	movzwl 0x1a(%edi),%edx
 80546ee:	0f bf c2             	movswl %dx,%eax
 80546f1:	e9 01 fc ff ff       	jmp    80542f7 <geteuid@plt+0xab1f>
 80546f6:	66 90                	xchg   %ax,%ax
 80546f8:	c7 04 24 cb ee 05 08 	movl   $0x805eecb,(%esp)
 80546ff:	e8 24 4d ff ff       	call   8049428 <gettext@plt>
 8054704:	c7 04 24 01 00 00 00 	movl   $0x1,(%esp)
 805470b:	89 44 24 04          	mov    %eax,0x4(%esp)
 805470f:	e8 44 4c ff ff       	call   8049358 <__printf_chk@plt>
 8054714:	8b 85 44 ff ff ff    	mov    -0xbc(%ebp),%eax
 805471a:	0f b7 50 1a          	movzwl 0x1a(%eax),%edx
 805471e:	0f bf c2             	movswl %dx,%eax
 8054721:	e9 c9 fb ff ff       	jmp    80542ef <geteuid@plt+0xab17>
 8054726:	66 90                	xchg   %ax,%ax
 8054728:	c7 04 24 bf ee 05 08 	movl   $0x805eebf,(%esp)
 805472f:	e8 f4 4c ff ff       	call   8049428 <gettext@plt>
 8054734:	c7 04 24 01 00 00 00 	movl   $0x1,(%esp)
 805473b:	89 44 24 04          	mov    %eax,0x4(%esp)
 805473f:	e8 14 4c ff ff       	call   8049358 <__printf_chk@plt>
 8054744:	8b bd 44 ff ff ff    	mov    -0xbc(%ebp),%edi
 805474a:	0f b7 57 1a          	movzwl 0x1a(%edi),%edx
 805474e:	0f bf c2             	movswl %dx,%eax
 8054751:	e9 91 fb ff ff       	jmp    80542e7 <geteuid@plt+0xab0f>
 8054756:	66 90                	xchg   %ax,%ax
 8054758:	c7 04 24 b2 ee 05 08 	movl   $0x805eeb2,(%esp)
 805475f:	e8 c4 4c ff ff       	call   8049428 <gettext@plt>
 8054764:	c7 04 24 01 00 00 00 	movl   $0x1,(%esp)
 805476b:	89 44 24 04          	mov    %eax,0x4(%esp)
 805476f:	e8 e4 4b ff ff       	call   8049358 <__printf_chk@plt>
 8054774:	8b 85 44 ff ff ff    	mov    -0xbc(%ebp),%eax
 805477a:	0f b7 50 1a          	movzwl 0x1a(%eax),%edx
 805477e:	0f bf c2             	movswl %dx,%eax
 8054781:	e9 59 fb ff ff       	jmp    80542df <geteuid@plt+0xab07>
 8054786:	66 90                	xchg   %ax,%ax
 8054788:	c7 04 24 a8 ee 05 08 	movl   $0x805eea8,(%esp)
 805478f:	e8 94 4c ff ff       	call   8049428 <gettext@plt>
 8054794:	c7 04 24 01 00 00 00 	movl   $0x1,(%esp)
 805479b:	89 44 24 04          	mov    %eax,0x4(%esp)
 805479f:	e8 b4 4b ff ff       	call   8049358 <__printf_chk@plt>
 80547a4:	8b bd 44 ff ff ff    	mov    -0xbc(%ebp),%edi
 80547aa:	0f b7 57 1a          	movzwl 0x1a(%edi),%edx
 80547ae:	0f bf c2             	movswl %dx,%eax
 80547b1:	e9 21 fb ff ff       	jmp    80542d7 <geteuid@plt+0xaaff>
 80547b6:	66 90                	xchg   %ax,%ax
 80547b8:	c7 04 24 a1 ee 05 08 	movl   $0x805eea1,(%esp)
 80547bf:	e8 64 4c ff ff       	call   8049428 <gettext@plt>
 80547c4:	c7 04 24 01 00 00 00 	movl   $0x1,(%esp)
 80547cb:	89 44 24 04          	mov    %eax,0x4(%esp)
 80547cf:	e8 84 4b ff ff       	call   8049358 <__printf_chk@plt>
 80547d4:	8b 85 44 ff ff ff    	mov    -0xbc(%ebp),%eax
 80547da:	0f b7 50 1a          	movzwl 0x1a(%eax),%edx
 80547de:	0f bf c2             	movswl %dx,%eax
 80547e1:	e9 e9 fa ff ff       	jmp    80542cf <geteuid@plt+0xaaf7>
 80547e6:	66 90                	xchg   %ax,%ax
 80547e8:	c7 04 24 96 ee 05 08 	movl   $0x805ee96,(%esp)
 80547ef:	e8 34 4c ff ff       	call   8049428 <gettext@plt>
 80547f4:	c7 04 24 01 00 00 00 	movl   $0x1,(%esp)
 80547fb:	89 44 24 04          	mov    %eax,0x4(%esp)
 80547ff:	e8 54 4b ff ff       	call   8049358 <__printf_chk@plt>
 8054804:	8b bd 44 ff ff ff    	mov    -0xbc(%ebp),%edi
 805480a:	0f b7 57 1a          	movzwl 0x1a(%edi),%edx
 805480e:	0f bf c2             	movswl %dx,%eax
 8054811:	e9 b1 fa ff ff       	jmp    80542c7 <geteuid@plt+0xaaef>
 8054816:	66 90                	xchg   %ax,%ax
 8054818:	81 bd 2c ff ff ff 03 	cmpl   $0x103,-0xd4(%ebp)
 805481f:	01 00 00 
 8054822:	c7 44 24 04 a2 ef 05 	movl   $0x805efa2,0x4(%esp)
 8054829:	08 
 805482a:	c7 04 24 01 00 00 00 	movl   $0x1,(%esp)
 8054831:	0f 94 c0             	sete   %al
 8054834:	81 bd 2c ff ff ff 01 	cmpl   $0x101,-0xd4(%ebp)
 805483b:	01 00 00 
 805483e:	0f 94 c2             	sete   %dl
 8054841:	09 d0                	or     %edx,%eax
 8054843:	0f b6 c0             	movzbl %al,%eax
 8054846:	89 85 24 ff ff ff    	mov    %eax,-0xdc(%ebp)
 805484c:	e8 07 4b ff ff       	call   8049358 <__printf_chk@plt>
 8054851:	8b 85 44 ff ff ff    	mov    -0xbc(%ebp),%eax
 8054857:	8b 90 6c 01 00 00    	mov    0x16c(%eax),%edx
 805485d:	8b 88 44 01 00 00    	mov    0x144(%eax),%ecx
 8054863:	8b b8 68 01 00 00    	mov    0x168(%eax),%edi
 8054869:	8b 80 3c 01 00 00    	mov    0x13c(%eax),%eax
 805486f:	89 95 0c ff ff ff    	mov    %edx,-0xf4(%ebp)
 8054875:	89 8d 08 ff ff ff    	mov    %ecx,-0xf8(%ebp)
 805487b:	89 85 38 ff ff ff    	mov    %eax,-0xc8(%ebp)
 8054881:	8b 85 44 ff ff ff    	mov    -0xbc(%ebp),%eax
 8054887:	8b 98 1c 01 00 00    	mov    0x11c(%eax),%ebx
 805488d:	8b b0 20 01 00 00    	mov    0x120(%eax),%esi
 8054893:	c7 04 24 c4 f1 05 08 	movl   $0x805f1c4,(%esp)
 805489a:	e8 89 4b ff ff       	call   8049428 <gettext@plt>
 805489f:	8b 95 0c ff ff ff    	mov    -0xf4(%ebp),%edx
 80548a5:	8b 8d 08 ff ff ff    	mov    -0xf8(%ebp),%ecx
 80548ab:	89 7c 24 1c          	mov    %edi,0x1c(%esp)
 80548af:	89 5c 24 08          	mov    %ebx,0x8(%esp)
 80548b3:	89 54 24 18          	mov    %edx,0x18(%esp)
 80548b7:	8b 95 38 ff ff ff    	mov    -0xc8(%ebp),%edx
 80548bd:	89 4c 24 14          	mov    %ecx,0x14(%esp)
 80548c1:	89 74 24 0c          	mov    %esi,0xc(%esp)
 80548c5:	89 44 24 04          	mov    %eax,0x4(%esp)
 80548c9:	89 54 24 10          	mov    %edx,0x10(%esp)
 80548cd:	c7 04 24 01 00 00 00 	movl   $0x1,(%esp)
 80548d4:	e8 7f 4a ff ff       	call   8049358 <__printf_chk@plt>
 80548d9:	8b 8d 24 ff ff ff    	mov    -0xdc(%ebp),%ecx
 80548df:	85 c9                	test   %ecx,%ecx
 80548e1:	0f 85 c3 07 00 00    	jne    80550aa <geteuid@plt+0xb8d2>
 80548e7:	8b 85 44 ff ff ff    	mov    -0xbc(%ebp),%eax
 80548ed:	b9 0a 00 00 00       	mov    $0xa,%ecx
 80548f2:	8b 95 44 ff ff ff    	mov    -0xbc(%ebp),%edx
 80548f8:	8b 80 2c 01 00 00    	mov    0x12c(%eax),%eax
 80548fe:	8b b2 30 01 00 00    	mov    0x130(%edx),%esi
 8054904:	8b ba 34 01 00 00    	mov    0x134(%edx),%edi
 805490a:	8b 9a 38 01 00 00    	mov    0x138(%edx),%ebx
 8054910:	89 85 28 ff ff ff    	mov    %eax,-0xd8(%ebp)
 8054916:	f7 e1                	mul    %ecx
 8054918:	89 bd 2c ff ff ff    	mov    %edi,-0xd4(%ebp)
 805491e:	6b fe 0a             	imul   $0xa,%esi,%edi
 8054921:	89 85 30 ff ff ff    	mov    %eax,-0xd0(%ebp)
 8054927:	8b 85 2c ff ff ff    	mov    -0xd4(%ebp),%eax
 805492d:	01 fa                	add    %edi,%edx
 805492f:	89 95 34 ff ff ff    	mov    %edx,-0xcc(%ebp)
 8054935:	6b fb 0a             	imul   $0xa,%ebx,%edi
 8054938:	f7 e1                	mul    %ecx
 805493a:	01 fa                	add    %edi,%edx
 805493c:	81 fe 7e 8d 03 00    	cmp    $0x38d7e,%esi
 8054942:	89 85 38 ff ff ff    	mov    %eax,-0xc8(%ebp)
 8054948:	89 95 3c ff ff ff    	mov    %edx,-0xc4(%ebp)
 805494e:	0f 83 e9 03 00 00    	jae    8054d3d <geteuid@plt+0xb565>
 8054954:	81 fe e8 00 00 00    	cmp    $0xe8,%esi
 805495a:	0f 82 a3 08 00 00    	jb     8055203 <geteuid@plt+0xba2b>
 8054960:	0f 86 8d 08 00 00    	jbe    80551f3 <geteuid@plt+0xba1b>
 8054966:	8b 85 30 ff ff ff    	mov    -0xd0(%ebp),%eax
 805496c:	8b 95 34 ff ff ff    	mov    -0xcc(%ebp),%edx
 8054972:	c7 44 24 08 00 10 a5 	movl   $0xd4a51000,0x8(%esp)
 8054979:	d4 
 805497a:	c7 44 24 0c e8 00 00 	movl   $0xe8,0xc(%esp)
 8054981:	00 
 8054982:	89 04 24             	mov    %eax,(%esp)
 8054985:	89 54 24 04          	mov    %edx,0x4(%esp)
 8054989:	e8 82 5e 00 00       	call   805a810 <geteuid@plt+0x11038>
 805498e:	c7 85 10 ff ff ff 5c 	movl   $0x805ef5c,-0xf0(%ebp)
 8054995:	ef 05 08 
 8054998:	89 85 30 ff ff ff    	mov    %eax,-0xd0(%ebp)
 805499e:	89 95 34 ff ff ff    	mov    %edx,-0xcc(%ebp)
 80549a4:	e9 e4 03 00 00       	jmp    8054d8d <geteuid@plt+0xb5b5>
 80549a9:	8d b4 26 00 00 00 00 	lea    0x0(%esi,%eiz,1),%esi
 80549b0:	c7 04 24 92 ee 05 08 	movl   $0x805ee92,(%esp)
 80549b7:	e8 6c 4a ff ff       	call   8049428 <gettext@plt>
 80549bc:	c7 04 24 01 00 00 00 	movl   $0x1,(%esp)
 80549c3:	89 44 24 04          	mov    %eax,0x4(%esp)
 80549c7:	e8 8c 49 ff ff       	call   8049358 <__printf_chk@plt>
 80549cc:	8b 85 44 ff ff ff    	mov    -0xbc(%ebp),%eax
 80549d2:	0f b7 50 1a          	movzwl 0x1a(%eax),%edx
 80549d6:	0f bf c2             	movswl %dx,%eax
 80549d9:	e9 e1 f8 ff ff       	jmp    80542bf <geteuid@plt+0xaae7>
 80549de:	66 90                	xchg   %ax,%ax
 80549e0:	c7 04 24 86 ee 05 08 	movl   $0x805ee86,(%esp)
 80549e7:	e8 3c 4a ff ff       	call   8049428 <gettext@plt>
 80549ec:	c7 04 24 01 00 00 00 	movl   $0x1,(%esp)
 80549f3:	89 44 24 04          	mov    %eax,0x4(%esp)
 80549f7:	e8 5c 49 ff ff       	call   8049358 <__printf_chk@plt>
 80549fc:	0f b7 57 1a          	movzwl 0x1a(%edi),%edx
 8054a00:	e9 af f8 ff ff       	jmp    80542b4 <geteuid@plt+0xaadc>
 8054a05:	8d 76 00             	lea    0x0(%esi),%esi
 8054a08:	89 f8                	mov    %edi,%eax
 8054a0a:	83 c0 38             	add    $0x38,%eax
 8054a0d:	c7 44 24 04 01 00 00 	movl   $0x1,0x4(%esp)
 8054a14:	00 
 8054a15:	89 04 24             	mov    %eax,(%esp)
 8054a18:	ff 56 14             	call   *0x14(%esi)
 8054a1b:	8b 3e                	mov    (%esi),%edi
 8054a1d:	c7 04 24 ed ed 05 08 	movl   $0x805eded,(%esp)
 8054a24:	89 c3                	mov    %eax,%ebx
 8054a26:	e8 fd 49 ff ff       	call   8049428 <gettext@plt>
 8054a2b:	89 5c 24 0c          	mov    %ebx,0xc(%esp)
 8054a2f:	89 7c 24 08          	mov    %edi,0x8(%esp)
 8054a33:	c7 04 24 01 00 00 00 	movl   $0x1,(%esp)
 8054a3a:	89 44 24 04          	mov    %eax,0x4(%esp)
 8054a3e:	e8 15 49 ff ff       	call   8049358 <__printf_chk@plt>
 8054a43:	8b 95 44 ff ff ff    	mov    -0xbc(%ebp),%edx
 8054a49:	0f bf 42 1a          	movswl 0x1a(%edx),%eax
 8054a4d:	a8 10                	test   $0x10,%al
 8054a4f:	0f 85 c4 06 00 00    	jne    8055119 <geteuid@plt+0xb941>
 8054a55:	a8 02                	test   $0x2,%al
 8054a57:	0f 85 7e 06 00 00    	jne    80550db <geteuid@plt+0xb903>
 8054a5d:	8b 85 44 ff ff ff    	mov    -0xbc(%ebp),%eax
 8054a63:	c7 44 24 04 01 00 00 	movl   $0x1,0x4(%esp)
 8054a6a:	00 
 8054a6b:	83 c0 68             	add    $0x68,%eax
 8054a6e:	89 04 24             	mov    %eax,(%esp)
 8054a71:	ff 56 14             	call   *0x14(%esi)
 8054a74:	c7 04 24 19 ee 05 08 	movl   $0x805ee19,(%esp)
 8054a7b:	89 c3                	mov    %eax,%ebx
 8054a7d:	e8 a6 49 ff ff       	call   8049428 <gettext@plt>
 8054a82:	89 5c 24 08          	mov    %ebx,0x8(%esp)
 8054a86:	c7 04 24 01 00 00 00 	movl   $0x1,(%esp)
 8054a8d:	89 44 24 04          	mov    %eax,0x4(%esp)
 8054a91:	e8 c2 48 ff ff       	call   8049358 <__printf_chk@plt>
 8054a96:	e9 44 f5 ff ff       	jmp    8053fdf <geteuid@plt+0xa807>
 8054a9b:	90                   	nop
 8054a9c:	8d 74 26 00          	lea    0x0(%esi,%eiz,1),%esi
 8054aa0:	0f b6 40 34          	movzbl 0x34(%eax),%eax
 8054aa4:	c7 04 24 dd ed 05 08 	movl   $0x805eddd,(%esp)
 8054aab:	c1 e0 04             	shl    $0x4,%eax
 8054aae:	8b 98 80 22 06 08    	mov    0x8062280(%eax),%ebx
 8054ab4:	e8 6f 49 ff ff       	call   8049428 <gettext@plt>
 8054ab9:	c7 04 24 01 00 00 00 	movl   $0x1,(%esp)
 8054ac0:	89 5c 24 08          	mov    %ebx,0x8(%esp)
 8054ac4:	89 44 24 04          	mov    %eax,0x4(%esp)
 8054ac8:	e8 8b 48 ff ff       	call   8049358 <__printf_chk@plt>
 8054acd:	8b 95 44 ff ff ff    	mov    -0xbc(%ebp),%edx
 8054ad3:	f6 42 1b 40          	testb  $0x40,0x1b(%edx)
 8054ad7:	0f 84 da f4 ff ff    	je     8053fb7 <geteuid@plt+0xa7df>
 8054add:	c7 04 24 e6 ed 05 08 	movl   $0x805ede6,(%esp)
 8054ae4:	e8 3f 49 ff ff       	call   8049428 <gettext@plt>
 8054ae9:	c7 04 24 01 00 00 00 	movl   $0x1,(%esp)
 8054af0:	89 44 24 04          	mov    %eax,0x4(%esp)
 8054af4:	e8 5f 48 ff ff       	call   8049358 <__printf_chk@plt>
 8054af9:	e9 b9 f4 ff ff       	jmp    8053fb7 <geteuid@plt+0xa7df>
 8054afe:	66 90                	xchg   %ax,%ax
 8054b00:	c7 04 24 de ef 05 08 	movl   $0x805efde,(%esp)
 8054b07:	0f b6 db             	movzbl %bl,%ebx
 8054b0a:	e8 19 49 ff ff       	call   8049428 <gettext@plt>
 8054b0f:	89 5c 24 08          	mov    %ebx,0x8(%esp)
 8054b13:	c7 04 24 01 00 00 00 	movl   $0x1,(%esp)
 8054b1a:	89 44 24 04          	mov    %eax,0x4(%esp)
 8054b1e:	e8 35 48 ff ff       	call   8049358 <__printf_chk@plt>
 8054b23:	e9 09 f9 ff ff       	jmp    8054431 <geteuid@plt+0xac59>
 8054b28:	8b 77 2c             	mov    0x2c(%edi),%esi
 8054b2b:	c7 04 24 ce ef 05 08 	movl   $0x805efce,(%esp)
 8054b32:	e8 f1 48 ff ff       	call   8049428 <gettext@plt>
 8054b37:	89 5c 24 08          	mov    %ebx,0x8(%esp)
 8054b3b:	89 74 24 0c          	mov    %esi,0xc(%esp)
 8054b3f:	c7 04 24 01 00 00 00 	movl   $0x1,(%esp)
 8054b46:	89 44 24 04          	mov    %eax,0x4(%esp)
 8054b4a:	e8 09 48 ff ff       	call   8049358 <__printf_chk@plt>
 8054b4f:	e9 cb f8 ff ff       	jmp    805441f <geteuid@plt+0xac47>
 8054b54:	8d 74 26 00          	lea    0x0(%esi,%eiz,1),%esi
 8054b58:	c7 04 24 bb ef 05 08 	movl   $0x805efbb,(%esp)
 8054b5f:	0f b7 db             	movzwl %bx,%ebx
 8054b62:	e8 c1 48 ff ff       	call   8049428 <gettext@plt>
 8054b67:	89 5c 24 08          	mov    %ebx,0x8(%esp)
 8054b6b:	c7 04 24 01 00 00 00 	movl   $0x1,(%esp)
 8054b72:	89 44 24 04          	mov    %eax,0x4(%esp)
 8054b76:	e8 dd 47 ff ff       	call   8049358 <__printf_chk@plt>
 8054b7b:	e9 8e f8 ff ff       	jmp    805440e <geteuid@plt+0xac36>
 8054b80:	c7 04 24 ad ef 05 08 	movl   $0x805efad,(%esp)
 8054b87:	0f b6 db             	movzbl %bl,%ebx
 8054b8a:	e8 99 48 ff ff       	call   8049428 <gettext@plt>
 8054b8f:	89 5c 24 08          	mov    %ebx,0x8(%esp)
 8054b93:	c7 04 24 01 00 00 00 	movl   $0x1,(%esp)
 8054b9a:	89 44 24 04          	mov    %eax,0x4(%esp)
 8054b9e:	e8 b5 47 ff ff       	call   8049358 <__printf_chk@plt>
 8054ba3:	e9 51 f8 ff ff       	jmp    80543f9 <geteuid@plt+0xac21>
 8054ba8:	89 f8                	mov    %edi,%eax
 8054baa:	05 88 00 00 00       	add    $0x88,%eax
 8054baf:	89 04 24             	mov    %eax,(%esp)
 8054bb2:	a1 7c 31 06 08       	mov    0x806317c,%eax
 8054bb7:	c7 44 24 04 01 00 00 	movl   $0x1,0x4(%esp)
 8054bbe:	00 
 8054bbf:	ff 50 14             	call   *0x14(%eax)
 8054bc2:	c7 04 24 24 f1 05 08 	movl   $0x805f124,(%esp)
 8054bc9:	89 c3                	mov    %eax,%ebx
 8054bcb:	e8 58 48 ff ff       	call   8049428 <gettext@plt>
 8054bd0:	89 5c 24 08          	mov    %ebx,0x8(%esp)
 8054bd4:	c7 04 24 01 00 00 00 	movl   $0x1,(%esp)
 8054bdb:	89 44 24 04          	mov    %eax,0x4(%esp)
 8054bdf:	e8 74 47 ff ff       	call   8049358 <__printf_chk@plt>
 8054be4:	8b 85 44 ff ff ff    	mov    -0xbc(%ebp),%eax
 8054bea:	8b 98 e8 00 00 00    	mov    0xe8(%eax),%ebx
 8054bf0:	85 db                	test   %ebx,%ebx
 8054bf2:	0f 84 3f f6 ff ff    	je     8054237 <geteuid@plt+0xaa5f>
 8054bf8:	05 a8 00 00 00       	add    $0xa8,%eax
 8054bfd:	89 04 24             	mov    %eax,(%esp)
 8054c00:	a1 7c 31 06 08       	mov    0x806317c,%eax
 8054c05:	c7 44 24 04 01 00 00 	movl   $0x1,0x4(%esp)
 8054c0c:	00 
 8054c0d:	ff 50 14             	call   *0x14(%eax)
 8054c10:	c7 04 24 4c f1 05 08 	movl   $0x805f14c,(%esp)
 8054c17:	89 c3                	mov    %eax,%ebx
 8054c19:	e8 0a 48 ff ff       	call   8049428 <gettext@plt>
 8054c1e:	89 5c 24 08          	mov    %ebx,0x8(%esp)
 8054c22:	c7 04 24 01 00 00 00 	movl   $0x1,(%esp)
 8054c29:	89 44 24 04          	mov    %eax,0x4(%esp)
 8054c2d:	e8 26 47 ff ff       	call   8049358 <__printf_chk@plt>
 8054c32:	8b 95 44 ff ff ff    	mov    -0xbc(%ebp),%edx
 8054c38:	8b 8a e4 00 00 00    	mov    0xe4(%edx),%ecx
 8054c3e:	85 c9                	test   %ecx,%ecx
 8054c40:	0f 84 05 f6 ff ff    	je     805424b <geteuid@plt+0xaa73>
 8054c46:	89 d0                	mov    %edx,%eax
 8054c48:	05 98 00 00 00       	add    $0x98,%eax
 8054c4d:	89 04 24             	mov    %eax,(%esp)
 8054c50:	a1 7c 31 06 08       	mov    0x806317c,%eax
 8054c55:	c7 44 24 04 01 00 00 	movl   $0x1,0x4(%esp)
 8054c5c:	00 
 8054c5d:	ff 50 14             	call   *0x14(%eax)
 8054c60:	c7 04 24 74 f1 05 08 	movl   $0x805f174,(%esp)
 8054c67:	89 c3                	mov    %eax,%ebx
 8054c69:	e8 ba 47 ff ff       	call   8049428 <gettext@plt>
 8054c6e:	89 5c 24 08          	mov    %ebx,0x8(%esp)
 8054c72:	c7 04 24 01 00 00 00 	movl   $0x1,(%esp)
 8054c79:	89 44 24 04          	mov    %eax,0x4(%esp)
 8054c7d:	e8 d6 46 ff ff       	call   8049358 <__printf_chk@plt>
 8054c82:	e9 c4 f5 ff ff       	jmp    805424b <geteuid@plt+0xaa73>
 8054c87:	90                   	nop
 8054c88:	83 c2 78             	add    $0x78,%edx
 8054c8b:	89 14 24             	mov    %edx,(%esp)
 8054c8e:	c7 44 24 04 01 00 00 	movl   $0x1,0x4(%esp)
 8054c95:	00 
 8054c96:	ff 50 14             	call   *0x14(%eax)
 8054c99:	c7 04 24 00 f1 05 08 	movl   $0x805f100,(%esp)
 8054ca0:	89 c3                	mov    %eax,%ebx
 8054ca2:	e8 81 47 ff ff       	call   8049428 <gettext@plt>
 8054ca7:	89 5c 24 08          	mov    %ebx,0x8(%esp)
 8054cab:	c7 04 24 01 00 00 00 	movl   $0x1,(%esp)
 8054cb2:	89 44 24 04          	mov    %eax,0x4(%esp)
 8054cb6:	e8 9d 46 ff ff       	call   8049358 <__printf_chk@plt>
 8054cbb:	e9 4f f5 ff ff       	jmp    805420f <geteuid@plt+0xaa37>
 8054cc0:	81 c2 c8 00 00 00    	add    $0xc8,%edx
 8054cc6:	89 14 24             	mov    %edx,(%esp)
 8054cc9:	c7 44 24 04 01 00 00 	movl   $0x1,0x4(%esp)
 8054cd0:	00 
 8054cd1:	ff 50 14             	call   *0x14(%eax)
 8054cd4:	c7 04 24 6c ee 05 08 	movl   $0x805ee6c,(%esp)
 8054cdb:	89 c3                	mov    %eax,%ebx
 8054cdd:	e8 46 47 ff ff       	call   8049428 <gettext@plt>
 8054ce2:	89 5c 24 08          	mov    %ebx,0x8(%esp)
 8054ce6:	c7 04 24 01 00 00 00 	movl   $0x1,(%esp)
 8054ced:	89 44 24 04          	mov    %eax,0x4(%esp)
 8054cf1:	e8 62 46 ff ff       	call   8049358 <__printf_chk@plt>
 8054cf6:	e9 92 f5 ff ff       	jmp    805428d <geteuid@plt+0xaab5>
 8054cfb:	90                   	nop
 8054cfc:	8d 74 26 00          	lea    0x0(%esi,%eiz,1),%esi
 8054d00:	89 fa                	mov    %edi,%edx
 8054d02:	81 c2 b8 00 00 00    	add    $0xb8,%edx
 8054d08:	89 14 24             	mov    %edx,(%esp)
 8054d0b:	c7 44 24 04 01 00 00 	movl   $0x1,0x4(%esp)
 8054d12:	00 
 8054d13:	ff 50 14             	call   *0x14(%eax)
 8054d16:	c7 04 24 9c f1 05 08 	movl   $0x805f19c,(%esp)
 8054d1d:	89 c3                	mov    %eax,%ebx
 8054d1f:	e8 04 47 ff ff       	call   8049428 <gettext@plt>
 8054d24:	89 5c 24 08          	mov    %ebx,0x8(%esp)
 8054d28:	c7 04 24 01 00 00 00 	movl   $0x1,(%esp)
 8054d2f:	89 44 24 04          	mov    %eax,0x4(%esp)
 8054d33:	e8 20 46 ff ff       	call   8049358 <__printf_chk@plt>
 8054d38:	e9 2f f5 ff ff       	jmp    805426c <geteuid@plt+0xaa94>
 8054d3d:	77 10                	ja     8054d4f <geteuid@plt+0xb577>
 8054d3f:	81 bd 28 ff ff ff 00 	cmpl   $0xa4c68000,-0xd8(%ebp)
 8054d46:	80 c6 a4 
 8054d49:	0f 86 05 fc ff ff    	jbe    8054954 <geteuid@plt+0xb17c>
 8054d4f:	8b 85 30 ff ff ff    	mov    -0xd0(%ebp),%eax
 8054d55:	8b 95 34 ff ff ff    	mov    -0xcc(%ebp),%edx
 8054d5b:	c7 44 24 08 00 80 c6 	movl   $0xa4c68000,0x8(%esp)
 8054d62:	a4 
 8054d63:	c7 44 24 0c 7e 8d 03 	movl   $0x38d7e,0xc(%esp)
 8054d6a:	00 
 8054d6b:	89 04 24             	mov    %eax,(%esp)
 8054d6e:	89 54 24 04          	mov    %edx,0x4(%esp)
 8054d72:	e8 99 5a 00 00       	call   805a810 <geteuid@plt+0x11038>
 8054d77:	c7 85 10 ff ff ff e2 	movl   $0x805fce2,-0xf0(%ebp)
 8054d7e:	fc 05 08 
 8054d81:	89 85 30 ff ff ff    	mov    %eax,-0xd0(%ebp)
 8054d87:	89 95 34 ff ff ff    	mov    %edx,-0xcc(%ebp)
 8054d8d:	81 fb 7e 8d 03 00    	cmp    $0x38d7e,%ebx
 8054d93:	0f 82 89 02 00 00    	jb     8055022 <geteuid@plt+0xb84a>
 8054d99:	77 10                	ja     8054dab <geteuid@plt+0xb5d3>
 8054d9b:	81 bd 2c ff ff ff 00 	cmpl   $0xa4c68000,-0xd4(%ebp)
 8054da2:	80 c6 a4 
 8054da5:	0f 86 77 02 00 00    	jbe    8055022 <geteuid@plt+0xb84a>
 8054dab:	8b 85 38 ff ff ff    	mov    -0xc8(%ebp),%eax
 8054db1:	8b 95 3c ff ff ff    	mov    -0xc4(%ebp),%edx
 8054db7:	c7 44 24 08 00 80 c6 	movl   $0xa4c68000,0x8(%esp)
 8054dbe:	a4 
 8054dbf:	c7 44 24 0c 7e 8d 03 	movl   $0x38d7e,0xc(%esp)
 8054dc6:	00 
 8054dc7:	89 04 24             	mov    %eax,(%esp)
 8054dca:	89 54 24 04          	mov    %edx,0x4(%esp)
 8054dce:	e8 3d 5a 00 00       	call   805a810 <geteuid@plt+0x11038>
 8054dd3:	c7 85 14 ff ff ff e2 	movl   $0x805fce2,-0xec(%ebp)
 8054dda:	fc 05 08 
 8054ddd:	89 85 38 ff ff ff    	mov    %eax,-0xc8(%ebp)
 8054de3:	89 95 3c ff ff ff    	mov    %edx,-0xc4(%ebp)
 8054de9:	c7 44 24 04 a2 ef 05 	movl   $0x805efa2,0x4(%esp)
 8054df0:	08 
 8054df1:	c7 04 24 01 00 00 00 	movl   $0x1,(%esp)
 8054df8:	e8 5b 45 ff ff       	call   8049358 <__printf_chk@plt>
 8054dfd:	8b 95 44 ff ff ff    	mov    -0xbc(%ebp),%edx
 8054e03:	8b 82 7c 01 00 00    	mov    0x17c(%edx),%eax
 8054e09:	8b ba 78 01 00 00    	mov    0x178(%edx),%edi
 8054e0f:	8b 92 48 01 00 00    	mov    0x148(%edx),%edx
 8054e15:	89 85 18 ff ff ff    	mov    %eax,-0xe8(%ebp)
 8054e1b:	8b 85 44 ff ff ff    	mov    -0xbc(%ebp),%eax
 8054e21:	89 95 1c ff ff ff    	mov    %edx,-0xe4(%ebp)
 8054e27:	8b 80 40 01 00 00    	mov    0x140(%eax),%eax
 8054e2d:	89 85 20 ff ff ff    	mov    %eax,-0xe0(%ebp)
 8054e33:	8b 85 44 ff ff ff    	mov    -0xbc(%ebp),%eax
 8054e39:	8b 90 24 01 00 00    	mov    0x124(%eax),%edx
 8054e3f:	8b 88 28 01 00 00    	mov    0x128(%eax),%ecx
 8054e45:	c7 04 24 04 f2 05 08 	movl   $0x805f204,(%esp)
 8054e4c:	89 95 0c ff ff ff    	mov    %edx,-0xf4(%ebp)
 8054e52:	89 8d 08 ff ff ff    	mov    %ecx,-0xf8(%ebp)
 8054e58:	e8 cb 45 ff ff       	call   8049428 <gettext@plt>
 8054e5d:	8b 95 0c ff ff ff    	mov    -0xf4(%ebp),%edx
 8054e63:	89 7c 24 1c          	mov    %edi,0x1c(%esp)
 8054e67:	8b bd 18 ff ff ff    	mov    -0xe8(%ebp),%edi
 8054e6d:	8b 8d 08 ff ff ff    	mov    -0xf8(%ebp),%ecx
 8054e73:	c7 04 24 01 00 00 00 	movl   $0x1,(%esp)
 8054e7a:	89 54 24 08          	mov    %edx,0x8(%esp)
 8054e7e:	89 7c 24 18          	mov    %edi,0x18(%esp)
 8054e82:	8b bd 1c ff ff ff    	mov    -0xe4(%ebp),%edi
 8054e88:	89 4c 24 0c          	mov    %ecx,0xc(%esp)
 8054e8c:	89 44 24 04          	mov    %eax,0x4(%esp)
 8054e90:	89 7c 24 14          	mov    %edi,0x14(%esp)
 8054e94:	8b bd 20 ff ff ff    	mov    -0xe0(%ebp),%edi
 8054e9a:	89 7c 24 10          	mov    %edi,0x10(%esp)
 8054e9e:	e8 b5 44 ff ff       	call   8049358 <__printf_chk@plt>
 8054ea3:	8b 85 44 ff ff ff    	mov    -0xbc(%ebp),%eax
 8054ea9:	8b b8 58 01 00 00    	mov    0x158(%eax),%edi
 8054eaf:	c7 04 24 68 ef 05 08 	movl   $0x805ef68,(%esp)
 8054eb6:	e8 6d 45 ff ff       	call   8049428 <gettext@plt>
 8054ebb:	c7 04 24 01 00 00 00 	movl   $0x1,(%esp)
 8054ec2:	89 7c 24 08          	mov    %edi,0x8(%esp)
 8054ec6:	89 44 24 04          	mov    %eax,0x4(%esp)
 8054eca:	e8 89 44 ff ff       	call   8049358 <__printf_chk@plt>
 8054ecf:	8b 95 24 ff ff ff    	mov    -0xdc(%ebp),%edx
 8054ed5:	85 d2                	test   %edx,%edx
 8054ed7:	0f 85 9c 01 00 00    	jne    8055079 <geteuid@plt+0xb8a1>
 8054edd:	8b 85 44 ff ff ff    	mov    -0xbc(%ebp),%eax
 8054ee3:	8b 78 24             	mov    0x24(%eax),%edi
 8054ee6:	83 ff ff             	cmp    $0xffffffff,%edi
 8054ee9:	74 20                	je     8054f0b <geteuid@plt+0xb733>
 8054eeb:	c7 04 24 92 ef 05 08 	movl   $0x805ef92,(%esp)
 8054ef2:	e8 31 45 ff ff       	call   8049428 <gettext@plt>
 8054ef7:	89 7c 24 08          	mov    %edi,0x8(%esp)
 8054efb:	c7 04 24 01 00 00 00 	movl   $0x1,(%esp)
 8054f02:	89 44 24 04          	mov    %eax,0x4(%esp)
 8054f06:	e8 4d 44 ff ff       	call   8049358 <__printf_chk@plt>
 8054f0b:	c7 44 24 04 a1 ef 05 	movl   $0x805efa1,0x4(%esp)
 8054f12:	08 
 8054f13:	c7 04 24 01 00 00 00 	movl   $0x1,(%esp)
 8054f1a:	e8 39 44 ff ff       	call   8049358 <__printf_chk@plt>
 8054f1f:	c7 04 24 48 f2 05 08 	movl   $0x805f248,(%esp)
 8054f26:	e8 fd 44 ff ff       	call   8049428 <gettext@plt>
 8054f2b:	8b 95 14 ff ff ff    	mov    -0xec(%ebp),%edx
 8054f31:	c7 44 24 08 0a 00 00 	movl   $0xa,0x8(%esp)
 8054f38:	00 
 8054f39:	c7 44 24 0c 00 00 00 	movl   $0x0,0xc(%esp)
 8054f40:	00 
 8054f41:	89 54 24 2c          	mov    %edx,0x2c(%esp)
 8054f45:	8b 95 3c ff ff ff    	mov    -0xc4(%ebp),%edx
 8054f4b:	89 c7                	mov    %eax,%edi
 8054f4d:	8b 85 38 ff ff ff    	mov    -0xc8(%ebp),%eax
 8054f53:	89 54 24 04          	mov    %edx,0x4(%esp)
 8054f57:	89 04 24             	mov    %eax,(%esp)
 8054f5a:	e8 e1 59 00 00       	call   805a940 <geteuid@plt+0x11168>
 8054f5f:	8b 95 3c ff ff ff    	mov    -0xc4(%ebp),%edx
 8054f65:	c7 44 24 08 0a 00 00 	movl   $0xa,0x8(%esp)
 8054f6c:	00 
 8054f6d:	c7 44 24 0c 00 00 00 	movl   $0x0,0xc(%esp)
 8054f74:	00 
 8054f75:	89 54 24 04          	mov    %edx,0x4(%esp)
 8054f79:	89 44 24 28          	mov    %eax,0x28(%esp)
 8054f7d:	8b 85 38 ff ff ff    	mov    -0xc8(%ebp),%eax
 8054f83:	89 04 24             	mov    %eax,(%esp)
 8054f86:	e8 85 58 00 00       	call   805a810 <geteuid@plt+0x11038>
 8054f8b:	8b 95 2c ff ff ff    	mov    -0xd4(%ebp),%edx
 8054f91:	c7 44 24 08 0a 00 00 	movl   $0xa,0x8(%esp)
 8054f98:	00 
 8054f99:	c7 44 24 0c 00 00 00 	movl   $0x0,0xc(%esp)
 8054fa0:	00 
 8054fa1:	89 5c 24 20          	mov    %ebx,0x20(%esp)
 8054fa5:	89 54 24 1c          	mov    %edx,0x1c(%esp)
 8054fa9:	8b 95 34 ff ff ff    	mov    -0xcc(%ebp),%edx
 8054faf:	89 44 24 24          	mov    %eax,0x24(%esp)
 8054fb3:	8b 85 10 ff ff ff    	mov    -0xf0(%ebp),%eax
 8054fb9:	89 54 24 04          	mov    %edx,0x4(%esp)
 8054fbd:	89 44 24 18          	mov    %eax,0x18(%esp)
 8054fc1:	8b 85 30 ff ff ff    	mov    -0xd0(%ebp),%eax
 8054fc7:	89 04 24             	mov    %eax,(%esp)
 8054fca:	e8 71 59 00 00       	call   805a940 <geteuid@plt+0x11168>
 8054fcf:	8b 95 34 ff ff ff    	mov    -0xcc(%ebp),%edx
 8054fd5:	c7 44 24 08 0a 00 00 	movl   $0xa,0x8(%esp)
 8054fdc:	00 
 8054fdd:	c7 44 24 0c 00 00 00 	movl   $0x0,0xc(%esp)
 8054fe4:	00 
 8054fe5:	89 54 24 04          	mov    %edx,0x4(%esp)
 8054fe9:	89 44 24 14          	mov    %eax,0x14(%esp)
 8054fed:	8b 85 30 ff ff ff    	mov    -0xd0(%ebp),%eax
 8054ff3:	89 04 24             	mov    %eax,(%esp)
 8054ff6:	e8 15 58 00 00       	call   805a810 <geteuid@plt+0x11038>
 8054ffb:	8b 95 28 ff ff ff    	mov    -0xd8(%ebp),%edx
 8055001:	89 74 24 0c          	mov    %esi,0xc(%esp)
 8055005:	89 7c 24 04          	mov    %edi,0x4(%esp)
 8055009:	c7 04 24 01 00 00 00 	movl   $0x1,(%esp)
 8055010:	89 54 24 08          	mov    %edx,0x8(%esp)
 8055014:	89 44 24 10          	mov    %eax,0x10(%esp)
 8055018:	e8 3b 43 ff ff       	call   8049358 <__printf_chk@plt>
 805501d:	e9 9a f3 ff ff       	jmp    80543bc <geteuid@plt+0xabe4>
 8055022:	81 fb e8 00 00 00    	cmp    $0xe8,%ebx
 8055028:	0f 82 3f 01 00 00    	jb     805516d <geteuid@plt+0xb995>
 805502e:	66 90                	xchg   %ax,%ax
 8055030:	0f 86 27 01 00 00    	jbe    805515d <geteuid@plt+0xb985>
 8055036:	8b 85 38 ff ff ff    	mov    -0xc8(%ebp),%eax
 805503c:	8b 95 3c ff ff ff    	mov    -0xc4(%ebp),%edx
 8055042:	c7 44 24 08 00 10 a5 	movl   $0xd4a51000,0x8(%esp)
 8055049:	d4 
 805504a:	c7 44 24 0c e8 00 00 	movl   $0xe8,0xc(%esp)
 8055051:	00 
 8055052:	89 04 24             	mov    %eax,(%esp)
 8055055:	89 54 24 04          	mov    %edx,0x4(%esp)
 8055059:	e8 b2 57 00 00       	call   805a810 <geteuid@plt+0x11038>
 805505e:	c7 85 14 ff ff ff 5c 	movl   $0x805ef5c,-0xec(%ebp)
 8055065:	ef 05 08 
 8055068:	89 85 38 ff ff ff    	mov    %eax,-0xc8(%ebp)
 805506e:	89 95 3c ff ff ff    	mov    %edx,-0xc4(%ebp)
 8055074:	e9 70 fd ff ff       	jmp    8054de9 <geteuid@plt+0xb611>
 8055079:	8b 95 44 ff ff ff    	mov    -0xbc(%ebp),%edx
 805507f:	8b ba 54 01 00 00    	mov    0x154(%edx),%edi
 8055085:	c7 04 24 82 ef 05 08 	movl   $0x805ef82,(%esp)
 805508c:	e8 97 43 ff ff       	call   8049428 <gettext@plt>
 8055091:	c7 04 24 01 00 00 00 	movl   $0x1,(%esp)
 8055098:	89 7c 24 08          	mov    %edi,0x8(%esp)
 805509c:	89 44 24 04          	mov    %eax,0x4(%esp)
 80550a0:	e8 b3 42 ff ff       	call   8049358 <__printf_chk@plt>
 80550a5:	e9 33 fe ff ff       	jmp    8054edd <geteuid@plt+0xb705>
 80550aa:	8b bd 44 ff ff ff    	mov    -0xbc(%ebp),%edi
 80550b0:	8b 9f 50 01 00 00    	mov    0x150(%edi),%ebx
 80550b6:	c7 04 24 3f ef 05 08 	movl   $0x805ef3f,(%esp)
 80550bd:	e8 66 43 ff ff       	call   8049428 <gettext@plt>
 80550c2:	c7 04 24 01 00 00 00 	movl   $0x1,(%esp)
 80550c9:	89 5c 24 08          	mov    %ebx,0x8(%esp)
 80550cd:	89 44 24 04          	mov    %eax,0x4(%esp)
 80550d1:	e8 82 42 ff ff       	call   8049358 <__printf_chk@plt>
 80550d6:	e9 0c f8 ff ff       	jmp    80548e7 <geteuid@plt+0xb10f>
 80550db:	8b 85 44 ff ff ff    	mov    -0xbc(%ebp),%eax
 80550e1:	c7 44 24 04 01 00 00 	movl   $0x1,0x4(%esp)
 80550e8:	00 
 80550e9:	83 c0 58             	add    $0x58,%eax
 80550ec:	89 04 24             	mov    %eax,(%esp)
 80550ef:	ff 56 14             	call   *0x14(%esi)
 80550f2:	c7 04 24 0e ee 05 08 	movl   $0x805ee0e,(%esp)
 80550f9:	89 c3                	mov    %eax,%ebx
 80550fb:	e8 28 43 ff ff       	call   8049428 <gettext@plt>
 8055100:	89 5c 24 08          	mov    %ebx,0x8(%esp)
 8055104:	c7 04 24 01 00 00 00 	movl   $0x1,(%esp)
 805510b:	89 44 24 04          	mov    %eax,0x4(%esp)
 805510f:	e8 44 42 ff ff       	call   8049358 <__printf_chk@plt>
 8055114:	e9 44 f9 ff ff       	jmp    8054a5d <geteuid@plt+0xb285>
 8055119:	89 d0                	mov    %edx,%eax
 805511b:	83 c0 48             	add    $0x48,%eax
 805511e:	c7 44 24 04 01 00 00 	movl   $0x1,0x4(%esp)
 8055125:	00 
 8055126:	89 04 24             	mov    %eax,(%esp)
 8055129:	ff 56 14             	call   *0x14(%esi)
 805512c:	c7 04 24 03 ee 05 08 	movl   $0x805ee03,(%esp)
 8055133:	89 c3                	mov    %eax,%ebx
 8055135:	e8 ee 42 ff ff       	call   8049428 <gettext@plt>
 805513a:	89 5c 24 08          	mov    %ebx,0x8(%esp)
 805513e:	c7 04 24 01 00 00 00 	movl   $0x1,(%esp)
 8055145:	89 44 24 04          	mov    %eax,0x4(%esp)
 8055149:	e8 0a 42 ff ff       	call   8049358 <__printf_chk@plt>
 805514e:	8b bd 44 ff ff ff    	mov    -0xbc(%ebp),%edi
 8055154:	0f bf 47 1a          	movswl 0x1a(%edi),%eax
 8055158:	e9 f8 f8 ff ff       	jmp    8054a55 <geteuid@plt+0xb27d>
 805515d:	81 bd 2c ff ff ff 00 	cmpl   $0xd4a51000,-0xd4(%ebp)
 8055164:	10 a5 d4 
 8055167:	0f 87 c9 fe ff ff    	ja     8055036 <geteuid@plt+0xb85e>
 805516d:	83 fb 00             	cmp    $0x0,%ebx
 8055170:	0f 87 dd 01 00 00    	ja     8055353 <geteuid@plt+0xbb7b>
 8055176:	81 bd 2c ff ff ff 00 	cmpl   $0x3b9aca00,-0xd4(%ebp)
 805517d:	ca 9a 3b 
 8055180:	0f 87 cd 01 00 00    	ja     8055353 <geteuid@plt+0xbb7b>
 8055186:	81 bd 2c ff ff ff 40 	cmpl   $0xf4240,-0xd4(%ebp)
 805518d:	42 0f 00 
 8055190:	0f 87 00 02 00 00    	ja     8055396 <geteuid@plt+0xbbbe>
 8055196:	81 bd 2c ff ff ff e8 	cmpl   $0x3e8,-0xd4(%ebp)
 805519d:	03 00 00 
 80551a0:	c7 85 14 ff ff ff 0e 	movl   $0x805be0e,-0xec(%ebp)
 80551a7:	be 05 08 
 80551aa:	0f 86 39 fc ff ff    	jbe    8054de9 <geteuid@plt+0xb611>
 80551b0:	8b 85 38 ff ff ff    	mov    -0xc8(%ebp),%eax
 80551b6:	8b 95 3c ff ff ff    	mov    -0xc4(%ebp),%edx
 80551bc:	c7 44 24 08 e8 03 00 	movl   $0x3e8,0x8(%esp)
 80551c3:	00 
 80551c4:	c7 44 24 0c 00 00 00 	movl   $0x0,0xc(%esp)
 80551cb:	00 
 80551cc:	89 04 24             	mov    %eax,(%esp)
 80551cf:	89 54 24 04          	mov    %edx,0x4(%esp)
 80551d3:	e8 38 56 00 00       	call   805a810 <geteuid@plt+0x11038>
 80551d8:	c7 85 14 ff ff ff 65 	movl   $0x805ef65,-0xec(%ebp)
 80551df:	ef 05 08 
 80551e2:	89 85 38 ff ff ff    	mov    %eax,-0xc8(%ebp)
 80551e8:	89 95 3c ff ff ff    	mov    %edx,-0xc4(%ebp)
 80551ee:	e9 f6 fb ff ff       	jmp    8054de9 <geteuid@plt+0xb611>
 80551f3:	81 bd 28 ff ff ff 00 	cmpl   $0xd4a51000,-0xd8(%ebp)
 80551fa:	10 a5 d4 
 80551fd:	0f 87 63 f7 ff ff    	ja     8054966 <geteuid@plt+0xb18e>
 8055203:	83 fe 00             	cmp    $0x0,%esi
 8055206:	0f 87 04 01 00 00    	ja     8055310 <geteuid@plt+0xbb38>
 805520c:	81 bd 28 ff ff ff 00 	cmpl   $0x3b9aca00,-0xd8(%ebp)
 8055213:	ca 9a 3b 
 8055216:	0f 87 f4 00 00 00    	ja     8055310 <geteuid@plt+0xbb38>
 805521c:	81 bd 28 ff ff ff 40 	cmpl   $0xf4240,-0xd8(%ebp)
 8055223:	42 0f 00 
 8055226:	0f 87 ad 01 00 00    	ja     80553d9 <geteuid@plt+0xbc01>
 805522c:	81 bd 28 ff ff ff e8 	cmpl   $0x3e8,-0xd8(%ebp)
 8055233:	03 00 00 
 8055236:	c7 85 10 ff ff ff 0e 	movl   $0x805be0e,-0xf0(%ebp)
 805523d:	be 05 08 
 8055240:	0f 86 47 fb ff ff    	jbe    8054d8d <geteuid@plt+0xb5b5>
 8055246:	8b 85 30 ff ff ff    	mov    -0xd0(%ebp),%eax
 805524c:	8b 95 34 ff ff ff    	mov    -0xcc(%ebp),%edx
 8055252:	c7 44 24 08 e8 03 00 	movl   $0x3e8,0x8(%esp)
 8055259:	00 
 805525a:	c7 44 24 0c 00 00 00 	movl   $0x0,0xc(%esp)
 8055261:	00 
 8055262:	89 04 24             	mov    %eax,(%esp)
 8055265:	89 54 24 04          	mov    %edx,0x4(%esp)
 8055269:	e8 a2 55 00 00       	call   805a810 <geteuid@plt+0x11038>
 805526e:	c7 85 10 ff ff ff 65 	movl   $0x805ef65,-0xf0(%ebp)
 8055275:	ef 05 08 
 8055278:	89 85 30 ff ff ff    	mov    %eax,-0xd0(%ebp)
 805527e:	89 95 34 ff ff ff    	mov    %edx,-0xcc(%ebp)
 8055284:	e9 04 fb ff ff       	jmp    8054d8d <geteuid@plt+0xb5b5>
 8055289:	c7 04 24 04 00 00 00 	movl   $0x4,(%esp)
 8055290:	e8 4b a2 ff ff       	call   804f4e0 <geteuid@plt+0x5d08>
 8055295:	85 c0                	test   %eax,%eax
 8055297:	a3 7c 31 06 08       	mov    %eax,0x806317c
 805529c:	0f 84 a9 ef ff ff    	je     805424b <geteuid@plt+0xaa73>
 80552a2:	e9 54 ef ff ff       	jmp    80541fb <geteuid@plt+0xaa23>
 80552a7:	90                   	nop
 80552a8:	c7 04 24 00 00 00 00 	movl   $0x0,(%esp)
 80552af:	e8 2c a2 ff ff       	call   804f4e0 <geteuid@plt+0x5d08>
 80552b4:	89 c6                	mov    %eax,%esi
 80552b6:	e9 3c ec ff ff       	jmp    8053ef7 <geteuid@plt+0xa71f>
 80552bb:	c7 04 24 ff ff ff ff 	movl   $0xffffffff,(%esp)
 80552c2:	e8 99 47 00 00       	call   8059a60 <geteuid@plt+0x10288>
 80552c7:	89 c3                	mov    %eax,%ebx
 80552c9:	e9 4b ec ff ff       	jmp    8053f19 <geteuid@plt+0xa741>
 80552ce:	c7 04 24 13 00 00 00 	movl   $0x13,(%esp)
 80552d5:	e8 06 a2 ff ff       	call   804f4e0 <geteuid@plt+0x5d08>
 80552da:	85 c0                	test   %eax,%eax
 80552dc:	a3 78 31 06 08       	mov    %eax,0x8063178
 80552e1:	0f 84 a6 ef ff ff    	je     805428d <geteuid@plt+0xaab5>
 80552e7:	e9 8d ef ff ff       	jmp    8054279 <geteuid@plt+0xaaa1>
 80552ec:	8d 74 26 00          	lea    0x0(%esi,%eiz,1),%esi
 80552f0:	c7 04 24 05 00 00 00 	movl   $0x5,(%esp)
 80552f7:	e8 e4 a1 ff ff       	call   804f4e0 <geteuid@plt+0x5d08>
 80552fc:	85 c0                	test   %eax,%eax
 80552fe:	a3 74 31 06 08       	mov    %eax,0x8063174
 8055303:	0f 84 63 ef ff ff    	je     805426c <geteuid@plt+0xaa94>
 8055309:	e9 4a ef ff ff       	jmp    8054258 <geteuid@plt+0xaa80>
 805530e:	66 90                	xchg   %ax,%ax
 8055310:	8b 85 30 ff ff ff    	mov    -0xd0(%ebp),%eax
 8055316:	8b 95 34 ff ff ff    	mov    -0xcc(%ebp),%edx
 805531c:	c7 44 24 08 00 ca 9a 	movl   $0x3b9aca00,0x8(%esp)
 8055323:	3b 
 8055324:	c7 44 24 0c 00 00 00 	movl   $0x0,0xc(%esp)
 805532b:	00 
 805532c:	89 04 24             	mov    %eax,(%esp)
 805532f:	89 54 24 04          	mov    %edx,0x4(%esp)
 8055333:	e8 d8 54 00 00       	call   805a810 <geteuid@plt+0x11038>
 8055338:	c7 85 10 ff ff ff 5f 	movl   $0x805ef5f,-0xf0(%ebp)
 805533f:	ef 05 08 
 8055342:	89 85 30 ff ff ff    	mov    %eax,-0xd0(%ebp)
 8055348:	89 95 34 ff ff ff    	mov    %edx,-0xcc(%ebp)
 805534e:	e9 3a fa ff ff       	jmp    8054d8d <geteuid@plt+0xb5b5>
 8055353:	8b 85 38 ff ff ff    	mov    -0xc8(%ebp),%eax
 8055359:	8b 95 3c ff ff ff    	mov    -0xc4(%ebp),%edx
 805535f:	c7 44 24 08 00 ca 9a 	movl   $0x3b9aca00,0x8(%esp)
 8055366:	3b 
 8055367:	c7 44 24 0c 00 00 00 	movl   $0x0,0xc(%esp)
 805536e:	00 
 805536f:	89 04 24             	mov    %eax,(%esp)
 8055372:	89 54 24 04          	mov    %edx,0x4(%esp)
 8055376:	e8 95 54 00 00       	call   805a810 <geteuid@plt+0x11038>
 805537b:	c7 85 14 ff ff ff 5f 	movl   $0x805ef5f,-0xec(%ebp)
 8055382:	ef 05 08 
 8055385:	89 85 38 ff ff ff    	mov    %eax,-0xc8(%ebp)
 805538b:	89 95 3c ff ff ff    	mov    %edx,-0xc4(%ebp)
 8055391:	e9 53 fa ff ff       	jmp    8054de9 <geteuid@plt+0xb611>
 8055396:	8b 85 38 ff ff ff    	mov    -0xc8(%ebp),%eax
 805539c:	8b 95 3c ff ff ff    	mov    -0xc4(%ebp),%edx
 80553a2:	c7 44 24 08 40 42 0f 	movl   $0xf4240,0x8(%esp)
 80553a9:	00 
 80553aa:	c7 44 24 0c 00 00 00 	movl   $0x0,0xc(%esp)
 80553b1:	00 
 80553b2:	89 04 24             	mov    %eax,(%esp)
 80553b5:	89 54 24 04          	mov    %edx,0x4(%esp)
 80553b9:	e8 52 54 00 00       	call   805a810 <geteuid@plt+0x11038>
 80553be:	c7 85 14 ff ff ff 62 	movl   $0x805ef62,-0xec(%ebp)
 80553c5:	ef 05 08 
 80553c8:	89 85 38 ff ff ff    	mov    %eax,-0xc8(%ebp)
 80553ce:	89 95 3c ff ff ff    	mov    %edx,-0xc4(%ebp)
 80553d4:	e9 10 fa ff ff       	jmp    8054de9 <geteuid@plt+0xb611>
 80553d9:	8b 85 30 ff ff ff    	mov    -0xd0(%ebp),%eax
 80553df:	8b 95 34 ff ff ff    	mov    -0xcc(%ebp),%edx
 80553e5:	c7 44 24 08 40 42 0f 	movl   $0xf4240,0x8(%esp)
 80553ec:	00 
 80553ed:	c7 44 24 0c 00 00 00 	movl   $0x0,0xc(%esp)
 80553f4:	00 
 80553f5:	89 04 24             	mov    %eax,(%esp)
 80553f8:	89 54 24 04          	mov    %edx,0x4(%esp)
 80553fc:	e8 0f 54 00 00       	call   805a810 <geteuid@plt+0x11038>
 8055401:	c7 85 10 ff ff ff 62 	movl   $0x805ef62,-0xf0(%ebp)
 8055408:	ef 05 08 
 805540b:	89 85 30 ff ff ff    	mov    %eax,-0xd0(%ebp)
 8055411:	89 95 34 ff ff ff    	mov    %edx,-0xcc(%ebp)
 8055417:	e9 71 f9 ff ff       	jmp    8054d8d <geteuid@plt+0xb5b5>
 805541c:	e8 47 42 ff ff       	call   8049668 <__stack_chk_fail@plt>
 8055421:	eb 0d                	jmp    8055430 <geteuid@plt+0xbc58>
 8055423:	90                   	nop
 8055424:	90                   	nop
 8055425:	90                   	nop
 8055426:	90                   	nop
 8055427:	90                   	nop
 8055428:	90                   	nop
 8055429:	90                   	nop
 805542a:	90                   	nop
 805542b:	90                   	nop
 805542c:	90                   	nop
 805542d:	90                   	nop
 805542e:	90                   	nop
 805542f:	90                   	nop
 8055430:	55                   	push   %ebp
 8055431:	89 e5                	mov    %esp,%ebp
 8055433:	53                   	push   %ebx
 8055434:	83 ec 24             	sub    $0x24,%esp
 8055437:	8b 5d 08             	mov    0x8(%ebp),%ebx
 805543a:	c7 44 24 04 eb ef 05 	movl   $0x805efeb,0x4(%esp)
 8055441:	08 
 8055442:	c7 04 24 01 00 00 00 	movl   $0x1,(%esp)
 8055449:	8d 43 08             	lea    0x8(%ebx),%eax
 805544c:	89 44 24 08          	mov    %eax,0x8(%esp)
 8055450:	e8 03 3f ff ff       	call   8049358 <__printf_chk@plt>
 8055455:	8b 43 1c             	mov    0x1c(%ebx),%eax
 8055458:	89 44 24 0c          	mov    %eax,0xc(%esp)
 805545c:	8b 43 20             	mov    0x20(%ebx),%eax
 805545f:	c7 44 24 04 f1 ef 05 	movl   $0x805eff1,0x4(%esp)
 8055466:	08 
 8055467:	c7 04 24 01 00 00 00 	movl   $0x1,(%esp)
 805546e:	89 44 24 08          	mov    %eax,0x8(%esp)
 8055472:	e8 e1 3e ff ff       	call   8049358 <__printf_chk@plt>
 8055477:	8b 83 18 01 00 00    	mov    0x118(%ebx),%eax
 805547d:	85 c0                	test   %eax,%eax
 805547f:	0f 84 4b 01 00 00    	je     80555d0 <geteuid@plt+0xbdf8>
 8055485:	8b 83 6c 01 00 00    	mov    0x16c(%ebx),%eax
 805548b:	89 44 24 18          	mov    %eax,0x18(%esp)
 805548f:	8b 83 44 01 00 00    	mov    0x144(%ebx),%eax
 8055495:	89 44 24 14          	mov    %eax,0x14(%esp)
 8055499:	8b 83 3c 01 00 00    	mov    0x13c(%ebx),%eax
 805549f:	89 44 24 10          	mov    %eax,0x10(%esp)
 80554a3:	8b 93 20 01 00 00    	mov    0x120(%ebx),%edx
 80554a9:	8b 83 1c 01 00 00    	mov    0x11c(%ebx),%eax
 80554af:	c7 44 24 04 fb ef 05 	movl   $0x805effb,0x4(%esp)
 80554b6:	08 
 80554b7:	c7 04 24 01 00 00 00 	movl   $0x1,(%esp)
 80554be:	89 54 24 0c          	mov    %edx,0xc(%esp)
 80554c2:	89 44 24 08          	mov    %eax,0x8(%esp)
 80554c6:	e8 8d 3e ff ff       	call   8049358 <__printf_chk@plt>
 80554cb:	8b 83 7c 01 00 00    	mov    0x17c(%ebx),%eax
 80554d1:	89 44 24 18          	mov    %eax,0x18(%esp)
 80554d5:	8b 83 48 01 00 00    	mov    0x148(%ebx),%eax
 80554db:	89 44 24 14          	mov    %eax,0x14(%esp)
 80554df:	8b 83 40 01 00 00    	mov    0x140(%ebx),%eax
 80554e5:	89 44 24 10          	mov    %eax,0x10(%esp)
 80554e9:	8b 83 24 01 00 00    	mov    0x124(%ebx),%eax
 80554ef:	8b 93 28 01 00 00    	mov    0x128(%ebx),%edx
 80554f5:	c7 44 24 04 12 f0 05 	movl   $0x805f012,0x4(%esp)
 80554fc:	08 
 80554fd:	c7 04 24 01 00 00 00 	movl   $0x1,(%esp)
 8055504:	89 44 24 08          	mov    %eax,0x8(%esp)
 8055508:	89 54 24 0c          	mov    %edx,0xc(%esp)
 805550c:	e8 47 3e ff ff       	call   8049358 <__printf_chk@plt>
 8055511:	0f b7 43 1a          	movzwl 0x1a(%ebx),%eax
 8055515:	66 85 c0             	test   %ax,%ax
 8055518:	0f 84 e3 00 00 00    	je     8055601 <geteuid@plt+0xbe29>
 805551e:	0f bf d0             	movswl %ax,%edx
 8055521:	f6 c6 02             	test   $0x2,%dh
 8055524:	0f 85 03 01 00 00    	jne    805562d <geteuid@plt+0xbe55>
 805552a:	f6 c2 02             	test   $0x2,%dl
 805552d:	0f 85 1e 01 00 00    	jne    8055651 <geteuid@plt+0xbe79>
 8055533:	f6 c2 04             	test   $0x4,%dl
 8055536:	0f 85 39 01 00 00    	jne    8055675 <geteuid@plt+0xbe9d>
 805553c:	f6 c2 08             	test   $0x8,%dl
 805553f:	90                   	nop
 8055540:	0f 85 53 01 00 00    	jne    8055699 <geteuid@plt+0xbec1>
 8055546:	80 e6 10             	and    $0x10,%dh
 8055549:	0f 85 6e 01 00 00    	jne    80556bd <geteuid@plt+0xbee5>
 805554f:	66 85 c0             	test   %ax,%ax
 8055552:	0f 88 86 01 00 00    	js     80556de <geteuid@plt+0xbf06>
 8055558:	98                   	cwtl   
 8055559:	f6 c4 01             	test   $0x1,%ah
 805555c:	8d 74 26 00          	lea    0x0(%esi,%eiz,1),%esi
 8055560:	0f 85 9a 01 00 00    	jne    8055700 <geteuid@plt+0xbf28>
 8055566:	a8 20                	test   $0x20,%al
 8055568:	0f 85 b2 01 00 00    	jne    8055720 <geteuid@plt+0xbf48>
 805556e:	84 c0                	test   %al,%al
 8055570:	0f 88 ca 01 00 00    	js     8055740 <geteuid@plt+0xbf68>
 8055576:	a8 10                	test   $0x10,%al
 8055578:	0f 85 e2 01 00 00    	jne    8055760 <geteuid@plt+0xbf88>
 805557e:	f6 c4 08             	test   $0x8,%ah
 8055581:	0f 85 fa 01 00 00    	jne    8055781 <geteuid@plt+0xbfa9>
 8055587:	f6 c4 04             	test   $0x4,%ah
 805558a:	0f 85 12 02 00 00    	jne    80557a2 <geteuid@plt+0xbfca>
 8055590:	a8 40                	test   $0x40,%al
 8055592:	0f 85 2a 02 00 00    	jne    80557c2 <geteuid@plt+0xbfea>
 8055598:	a8 01                	test   $0x1,%al
 805559a:	74 14                	je     80555b0 <geteuid@plt+0xbdd8>
 805559c:	c7 44 24 04 72 e8 05 	movl   $0x805e872,0x4(%esp)
 80555a3:	08 
 80555a4:	c7 04 24 01 00 00 00 	movl   $0x1,(%esp)
 80555ab:	e8 a8 3d ff ff       	call   8049358 <__printf_chk@plt>
 80555b0:	c7 44 24 04 2d f8 05 	movl   $0x805f82d,0x4(%esp)
 80555b7:	08 
 80555b8:	c7 04 24 01 00 00 00 	movl   $0x1,(%esp)
 80555bf:	e8 94 3d ff ff       	call   8049358 <__printf_chk@plt>
 80555c4:	83 c4 24             	add    $0x24,%esp
 80555c7:	5b                   	pop    %ebx
 80555c8:	5d                   	pop    %ebp
 80555c9:	c3                   	ret    
 80555ca:	8d b6 00 00 00 00    	lea    0x0(%esi),%esi
 80555d0:	c7 04 24 80 f2 05 08 	movl   $0x805f280,(%esp)
 80555d7:	e8 4c 3e ff ff       	call   8049428 <gettext@plt>
 80555dc:	c7 44 24 04 28 f0 05 	movl   $0x805f028,0x4(%esp)
 80555e3:	08 
 80555e4:	c7 04 24 01 00 00 00 	movl   $0x1,(%esp)
 80555eb:	89 44 24 08          	mov    %eax,0x8(%esp)
 80555ef:	e8 64 3d ff ff       	call   8049358 <__printf_chk@plt>
 80555f4:	0f b7 43 1a          	movzwl 0x1a(%ebx),%eax
 80555f8:	66 85 c0             	test   %ax,%ax
 80555fb:	0f 85 1d ff ff ff    	jne    805551e <geteuid@plt+0xbd46>
 8055601:	c7 04 24 2e f0 05 08 	movl   $0x805f02e,(%esp)
 8055608:	e8 1b 3e ff ff       	call   8049428 <gettext@plt>
 805560d:	c7 04 24 01 00 00 00 	movl   $0x1,(%esp)
 8055614:	89 44 24 04          	mov    %eax,0x4(%esp)
 8055618:	e8 3b 3d ff ff       	call   8049358 <__printf_chk@plt>
 805561d:	0f b7 43 1a          	movzwl 0x1a(%ebx),%eax
 8055621:	0f bf d0             	movswl %ax,%edx
 8055624:	f6 c6 02             	test   $0x2,%dh
 8055627:	0f 84 fd fe ff ff    	je     805552a <geteuid@plt+0xbd52>
 805562d:	c7 44 24 04 3e e4 05 	movl   $0x805e43e,0x4(%esp)
 8055634:	08 
 8055635:	c7 04 24 01 00 00 00 	movl   $0x1,(%esp)
 805563c:	e8 17 3d ff ff       	call   8049358 <__printf_chk@plt>
 8055641:	0f b7 43 1a          	movzwl 0x1a(%ebx),%eax
 8055645:	0f bf d0             	movswl %ax,%edx
 8055648:	f6 c2 02             	test   $0x2,%dl
 805564b:	0f 84 e2 fe ff ff    	je     8055533 <geteuid@plt+0xbd5b>
 8055651:	c7 44 24 04 0e be 05 	movl   $0x805be0e,0x4(%esp)
 8055658:	08 
 8055659:	c7 04 24 01 00 00 00 	movl   $0x1,(%esp)
 8055660:	e8 f3 3c ff ff       	call   8049358 <__printf_chk@plt>
 8055665:	0f b7 43 1a          	movzwl 0x1a(%ebx),%eax
 8055669:	0f bf d0             	movswl %ax,%edx
 805566c:	f6 c2 04             	test   $0x4,%dl
 805566f:	0f 84 c7 fe ff ff    	je     805553c <geteuid@plt+0xbd64>
 8055675:	c7 44 24 04 26 bb 05 	movl   $0x805bb26,0x4(%esp)
 805567c:	08 
 805567d:	c7 04 24 01 00 00 00 	movl   $0x1,(%esp)
 8055684:	e8 cf 3c ff ff       	call   8049358 <__printf_chk@plt>
 8055689:	0f b7 43 1a          	movzwl 0x1a(%ebx),%eax
 805568d:	0f bf d0             	movswl %ax,%edx
 8055690:	f6 c2 08             	test   $0x8,%dl
 8055693:	0f 84 ad fe ff ff    	je     8055546 <geteuid@plt+0xbd6e>
 8055699:	c7 44 24 04 06 c5 05 	movl   $0x805c506,0x4(%esp)
 80556a0:	08 
 80556a1:	c7 04 24 01 00 00 00 	movl   $0x1,(%esp)
 80556a8:	e8 ab 3c ff ff       	call   8049358 <__printf_chk@plt>
 80556ad:	0f b7 43 1a          	movzwl 0x1a(%ebx),%eax
 80556b1:	0f bf d0             	movswl %ax,%edx
 80556b4:	80 e6 10             	and    $0x10,%dh
 80556b7:	0f 84 92 fe ff ff    	je     805554f <geteuid@plt+0xbd77>
 80556bd:	c7 44 24 04 0a bd 05 	movl   $0x805bd0a,0x4(%esp)
 80556c4:	08 
 80556c5:	c7 04 24 01 00 00 00 	movl   $0x1,(%esp)
 80556cc:	e8 87 3c ff ff       	call   8049358 <__printf_chk@plt>
 80556d1:	0f b7 43 1a          	movzwl 0x1a(%ebx),%eax
 80556d5:	66 85 c0             	test   %ax,%ax
 80556d8:	0f 89 7a fe ff ff    	jns    8055558 <geteuid@plt+0xbd80>
 80556de:	c7 44 24 04 d4 bb 05 	movl   $0x805bbd4,0x4(%esp)
 80556e5:	08 
 80556e6:	c7 04 24 01 00 00 00 	movl   $0x1,(%esp)
 80556ed:	e8 66 3c ff ff       	call   8049358 <__printf_chk@plt>
 80556f2:	0f b7 43 1a          	movzwl 0x1a(%ebx),%eax
 80556f6:	98                   	cwtl   
 80556f7:	f6 c4 01             	test   $0x1,%ah
 80556fa:	0f 84 66 fe ff ff    	je     8055566 <geteuid@plt+0xbd8e>
 8055700:	c7 44 24 04 28 fd 05 	movl   $0x805fd28,0x4(%esp)
 8055707:	08 
 8055708:	c7 04 24 01 00 00 00 	movl   $0x1,(%esp)
 805570f:	e8 44 3c ff ff       	call   8049358 <__printf_chk@plt>
 8055714:	0f bf 43 1a          	movswl 0x1a(%ebx),%eax
 8055718:	a8 20                	test   $0x20,%al
 805571a:	0f 84 4e fe ff ff    	je     805556e <geteuid@plt+0xbd96>
 8055720:	c7 44 24 04 40 c1 05 	movl   $0x805c140,0x4(%esp)
 8055727:	08 
 8055728:	c7 04 24 01 00 00 00 	movl   $0x1,(%esp)
 805572f:	e8 24 3c ff ff       	call   8049358 <__printf_chk@plt>
 8055734:	0f bf 43 1a          	movswl 0x1a(%ebx),%eax
 8055738:	84 c0                	test   %al,%al
 805573a:	0f 89 36 fe ff ff    	jns    8055576 <geteuid@plt+0xbd9e>
 8055740:	c7 44 24 04 39 f0 05 	movl   $0x805f039,0x4(%esp)
 8055747:	08 
 8055748:	c7 04 24 01 00 00 00 	movl   $0x1,(%esp)
 805574f:	e8 04 3c ff ff       	call   8049358 <__printf_chk@plt>
 8055754:	0f bf 43 1a          	movswl 0x1a(%ebx),%eax
 8055758:	a8 10                	test   $0x10,%al
 805575a:	0f 84 1e fe ff ff    	je     805557e <geteuid@plt+0xbda6>
 8055760:	c7 44 24 04 28 fd 05 	movl   $0x805fd28,0x4(%esp)
 8055767:	08 
 8055768:	c7 04 24 01 00 00 00 	movl   $0x1,(%esp)
 805576f:	e8 e4 3b ff ff       	call   8049358 <__printf_chk@plt>
 8055774:	0f bf 43 1a          	movswl 0x1a(%ebx),%eax
 8055778:	f6 c4 08             	test   $0x8,%ah
 805577b:	0f 84 06 fe ff ff    	je     8055587 <geteuid@plt+0xbdaf>
 8055781:	c7 44 24 04 71 f4 05 	movl   $0x805f471,0x4(%esp)
 8055788:	08 
 8055789:	c7 04 24 01 00 00 00 	movl   $0x1,(%esp)
 8055790:	e8 c3 3b ff ff       	call   8049358 <__printf_chk@plt>
 8055795:	0f bf 43 1a          	movswl 0x1a(%ebx),%eax
 8055799:	f6 c4 04             	test   $0x4,%ah
 805579c:	0f 84 ee fd ff ff    	je     8055590 <geteuid@plt+0xbdb8>
 80557a2:	c7 44 24 04 84 ce 05 	movl   $0x805ce84,0x4(%esp)
 80557a9:	08 
 80557aa:	c7 04 24 01 00 00 00 	movl   $0x1,(%esp)
 80557b1:	e8 a2 3b ff ff       	call   8049358 <__printf_chk@plt>
 80557b6:	0f bf 43 1a          	movswl 0x1a(%ebx),%eax
 80557ba:	a8 40                	test   $0x40,%al
 80557bc:	0f 84 d6 fd ff ff    	je     8055598 <geteuid@plt+0xbdc0>
 80557c2:	c7 44 24 04 6d e4 05 	movl   $0x805e46d,0x4(%esp)
 80557c9:	08 
 80557ca:	c7 04 24 01 00 00 00 	movl   $0x1,(%esp)
 80557d1:	e8 82 3b ff ff       	call   8049358 <__printf_chk@plt>
 80557d6:	0f bf 43 1a          	movswl 0x1a(%ebx),%eax
 80557da:	e9 b9 fd ff ff       	jmp    8055598 <geteuid@plt+0xbdc0>
 80557df:	90                   	nop
 80557e0:	55                   	push   %ebp
 80557e1:	89 e5                	mov    %esp,%ebp
 80557e3:	83 ec 08             	sub    $0x8,%esp
 80557e6:	8b 15 78 37 06 08    	mov    0x8063778,%edx
 80557ec:	8b 45 08             	mov    0x8(%ebp),%eax
 80557ef:	85 d2                	test   %edx,%edx
 80557f1:	75 0d                	jne    8055800 <geteuid@plt+0xc028>
 80557f3:	89 45 08             	mov    %eax,0x8(%ebp)
 80557f6:	c9                   	leave  
 80557f7:	e9 c4 e6 ff ff       	jmp    8053ec0 <geteuid@plt+0xa6e8>
 80557fc:	8d 74 26 00          	lea    0x0(%esi,%eiz,1),%esi
 8055800:	c9                   	leave  
 8055801:	e9 2a fc ff ff       	jmp    8055430 <geteuid@plt+0xbc58>
 8055806:	8d 76 00             	lea    0x0(%esi),%esi
 8055809:	8d bc 27 00 00 00 00 	lea    0x0(%edi,%eiz,1),%edi
 8055810:	55                   	push   %ebp
 8055811:	89 e5                	mov    %esp,%ebp
 8055813:	57                   	push   %edi
 8055814:	56                   	push   %esi
 8055815:	53                   	push   %ebx
 8055816:	83 ec 5c             	sub    $0x5c,%esp
 8055819:	8b 5d 08             	mov    0x8(%ebp),%ebx
 805581c:	8d 75 c4             	lea    -0x3c(%ebp),%esi
 805581f:	65 a1 14 00 00 00    	mov    %gs:0x14,%eax
 8055825:	89 45 e4             	mov    %eax,-0x1c(%ebp)
 8055828:	31 c0                	xor    %eax,%eax
 805582a:	c7 44 24 08 10 00 00 	movl   $0x10,0x8(%esp)
 8055831:	00 
 8055832:	8d 7b 08             	lea    0x8(%ebx),%edi
 8055835:	89 7c 24 04          	mov    %edi,0x4(%esp)
 8055839:	89 34 24             	mov    %esi,(%esp)
 805583c:	e8 a7 3d ff ff       	call   80495e8 <__strcpy_chk@plt>
 8055841:	a1 14 24 06 08       	mov    0x8062414,%eax
 8055846:	89 74 24 08          	mov    %esi,0x8(%esp)
 805584a:	c7 44 24 04 13 89 00 	movl   $0x8913,0x4(%esp)
 8055851:	00 
 8055852:	89 04 24             	mov    %eax,(%esp)
 8055855:	e8 5e 3c ff ff       	call   80494b8 <ioctl@plt>
 805585a:	89 c2                	mov    %eax,%edx
 805585c:	b8 ff ff ff ff       	mov    $0xffffffff,%eax
 8055861:	85 d2                	test   %edx,%edx
 8055863:	0f 88 0c 06 00 00    	js     8055e75 <geteuid@plt+0xc69d>
 8055869:	0f b7 45 d4          	movzwl -0x2c(%ebp),%eax
 805586d:	66 89 43 1a          	mov    %ax,0x1a(%ebx)
 8055871:	c7 44 24 08 10 00 00 	movl   $0x10,0x8(%esp)
 8055878:	00 
 8055879:	89 7c 24 04          	mov    %edi,0x4(%esp)
 805587d:	89 34 24             	mov    %esi,(%esp)
 8055880:	e8 63 3d ff ff       	call   80495e8 <__strcpy_chk@plt>
 8055885:	a1 14 24 06 08       	mov    0x8062414,%eax
 805588a:	89 74 24 08          	mov    %esi,0x8(%esp)
 805588e:	c7 44 24 04 27 89 00 	movl   $0x8927,0x4(%esp)
 8055895:	00 
 8055896:	89 04 24             	mov    %eax,(%esp)
 8055899:	e8 1a 3c ff ff       	call   80494b8 <ioctl@plt>
 805589e:	85 c0                	test   %eax,%eax
 80558a0:	0f 88 f2 05 00 00    	js     8055e98 <geteuid@plt+0xc6c0>
 80558a6:	8b 45 d6             	mov    -0x2a(%ebp),%eax
 80558a9:	89 83 f8 00 00 00    	mov    %eax,0xf8(%ebx)
 80558af:	8b 45 da             	mov    -0x26(%ebp),%eax
 80558b2:	89 83 fc 00 00 00    	mov    %eax,0xfc(%ebx)
 80558b8:	0f b7 45 d4          	movzwl -0x2c(%ebp),%eax
 80558bc:	66 89 43 18          	mov    %ax,0x18(%ebx)
 80558c0:	c7 44 24 08 10 00 00 	movl   $0x10,0x8(%esp)
 80558c7:	00 
 80558c8:	89 7c 24 04          	mov    %edi,0x4(%esp)
 80558cc:	89 34 24             	mov    %esi,(%esp)
 80558cf:	e8 14 3d ff ff       	call   80495e8 <__strcpy_chk@plt>
 80558d4:	a1 14 24 06 08       	mov    0x8062414,%eax
 80558d9:	89 74 24 08          	mov    %esi,0x8(%esp)
 80558dd:	c7 44 24 04 1d 89 00 	movl   $0x891d,0x4(%esp)
 80558e4:	00 
 80558e5:	89 04 24             	mov    %eax,(%esp)
 80558e8:	e8 cb 3b ff ff       	call   80494b8 <ioctl@plt>
 80558ed:	85 c0                	test   %eax,%eax
 80558ef:	0f 88 33 06 00 00    	js     8055f28 <geteuid@plt+0xc750>
 80558f5:	8b 45 d4             	mov    -0x2c(%ebp),%eax
 80558f8:	89 43 1c             	mov    %eax,0x1c(%ebx)
 80558fb:	c7 44 24 08 10 00 00 	movl   $0x10,0x8(%esp)
 8055902:	00 
 8055903:	89 7c 24 04          	mov    %edi,0x4(%esp)
 8055907:	89 34 24             	mov    %esi,(%esp)
 805590a:	e8 d9 3c ff ff       	call   80495e8 <__strcpy_chk@plt>
 805590f:	a1 14 24 06 08       	mov    0x8062414,%eax
 8055914:	89 74 24 08          	mov    %esi,0x8(%esp)
 8055918:	c7 44 24 04 21 89 00 	movl   $0x8921,0x4(%esp)
 805591f:	00 
 8055920:	89 04 24             	mov    %eax,(%esp)
 8055923:	e8 90 3b ff ff       	call   80494b8 <ioctl@plt>
 8055928:	85 c0                	test   %eax,%eax
 805592a:	0f 88 e8 05 00 00    	js     8055f18 <geteuid@plt+0xc740>
 8055930:	8b 45 d4             	mov    -0x2c(%ebp),%eax
 8055933:	89 43 20             	mov    %eax,0x20(%ebx)
 8055936:	0f b7 43 18          	movzwl 0x18(%ebx),%eax
 805593a:	8d 90 00 ff ff ff    	lea    -0x100(%eax),%edx
 8055940:	66 83 fa 03          	cmp    $0x3,%dx
 8055944:	0f 87 7e 00 00 00    	ja     80559c8 <geteuid@plt+0xc1f0>
 805594a:	c7 44 24 08 10 00 00 	movl   $0x10,0x8(%esp)
 8055951:	00 
 8055952:	89 7c 24 04          	mov    %edi,0x4(%esp)
 8055956:	89 34 24             	mov    %esi,(%esp)
 8055959:	e8 8a 3c ff ff       	call   80495e8 <__strcpy_chk@plt>
 805595e:	a1 14 24 06 08       	mov    0x8062414,%eax
 8055963:	89 74 24 08          	mov    %esi,0x8(%esp)
 8055967:	c7 44 24 04 f3 89 00 	movl   $0x89f3,0x4(%esp)
 805596e:	00 
 805596f:	89 04 24             	mov    %eax,(%esp)
 8055972:	e8 41 3b ff ff       	call   80494b8 <ioctl@plt>
 8055977:	85 c0                	test   %eax,%eax
 8055979:	0f 88 e1 05 00 00    	js     8055f60 <geteuid@plt+0xc788>
 805597f:	8b 45 d4             	mov    -0x2c(%ebp),%eax
 8055982:	89 83 8c 01 00 00    	mov    %eax,0x18c(%ebx)
 8055988:	c7 44 24 08 10 00 00 	movl   $0x10,0x8(%esp)
 805598f:	00 
 8055990:	89 7c 24 04          	mov    %edi,0x4(%esp)
 8055994:	89 34 24             	mov    %esi,(%esp)
 8055997:	e8 4c 3c ff ff       	call   80495e8 <__strcpy_chk@plt>
 805599c:	a1 14 24 06 08       	mov    0x8062414,%eax
 80559a1:	89 74 24 08          	mov    %esi,0x8(%esp)
 80559a5:	c7 44 24 04 f1 89 00 	movl   $0x89f1,0x4(%esp)
 80559ac:	00 
 80559ad:	89 04 24             	mov    %eax,(%esp)
 80559b0:	e8 03 3b ff ff       	call   80494b8 <ioctl@plt>
 80559b5:	85 c0                	test   %eax,%eax
 80559b7:	0f 88 b3 05 00 00    	js     8055f70 <geteuid@plt+0xc798>
 80559bd:	8b 45 d4             	mov    -0x2c(%ebp),%eax
 80559c0:	89 83 88 01 00 00    	mov    %eax,0x188(%ebx)
 80559c6:	eb 0a                	jmp    80559d2 <geteuid@plt+0xc1fa>
 80559c8:	66 3d 08 01          	cmp    $0x108,%ax
 80559cc:	0f 84 78 ff ff ff    	je     805594a <geteuid@plt+0xc172>
 80559d2:	c7 44 24 08 10 00 00 	movl   $0x10,0x8(%esp)
 80559d9:	00 
 80559da:	89 7c 24 04          	mov    %edi,0x4(%esp)
 80559de:	89 34 24             	mov    %esi,(%esp)
 80559e1:	e8 02 3c ff ff       	call   80495e8 <__strcpy_chk@plt>
 80559e6:	a1 14 24 06 08       	mov    0x8062414,%eax
 80559eb:	89 74 24 08          	mov    %esi,0x8(%esp)
 80559ef:	c7 44 24 04 70 89 00 	movl   $0x8970,0x4(%esp)
 80559f6:	00 
 80559f7:	89 04 24             	mov    %eax,(%esp)
 80559fa:	e8 b9 3a ff ff       	call   80494b8 <ioctl@plt>
 80559ff:	85 c0                	test   %eax,%eax
 8055a01:	0f 88 d9 04 00 00    	js     8055ee0 <geteuid@plt+0xc708>
 8055a07:	8b 45 d4             	mov    -0x2c(%ebp),%eax
 8055a0a:	89 43 28             	mov    %eax,0x28(%ebx)
 8055a0d:	8b 45 d8             	mov    -0x28(%ebp),%eax
 8055a10:	89 43 2c             	mov    %eax,0x2c(%ebx)
 8055a13:	8b 45 dc             	mov    -0x24(%ebp),%eax
 8055a16:	89 43 30             	mov    %eax,0x30(%ebx)
 8055a19:	8b 45 e0             	mov    -0x20(%ebp),%eax
 8055a1c:	89 43 34             	mov    %eax,0x34(%ebx)
 8055a1f:	c7 44 24 08 10 00 00 	movl   $0x10,0x8(%esp)
 8055a26:	00 
 8055a27:	89 7c 24 04          	mov    %edi,0x4(%esp)
 8055a2b:	89 34 24             	mov    %esi,(%esp)
 8055a2e:	e8 b5 3b ff ff       	call   80495e8 <__strcpy_chk@plt>
 8055a33:	a1 14 24 06 08       	mov    0x8062414,%eax
 8055a38:	89 74 24 08          	mov    %esi,0x8(%esp)
 8055a3c:	c7 44 24 04 70 89 00 	movl   $0x8970,0x4(%esp)
 8055a43:	00 
 8055a44:	89 04 24             	mov    %eax,(%esp)
 8055a47:	e8 6c 3a ff ff       	call   80494b8 <ioctl@plt>
 8055a4c:	85 c0                	test   %eax,%eax
 8055a4e:	0f 88 e4 04 00 00    	js     8055f38 <geteuid@plt+0xc760>
 8055a54:	8b 45 d4             	mov    -0x2c(%ebp),%eax
 8055a57:	89 43 28             	mov    %eax,0x28(%ebx)
 8055a5a:	8b 45 d8             	mov    -0x28(%ebp),%eax
 8055a5d:	89 43 2c             	mov    %eax,0x2c(%ebx)
 8055a60:	8b 45 dc             	mov    -0x24(%ebp),%eax
 8055a63:	89 43 30             	mov    %eax,0x30(%ebx)
 8055a66:	8b 45 e0             	mov    -0x20(%ebp),%eax
 8055a69:	89 43 34             	mov    %eax,0x34(%ebx)
 8055a6c:	c7 44 24 08 10 00 00 	movl   $0x10,0x8(%esp)
 8055a73:	00 
 8055a74:	89 7c 24 04          	mov    %edi,0x4(%esp)
 8055a78:	89 34 24             	mov    %esi,(%esp)
 8055a7b:	e8 68 3b ff ff       	call   80495e8 <__strcpy_chk@plt>
 8055a80:	a1 14 24 06 08       	mov    0x8062414,%eax
 8055a85:	89 74 24 08          	mov    %esi,0x8(%esp)
 8055a89:	c7 44 24 04 42 89 00 	movl   $0x8942,0x4(%esp)
 8055a90:	00 
 8055a91:	89 04 24             	mov    %eax,(%esp)
 8055a94:	e8 1f 3a ff ff       	call   80494b8 <ioctl@plt>
 8055a99:	85 c0                	test   %eax,%eax
 8055a9b:	0f 88 67 04 00 00    	js     8055f08 <geteuid@plt+0xc730>
 8055aa1:	8b 45 d4             	mov    -0x2c(%ebp),%eax
 8055aa4:	89 43 24             	mov    %eax,0x24(%ebx)
 8055aa7:	c7 04 24 02 00 00 00 	movl   $0x2,(%esp)
 8055aae:	e8 bd 99 ff ff       	call   804f470 <geteuid@plt+0x5c98>
 8055ab3:	85 c0                	test   %eax,%eax
 8055ab5:	89 45 b4             	mov    %eax,-0x4c(%ebp)
 8055ab8:	0f 88 3c 01 00 00    	js     8055bfa <geteuid@plt+0xc422>
 8055abe:	c7 44 24 08 10 00 00 	movl   $0x10,0x8(%esp)
 8055ac5:	00 
 8055ac6:	89 7c 24 04          	mov    %edi,0x4(%esp)
 8055aca:	89 34 24             	mov    %esi,(%esp)
 8055acd:	e8 16 3b ff ff       	call   80495e8 <__strcpy_chk@plt>
 8055ad2:	8b 55 b4             	mov    -0x4c(%ebp),%edx
 8055ad5:	66 c7 45 d4 02 00    	movw   $0x2,-0x2c(%ebp)
 8055adb:	89 74 24 08          	mov    %esi,0x8(%esp)
 8055adf:	c7 44 24 04 15 89 00 	movl   $0x8915,0x4(%esp)
 8055ae6:	00 
 8055ae7:	89 14 24             	mov    %edx,(%esp)
 8055aea:	e8 c9 39 ff ff       	call   80494b8 <ioctl@plt>
 8055aef:	85 c0                	test   %eax,%eax
 8055af1:	0f 85 c1 03 00 00    	jne    8055eb8 <geteuid@plt+0xc6e0>
 8055af7:	c7 83 d8 00 00 00 01 	movl   $0x1,0xd8(%ebx)
 8055afe:	00 00 00 
 8055b01:	8b 45 d4             	mov    -0x2c(%ebp),%eax
 8055b04:	89 43 38             	mov    %eax,0x38(%ebx)
 8055b07:	8b 45 d8             	mov    -0x28(%ebp),%eax
 8055b0a:	89 43 3c             	mov    %eax,0x3c(%ebx)
 8055b0d:	8b 45 dc             	mov    -0x24(%ebp),%eax
 8055b10:	89 43 40             	mov    %eax,0x40(%ebx)
 8055b13:	8b 45 e0             	mov    -0x20(%ebp),%eax
 8055b16:	89 43 44             	mov    %eax,0x44(%ebx)
 8055b19:	c7 44 24 08 10 00 00 	movl   $0x10,0x8(%esp)
 8055b20:	00 
 8055b21:	89 7c 24 04          	mov    %edi,0x4(%esp)
 8055b25:	89 34 24             	mov    %esi,(%esp)
 8055b28:	e8 bb 3a ff ff       	call   80495e8 <__strcpy_chk@plt>
 8055b2d:	8b 45 b4             	mov    -0x4c(%ebp),%eax
 8055b30:	89 74 24 08          	mov    %esi,0x8(%esp)
 8055b34:	c7 44 24 04 17 89 00 	movl   $0x8917,0x4(%esp)
 8055b3b:	00 
 8055b3c:	89 04 24             	mov    %eax,(%esp)
 8055b3f:	e8 74 39 ff ff       	call   80494b8 <ioctl@plt>
 8055b44:	85 c0                	test   %eax,%eax
 8055b46:	0f 88 84 04 00 00    	js     8055fd0 <geteuid@plt+0xc7f8>
 8055b4c:	8b 45 d4             	mov    -0x2c(%ebp),%eax
 8055b4f:	89 43 48             	mov    %eax,0x48(%ebx)
 8055b52:	8b 45 d8             	mov    -0x28(%ebp),%eax
 8055b55:	89 43 4c             	mov    %eax,0x4c(%ebx)
 8055b58:	8b 45 dc             	mov    -0x24(%ebp),%eax
 8055b5b:	89 43 50             	mov    %eax,0x50(%ebx)
 8055b5e:	8b 45 e0             	mov    -0x20(%ebp),%eax
 8055b61:	89 43 54             	mov    %eax,0x54(%ebx)
 8055b64:	c7 44 24 08 10 00 00 	movl   $0x10,0x8(%esp)
 8055b6b:	00 
 8055b6c:	89 7c 24 04          	mov    %edi,0x4(%esp)
 8055b70:	89 34 24             	mov    %esi,(%esp)
 8055b73:	e8 70 3a ff ff       	call   80495e8 <__strcpy_chk@plt>
 8055b78:	8b 55 b4             	mov    -0x4c(%ebp),%edx
 8055b7b:	89 74 24 08          	mov    %esi,0x8(%esp)
 8055b7f:	c7 44 24 04 19 89 00 	movl   $0x8919,0x4(%esp)
 8055b86:	00 
 8055b87:	89 14 24             	mov    %edx,(%esp)
 8055b8a:	e8 29 39 ff ff       	call   80494b8 <ioctl@plt>
 8055b8f:	85 c0                	test   %eax,%eax
 8055b91:	0f 88 11 04 00 00    	js     8055fa8 <geteuid@plt+0xc7d0>
 8055b97:	8b 45 d4             	mov    -0x2c(%ebp),%eax
 8055b9a:	89 43 58             	mov    %eax,0x58(%ebx)
 8055b9d:	8b 45 d8             	mov    -0x28(%ebp),%eax
 8055ba0:	89 43 5c             	mov    %eax,0x5c(%ebx)
 8055ba3:	8b 45 dc             	mov    -0x24(%ebp),%eax
 8055ba6:	89 43 60             	mov    %eax,0x60(%ebx)
 8055ba9:	8b 45 e0             	mov    -0x20(%ebp),%eax
 8055bac:	89 43 64             	mov    %eax,0x64(%ebx)
 8055baf:	c7 44 24 08 10 00 00 	movl   $0x10,0x8(%esp)
 8055bb6:	00 
 8055bb7:	89 7c 24 04          	mov    %edi,0x4(%esp)
 8055bbb:	89 34 24             	mov    %esi,(%esp)
 8055bbe:	e8 25 3a ff ff       	call   80495e8 <__strcpy_chk@plt>
 8055bc3:	8b 45 b4             	mov    -0x4c(%ebp),%eax
 8055bc6:	89 74 24 08          	mov    %esi,0x8(%esp)
 8055bca:	c7 44 24 04 1b 89 00 	movl   $0x891b,0x4(%esp)
 8055bd1:	00 
 8055bd2:	89 04 24             	mov    %eax,(%esp)
 8055bd5:	e8 de 38 ff ff       	call   80494b8 <ioctl@plt>
 8055bda:	85 c0                	test   %eax,%eax
 8055bdc:	0f 88 9e 03 00 00    	js     8055f80 <geteuid@plt+0xc7a8>
 8055be2:	8b 45 d4             	mov    -0x2c(%ebp),%eax
 8055be5:	89 43 68             	mov    %eax,0x68(%ebx)
 8055be8:	8b 45 d8             	mov    -0x28(%ebp),%eax
 8055beb:	89 43 6c             	mov    %eax,0x6c(%ebx)
 8055bee:	8b 45 dc             	mov    -0x24(%ebp),%eax
 8055bf1:	89 43 70             	mov    %eax,0x70(%ebx)
 8055bf4:	8b 45 e0             	mov    -0x20(%ebp),%eax
 8055bf7:	89 43 74             	mov    %eax,0x74(%ebx)
 8055bfa:	c7 04 24 05 00 00 00 	movl   $0x5,(%esp)
 8055c01:	e8 6a 98 ff ff       	call   804f470 <geteuid@plt+0x5c98>
 8055c06:	85 c0                	test   %eax,%eax
 8055c08:	78 60                	js     8055c6a <geteuid@plt+0xc492>
 8055c0a:	c7 44 24 08 10 00 00 	movl   $0x10,0x8(%esp)
 8055c11:	00 
 8055c12:	89 7c 24 04          	mov    %edi,0x4(%esp)
 8055c16:	89 34 24             	mov    %esi,(%esp)
 8055c19:	89 45 b0             	mov    %eax,-0x50(%ebp)
 8055c1c:	e8 c7 39 ff ff       	call   80495e8 <__strcpy_chk@plt>
 8055c21:	8b 55 b0             	mov    -0x50(%ebp),%edx
 8055c24:	89 74 24 08          	mov    %esi,0x8(%esp)
 8055c28:	c7 44 24 04 15 89 00 	movl   $0x8915,0x4(%esp)
 8055c2f:	00 
 8055c30:	89 14 24             	mov    %edx,(%esp)
 8055c33:	e8 80 38 ff ff       	call   80494b8 <ioctl@plt>
 8055c38:	85 c0                	test   %eax,%eax
 8055c3a:	75 2e                	jne    8055c6a <geteuid@plt+0xc492>
 8055c3c:	8b 45 d4             	mov    -0x2c(%ebp),%eax
 8055c3f:	89 83 b8 00 00 00    	mov    %eax,0xb8(%ebx)
 8055c45:	8b 45 d8             	mov    -0x28(%ebp),%eax
 8055c48:	89 83 bc 00 00 00    	mov    %eax,0xbc(%ebx)
 8055c4e:	8b 45 dc             	mov    -0x24(%ebp),%eax
 8055c51:	89 83 c0 00 00 00    	mov    %eax,0xc0(%ebx)
 8055c57:	8b 45 e0             	mov    -0x20(%ebp),%eax
 8055c5a:	c7 83 f0 00 00 00 01 	movl   $0x1,0xf0(%ebx)
 8055c61:	00 00 00 
 8055c64:	89 83 c4 00 00 00    	mov    %eax,0xc4(%ebx)
 8055c6a:	c7 04 24 04 00 00 00 	movl   $0x4,(%esp)
 8055c71:	e8 fa 97 ff ff       	call   804f470 <geteuid@plt+0x5c98>
 8055c76:	85 c0                	test   %eax,%eax
 8055c78:	89 45 b4             	mov    %eax,-0x4c(%ebp)
 8055c7b:	0f 88 7e 01 00 00    	js     8055dff <geteuid@plt+0xc627>
 8055c81:	c7 44 24 08 10 00 00 	movl   $0x10,0x8(%esp)
 8055c88:	00 
 8055c89:	89 7c 24 04          	mov    %edi,0x4(%esp)
 8055c8d:	89 34 24             	mov    %esi,(%esp)
 8055c90:	e8 53 39 ff ff       	call   80495e8 <__strcpy_chk@plt>
 8055c95:	8b 55 b4             	mov    -0x4c(%ebp),%edx
 8055c98:	c6 45 e2 03          	movb   $0x3,-0x1e(%ebp)
 8055c9c:	89 74 24 08          	mov    %esi,0x8(%esp)
 8055ca0:	c7 44 24 04 15 89 00 	movl   $0x8915,0x4(%esp)
 8055ca7:	00 
 8055ca8:	89 14 24             	mov    %edx,(%esp)
 8055cab:	e8 08 38 ff ff       	call   80494b8 <ioctl@plt>
 8055cb0:	85 c0                	test   %eax,%eax
 8055cb2:	75 28                	jne    8055cdc <geteuid@plt+0xc504>
 8055cb4:	c7 83 dc 00 00 00 01 	movl   $0x1,0xdc(%ebx)
 8055cbb:	00 00 00 
 8055cbe:	8b 45 d4             	mov    -0x2c(%ebp),%eax
 8055cc1:	89 43 78             	mov    %eax,0x78(%ebx)
 8055cc4:	8b 45 d8             	mov    -0x28(%ebp),%eax
 8055cc7:	89 43 7c             	mov    %eax,0x7c(%ebx)
 8055cca:	8b 45 dc             	mov    -0x24(%ebp),%eax
 8055ccd:	89 83 80 00 00 00    	mov    %eax,0x80(%ebx)
 8055cd3:	8b 45 e0             	mov    -0x20(%ebp),%eax
 8055cd6:	89 83 84 00 00 00    	mov    %eax,0x84(%ebx)
 8055cdc:	c7 44 24 08 10 00 00 	movl   $0x10,0x8(%esp)
 8055ce3:	00 
 8055ce4:	89 7c 24 04          	mov    %edi,0x4(%esp)
 8055ce8:	89 34 24             	mov    %esi,(%esp)
 8055ceb:	e8 f8 38 ff ff       	call   80495e8 <__strcpy_chk@plt>
 8055cf0:	8b 45 b4             	mov    -0x4c(%ebp),%eax
 8055cf3:	c6 45 e2 01          	movb   $0x1,-0x1e(%ebp)
 8055cf7:	89 74 24 08          	mov    %esi,0x8(%esp)
 8055cfb:	c7 44 24 04 15 89 00 	movl   $0x8915,0x4(%esp)
 8055d02:	00 
 8055d03:	89 04 24             	mov    %eax,(%esp)
 8055d06:	e8 ad 37 ff ff       	call   80494b8 <ioctl@plt>
 8055d0b:	85 c0                	test   %eax,%eax
 8055d0d:	75 2e                	jne    8055d3d <geteuid@plt+0xc565>
 8055d0f:	c7 83 e0 00 00 00 01 	movl   $0x1,0xe0(%ebx)
 8055d16:	00 00 00 
 8055d19:	8b 45 d4             	mov    -0x2c(%ebp),%eax
 8055d1c:	89 83 88 00 00 00    	mov    %eax,0x88(%ebx)
 8055d22:	8b 45 d8             	mov    -0x28(%ebp),%eax
 8055d25:	89 83 8c 00 00 00    	mov    %eax,0x8c(%ebx)
 8055d2b:	8b 45 dc             	mov    -0x24(%ebp),%eax
 8055d2e:	89 83 90 00 00 00    	mov    %eax,0x90(%ebx)
 8055d34:	8b 45 e0             	mov    -0x20(%ebp),%eax
 8055d37:	89 83 94 00 00 00    	mov    %eax,0x94(%ebx)
 8055d3d:	c7 44 24 08 10 00 00 	movl   $0x10,0x8(%esp)
 8055d44:	00 
 8055d45:	89 7c 24 04          	mov    %edi,0x4(%esp)
 8055d49:	89 34 24             	mov    %esi,(%esp)
 8055d4c:	e8 97 38 ff ff       	call   80495e8 <__strcpy_chk@plt>
 8055d51:	8b 55 b4             	mov    -0x4c(%ebp),%edx
 8055d54:	c6 45 e2 04          	movb   $0x4,-0x1e(%ebp)
 8055d58:	89 74 24 08          	mov    %esi,0x8(%esp)
 8055d5c:	c7 44 24 04 15 89 00 	movl   $0x8915,0x4(%esp)
 8055d63:	00 
 8055d64:	89 14 24             	mov    %edx,(%esp)
 8055d67:	e8 4c 37 ff ff       	call   80494b8 <ioctl@plt>
 8055d6c:	85 c0                	test   %eax,%eax
 8055d6e:	75 2e                	jne    8055d9e <geteuid@plt+0xc5c6>
 8055d70:	c7 83 e4 00 00 00 01 	movl   $0x1,0xe4(%ebx)
 8055d77:	00 00 00 
 8055d7a:	8b 45 d4             	mov    -0x2c(%ebp),%eax
 8055d7d:	89 83 98 00 00 00    	mov    %eax,0x98(%ebx)
 8055d83:	8b 45 d8             	mov    -0x28(%ebp),%eax
 8055d86:	89 83 9c 00 00 00    	mov    %eax,0x9c(%ebx)
 8055d8c:	8b 45 dc             	mov    -0x24(%ebp),%eax
 8055d8f:	89 83 a0 00 00 00    	mov    %eax,0xa0(%ebx)
 8055d95:	8b 45 e0             	mov    -0x20(%ebp),%eax
 8055d98:	89 83 a4 00 00 00    	mov    %eax,0xa4(%ebx)
 8055d9e:	c7 44 24 08 10 00 00 	movl   $0x10,0x8(%esp)
 8055da5:	00 
 8055da6:	89 7c 24 04          	mov    %edi,0x4(%esp)
 8055daa:	89 34 24             	mov    %esi,(%esp)
 8055dad:	e8 36 38 ff ff       	call   80495e8 <__strcpy_chk@plt>
 8055db2:	8b 45 b4             	mov    -0x4c(%ebp),%eax
 8055db5:	c6 45 e2 02          	movb   $0x2,-0x1e(%ebp)
 8055db9:	89 74 24 08          	mov    %esi,0x8(%esp)
 8055dbd:	c7 44 24 04 15 89 00 	movl   $0x8915,0x4(%esp)
 8055dc4:	00 
 8055dc5:	89 04 24             	mov    %eax,(%esp)
 8055dc8:	e8 eb 36 ff ff       	call   80494b8 <ioctl@plt>
 8055dcd:	85 c0                	test   %eax,%eax
 8055dcf:	75 2e                	jne    8055dff <geteuid@plt+0xc627>
 8055dd1:	c7 83 e8 00 00 00 01 	movl   $0x1,0xe8(%ebx)
 8055dd8:	00 00 00 
 8055ddb:	8b 45 d4             	mov    -0x2c(%ebp),%eax
 8055dde:	89 83 a8 00 00 00    	mov    %eax,0xa8(%ebx)
 8055de4:	8b 45 d8             	mov    -0x28(%ebp),%eax
 8055de7:	89 83 ac 00 00 00    	mov    %eax,0xac(%ebx)
 8055ded:	8b 45 dc             	mov    -0x24(%ebp),%eax
 8055df0:	89 83 b0 00 00 00    	mov    %eax,0xb0(%ebx)
 8055df6:	8b 45 e0             	mov    -0x20(%ebp),%eax
 8055df9:	89 83 b4 00 00 00    	mov    %eax,0xb4(%ebx)
 8055dff:	c7 04 24 13 00 00 00 	movl   $0x13,(%esp)
 8055e06:	e8 65 96 ff ff       	call   804f470 <geteuid@plt+0x5c98>
 8055e0b:	85 c0                	test   %eax,%eax
 8055e0d:	0f 88 7d 00 00 00    	js     8055e90 <geteuid@plt+0xc6b8>
 8055e13:	c7 44 24 08 10 00 00 	movl   $0x10,0x8(%esp)
 8055e1a:	00 
 8055e1b:	89 7c 24 04          	mov    %edi,0x4(%esp)
 8055e1f:	89 34 24             	mov    %esi,(%esp)
 8055e22:	89 45 b0             	mov    %eax,-0x50(%ebp)
 8055e25:	e8 be 37 ff ff       	call   80495e8 <__strcpy_chk@plt>
 8055e2a:	8b 55 b0             	mov    -0x50(%ebp),%edx
 8055e2d:	89 74 24 08          	mov    %esi,0x8(%esp)
 8055e31:	c7 44 24 04 15 89 00 	movl   $0x8915,0x4(%esp)
 8055e38:	00 
 8055e39:	89 14 24             	mov    %edx,(%esp)
 8055e3c:	e8 77 36 ff ff       	call   80494b8 <ioctl@plt>
 8055e41:	85 c0                	test   %eax,%eax
 8055e43:	75 4b                	jne    8055e90 <geteuid@plt+0xc6b8>
 8055e45:	8b 45 d4             	mov    -0x2c(%ebp),%eax
 8055e48:	89 83 c8 00 00 00    	mov    %eax,0xc8(%ebx)
 8055e4e:	8b 45 d8             	mov    -0x28(%ebp),%eax
 8055e51:	89 83 cc 00 00 00    	mov    %eax,0xcc(%ebx)
 8055e57:	8b 45 dc             	mov    -0x24(%ebp),%eax
 8055e5a:	89 83 d0 00 00 00    	mov    %eax,0xd0(%ebx)
 8055e60:	8b 45 e0             	mov    -0x20(%ebp),%eax
 8055e63:	c7 83 f4 00 00 00 01 	movl   $0x1,0xf4(%ebx)
 8055e6a:	00 00 00 
 8055e6d:	89 83 d4 00 00 00    	mov    %eax,0xd4(%ebx)
 8055e73:	31 c0                	xor    %eax,%eax
 8055e75:	8b 55 e4             	mov    -0x1c(%ebp),%edx
 8055e78:	65 33 15 14 00 00 00 	xor    %gs:0x14,%edx
 8055e7f:	0f 85 6f 01 00 00    	jne    8055ff4 <geteuid@plt+0xc81c>
 8055e85:	83 c4 5c             	add    $0x5c,%esp
 8055e88:	5b                   	pop    %ebx
 8055e89:	5e                   	pop    %esi
 8055e8a:	5f                   	pop    %edi
 8055e8b:	5d                   	pop    %ebp
 8055e8c:	c3                   	ret    
 8055e8d:	8d 76 00             	lea    0x0(%esi),%esi
 8055e90:	31 c0                	xor    %eax,%eax
 8055e92:	eb e1                	jmp    8055e75 <geteuid@plt+0xc69d>
 8055e94:	8d 74 26 00          	lea    0x0(%esi,%eiz,1),%esi
 8055e98:	8d 93 f8 00 00 00    	lea    0xf8(%ebx),%edx
 8055e9e:	31 c0                	xor    %eax,%eax
 8055ea0:	c7 04 02 00 00 00 00 	movl   $0x0,(%edx,%eax,1)
 8055ea7:	83 c0 04             	add    $0x4,%eax
 8055eaa:	83 f8 20             	cmp    $0x20,%eax
 8055ead:	72 f1                	jb     8055ea0 <geteuid@plt+0xc6c8>
 8055eaf:	e9 04 fa ff ff       	jmp    80558b8 <geteuid@plt+0xc0e0>
 8055eb4:	8d 74 26 00          	lea    0x0(%esi,%eiz,1),%esi
 8055eb8:	8d 43 38             	lea    0x38(%ebx),%eax
 8055ebb:	c7 43 38 00 00 00 00 	movl   $0x0,0x38(%ebx)
 8055ec2:	c7 40 04 00 00 00 00 	movl   $0x0,0x4(%eax)
 8055ec9:	c7 40 08 00 00 00 00 	movl   $0x0,0x8(%eax)
 8055ed0:	c7 40 0c 00 00 00 00 	movl   $0x0,0xc(%eax)
 8055ed7:	e9 1e fd ff ff       	jmp    8055bfa <geteuid@plt+0xc422>
 8055edc:	8d 74 26 00          	lea    0x0(%esi,%eiz,1),%esi
 8055ee0:	8d 43 28             	lea    0x28(%ebx),%eax
 8055ee3:	c7 43 28 00 00 00 00 	movl   $0x0,0x28(%ebx)
 8055eea:	c7 40 04 00 00 00 00 	movl   $0x0,0x4(%eax)
 8055ef1:	c7 40 08 00 00 00 00 	movl   $0x0,0x8(%eax)
 8055ef8:	c7 40 0c 00 00 00 00 	movl   $0x0,0xc(%eax)
 8055eff:	e9 1b fb ff ff       	jmp    8055a1f <geteuid@plt+0xc247>
 8055f04:	8d 74 26 00          	lea    0x0(%esi,%eiz,1),%esi
 8055f08:	c7 43 24 ff ff ff ff 	movl   $0xffffffff,0x24(%ebx)
 8055f0f:	e9 93 fb ff ff       	jmp    8055aa7 <geteuid@plt+0xc2cf>
 8055f14:	8d 74 26 00          	lea    0x0(%esi,%eiz,1),%esi
 8055f18:	c7 43 20 00 00 00 00 	movl   $0x0,0x20(%ebx)
 8055f1f:	e9 12 fa ff ff       	jmp    8055936 <geteuid@plt+0xc15e>
 8055f24:	8d 74 26 00          	lea    0x0(%esi,%eiz,1),%esi
 8055f28:	c7 43 1c 00 00 00 00 	movl   $0x0,0x1c(%ebx)
 8055f2f:	90                   	nop
 8055f30:	e9 c6 f9 ff ff       	jmp    80558fb <geteuid@plt+0xc123>
 8055f35:	8d 76 00             	lea    0x0(%esi),%esi
 8055f38:	8d 43 28             	lea    0x28(%ebx),%eax
 8055f3b:	c7 43 28 00 00 00 00 	movl   $0x0,0x28(%ebx)
 8055f42:	c7 40 04 00 00 00 00 	movl   $0x0,0x4(%eax)
 8055f49:	c7 40 08 00 00 00 00 	movl   $0x0,0x8(%eax)
 8055f50:	c7 40 0c 00 00 00 00 	movl   $0x0,0xc(%eax)
 8055f57:	e9 10 fb ff ff       	jmp    8055a6c <geteuid@plt+0xc294>
 8055f5c:	8d 74 26 00          	lea    0x0(%esi,%eiz,1),%esi
 8055f60:	c7 83 8c 01 00 00 00 	movl   $0x0,0x18c(%ebx)
 8055f67:	00 00 00 
 8055f6a:	e9 19 fa ff ff       	jmp    8055988 <geteuid@plt+0xc1b0>
 8055f6f:	90                   	nop
 8055f70:	c7 83 88 01 00 00 00 	movl   $0x0,0x188(%ebx)
 8055f77:	00 00 00 
 8055f7a:	e9 53 fa ff ff       	jmp    80559d2 <geteuid@plt+0xc1fa>
 8055f7f:	90                   	nop
 8055f80:	8d 43 68             	lea    0x68(%ebx),%eax
 8055f83:	c7 43 68 00 00 00 00 	movl   $0x0,0x68(%ebx)
 8055f8a:	c7 40 04 00 00 00 00 	movl   $0x0,0x4(%eax)
 8055f91:	c7 40 08 00 00 00 00 	movl   $0x0,0x8(%eax)
 8055f98:	c7 40 0c 00 00 00 00 	movl   $0x0,0xc(%eax)
 8055f9f:	e9 56 fc ff ff       	jmp    8055bfa <geteuid@plt+0xc422>
 8055fa4:	8d 74 26 00          	lea    0x0(%esi,%eiz,1),%esi
 8055fa8:	8d 43 58             	lea    0x58(%ebx),%eax
 8055fab:	c7 43 58 00 00 00 00 	movl   $0x0,0x58(%ebx)
 8055fb2:	c7 40 04 00 00 00 00 	movl   $0x0,0x4(%eax)
 8055fb9:	c7 40 08 00 00 00 00 	movl   $0x0,0x8(%eax)
 8055fc0:	c7 40 0c 00 00 00 00 	movl   $0x0,0xc(%eax)
 8055fc7:	e9 e3 fb ff ff       	jmp    8055baf <geteuid@plt+0xc3d7>
 8055fcc:	8d 74 26 00          	lea    0x0(%esi,%eiz,1),%esi
 8055fd0:	8d 43 48             	lea    0x48(%ebx),%eax
 8055fd3:	c7 43 48 00 00 00 00 	movl   $0x0,0x48(%ebx)
 8055fda:	c7 40 04 00 00 00 00 	movl   $0x0,0x4(%eax)
 8055fe1:	c7 40 08 00 00 00 00 	movl   $0x0,0x8(%eax)
 8055fe8:	c7 40 0c 00 00 00 00 	movl   $0x0,0xc(%eax)
 8055fef:	e9 70 fb ff ff       	jmp    8055b64 <geteuid@plt+0xc38c>
 8055ff4:	e8 6f 36 ff ff       	call   8049668 <__stack_chk_fail@plt>
 8055ff9:	8d b4 26 00 00 00 00 	lea    0x0(%esi,%eiz,1),%esi
 8056000:	55                   	push   %ebp
 8056001:	89 e5                	mov    %esp,%ebp
 8056003:	83 ec 28             	sub    $0x28,%esp
 8056006:	89 5d f8             	mov    %ebx,-0x8(%ebp)
 8056009:	8b 5d 08             	mov    0x8(%ebp),%ebx
 805600c:	89 75 fc             	mov    %esi,-0x4(%ebp)
 805600f:	89 1c 24             	mov    %ebx,(%esp)
 8056012:	e8 f9 f7 ff ff       	call   8055810 <geteuid@plt+0xc038>
 8056017:	85 c0                	test   %eax,%eax
 8056019:	78 0d                	js     8056028 <geteuid@plt+0xc850>
 805601b:	31 c0                	xor    %eax,%eax
 805601d:	8b 5d f8             	mov    -0x8(%ebp),%ebx
 8056020:	8b 75 fc             	mov    -0x4(%ebp),%esi
 8056023:	89 ec                	mov    %ebp,%esp
 8056025:	5d                   	pop    %ebp
 8056026:	c3                   	ret    
 8056027:	90                   	nop
 8056028:	e8 4b 32 ff ff       	call   8049278 <__errno_location@plt>
 805602d:	8b 00                	mov    (%eax),%eax
 805602f:	83 f8 13             	cmp    $0x13,%eax
 8056032:	74 41                	je     8056075 <geteuid@plt+0xc89d>
 8056034:	89 04 24             	mov    %eax,(%esp)
 8056037:	e8 7c 32 ff ff       	call   80492b8 <strerror@plt>
 805603c:	89 c6                	mov    %eax,%esi
 805603e:	c7 04 24 a4 f2 05 08 	movl   $0x805f2a4,(%esp)
 8056045:	83 c3 08             	add    $0x8,%ebx
 8056048:	e8 db 33 ff ff       	call   8049428 <gettext@plt>
 805604d:	89 74 24 10          	mov    %esi,0x10(%esp)
 8056051:	89 5c 24 0c          	mov    %ebx,0xc(%esp)
 8056055:	c7 44 24 04 01 00 00 	movl   $0x1,0x4(%esp)
 805605c:	00 
 805605d:	89 44 24 08          	mov    %eax,0x8(%esp)
 8056061:	a1 80 28 06 08       	mov    0x8062880,%eax
 8056066:	89 04 24             	mov    %eax,(%esp)
 8056069:	e8 9a 32 ff ff       	call   8049308 <__fprintf_chk@plt>
 805606e:	b8 ff ff ff ff       	mov    $0xffffffff,%eax
 8056073:	eb a8                	jmp    805601d <geteuid@plt+0xc845>
 8056075:	c7 04 24 3b f0 05 08 	movl   $0x805f03b,(%esp)
 805607c:	e8 a7 33 ff ff       	call   8049428 <gettext@plt>
 8056081:	89 c6                	mov    %eax,%esi
 8056083:	eb b9                	jmp    805603e <geteuid@plt+0xc866>
 8056085:	8d 74 26 00          	lea    0x0(%esi,%eiz,1),%esi
 8056089:	8d bc 27 00 00 00 00 	lea    0x0(%edi,%eiz,1),%edi
 8056090:	55                   	push   %ebp
 8056091:	89 e5                	mov    %esp,%ebp
 8056093:	53                   	push   %ebx
 8056094:	83 ec 24             	sub    $0x24,%esp
 8056097:	8b 5d 08             	mov    0x8(%ebp),%ebx
 805609a:	89 1c 24             	mov    %ebx,(%esp)
 805609d:	e8 5e ff ff ff       	call   8056000 <geteuid@plt+0xc828>
 80560a2:	85 c0                	test   %eax,%eax
 80560a4:	78 1d                	js     80560c3 <geteuid@plt+0xc8eb>
 80560a6:	f6 43 1a 01          	testb  $0x1,0x1a(%ebx)
 80560aa:	75 09                	jne    80560b5 <geteuid@plt+0xc8dd>
 80560ac:	8b 55 0c             	mov    0xc(%ebp),%edx
 80560af:	8b 0a                	mov    (%edx),%ecx
 80560b1:	85 c9                	test   %ecx,%ecx
 80560b3:	74 0e                	je     80560c3 <geteuid@plt+0xc8eb>
 80560b5:	89 45 f4             	mov    %eax,-0xc(%ebp)
 80560b8:	89 1c 24             	mov    %ebx,(%esp)
 80560bb:	e8 20 f7 ff ff       	call   80557e0 <geteuid@plt+0xc008>
 80560c0:	8b 45 f4             	mov    -0xc(%ebp),%eax
 80560c3:	83 c4 24             	add    $0x24,%esp
 80560c6:	5b                   	pop    %ebx
 80560c7:	5d                   	pop    %ebp
 80560c8:	c3                   	ret    
 80560c9:	8d b4 26 00 00 00 00 	lea    0x0(%esi,%eiz,1),%esi
 80560d0:	55                   	push   %ebp
 80560d1:	89 e5                	mov    %esp,%ebp
 80560d3:	57                   	push   %edi
 80560d4:	56                   	push   %esi
 80560d5:	89 c6                	mov    %eax,%esi
 80560d7:	53                   	push   %ebx
 80560d8:	83 ec 1c             	sub    $0x1c,%esp
 80560db:	8b 1d 80 31 06 08    	mov    0x8063180,%ebx
 80560e1:	85 db                	test   %ebx,%ebx
 80560e3:	74 3b                	je     8056120 <geteuid@plt+0xc948>
 80560e5:	8b 1d 84 31 06 08    	mov    0x8063184,%ebx
 80560eb:	85 db                	test   %ebx,%ebx
 80560ed:	75 13                	jne    8056102 <geteuid@plt+0xc92a>
 80560ef:	eb 39                	jmp    805612a <geteuid@plt+0xc952>
 80560f1:	8d b4 26 00 00 00 00 	lea    0x0(%esi,%eiz,1),%esi
 80560f8:	7c 76                	jl     8056170 <geteuid@plt+0xc998>
 80560fa:	8b 5b 04             	mov    0x4(%ebx),%ebx
 80560fd:	85 db                	test   %ebx,%ebx
 80560ff:	90                   	nop
 8056100:	74 28                	je     805612a <geteuid@plt+0xc952>
 8056102:	8d 43 08             	lea    0x8(%ebx),%eax
 8056105:	89 74 24 04          	mov    %esi,0x4(%esp)
 8056109:	89 04 24             	mov    %eax,(%esp)
 805610c:	e8 0f 1d 00 00       	call   8057e20 <geteuid@plt+0xe648>
 8056111:	83 f8 00             	cmp    $0x0,%eax
 8056114:	75 e2                	jne    80560f8 <geteuid@plt+0xc920>
 8056116:	83 c4 1c             	add    $0x1c,%esp
 8056119:	89 d8                	mov    %ebx,%eax
 805611b:	5b                   	pop    %ebx
 805611c:	5e                   	pop    %esi
 805611d:	5f                   	pop    %edi
 805611e:	5d                   	pop    %ebp
 805611f:	c3                   	ret    
 8056120:	c7 05 84 31 06 08 00 	movl   $0x0,0x8063184
 8056127:	00 00 00 
 805612a:	c7 04 24 90 01 00 00 	movl   $0x190,(%esp)
 8056131:	31 ff                	xor    %edi,%edi
 8056133:	e8 88 27 00 00       	call   80588c0 <geteuid@plt+0xf0e8>
 8056138:	c7 44 24 08 10 00 00 	movl   $0x10,0x8(%esp)
 805613f:	00 
 8056140:	89 74 24 04          	mov    %esi,0x4(%esp)
 8056144:	89 c3                	mov    %eax,%ebx
 8056146:	8d 40 08             	lea    0x8(%eax),%eax
 8056149:	89 04 24             	mov    %eax,(%esp)
 805614c:	e8 2f 26 00 00       	call   8058780 <geteuid@plt+0xefa8>
 8056151:	ba 80 31 06 08       	mov    $0x8063180,%edx
 8056156:	89 7b 04             	mov    %edi,0x4(%ebx)
 8056159:	8b 02                	mov    (%edx),%eax
 805615b:	85 c0                	test   %eax,%eax
 805615d:	89 03                	mov    %eax,(%ebx)
 805615f:	74 47                	je     80561a8 <geteuid@plt+0xc9d0>
 8056161:	89 58 04             	mov    %ebx,0x4(%eax)
 8056164:	89 1a                	mov    %ebx,(%edx)
 8056166:	83 c4 1c             	add    $0x1c,%esp
 8056169:	89 d8                	mov    %ebx,%eax
 805616b:	5b                   	pop    %ebx
 805616c:	5e                   	pop    %esi
 805616d:	5f                   	pop    %edi
 805616e:	5d                   	pop    %ebp
 805616f:	c3                   	ret    
 8056170:	c7 04 24 90 01 00 00 	movl   $0x190,(%esp)
 8056177:	89 df                	mov    %ebx,%edi
 8056179:	e8 42 27 00 00       	call   80588c0 <geteuid@plt+0xf0e8>
 805617e:	c7 44 24 08 10 00 00 	movl   $0x10,0x8(%esp)
 8056185:	00 
 8056186:	89 74 24 04          	mov    %esi,0x4(%esp)
 805618a:	89 c3                	mov    %eax,%ebx
 805618c:	8d 40 08             	lea    0x8(%eax),%eax
 805618f:	89 04 24             	mov    %eax,(%esp)
 8056192:	e8 e9 25 00 00       	call   8058780 <geteuid@plt+0xefa8>
 8056197:	85 ff                	test   %edi,%edi
 8056199:	74 b6                	je     8056151 <geteuid@plt+0xc979>
 805619b:	89 fa                	mov    %edi,%edx
 805619d:	89 7b 04             	mov    %edi,0x4(%ebx)
 80561a0:	8b 02                	mov    (%edx),%eax
 80561a2:	85 c0                	test   %eax,%eax
 80561a4:	89 03                	mov    %eax,(%ebx)
 80561a6:	75 b9                	jne    8056161 <geteuid@plt+0xc989>
 80561a8:	89 1d 84 31 06 08    	mov    %ebx,0x8063184
 80561ae:	89 1a                	mov    %ebx,(%edx)
 80561b0:	eb b4                	jmp    8056166 <geteuid@plt+0xc98e>
 80561b2:	8d b4 26 00 00 00 00 	lea    0x0(%esi,%eiz,1),%esi
 80561b9:	8d bc 27 00 00 00 00 	lea    0x0(%edi,%eiz,1),%edi
 80561c0:	55                   	push   %ebp
 80561c1:	89 e5                	mov    %esp,%ebp
 80561c3:	83 ec 18             	sub    $0x18,%esp
 80561c6:	a1 80 31 06 08       	mov    0x8063180,%eax
 80561cb:	85 c0                	test   %eax,%eax
 80561cd:	74 1a                	je     80561e9 <geteuid@plt+0xca11>
 80561cf:	90                   	nop
 80561d0:	8b 10                	mov    (%eax),%edx
 80561d2:	89 04 24             	mov    %eax,(%esp)
 80561d5:	89 15 80 31 06 08    	mov    %edx,0x8063180
 80561db:	e8 88 32 ff ff       	call   8049468 <free@plt>
 80561e0:	a1 80 31 06 08       	mov    0x8063180,%eax
 80561e5:	85 c0                	test   %eax,%eax
 80561e7:	75 e7                	jne    80561d0 <geteuid@plt+0xc9f8>
 80561e9:	c7 05 84 31 06 08 00 	movl   $0x0,0x8063184
 80561f0:	00 00 00 
 80561f3:	31 c0                	xor    %eax,%eax
 80561f5:	c7 05 70 31 06 08 00 	movl   $0x0,0x8063170
 80561fc:	00 00 00 
 80561ff:	c9                   	leave  
 8056200:	c3                   	ret    
 8056201:	eb 0d                	jmp    8056210 <geteuid@plt+0xca38>
 8056203:	90                   	nop
 8056204:	90                   	nop
 8056205:	90                   	nop
 8056206:	90                   	nop
 8056207:	90                   	nop
 8056208:	90                   	nop
 8056209:	90                   	nop
 805620a:	90                   	nop
 805620b:	90                   	nop
 805620c:	90                   	nop
 805620d:	90                   	nop
 805620e:	90                   	nop
 805620f:	90                   	nop
 8056210:	55                   	push   %ebp
 8056211:	89 e5                	mov    %esp,%ebp
 8056213:	53                   	push   %ebx
 8056214:	83 ec 54             	sub    $0x54,%esp
 8056217:	a1 00 23 06 08       	mov    0x8062300,%eax
 805621c:	8b 55 08             	mov    0x8(%ebp),%edx
 805621f:	8b 5d 0c             	mov    0xc(%ebp),%ebx
 8056222:	83 f8 02             	cmp    $0x2,%eax
 8056225:	0f 84 8d 01 00 00    	je     80563b8 <geteuid@plt+0xcbe0>
 805622b:	83 f8 03             	cmp    $0x3,%eax
 805622e:	0f 84 cc 00 00 00    	je     8056300 <geteuid@plt+0xcb28>
 8056234:	83 f8 01             	cmp    $0x1,%eax
 8056237:	74 0f                	je     8056248 <geteuid@plt+0xca70>
 8056239:	83 c4 54             	add    $0x54,%esp
 805623c:	31 c0                	xor    %eax,%eax
 805623e:	5b                   	pop    %ebx
 805623f:	5d                   	pop    %ebp
 8056240:	c3                   	ret    
 8056241:	8d b4 26 00 00 00 00 	lea    0x0(%esi,%eiz,1),%esi
 8056248:	8d 83 78 01 00 00    	lea    0x178(%ebx),%eax
 805624e:	89 44 24 30          	mov    %eax,0x30(%esp)
 8056252:	8d 83 58 01 00 00    	lea    0x158(%ebx),%eax
 8056258:	89 44 24 2c          	mov    %eax,0x2c(%esp)
 805625c:	8d 83 7c 01 00 00    	lea    0x17c(%ebx),%eax
 8056262:	89 44 24 28          	mov    %eax,0x28(%esp)
 8056266:	8d 83 48 01 00 00    	lea    0x148(%ebx),%eax
 805626c:	89 44 24 24          	mov    %eax,0x24(%esp)
 8056270:	8d 83 40 01 00 00    	lea    0x140(%ebx),%eax
 8056276:	89 44 24 20          	mov    %eax,0x20(%esp)
 805627a:	8d 83 24 01 00 00    	lea    0x124(%ebx),%eax
 8056280:	89 44 24 1c          	mov    %eax,0x1c(%esp)
 8056284:	8d 83 68 01 00 00    	lea    0x168(%ebx),%eax
 805628a:	89 44 24 18          	mov    %eax,0x18(%esp)
 805628e:	8d 83 6c 01 00 00    	lea    0x16c(%ebx),%eax
 8056294:	89 44 24 14          	mov    %eax,0x14(%esp)
 8056298:	8d 83 44 01 00 00    	lea    0x144(%ebx),%eax
 805629e:	89 44 24 10          	mov    %eax,0x10(%esp)
 80562a2:	8d 83 3c 01 00 00    	lea    0x13c(%ebx),%eax
 80562a8:	89 44 24 0c          	mov    %eax,0xc(%esp)
 80562ac:	8d 83 1c 01 00 00    	lea    0x11c(%ebx),%eax
 80562b2:	89 44 24 08          	mov    %eax,0x8(%esp)
 80562b6:	c7 44 24 04 48 f3 05 	movl   $0x805f348,0x4(%esp)
 80562bd:	08 
 80562be:	89 14 24             	mov    %edx,(%esp)
 80562c1:	e8 22 34 ff ff       	call   80496e8 <sscanf@plt>
 80562c6:	31 c0                	xor    %eax,%eax
 80562c8:	c7 83 2c 01 00 00 00 	movl   $0x0,0x12c(%ebx)
 80562cf:	00 00 00 
 80562d2:	c7 83 30 01 00 00 00 	movl   $0x0,0x130(%ebx)
 80562d9:	00 00 00 
 80562dc:	c7 83 34 01 00 00 00 	movl   $0x0,0x134(%ebx)
 80562e3:	00 00 00 
 80562e6:	c7 83 38 01 00 00 00 	movl   $0x0,0x138(%ebx)
 80562ed:	00 00 00 
 80562f0:	c7 83 4c 01 00 00 00 	movl   $0x0,0x14c(%ebx)
 80562f7:	00 00 00 
 80562fa:	83 c4 54             	add    $0x54,%esp
 80562fd:	5b                   	pop    %ebx
 80562fe:	5d                   	pop    %ebp
 80562ff:	c3                   	ret    
 8056300:	8d 83 54 01 00 00    	lea    0x154(%ebx),%eax
 8056306:	89 44 24 44          	mov    %eax,0x44(%esp)
 805630a:	8d 83 78 01 00 00    	lea    0x178(%ebx),%eax
 8056310:	89 44 24 40          	mov    %eax,0x40(%esp)
 8056314:	8d 83 58 01 00 00    	lea    0x158(%ebx),%eax
 805631a:	89 44 24 3c          	mov    %eax,0x3c(%esp)
 805631e:	8d 83 7c 01 00 00    	lea    0x17c(%ebx),%eax
 8056324:	89 44 24 38          	mov    %eax,0x38(%esp)
 8056328:	8d 83 48 01 00 00    	lea    0x148(%ebx),%eax
 805632e:	89 44 24 34          	mov    %eax,0x34(%esp)
 8056332:	8d 83 40 01 00 00    	lea    0x140(%ebx),%eax
 8056338:	89 44 24 30          	mov    %eax,0x30(%esp)
 805633c:	8d 83 24 01 00 00    	lea    0x124(%ebx),%eax
 8056342:	89 44 24 2c          	mov    %eax,0x2c(%esp)
 8056346:	8d 83 34 01 00 00    	lea    0x134(%ebx),%eax
 805634c:	89 44 24 28          	mov    %eax,0x28(%esp)
 8056350:	8d 83 4c 01 00 00    	lea    0x14c(%ebx),%eax
 8056356:	89 44 24 24          	mov    %eax,0x24(%esp)
 805635a:	8d 83 50 01 00 00    	lea    0x150(%ebx),%eax
 8056360:	89 44 24 20          	mov    %eax,0x20(%esp)
 8056364:	8d 83 68 01 00 00    	lea    0x168(%ebx),%eax
 805636a:	89 44 24 1c          	mov    %eax,0x1c(%esp)
 805636e:	8d 83 6c 01 00 00    	lea    0x16c(%ebx),%eax
 8056374:	89 44 24 18          	mov    %eax,0x18(%esp)
 8056378:	8d 83 44 01 00 00    	lea    0x144(%ebx),%eax
 805637e:	89 44 24 14          	mov    %eax,0x14(%esp)
 8056382:	8d 83 3c 01 00 00    	lea    0x13c(%ebx),%eax
 8056388:	89 44 24 10          	mov    %eax,0x10(%esp)
 805638c:	8d 83 1c 01 00 00    	lea    0x11c(%ebx),%eax
 8056392:	81 c3 2c 01 00 00    	add    $0x12c,%ebx
 8056398:	89 5c 24 08          	mov    %ebx,0x8(%esp)
 805639c:	89 44 24 0c          	mov    %eax,0xc(%esp)
 80563a0:	c7 44 24 04 d4 f2 05 	movl   $0x805f2d4,0x4(%esp)
 80563a7:	08 
 80563a8:	89 14 24             	mov    %edx,(%esp)
 80563ab:	e8 38 33 ff ff       	call   80496e8 <sscanf@plt>
 80563b0:	83 c4 54             	add    $0x54,%esp
 80563b3:	31 c0                	xor    %eax,%eax
 80563b5:	5b                   	pop    %ebx
 80563b6:	5d                   	pop    %ebp
 80563b7:	c3                   	ret    
 80563b8:	8d 83 78 01 00 00    	lea    0x178(%ebx),%eax
 80563be:	89 44 24 38          	mov    %eax,0x38(%esp)
 80563c2:	8d 83 58 01 00 00    	lea    0x158(%ebx),%eax
 80563c8:	89 44 24 34          	mov    %eax,0x34(%esp)
 80563cc:	8d 83 7c 01 00 00    	lea    0x17c(%ebx),%eax
 80563d2:	89 44 24 30          	mov    %eax,0x30(%esp)
 80563d6:	8d 83 48 01 00 00    	lea    0x148(%ebx),%eax
 80563dc:	89 44 24 2c          	mov    %eax,0x2c(%esp)
 80563e0:	8d 83 40 01 00 00    	lea    0x140(%ebx),%eax
 80563e6:	89 44 24 28          	mov    %eax,0x28(%esp)
 80563ea:	8d 83 24 01 00 00    	lea    0x124(%ebx),%eax
 80563f0:	89 44 24 24          	mov    %eax,0x24(%esp)
 80563f4:	8d 83 34 01 00 00    	lea    0x134(%ebx),%eax
 80563fa:	89 44 24 20          	mov    %eax,0x20(%esp)
 80563fe:	8d 83 68 01 00 00    	lea    0x168(%ebx),%eax
 8056404:	89 44 24 1c          	mov    %eax,0x1c(%esp)
 8056408:	8d 83 6c 01 00 00    	lea    0x16c(%ebx),%eax
 805640e:	89 44 24 18          	mov    %eax,0x18(%esp)
 8056412:	8d 83 44 01 00 00    	lea    0x144(%ebx),%eax
 8056418:	89 44 24 14          	mov    %eax,0x14(%esp)
 805641c:	8d 83 3c 01 00 00    	lea    0x13c(%ebx),%eax
 8056422:	89 44 24 10          	mov    %eax,0x10(%esp)
 8056426:	8d 83 1c 01 00 00    	lea    0x11c(%ebx),%eax
 805642c:	89 44 24 0c          	mov    %eax,0xc(%esp)
 8056430:	8d 83 2c 01 00 00    	lea    0x12c(%ebx),%eax
 8056436:	89 44 24 08          	mov    %eax,0x8(%esp)
 805643a:	c7 44 24 04 14 f3 05 	movl   $0x805f314,0x4(%esp)
 8056441:	08 
 8056442:	89 14 24             	mov    %edx,(%esp)
 8056445:	e8 9e 32 ff ff       	call   80496e8 <sscanf@plt>
 805644a:	31 c0                	xor    %eax,%eax
 805644c:	c7 83 4c 01 00 00 00 	movl   $0x0,0x14c(%ebx)
 8056453:	00 00 00 
 8056456:	83 c4 54             	add    $0x54,%esp
 8056459:	5b                   	pop    %ebx
 805645a:	5d                   	pop    %ebp
 805645b:	c3                   	ret    
 805645c:	8d 74 26 00          	lea    0x0(%esi,%eiz,1),%esi
 8056460:	55                   	push   %ebp
 8056461:	89 e5                	mov    %esp,%ebp
 8056463:	53                   	push   %ebx
 8056464:	83 ec 14             	sub    $0x14,%esp
 8056467:	8b 5d 08             	mov    0x8(%ebp),%ebx
 805646a:	c7 44 24 04 4c f0 05 	movl   $0x805f04c,0x4(%esp)
 8056471:	08 
 8056472:	89 1c 24             	mov    %ebx,(%esp)
 8056475:	e8 be 31 ff ff       	call   8049638 <strstr@plt>
 805647a:	89 c2                	mov    %eax,%edx
 805647c:	b8 03 00 00 00       	mov    $0x3,%eax
 8056481:	85 d2                	test   %edx,%edx
 8056483:	74 0b                	je     8056490 <geteuid@plt+0xccb8>
 8056485:	83 c4 14             	add    $0x14,%esp
 8056488:	5b                   	pop    %ebx
 8056489:	5d                   	pop    %ebp
 805648a:	c3                   	ret    
 805648b:	90                   	nop
 805648c:	8d 74 26 00          	lea    0x0(%esi,%eiz,1),%esi
 8056490:	89 1c 24             	mov    %ebx,(%esp)
 8056493:	c7 44 24 04 57 f0 05 	movl   $0x805f057,0x4(%esp)
 805649a:	08 
 805649b:	e8 98 31 ff ff       	call   8049638 <strstr@plt>
 80564a0:	83 f8 01             	cmp    $0x1,%eax
 80564a3:	19 c0                	sbb    %eax,%eax
 80564a5:	83 c4 14             	add    $0x14,%esp
 80564a8:	83 c0 02             	add    $0x2,%eax
 80564ab:	5b                   	pop    %ebx
 80564ac:	5d                   	pop    %ebp
 80564ad:	c3                   	ret    
 80564ae:	66 90                	xchg   %ax,%ax
 80564b0:	55                   	push   %ebp
 80564b1:	89 e5                	mov    %esp,%ebp
 80564b3:	57                   	push   %edi
 80564b4:	56                   	push   %esi
 80564b5:	53                   	push   %ebx
 80564b6:	83 ec 1c             	sub    $0x1c,%esp
 80564b9:	8b 75 08             	mov    0x8(%ebp),%esi
 80564bc:	e8 17 30 ff ff       	call   80494d8 <__ctype_b_loc@plt>
 80564c1:	8b 5d 0c             	mov    0xc(%ebp),%ebx
 80564c4:	8b 10                	mov    (%eax),%edx
 80564c6:	eb 03                	jmp    80564cb <geteuid@plt+0xccf3>
 80564c8:	83 c3 01             	add    $0x1,%ebx
 80564cb:	0f b6 0b             	movzbl (%ebx),%ecx
 80564ce:	0f be f9             	movsbl %cl,%edi
 80564d1:	f6 44 7a 01 20       	testb  $0x20,0x1(%edx,%edi,2)
 80564d6:	75 f0                	jne    80564c8 <geteuid@plt+0xccf0>
 80564d8:	84 c9                	test   %cl,%cl
 80564da:	75 1f                	jne    80564fb <geteuid@plt+0xcd23>
 80564dc:	eb 5a                	jmp    8056538 <geteuid@plt+0xcd60>
 80564de:	66 90                	xchg   %ax,%ax
 80564e0:	83 c3 01             	add    $0x1,%ebx
 80564e3:	88 0e                	mov    %cl,(%esi)
 80564e5:	0f b6 0b             	movzbl (%ebx),%ecx
 80564e8:	83 c6 01             	add    $0x1,%esi
 80564eb:	84 c9                	test   %cl,%cl
 80564ed:	74 49                	je     8056538 <geteuid@plt+0xcd60>
 80564ef:	8b 10                	mov    (%eax),%edx
 80564f1:	0f be f9             	movsbl %cl,%edi
 80564f4:	f6 44 7a 01 20       	testb  $0x20,0x1(%edx,%edi,2)
 80564f9:	75 3d                	jne    8056538 <geteuid@plt+0xcd60>
 80564fb:	80 f9 3a             	cmp    $0x3a,%cl
 80564fe:	75 e0                	jne    80564e0 <geteuid@plt+0xcd08>
 8056500:	83 c3 01             	add    $0x1,%ebx
 8056503:	0f b6 0b             	movzbl (%ebx),%ecx
 8056506:	84 c9                	test   %cl,%cl
 8056508:	74 2e                	je     8056538 <geteuid@plt+0xcd60>
 805650a:	0f be f9             	movsbl %cl,%edi
 805650d:	f6 44 7a 01 08       	testb  $0x8,0x1(%edx,%edi,2)
 8056512:	74 37                	je     805654b <geteuid@plt+0xcd73>
 8056514:	89 45 e4             	mov    %eax,-0x1c(%ebp)
 8056517:	89 d8                	mov    %ebx,%eax
 8056519:	eb 0f                	jmp    805652a <geteuid@plt+0xcd52>
 805651b:	90                   	nop
 805651c:	8d 74 26 00          	lea    0x0(%esi,%eiz,1),%esi
 8056520:	0f be f9             	movsbl %cl,%edi
 8056523:	f6 44 7a 01 08       	testb  $0x8,0x1(%edx,%edi,2)
 8056528:	74 1e                	je     8056548 <geteuid@plt+0xcd70>
 805652a:	83 c0 01             	add    $0x1,%eax
 805652d:	0f b6 08             	movzbl (%eax),%ecx
 8056530:	84 c9                	test   %cl,%cl
 8056532:	75 ec                	jne    8056520 <geteuid@plt+0xcd48>
 8056534:	8d 74 26 00          	lea    0x0(%esi,%eiz,1),%esi
 8056538:	c6 06 00             	movb   $0x0,(%esi)
 805653b:	89 d8                	mov    %ebx,%eax
 805653d:	83 c4 1c             	add    $0x1c,%esp
 8056540:	5b                   	pop    %ebx
 8056541:	5e                   	pop    %esi
 8056542:	5f                   	pop    %edi
 8056543:	5d                   	pop    %ebp
 8056544:	c3                   	ret    
 8056545:	8d 76 00             	lea    0x0(%esi),%esi
 8056548:	8b 45 e4             	mov    -0x1c(%ebp),%eax
 805654b:	80 f9 3a             	cmp    $0x3a,%cl
 805654e:	75 e8                	jne    8056538 <geteuid@plt+0xcd60>
 8056550:	c6 06 3a             	movb   $0x3a,(%esi)
 8056553:	0f b6 13             	movzbl (%ebx),%edx
 8056556:	83 c6 01             	add    $0x1,%esi
 8056559:	84 d2                	test   %dl,%dl
 805655b:	75 12                	jne    805656f <geteuid@plt+0xcd97>
 805655d:	eb 1c                	jmp    805657b <geteuid@plt+0xcda3>
 805655f:	90                   	nop
 8056560:	83 c3 01             	add    $0x1,%ebx
 8056563:	88 16                	mov    %dl,(%esi)
 8056565:	0f b6 13             	movzbl (%ebx),%edx
 8056568:	83 c6 01             	add    $0x1,%esi
 805656b:	84 d2                	test   %dl,%dl
 805656d:	74 0c                	je     805657b <geteuid@plt+0xcda3>
 805656f:	8b 08                	mov    (%eax),%ecx
 8056571:	0f be fa             	movsbl %dl,%edi
 8056574:	f6 44 79 01 08       	testb  $0x8,0x1(%ecx,%edi,2)
 8056579:	75 e5                	jne    8056560 <geteuid@plt+0xcd88>
 805657b:	83 c3 01             	add    $0x1,%ebx
 805657e:	c6 06 00             	movb   $0x0,(%esi)
 8056581:	89 d8                	mov    %ebx,%eax
 8056583:	83 c4 1c             	add    $0x1c,%esp
 8056586:	5b                   	pop    %ebx
 8056587:	5e                   	pop    %esi
 8056588:	5f                   	pop    %edi
 8056589:	5d                   	pop    %ebp
 805658a:	c3                   	ret    
 805658b:	90                   	nop
 805658c:	8d 74 26 00          	lea    0x0(%esi,%eiz,1),%esi
 8056590:	55                   	push   %ebp
 8056591:	89 e5                	mov    %esp,%ebp
 8056593:	57                   	push   %edi
 8056594:	56                   	push   %esi
 8056595:	53                   	push   %ebx
 8056596:	81 ec 5c 02 00 00    	sub    $0x25c,%esp
 805659c:	c7 44 24 04 7a bf 05 	movl   $0x805bf7a,0x4(%esp)
 80565a3:	08 
 80565a4:	89 85 c0 fd ff ff    	mov    %eax,-0x240(%ebp)
 80565aa:	c7 04 24 5d f0 05 08 	movl   $0x805f05d,(%esp)
 80565b1:	65 a1 14 00 00 00    	mov    %gs:0x14,%eax
 80565b7:	89 45 e4             	mov    %eax,-0x1c(%ebp)
 80565ba:	31 c0                	xor    %eax,%eax
 80565bc:	e8 97 2f ff ff       	call   8049558 <fopen@plt>
 80565c1:	85 c0                	test   %eax,%eax
 80565c3:	89 85 c4 fd ff ff    	mov    %eax,-0x23c(%ebp)
 80565c9:	0f 84 1c 01 00 00    	je     80566eb <geteuid@plt+0xcf13>
 80565cf:	8b 95 c4 fd ff ff    	mov    -0x23c(%ebp),%edx
 80565d5:	8d b5 d4 fd ff ff    	lea    -0x22c(%ebp),%esi
 80565db:	c7 44 24 04 00 02 00 	movl   $0x200,0x4(%esp)
 80565e2:	00 
 80565e3:	8d 7d d4             	lea    -0x2c(%ebp),%edi
 80565e6:	89 34 24             	mov    %esi,(%esp)
 80565e9:	89 54 24 08          	mov    %edx,0x8(%esp)
 80565ed:	e8 b6 2d ff ff       	call   80493a8 <fgets@plt>
 80565f2:	8b 85 c4 fd ff ff    	mov    -0x23c(%ebp),%eax
 80565f8:	c7 44 24 04 00 02 00 	movl   $0x200,0x4(%esp)
 80565ff:	00 
 8056600:	89 34 24             	mov    %esi,(%esp)
 8056603:	89 44 24 08          	mov    %eax,0x8(%esp)
 8056607:	e8 9c 2d ff ff       	call   80493a8 <fgets@plt>
 805660c:	89 34 24             	mov    %esi,(%esp)
 805660f:	e8 4c fe ff ff       	call   8056460 <geteuid@plt+0xcc88>
 8056614:	a3 00 23 06 08       	mov    %eax,0x8062300
 8056619:	8d b4 26 00 00 00 00 	lea    0x0(%esi,%eiz,1),%esi
 8056620:	8b 85 c4 fd ff ff    	mov    -0x23c(%ebp),%eax
 8056626:	c7 44 24 04 00 02 00 	movl   $0x200,0x4(%esp)
 805662d:	00 
 805662e:	89 34 24             	mov    %esi,(%esp)
 8056631:	89 44 24 08          	mov    %eax,0x8(%esp)
 8056635:	e8 6e 2d ff ff       	call   80493a8 <fgets@plt>
 805663a:	85 c0                	test   %eax,%eax
 805663c:	74 59                	je     8056697 <geteuid@plt+0xcebf>
 805663e:	89 74 24 04          	mov    %esi,0x4(%esp)
 8056642:	89 3c 24             	mov    %edi,(%esp)
 8056645:	e8 66 fe ff ff       	call   80564b0 <geteuid@plt+0xccd8>
 805664a:	89 c2                	mov    %eax,%edx
 805664c:	89 f8                	mov    %edi,%eax
 805664e:	89 95 bc fd ff ff    	mov    %edx,-0x244(%ebp)
 8056654:	e8 77 fa ff ff       	call   80560d0 <geteuid@plt+0xc8f8>
 8056659:	8b 95 bc fd ff ff    	mov    -0x244(%ebp),%edx
 805665f:	89 14 24             	mov    %edx,(%esp)
 8056662:	89 c3                	mov    %eax,%ebx
 8056664:	89 44 24 04          	mov    %eax,0x4(%esp)
 8056668:	e8 a3 fb ff ff       	call   8056210 <geteuid@plt+0xca38>
 805666d:	8b 85 c0 fd ff ff    	mov    -0x240(%ebp),%eax
 8056673:	c7 83 18 01 00 00 01 	movl   $0x1,0x118(%ebx)
 805667a:	00 00 00 
 805667d:	85 c0                	test   %eax,%eax
 805667f:	74 9f                	je     8056620 <geteuid@plt+0xce48>
 8056681:	8b 95 c0 fd ff ff    	mov    -0x240(%ebp),%edx
 8056687:	89 7c 24 04          	mov    %edi,0x4(%esp)
 805668b:	89 14 24             	mov    %edx,(%esp)
 805668e:	e8 05 31 ff ff       	call   8049798 <strcmp@plt>
 8056693:	85 c0                	test   %eax,%eax
 8056695:	75 89                	jne    8056620 <geteuid@plt+0xce48>
 8056697:	8b 95 c4 fd ff ff    	mov    -0x23c(%ebp),%edx
 805669d:	31 db                	xor    %ebx,%ebx
 805669f:	89 14 24             	mov    %edx,(%esp)
 80566a2:	e8 e1 30 ff ff       	call   8049788 <ferror@plt>
 80566a7:	85 c0                	test   %eax,%eax
 80566a9:	75 2d                	jne    80566d8 <geteuid@plt+0xcf00>
 80566ab:	8b 85 c4 fd ff ff    	mov    -0x23c(%ebp),%eax
 80566b1:	89 04 24             	mov    %eax,(%esp)
 80566b4:	e8 4f 2e ff ff       	call   8049508 <fclose@plt>
 80566b9:	8b 55 e4             	mov    -0x1c(%ebp),%edx
 80566bc:	65 33 15 14 00 00 00 	xor    %gs:0x14,%edx
 80566c3:	89 d8                	mov    %ebx,%eax
 80566c5:	75 6d                	jne    8056734 <geteuid@plt+0xcf5c>
 80566c7:	81 c4 5c 02 00 00    	add    $0x25c,%esp
 80566cd:	5b                   	pop    %ebx
 80566ce:	5e                   	pop    %esi
 80566cf:	5f                   	pop    %edi
 80566d0:	5d                   	pop    %ebp
 80566d1:	c3                   	ret    
 80566d2:	8d b6 00 00 00 00    	lea    0x0(%esi),%esi
 80566d8:	c7 04 24 5d f0 05 08 	movl   $0x805f05d,(%esp)
 80566df:	bb ff ff ff ff       	mov    $0xffffffff,%ebx
 80566e4:	e8 1f 2d ff ff       	call   8049408 <perror@plt>
 80566e9:	eb c0                	jmp    80566ab <geteuid@plt+0xced3>
 80566eb:	e8 88 2b ff ff       	call   8049278 <__errno_location@plt>
 80566f0:	8b 00                	mov    (%eax),%eax
 80566f2:	89 04 24             	mov    %eax,(%esp)
 80566f5:	e8 be 2b ff ff       	call   80492b8 <strerror@plt>
 80566fa:	c7 04 24 74 f3 05 08 	movl   $0x805f374,(%esp)
 8056701:	89 c3                	mov    %eax,%ebx
 8056703:	e8 20 2d ff ff       	call   8049428 <gettext@plt>
 8056708:	89 5c 24 10          	mov    %ebx,0x10(%esp)
 805670c:	bb fe ff ff ff       	mov    $0xfffffffe,%ebx
 8056711:	c7 44 24 0c 5d f0 05 	movl   $0x805f05d,0xc(%esp)
 8056718:	08 
 8056719:	c7 44 24 04 01 00 00 	movl   $0x1,0x4(%esp)
 8056720:	00 
 8056721:	89 44 24 08          	mov    %eax,0x8(%esp)
 8056725:	a1 80 28 06 08       	mov    0x8062880,%eax
 805672a:	89 04 24             	mov    %eax,(%esp)
 805672d:	e8 d6 2b ff ff       	call   8049308 <__fprintf_chk@plt>
 8056732:	eb 85                	jmp    80566b9 <geteuid@plt+0xcee1>
 8056734:	e8 2f 2f ff ff       	call   8049668 <__stack_chk_fail@plt>
 8056739:	8d b4 26 00 00 00 00 	lea    0x0(%esi,%eiz,1),%esi
 8056740:	55                   	push   %ebp
 8056741:	31 c0                	xor    %eax,%eax
 8056743:	89 e5                	mov    %esp,%ebp
 8056745:	57                   	push   %edi
 8056746:	56                   	push   %esi
 8056747:	53                   	push   %ebx
 8056748:	83 ec 3c             	sub    $0x3c,%esp
 805674b:	e8 40 fe ff ff       	call   8056590 <geteuid@plt+0xcdb8>
 8056750:	c7 04 24 02 00 00 00 	movl   $0x2,(%esp)
 8056757:	89 45 d4             	mov    %eax,-0x2c(%ebp)
 805675a:	e8 11 8d ff ff       	call   804f470 <geteuid@plt+0x5c98>
 805675f:	85 c0                	test   %eax,%eax
 8056761:	89 c6                	mov    %eax,%esi
 8056763:	0f 88 a9 00 00 00    	js     8056812 <geteuid@plt+0xd03a>
 8056769:	c7 45 e4 00 00 00 00 	movl   $0x0,-0x1c(%ebp)
 8056770:	bf 1e 00 00 00       	mov    $0x1e,%edi
 8056775:	8b 45 e4             	mov    -0x1c(%ebp),%eax
 8056778:	89 fb                	mov    %edi,%ebx
 805677a:	c1 e3 05             	shl    $0x5,%ebx
 805677d:	89 5d e0             	mov    %ebx,-0x20(%ebp)
 8056780:	89 5c 24 04          	mov    %ebx,0x4(%esp)
 8056784:	89 04 24             	mov    %eax,(%esp)
 8056787:	e8 f4 20 00 00       	call   8058880 <geteuid@plt+0xf0a8>
 805678c:	c7 44 24 04 12 89 00 	movl   $0x8912,0x4(%esp)
 8056793:	00 
 8056794:	89 34 24             	mov    %esi,(%esp)
 8056797:	89 45 e4             	mov    %eax,-0x1c(%ebp)
 805679a:	8d 45 e0             	lea    -0x20(%ebp),%eax
 805679d:	89 44 24 08          	mov    %eax,0x8(%esp)
 80567a1:	e8 12 2d ff ff       	call   80494b8 <ioctl@plt>
 80567a6:	85 c0                	test   %eax,%eax
 80567a8:	78 55                	js     80567ff <geteuid@plt+0xd027>
 80567aa:	8b 45 e0             	mov    -0x20(%ebp),%eax
 80567ad:	39 c3                	cmp    %eax,%ebx
 80567af:	74 47                	je     80567f8 <geteuid@plt+0xd020>
 80567b1:	85 c0                	test   %eax,%eax
 80567b3:	8b 75 e4             	mov    -0x1c(%ebp),%esi
 80567b6:	7e 18                	jle    80567d0 <geteuid@plt+0xcff8>
 80567b8:	31 db                	xor    %ebx,%ebx
 80567ba:	8d b6 00 00 00 00    	lea    0x0(%esi),%esi
 80567c0:	8d 04 1e             	lea    (%esi,%ebx,1),%eax
 80567c3:	83 c3 20             	add    $0x20,%ebx
 80567c6:	e8 05 f9 ff ff       	call   80560d0 <geteuid@plt+0xc8f8>
 80567cb:	39 5d e0             	cmp    %ebx,-0x20(%ebp)
 80567ce:	7f f0                	jg     80567c0 <geteuid@plt+0xcfe8>
 80567d0:	31 db                	xor    %ebx,%ebx
 80567d2:	8b 45 e4             	mov    -0x1c(%ebp),%eax
 80567d5:	89 04 24             	mov    %eax,(%esp)
 80567d8:	e8 8b 2c ff ff       	call   8049468 <free@plt>
 80567dd:	8b 45 d4             	mov    -0x2c(%ebp),%eax
 80567e0:	09 d8                	or     %ebx,%eax
 80567e2:	c7 05 70 31 06 08 01 	movl   $0x1,0x8063170
 80567e9:	00 00 00 
 80567ec:	83 c4 3c             	add    $0x3c,%esp
 80567ef:	5b                   	pop    %ebx
 80567f0:	5e                   	pop    %esi
 80567f1:	5f                   	pop    %edi
 80567f2:	5d                   	pop    %ebp
 80567f3:	c3                   	ret    
 80567f4:	8d 74 26 00          	lea    0x0(%esi,%eiz,1),%esi
 80567f8:	01 ff                	add    %edi,%edi
 80567fa:	e9 76 ff ff ff       	jmp    8056775 <geteuid@plt+0xcf9d>
 80567ff:	c7 04 24 6b f0 05 08 	movl   $0x805f06b,(%esp)
 8056806:	bb ff ff ff ff       	mov    $0xffffffff,%ebx
 805680b:	e8 f8 2b ff ff       	call   8049408 <perror@plt>
 8056810:	eb c0                	jmp    80567d2 <geteuid@plt+0xcffa>
 8056812:	e8 61 2a ff ff       	call   8049278 <__errno_location@plt>
 8056817:	8b 00                	mov    (%eax),%eax
 8056819:	89 04 24             	mov    %eax,(%esp)
 805681c:	e8 97 2a ff ff       	call   80492b8 <strerror@plt>
 8056821:	c7 04 24 a4 f3 05 08 	movl   $0x805f3a4,(%esp)
 8056828:	89 c3                	mov    %eax,%ebx
 805682a:	e8 f9 2b ff ff       	call   8049428 <gettext@plt>
 805682f:	89 5c 24 0c          	mov    %ebx,0xc(%esp)
 8056833:	c7 44 24 04 01 00 00 	movl   $0x1,0x4(%esp)
 805683a:	00 
 805683b:	89 44 24 08          	mov    %eax,0x8(%esp)
 805683f:	a1 80 28 06 08       	mov    0x8062880,%eax
 8056844:	89 04 24             	mov    %eax,(%esp)
 8056847:	e8 bc 2a ff ff       	call   8049308 <__fprintf_chk@plt>
 805684c:	c7 04 24 00 00 00 00 	movl   $0x0,(%esp)
 8056853:	e8 58 1c 00 00       	call   80584b0 <geteuid@plt+0xecd8>
 8056858:	89 c6                	mov    %eax,%esi
 805685a:	83 c8 ff             	or     $0xffffffff,%eax
 805685d:	85 f6                	test   %esi,%esi
 805685f:	0f 89 04 ff ff ff    	jns    8056769 <geteuid@plt+0xcf91>
 8056865:	e9 78 ff ff ff       	jmp    80567e2 <geteuid@plt+0xd00a>
 805686a:	8d b6 00 00 00 00    	lea    0x0(%esi),%esi
 8056870:	55                   	push   %ebp
 8056871:	89 e5                	mov    %esp,%ebp
 8056873:	57                   	push   %edi
 8056874:	56                   	push   %esi
 8056875:	53                   	push   %ebx
 8056876:	83 ec 1c             	sub    $0x1c,%esp
 8056879:	8b 15 70 31 06 08    	mov    0x8063170,%edx
 805687f:	8b 75 08             	mov    0x8(%ebp),%esi
 8056882:	8b 7d 0c             	mov    0xc(%ebp),%edi
 8056885:	85 d2                	test   %edx,%edx
 8056887:	74 2a                	je     80568b3 <geteuid@plt+0xd0db>
 8056889:	8b 1d 80 31 06 08    	mov    0x8063180,%ebx
 805688f:	31 c0                	xor    %eax,%eax
 8056891:	85 db                	test   %ebx,%ebx
 8056893:	75 09                	jne    805689e <geteuid@plt+0xd0c6>
 8056895:	eb 14                	jmp    80568ab <geteuid@plt+0xd0d3>
 8056897:	90                   	nop
 8056898:	8b 1b                	mov    (%ebx),%ebx
 805689a:	85 db                	test   %ebx,%ebx
 805689c:	74 0d                	je     80568ab <geteuid@plt+0xd0d3>
 805689e:	89 7c 24 04          	mov    %edi,0x4(%esp)
 80568a2:	89 1c 24             	mov    %ebx,(%esp)
 80568a5:	ff d6                	call   *%esi
 80568a7:	85 c0                	test   %eax,%eax
 80568a9:	74 ed                	je     8056898 <geteuid@plt+0xd0c0>
 80568ab:	83 c4 1c             	add    $0x1c,%esp
 80568ae:	5b                   	pop    %ebx
 80568af:	5e                   	pop    %esi
 80568b0:	5f                   	pop    %edi
 80568b1:	5d                   	pop    %ebp
 80568b2:	c3                   	ret    
 80568b3:	e8 88 fe ff ff       	call   8056740 <geteuid@plt+0xcf68>
 80568b8:	89 c2                	mov    %eax,%edx
 80568ba:	b8 ff ff ff ff       	mov    $0xffffffff,%eax
 80568bf:	85 d2                	test   %edx,%edx
 80568c1:	79 c6                	jns    8056889 <geteuid@plt+0xd0b1>
 80568c3:	eb e6                	jmp    80568ab <geteuid@plt+0xd0d3>
 80568c5:	8d 74 26 00          	lea    0x0(%esi,%eiz,1),%esi
 80568c9:	8d bc 27 00 00 00 00 	lea    0x0(%edi,%eiz,1),%edi
 80568d0:	55                   	push   %ebp
 80568d1:	89 e5                	mov    %esp,%ebp
 80568d3:	53                   	push   %ebx
 80568d4:	83 ec 04             	sub    $0x4,%esp
 80568d7:	8b 0d 70 31 06 08    	mov    0x8063170,%ecx
 80568dd:	8b 5d 08             	mov    0x8(%ebp),%ebx
 80568e0:	85 c9                	test   %ecx,%ecx
 80568e2:	74 0c                	je     80568f0 <geteuid@plt+0xd118>
 80568e4:	83 c4 04             	add    $0x4,%esp
 80568e7:	89 d8                	mov    %ebx,%eax
 80568e9:	5b                   	pop    %ebx
 80568ea:	5d                   	pop    %ebp
 80568eb:	e9 e0 f7 ff ff       	jmp    80560d0 <geteuid@plt+0xc8f8>
 80568f0:	89 d8                	mov    %ebx,%eax
 80568f2:	e8 99 fc ff ff       	call   8056590 <geteuid@plt+0xcdb8>
 80568f7:	85 c0                	test   %eax,%eax
 80568f9:	79 e9                	jns    80568e4 <geteuid@plt+0xd10c>
 80568fb:	83 c4 04             	add    $0x4,%esp
 80568fe:	31 c0                	xor    %eax,%eax
 8056900:	5b                   	pop    %ebx
 8056901:	5d                   	pop    %ebp
 8056902:	c3                   	ret    
 8056903:	90                   	nop
 8056904:	90                   	nop
 8056905:	90                   	nop
 8056906:	90                   	nop
 8056907:	90                   	nop
 8056908:	90                   	nop
 8056909:	90                   	nop
 805690a:	90                   	nop
 805690b:	90                   	nop
 805690c:	90                   	nop
 805690d:	90                   	nop
 805690e:	90                   	nop
 805690f:	90                   	nop
 8056910:	55                   	push   %ebp
 8056911:	89 e5                	mov    %esp,%ebp
 8056913:	57                   	push   %edi
 8056914:	56                   	push   %esi
 8056915:	53                   	push   %ebx
 8056916:	83 ec 3c             	sub    $0x3c,%esp
 8056919:	8b 7d 10             	mov    0x10(%ebp),%edi
 805691c:	8b 5d 08             	mov    0x8(%ebp),%ebx
 805691f:	8b 75 0c             	mov    0xc(%ebp),%esi
 8056922:	85 ff                	test   %edi,%edi
 8056924:	0f 84 af 00 00 00    	je     80569d9 <geteuid@plt+0xd201>
 805692a:	89 da                	mov    %ebx,%edx
 805692c:	83 e2 03             	and    $0x3,%edx
 805692f:	83 fa 01             	cmp    $0x1,%edx
 8056932:	66 c7 07 04 00       	movw   $0x4,(%edi)
 8056937:	c7 47 04 00 00 00 00 	movl   $0x0,0x4(%edi)
 805693e:	c6 47 0d 00          	movb   $0x0,0xd(%edi)
 8056942:	c6 47 0c 00          	movb   $0x0,0xc(%edi)
 8056946:	c6 47 0b 00          	movb   $0x0,0xb(%edi)
 805694a:	c6 47 0a 00          	movb   $0x0,0xa(%edi)
 805694e:	c6 47 09 00          	movb   $0x0,0x9(%edi)
 8056952:	c6 47 08 00          	movb   $0x0,0x8(%edi)
 8056956:	66 c7 47 02 00 00    	movw   $0x0,0x2(%edi)
 805695c:	0f 8e bf 00 00 00    	jle    8056a21 <geteuid@plt+0xd249>
 8056962:	8d 47 08             	lea    0x8(%edi),%eax
 8056965:	66 c7 47 02 00 00    	movw   $0x0,0x2(%edi)
 805696b:	83 c7 0e             	add    $0xe,%edi
 805696e:	89 45 d4             	mov    %eax,-0x2c(%ebp)
 8056971:	e8 e2 2a ff ff       	call   8049458 <__ctype_toupper_loc@plt>
 8056976:	8b 55 d4             	mov    -0x2c(%ebp),%edx
 8056979:	eb 08                	jmp    8056983 <geteuid@plt+0xd1ab>
 805697b:	90                   	nop
 805697c:	8d 74 26 00          	lea    0x0(%esi,%eiz,1),%esi
 8056980:	83 c6 02             	add    $0x2,%esi
 8056983:	0f be 1e             	movsbl (%esi),%ebx
 8056986:	8b 08                	mov    (%eax),%ecx
 8056988:	8b 0c 99             	mov    (%ecx,%ebx,4),%ecx
 805698b:	89 cb                	mov    %ecx,%ebx
 805698d:	88 0e                	mov    %cl,(%esi)
 805698f:	8d 4b bf             	lea    -0x41(%ebx),%ecx
 8056992:	80 f9 05             	cmp    $0x5,%cl
 8056995:	77 51                	ja     80569e8 <geteuid@plt+0xd210>
 8056997:	83 eb 37             	sub    $0x37,%ebx
 805699a:	0a 1a                	or     (%edx),%bl
 805699c:	88 1a                	mov    %bl,(%edx)
 805699e:	0f be db             	movsbl %bl,%ebx
 80569a1:	c1 e3 04             	shl    $0x4,%ebx
 80569a4:	88 1a                	mov    %bl,(%edx)
 80569a6:	0f be 5e 01          	movsbl 0x1(%esi),%ebx
 80569aa:	8b 08                	mov    (%eax),%ecx
 80569ac:	8b 0c 99             	mov    (%ecx,%ebx,4),%ecx
 80569af:	89 cb                	mov    %ecx,%ebx
 80569b1:	88 4e 01             	mov    %cl,0x1(%esi)
 80569b4:	8d 4b bf             	lea    -0x41(%ebx),%ecx
 80569b7:	80 f9 05             	cmp    $0x5,%cl
 80569ba:	77 3c                	ja     80569f8 <geteuid@plt+0xd220>
 80569bc:	83 eb 37             	sub    $0x37,%ebx
 80569bf:	08 1a                	or     %bl,(%edx)
 80569c1:	83 c2 01             	add    $0x1,%edx
 80569c4:	39 fa                	cmp    %edi,%edx
 80569c6:	75 b8                	jne    8056980 <geteuid@plt+0xd1a8>
 80569c8:	8b 75 d4             	mov    -0x2c(%ebp),%esi
 80569cb:	bf cb f3 05 08       	mov    $0x805f3cb,%edi
 80569d0:	b9 06 00 00 00       	mov    $0x6,%ecx
 80569d5:	f3 a6                	repz cmpsb %es:(%edi),%ds:(%esi)
 80569d7:	75 2b                	jne    8056a04 <geteuid@plt+0xd22c>
 80569d9:	b8 ff ff ff ff       	mov    $0xffffffff,%eax
 80569de:	83 c4 3c             	add    $0x3c,%esp
 80569e1:	5b                   	pop    %ebx
 80569e2:	5e                   	pop    %esi
 80569e3:	5f                   	pop    %edi
 80569e4:	5d                   	pop    %ebp
 80569e5:	c3                   	ret    
 80569e6:	66 90                	xchg   %ax,%ax
 80569e8:	83 eb 30             	sub    $0x30,%ebx
 80569eb:	80 fb 09             	cmp    $0x9,%bl
 80569ee:	77 e9                	ja     80569d9 <geteuid@plt+0xd201>
 80569f0:	0a 1a                	or     (%edx),%bl
 80569f2:	88 1a                	mov    %bl,(%edx)
 80569f4:	eb a8                	jmp    805699e <geteuid@plt+0xd1c6>
 80569f6:	66 90                	xchg   %ax,%ax
 80569f8:	83 eb 30             	sub    $0x30,%ebx
 80569fb:	80 fb 09             	cmp    $0x9,%bl
 80569fe:	77 d9                	ja     80569d9 <geteuid@plt+0xd201>
 8056a00:	08 1a                	or     %bl,(%edx)
 8056a02:	eb bd                	jmp    80569c1 <geteuid@plt+0xd1e9>
 8056a04:	8b 75 d4             	mov    -0x2c(%ebp),%esi
 8056a07:	b9 06 00 00 00       	mov    $0x6,%ecx
 8056a0c:	bf d4 f3 05 08       	mov    $0x805f3d4,%edi
 8056a11:	f3 a6                	repz cmpsb %es:(%edi),%ds:(%esi)
 8056a13:	0f 97 c1             	seta   %cl
 8056a16:	0f 92 c2             	setb   %dl
 8056a19:	31 c0                	xor    %eax,%eax
 8056a1b:	38 d1                	cmp    %dl,%cl
 8056a1d:	75 bf                	jne    80569de <geteuid@plt+0xd206>
 8056a1f:	eb b8                	jmp    80569d9 <geteuid@plt+0xd201>
 8056a21:	8d 45 e4             	lea    -0x1c(%ebp),%eax
 8056a24:	89 55 d0             	mov    %edx,-0x30(%ebp)
 8056a27:	c7 44 24 08 10 00 00 	movl   $0x10,0x8(%esp)
 8056a2e:	00 
 8056a2f:	89 44 24 04          	mov    %eax,0x4(%esp)
 8056a33:	89 34 24             	mov    %esi,(%esp)
 8056a36:	e8 fd 2a ff ff       	call   8049538 <strtoul@plt>
 8056a3b:	8b 55 d0             	mov    -0x30(%ebp),%edx
 8056a3e:	8d 48 ff             	lea    -0x1(%eax),%ecx
 8056a41:	83 f9 fd             	cmp    $0xfffffffd,%ecx
 8056a44:	77 93                	ja     80569d9 <geteuid@plt+0xd201>
 8056a46:	80 e3 04             	and    $0x4,%bl
 8056a49:	75 02                	jne    8056a4d <geteuid@plt+0xd275>
 8056a4b:	0f c8                	bswap  %eax
 8056a4d:	83 fa 01             	cmp    $0x1,%edx
 8056a50:	89 47 04             	mov    %eax,0x4(%edi)
 8056a53:	75 12                	jne    8056a67 <geteuid@plt+0xd28f>
 8056a55:	8b 45 e4             	mov    -0x1c(%ebp),%eax
 8056a58:	80 38 01             	cmpb   $0x1,(%eax)
 8056a5b:	19 c0                	sbb    %eax,%eax
 8056a5d:	f7 d0                	not    %eax
 8056a5f:	83 e0 fe             	and    $0xfffffffe,%eax
 8056a62:	e9 77 ff ff ff       	jmp    80569de <geteuid@plt+0xd206>
 8056a67:	85 d2                	test   %edx,%edx
 8056a69:	0f 85 f3 fe ff ff    	jne    8056962 <geteuid@plt+0xd18a>
 8056a6f:	8b 75 e4             	mov    -0x1c(%ebp),%esi
 8056a72:	b8 fd ff ff ff       	mov    $0xfffffffd,%eax
 8056a77:	80 3e 3a             	cmpb   $0x3a,(%esi)
 8056a7a:	0f 85 5e ff ff ff    	jne    80569de <geteuid@plt+0xd206>
 8056a80:	83 c6 01             	add    $0x1,%esi
 8056a83:	e9 da fe ff ff       	jmp    8056962 <geteuid@plt+0xd18a>
 8056a88:	90                   	nop
 8056a89:	8d b4 26 00 00 00 00 	lea    0x0(%esi,%eiz,1),%esi
 8056a90:	55                   	push   %ebp
 8056a91:	ba 06 00 00 00       	mov    $0x6,%edx
 8056a96:	89 e5                	mov    %esp,%ebp
 8056a98:	83 ec 38             	sub    $0x38,%esp
 8056a9b:	8b 4d 08             	mov    0x8(%ebp),%ecx
 8056a9e:	8d 42 ff             	lea    -0x1(%edx),%eax
 8056aa1:	83 e9 02             	sub    $0x2,%ecx
 8056aa4:	80 7c 01 08 00       	cmpb   $0x0,0x8(%ecx,%eax,1)
 8056aa9:	75 14                	jne    8056abf <geteuid@plt+0xd2e7>
 8056aab:	85 c0                	test   %eax,%eax
 8056aad:	0f 84 85 00 00 00    	je     8056b38 <geteuid@plt+0xd360>
 8056ab3:	89 c2                	mov    %eax,%edx
 8056ab5:	8d 42 ff             	lea    -0x1(%edx),%eax
 8056ab8:	80 7c 01 08 00       	cmpb   $0x0,0x8(%ecx,%eax,1)
 8056abd:	74 ec                	je     8056aab <geteuid@plt+0xd2d3>
 8056abf:	85 d2                	test   %edx,%edx
 8056ac1:	74 75                	je     8056b38 <geteuid@plt+0xd360>
 8056ac3:	8b 41 04             	mov    0x4(%ecx),%eax
 8056ac6:	0f c8                	bswap  %eax
 8056ac8:	85 c0                	test   %eax,%eax
 8056aca:	0f 85 b8 00 00 00    	jne    8056b88 <geteuid@plt+0xd3b0>
 8056ad0:	0f b6 41 0d          	movzbl 0xd(%ecx),%eax
 8056ad4:	89 44 24 28          	mov    %eax,0x28(%esp)
 8056ad8:	0f b6 41 0c          	movzbl 0xc(%ecx),%eax
 8056adc:	89 44 24 24          	mov    %eax,0x24(%esp)
 8056ae0:	0f b6 41 0b          	movzbl 0xb(%ecx),%eax
 8056ae4:	89 44 24 20          	mov    %eax,0x20(%esp)
 8056ae8:	0f b6 41 0a          	movzbl 0xa(%ecx),%eax
 8056aec:	89 44 24 1c          	mov    %eax,0x1c(%esp)
 8056af0:	0f b6 41 09          	movzbl 0x9(%ecx),%eax
 8056af4:	89 44 24 18          	mov    %eax,0x18(%esp)
 8056af8:	0f b6 41 08          	movzbl 0x8(%ecx),%eax
 8056afc:	c7 44 24 10 e1 f3 05 	movl   $0x805f3e1,0x10(%esp)
 8056b03:	08 
 8056b04:	c7 44 24 0c 40 00 00 	movl   $0x40,0xc(%esp)
 8056b0b:	00 
 8056b0c:	c7 44 24 08 01 00 00 	movl   $0x1,0x8(%esp)
 8056b13:	00 
 8056b14:	89 44 24 14          	mov    %eax,0x14(%esp)
 8056b18:	c7 44 24 04 40 00 00 	movl   $0x40,0x4(%esp)
 8056b1f:	00 
 8056b20:	c7 04 24 e0 31 06 08 	movl   $0x80631e0,(%esp)
 8056b27:	e8 1c 2c ff ff       	call   8049748 <__snprintf_chk@plt>
 8056b2c:	b8 e0 31 06 08       	mov    $0x80631e0,%eax
 8056b31:	c9                   	leave  
 8056b32:	c3                   	ret    
 8056b33:	90                   	nop
 8056b34:	8d 74 26 00          	lea    0x0(%esi,%eiz,1),%esi
 8056b38:	8b 41 04             	mov    0x4(%ecx),%eax
 8056b3b:	0f c8                	bswap  %eax
 8056b3d:	85 c0                	test   %eax,%eax
 8056b3f:	74 37                	je     8056b78 <geteuid@plt+0xd3a0>
 8056b41:	89 44 24 14          	mov    %eax,0x14(%esp)
 8056b45:	c7 44 24 10 db f3 05 	movl   $0x805f3db,0x10(%esp)
 8056b4c:	08 
 8056b4d:	c7 44 24 0c 40 00 00 	movl   $0x40,0xc(%esp)
 8056b54:	00 
 8056b55:	c7 44 24 08 01 00 00 	movl   $0x1,0x8(%esp)
 8056b5c:	00 
 8056b5d:	c7 44 24 04 40 00 00 	movl   $0x40,0x4(%esp)
 8056b64:	00 
 8056b65:	c7 04 24 e0 31 06 08 	movl   $0x80631e0,(%esp)
 8056b6c:	e8 d7 2b ff ff       	call   8049748 <__snprintf_chk@plt>
 8056b71:	eb b9                	jmp    8056b2c <geteuid@plt+0xd354>
 8056b73:	90                   	nop
 8056b74:	8d 74 26 00          	lea    0x0(%esi,%eiz,1),%esi
 8056b78:	c6 05 e0 31 06 08 00 	movb   $0x0,0x80631e0
 8056b7f:	b8 e0 31 06 08       	mov    $0x80631e0,%eax
 8056b84:	c9                   	leave  
 8056b85:	c3                   	ret    
 8056b86:	66 90                	xchg   %ax,%ax
 8056b88:	0f b6 51 0d          	movzbl 0xd(%ecx),%edx
 8056b8c:	89 54 24 2c          	mov    %edx,0x2c(%esp)
 8056b90:	0f b6 51 0c          	movzbl 0xc(%ecx),%edx
 8056b94:	89 54 24 28          	mov    %edx,0x28(%esp)
 8056b98:	0f b6 51 0b          	movzbl 0xb(%ecx),%edx
 8056b9c:	89 54 24 24          	mov    %edx,0x24(%esp)
 8056ba0:	0f b6 51 0a          	movzbl 0xa(%ecx),%edx
 8056ba4:	89 54 24 20          	mov    %edx,0x20(%esp)
 8056ba8:	0f b6 51 09          	movzbl 0x9(%ecx),%edx
 8056bac:	89 54 24 1c          	mov    %edx,0x1c(%esp)
 8056bb0:	0f b6 51 08          	movzbl 0x8(%ecx),%edx
 8056bb4:	89 44 24 14          	mov    %eax,0x14(%esp)
 8056bb8:	c7 44 24 10 fc f3 05 	movl   $0x805f3fc,0x10(%esp)
 8056bbf:	08 
 8056bc0:	c7 44 24 0c 40 00 00 	movl   $0x40,0xc(%esp)
 8056bc7:	00 
 8056bc8:	89 54 24 18          	mov    %edx,0x18(%esp)
 8056bcc:	c7 44 24 08 01 00 00 	movl   $0x1,0x8(%esp)
 8056bd3:	00 
 8056bd4:	c7 44 24 04 40 00 00 	movl   $0x40,0x4(%esp)
 8056bdb:	00 
 8056bdc:	c7 04 24 e0 31 06 08 	movl   $0x80631e0,(%esp)
 8056be3:	e8 60 2b ff ff       	call   8049748 <__snprintf_chk@plt>
 8056be8:	b8 e0 31 06 08       	mov    $0x80631e0,%eax
 8056bed:	c9                   	leave  
 8056bee:	c3                   	ret    
 8056bef:	90                   	nop
 8056bf0:	55                   	push   %ebp
 8056bf1:	89 e5                	mov    %esp,%ebp
 8056bf3:	83 ec 18             	sub    $0x18,%esp
 8056bf6:	8b 45 08             	mov    0x8(%ebp),%eax
 8056bf9:	66 83 38 04          	cmpw   $0x4,(%eax)
 8056bfd:	74 29                	je     8056c28 <geteuid@plt+0xd450>
 8056bff:	c7 04 24 b2 e2 05 08 	movl   $0x805e2b2,(%esp)
 8056c06:	e8 1d 28 ff ff       	call   8049428 <gettext@plt>
 8056c0b:	c7 44 24 08 40 00 00 	movl   $0x40,0x8(%esp)
 8056c12:	00 
 8056c13:	c7 04 24 a0 31 06 08 	movl   $0x80631a0,(%esp)
 8056c1a:	89 44 24 04          	mov    %eax,0x4(%esp)
 8056c1e:	e8 5d 1b 00 00       	call   8058780 <geteuid@plt+0xefa8>
 8056c23:	c9                   	leave  
 8056c24:	c3                   	ret    
 8056c25:	8d 76 00             	lea    0x0(%esi),%esi
 8056c28:	83 c0 02             	add    $0x2,%eax
 8056c2b:	89 45 08             	mov    %eax,0x8(%ebp)
 8056c2e:	c9                   	leave  
 8056c2f:	e9 5c fe ff ff       	jmp    8056a90 <geteuid@plt+0xd2b8>
 8056c34:	90                   	nop
 8056c35:	90                   	nop
 8056c36:	90                   	nop
 8056c37:	90                   	nop
 8056c38:	90                   	nop
 8056c39:	90                   	nop
 8056c3a:	90                   	nop
 8056c3b:	90                   	nop
 8056c3c:	90                   	nop
 8056c3d:	90                   	nop
 8056c3e:	90                   	nop
 8056c3f:	90                   	nop
 8056c40:	55                   	push   %ebp
 8056c41:	89 e5                	mov    %esp,%ebp
 8056c43:	57                   	push   %edi
 8056c44:	56                   	push   %esi
 8056c45:	53                   	push   %ebx
 8056c46:	81 ec dc 05 00 00    	sub    $0x5dc,%esp
 8056c4c:	c7 44 24 04 7a bf 05 	movl   $0x805bf7a,0x4(%esp)
 8056c53:	08 
 8056c54:	65 a1 14 00 00 00    	mov    %gs:0x14,%eax
 8056c5a:	89 45 e4             	mov    %eax,-0x1c(%ebp)
 8056c5d:	31 c0                	xor    %eax,%eax
 8056c5f:	83 65 08 04          	andl   $0x4,0x8(%ebp)
 8056c63:	c7 04 24 1b f4 05 08 	movl   $0x805f41b,(%esp)
 8056c6a:	e8 e9 28 ff ff       	call   8049558 <fopen@plt>
 8056c6f:	85 c0                	test   %eax,%eax
 8056c71:	89 85 40 fa ff ff    	mov    %eax,-0x5c0(%ebp)
 8056c77:	0f 84 fe 01 00 00    	je     8056e7b <geteuid@plt+0xd6a3>
 8056c7d:	c7 04 24 04 00 00 00 	movl   $0x4,(%esp)
 8056c84:	e8 57 88 ff ff       	call   804f4e0 <geteuid@plt+0x5d08>
 8056c89:	85 c0                	test   %eax,%eax
 8056c8b:	89 85 44 fa ff ff    	mov    %eax,-0x5bc(%ebp)
 8056c91:	0f 84 45 02 00 00    	je     8056edc <geteuid@plt+0xd704>
 8056c97:	c7 04 24 50 f4 05 08 	movl   $0x805f450,(%esp)
 8056c9e:	8d 9d 54 fa ff ff    	lea    -0x5ac(%ebp),%ebx
 8056ca4:	e8 7f 27 ff ff       	call   8049428 <gettext@plt>
 8056ca9:	8d bd d4 fe ff ff    	lea    -0x12c(%ebp),%edi
 8056caf:	c7 04 24 01 00 00 00 	movl   $0x1,(%esp)
 8056cb6:	8d b5 54 ff ff ff    	lea    -0xac(%ebp),%esi
 8056cbc:	89 44 24 04          	mov    %eax,0x4(%esp)
 8056cc0:	e8 93 26 ff ff       	call   8049358 <__printf_chk@plt>
 8056cc5:	c7 04 24 b4 f4 05 08 	movl   $0x805f4b4,(%esp)
 8056ccc:	e8 57 27 ff ff       	call   8049428 <gettext@plt>
 8056cd1:	c7 04 24 01 00 00 00 	movl   $0x1,(%esp)
 8056cd8:	89 44 24 04          	mov    %eax,0x4(%esp)
 8056cdc:	e8 77 26 ff ff       	call   8049358 <__printf_chk@plt>
 8056ce1:	8b 95 40 fa ff ff    	mov    -0x5c0(%ebp),%edx
 8056ce7:	c7 44 24 04 ff 03 00 	movl   $0x3ff,0x4(%esp)
 8056cee:	00 
 8056cef:	89 1c 24             	mov    %ebx,(%esp)
 8056cf2:	89 54 24 08          	mov    %edx,0x8(%esp)
 8056cf6:	e8 ad 26 ff ff       	call   80493a8 <fgets@plt>
 8056cfb:	90                   	nop
 8056cfc:	8d 74 26 00          	lea    0x0(%esi,%eiz,1),%esi
 8056d00:	8b 85 40 fa ff ff    	mov    -0x5c0(%ebp),%eax
 8056d06:	c7 44 24 04 ff 03 00 	movl   $0x3ff,0x4(%esp)
 8056d0d:	00 
 8056d0e:	89 1c 24             	mov    %ebx,(%esp)
 8056d11:	89 44 24 08          	mov    %eax,0x8(%esp)
 8056d15:	e8 8e 26 ff ff       	call   80493a8 <fgets@plt>
 8056d1a:	85 c0                	test   %eax,%eax
 8056d1c:	0f 84 2e 01 00 00    	je     8056e50 <geteuid@plt+0xd678>
 8056d22:	8d 85 54 fe ff ff    	lea    -0x1ac(%ebp),%eax
 8056d28:	89 44 24 10          	mov    %eax,0x10(%esp)
 8056d2c:	89 7c 24 0c          	mov    %edi,0xc(%esp)
 8056d30:	89 74 24 08          	mov    %esi,0x8(%esp)
 8056d34:	c7 44 24 04 6a f4 05 	movl   $0x805f46a,0x4(%esp)
 8056d3b:	08 
 8056d3c:	89 1c 24             	mov    %ebx,(%esp)
 8056d3f:	e8 a4 29 ff ff       	call   80496e8 <sscanf@plt>
 8056d44:	83 f8 02             	cmp    $0x2,%eax
 8056d47:	7e b7                	jle    8056d00 <geteuid@plt+0xd528>
 8056d49:	8d 55 d4             	lea    -0x2c(%ebp),%edx
 8056d4c:	89 54 24 08          	mov    %edx,0x8(%esp)
 8056d50:	8b 95 44 fa ff ff    	mov    -0x5bc(%ebp),%edx
 8056d56:	89 74 24 04          	mov    %esi,0x4(%esp)
 8056d5a:	c7 04 24 05 00 00 00 	movl   $0x5,(%esp)
 8056d61:	ff 52 18             	call   *0x18(%edx)
 8056d64:	8d 55 d4             	lea    -0x2c(%ebp),%edx
 8056d67:	8b 45 08             	mov    0x8(%ebp),%eax
 8056d6a:	89 14 24             	mov    %edx,(%esp)
 8056d6d:	8b 95 44 fa ff ff    	mov    -0x5bc(%ebp),%edx
 8056d73:	89 44 24 04          	mov    %eax,0x4(%esp)
 8056d77:	ff 52 14             	call   *0x14(%edx)
 8056d7a:	c7 44 24 08 80 00 00 	movl   $0x80,0x8(%esp)
 8056d81:	00 
 8056d82:	89 34 24             	mov    %esi,(%esp)
 8056d85:	89 44 24 04          	mov    %eax,0x4(%esp)
 8056d89:	e8 5a 28 ff ff       	call   80495e8 <__strcpy_chk@plt>
 8056d8e:	8b 95 44 fa ff ff    	mov    -0x5bc(%ebp),%edx
 8056d94:	8d 45 d4             	lea    -0x2c(%ebp),%eax
 8056d97:	89 44 24 08          	mov    %eax,0x8(%esp)
 8056d9b:	89 7c 24 04          	mov    %edi,0x4(%esp)
 8056d9f:	c7 04 24 05 00 00 00 	movl   $0x5,(%esp)
 8056da6:	ff 52 18             	call   *0x18(%edx)
 8056da9:	8d 55 d4             	lea    -0x2c(%ebp),%edx
 8056dac:	8b 45 08             	mov    0x8(%ebp),%eax
 8056daf:	89 14 24             	mov    %edx,(%esp)
 8056db2:	8b 95 44 fa ff ff    	mov    -0x5bc(%ebp),%edx
 8056db8:	89 44 24 04          	mov    %eax,0x4(%esp)
 8056dbc:	ff 52 14             	call   *0x14(%edx)
 8056dbf:	c7 44 24 08 80 00 00 	movl   $0x80,0x8(%esp)
 8056dc6:	00 
 8056dc7:	89 3c 24             	mov    %edi,(%esp)
 8056dca:	89 44 24 04          	mov    %eax,0x4(%esp)
 8056dce:	e8 15 28 ff ff       	call   80495e8 <__strcpy_chk@plt>
 8056dd3:	8d 95 54 fe ff ff    	lea    -0x1ac(%ebp),%edx
 8056dd9:	89 54 24 04          	mov    %edx,0x4(%esp)
 8056ddd:	8b 95 44 fa ff ff    	mov    -0x5bc(%ebp),%edx
 8056de3:	8d 45 d4             	lea    -0x2c(%ebp),%eax
 8056de6:	89 44 24 08          	mov    %eax,0x8(%esp)
 8056dea:	c7 04 24 02 00 00 00 	movl   $0x2,(%esp)
 8056df1:	ff 52 18             	call   *0x18(%edx)
 8056df4:	8d 55 d4             	lea    -0x2c(%ebp),%edx
 8056df7:	8b 45 08             	mov    0x8(%ebp),%eax
 8056dfa:	89 14 24             	mov    %edx,(%esp)
 8056dfd:	8b 95 44 fa ff ff    	mov    -0x5bc(%ebp),%edx
 8056e03:	89 44 24 04          	mov    %eax,0x4(%esp)
 8056e07:	ff 52 14             	call   *0x14(%edx)
 8056e0a:	c7 44 24 08 80 00 00 	movl   $0x80,0x8(%esp)
 8056e11:	00 
 8056e12:	89 44 24 04          	mov    %eax,0x4(%esp)
 8056e16:	8d 85 54 fe ff ff    	lea    -0x1ac(%ebp),%eax
 8056e1c:	89 04 24             	mov    %eax,(%esp)
 8056e1f:	e8 c4 27 ff ff       	call   80495e8 <__strcpy_chk@plt>
 8056e24:	8d 95 54 fe ff ff    	lea    -0x1ac(%ebp),%edx
 8056e2a:	89 54 24 10          	mov    %edx,0x10(%esp)
 8056e2e:	89 7c 24 0c          	mov    %edi,0xc(%esp)
 8056e32:	89 74 24 08          	mov    %esi,0x8(%esp)
 8056e36:	c7 44 24 04 73 f4 05 	movl   $0x805f473,0x4(%esp)
 8056e3d:	08 
 8056e3e:	c7 04 24 01 00 00 00 	movl   $0x1,(%esp)
 8056e45:	e8 0e 25 ff ff       	call   8049358 <__printf_chk@plt>
 8056e4a:	e9 b1 fe ff ff       	jmp    8056d00 <geteuid@plt+0xd528>
 8056e4f:	90                   	nop
 8056e50:	8b 95 40 fa ff ff    	mov    -0x5c0(%ebp),%edx
 8056e56:	89 14 24             	mov    %edx,(%esp)
 8056e59:	e8 aa 26 ff ff       	call   8049508 <fclose@plt>
 8056e5e:	31 c0                	xor    %eax,%eax
 8056e60:	8b 55 e4             	mov    -0x1c(%ebp),%edx
 8056e63:	65 33 15 14 00 00 00 	xor    %gs:0x14,%edx
 8056e6a:	0f 85 a9 00 00 00    	jne    8056f19 <geteuid@plt+0xd741>
 8056e70:	81 c4 dc 05 00 00    	add    $0x5dc,%esp
 8056e76:	5b                   	pop    %ebx
 8056e77:	5e                   	pop    %esi
 8056e78:	5f                   	pop    %edi
 8056e79:	5d                   	pop    %ebp
 8056e7a:	c3                   	ret    
 8056e7b:	c7 44 24 04 7a bf 05 	movl   $0x805bf7a,0x4(%esp)
 8056e82:	08 
 8056e83:	c7 04 24 2f f4 05 08 	movl   $0x805f42f,(%esp)
 8056e8a:	e8 c9 26 ff ff       	call   8049558 <fopen@plt>
 8056e8f:	85 c0                	test   %eax,%eax
 8056e91:	89 85 40 fa ff ff    	mov    %eax,-0x5c0(%ebp)
 8056e97:	0f 85 e0 fd ff ff    	jne    8056c7d <geteuid@plt+0xd4a5>
 8056e9d:	c7 04 24 00 00 00 00 	movl   $0x0,(%esp)
 8056ea4:	e8 5f 25 ff ff       	call   8049408 <perror@plt>
 8056ea9:	c7 04 24 88 f4 05 08 	movl   $0x805f488,(%esp)
 8056eb0:	e8 73 25 ff ff       	call   8049428 <gettext@plt>
 8056eb5:	c7 44 24 0c 2f f4 05 	movl   $0x805f42f,0xc(%esp)
 8056ebc:	08 
 8056ebd:	c7 44 24 08 1b f4 05 	movl   $0x805f41b,0x8(%esp)
 8056ec4:	08 
 8056ec5:	c7 04 24 01 00 00 00 	movl   $0x1,(%esp)
 8056ecc:	89 44 24 04          	mov    %eax,0x4(%esp)
 8056ed0:	e8 83 24 ff ff       	call   8049358 <__printf_chk@plt>
 8056ed5:	b8 01 00 00 00       	mov    $0x1,%eax
 8056eda:	eb 84                	jmp    8056e60 <geteuid@plt+0xd688>
 8056edc:	c7 04 24 b5 bd 05 08 	movl   $0x805bdb5,(%esp)
 8056ee3:	e8 40 25 ff ff       	call   8049428 <gettext@plt>
 8056ee8:	c7 44 24 10 cf bd 05 	movl   $0x805bdcf,0x10(%esp)
 8056eef:	08 
 8056ef0:	c7 44 24 0c 43 f4 05 	movl   $0x805f443,0xc(%esp)
 8056ef7:	08 
 8056ef8:	c7 44 24 04 01 00 00 	movl   $0x1,0x4(%esp)
 8056eff:	00 
 8056f00:	89 44 24 08          	mov    %eax,0x8(%esp)
 8056f04:	a1 80 28 06 08       	mov    0x8062880,%eax
 8056f09:	89 04 24             	mov    %eax,(%esp)
 8056f0c:	e8 f7 23 ff ff       	call   8049308 <__fprintf_chk@plt>
 8056f11:	83 c8 ff             	or     $0xffffffff,%eax
 8056f14:	e9 47 ff ff ff       	jmp    8056e60 <geteuid@plt+0xd688>
 8056f19:	e8 4a 27 ff ff       	call   8049668 <__stack_chk_fail@plt>
 8056f1e:	90                   	nop
 8056f1f:	90                   	nop
 8056f20:	55                   	push   %ebp
 8056f21:	89 e5                	mov    %esp,%ebp
 8056f23:	57                   	push   %edi
 8056f24:	56                   	push   %esi
 8056f25:	53                   	push   %ebx
 8056f26:	81 ec 7c 02 00 00    	sub    $0x27c,%esp
 8056f2c:	c7 44 24 04 7a bf 05 	movl   $0x805bf7a,0x4(%esp)
 8056f33:	08 
 8056f34:	65 a1 14 00 00 00    	mov    %gs:0x14,%eax
 8056f3a:	89 45 e4             	mov    %eax,-0x1c(%ebp)
 8056f3d:	31 c0                	xor    %eax,%eax
 8056f3f:	c7 04 24 f5 f4 05 08 	movl   $0x805f4f5,(%esp)
 8056f46:	e8 0d 26 ff ff       	call   8049558 <fopen@plt>
 8056f4b:	85 c0                	test   %eax,%eax
 8056f4d:	89 85 d0 fd ff ff    	mov    %eax,-0x230(%ebp)
 8056f53:	0f 84 af 06 00 00    	je     8057608 <geteuid@plt+0xde30>
 8056f59:	c7 04 24 11 ba 05 08 	movl   $0x805ba11,(%esp)
 8056f60:	e8 db 85 ff ff       	call   804f540 <geteuid@plt+0x5d68>
 8056f65:	85 c0                	test   %eax,%eax
 8056f67:	a3 20 32 06 08       	mov    %eax,0x8063220
 8056f6c:	0f 84 3e 07 00 00    	je     80576b0 <geteuid@plt+0xded8>
 8056f72:	8b 8d d0 fd ff ff    	mov    -0x230(%ebp),%ecx
 8056f78:	8d 9d e4 fe ff ff    	lea    -0x11c(%ebp),%ebx
 8056f7e:	c7 44 24 04 00 01 00 	movl   $0x100,0x4(%esp)
 8056f85:	00 
 8056f86:	89 1c 24             	mov    %ebx,(%esp)
 8056f89:	89 4c 24 08          	mov    %ecx,0x8(%esp)
 8056f8d:	e8 16 24 ff ff       	call   80493a8 <fgets@plt>
 8056f92:	c7 44 24 04 1f f5 05 	movl   $0x805f51f,0x4(%esp)
 8056f99:	08 
 8056f9a:	89 1c 24             	mov    %ebx,(%esp)
 8056f9d:	e8 96 26 ff ff       	call   8049638 <strstr@plt>
 8056fa2:	c7 04 24 80 03 00 00 	movl   $0x380,(%esp)
 8056fa9:	85 c0                	test   %eax,%eax
 8056fab:	0f 95 c0             	setne  %al
 8056fae:	0f b6 c0             	movzbl %al,%eax
 8056fb1:	a3 24 32 06 08       	mov    %eax,0x8063224
 8056fb6:	e8 9d 26 ff ff       	call   8049658 <malloc@plt>
 8056fbb:	85 c0                	test   %eax,%eax
 8056fbd:	89 85 cc fd ff ff    	mov    %eax,-0x234(%ebp)
 8056fc3:	0f 84 2b 07 00 00    	je     80576f4 <geteuid@plt+0xdf1c>
 8056fc9:	c7 85 c8 fd ff ff 00 	movl   $0x0,-0x238(%ebp)
 8056fd0:	00 00 00 
 8056fd3:	8d 95 e4 fd ff ff    	lea    -0x21c(%ebp),%edx
 8056fd9:	c7 85 c4 fd ff ff 00 	movl   $0x0,-0x23c(%ebp)
 8056fe0:	00 00 00 
 8056fe3:	8b 9d cc fd ff ff    	mov    -0x234(%ebp),%ebx
 8056fe9:	03 9d c8 fd ff ff    	add    -0x238(%ebp),%ebx
 8056fef:	c7 85 d4 fd ff ff 00 	movl   $0x0,-0x22c(%ebp)
 8056ff6:	00 00 00 
 8056ff9:	8d b4 26 00 00 00 00 	lea    0x0(%esi,%eiz,1),%esi
 8057000:	8b 0d 24 32 06 08    	mov    0x8063224,%ecx
 8057006:	85 c9                	test   %ecx,%ecx
 8057008:	0f 84 92 04 00 00    	je     80574a0 <geteuid@plt+0xdcc8>
 805700e:	8d 43 36             	lea    0x36(%ebx),%eax
 8057011:	8b 8d d0 fd ff ff    	mov    -0x230(%ebp),%ecx
 8057017:	89 44 24 28          	mov    %eax,0x28(%esp)
 805701b:	8d 43 34             	lea    0x34(%ebx),%eax
 805701e:	89 44 24 24          	mov    %eax,0x24(%esp)
 8057022:	8d 43 30             	lea    0x30(%ebx),%eax
 8057025:	89 44 24 20          	mov    %eax,0x20(%esp)
 8057029:	8d 43 2c             	lea    0x2c(%ebx),%eax
 805702c:	89 44 24 1c          	mov    %eax,0x1c(%esp)
 8057030:	8d 43 2a             	lea    0x2a(%ebx),%eax
 8057033:	89 44 24 18          	mov    %eax,0x18(%esp)
 8057037:	8d 43 1c             	lea    0x1c(%ebx),%eax
 805703a:	89 44 24 14          	mov    %eax,0x14(%esp)
 805703e:	8d 43 28             	lea    0x28(%ebx),%eax
 8057041:	89 44 24 10          	mov    %eax,0x10(%esp)
 8057045:	8d 43 0c             	lea    0xc(%ebx),%eax
 8057048:	89 54 24 08          	mov    %edx,0x8(%esp)
 805704c:	89 95 c0 fd ff ff    	mov    %edx,-0x240(%ebp)
 8057052:	89 5c 24 2c          	mov    %ebx,0x2c(%esp)
 8057056:	89 44 24 0c          	mov    %eax,0xc(%esp)
 805705a:	c7 44 24 04 84 f6 05 	movl   $0x805f684,0x4(%esp)
 8057061:	08 
 8057062:	89 0c 24             	mov    %ecx,(%esp)
 8057065:	e8 9e 26 ff ff       	call   8049708 <fscanf@plt>
 805706a:	8b 95 c0 fd ff ff    	mov    -0x240(%ebp),%edx
 8057070:	83 f8 ff             	cmp    $0xffffffff,%eax
 8057073:	74 56                	je     80570cb <geteuid@plt+0xd8f3>
 8057075:	83 f8 0a             	cmp    $0xa,%eax
 8057078:	8b 0d 24 32 06 08    	mov    0x8063224,%ecx
 805707e:	0f 84 b4 02 00 00    	je     8057338 <geteuid@plt+0xdb60>
 8057084:	85 c9                	test   %ecx,%ecx
 8057086:	0f 84 ac 02 00 00    	je     8057338 <geteuid@plt+0xdb60>
 805708c:	c7 04 24 b5 bd 05 08 	movl   $0x805bdb5,(%esp)
 8057093:	e8 90 23 ff ff       	call   8049428 <gettext@plt>
 8057098:	c7 44 24 10 47 f5 05 	movl   $0x805f547,0x10(%esp)
 805709f:	08 
 80570a0:	89 44 24 08          	mov    %eax,0x8(%esp)
 80570a4:	a1 80 28 06 08       	mov    0x8062880,%eax
 80570a9:	c7 44 24 0c 62 f5 05 	movl   $0x805f562,0xc(%esp)
 80570b0:	08 
 80570b1:	c7 44 24 04 01 00 00 	movl   $0x1,0x4(%esp)
 80570b8:	00 
 80570b9:	89 04 24             	mov    %eax,(%esp)
 80570bc:	e8 47 22 ff ff       	call   8049308 <__fprintf_chk@plt>
 80570c1:	c7 85 d4 fd ff ff ff 	movl   $0xffffffff,-0x22c(%ebp)
 80570c8:	ff ff ff 
 80570cb:	8b 85 d0 fd ff ff    	mov    -0x230(%ebp),%eax
 80570d1:	89 04 24             	mov    %eax,(%esp)
 80570d4:	e8 2f 24 ff ff       	call   8049508 <fclose@plt>
 80570d9:	83 bd d4 fd ff ff ff 	cmpl   $0xffffffff,-0x22c(%ebp)
 80570e0:	0f 84 e3 05 00 00    	je     80576c9 <geteuid@plt+0xdef1>
 80570e6:	8b 8d c4 fd ff ff    	mov    -0x23c(%ebp),%ecx
 80570ec:	03 8d d4 fd ff ff    	add    -0x22c(%ebp),%ecx
 80570f2:	89 8d c4 fd ff ff    	mov    %ecx,-0x23c(%ebp)
 80570f8:	0f 84 57 05 00 00    	je     8057655 <geteuid@plt+0xde7d>
 80570fe:	c7 04 24 ab f5 05 08 	movl   $0x805f5ab,(%esp)
 8057105:	e8 1e 23 ff ff       	call   8049428 <gettext@plt>
 805710a:	c7 04 24 01 00 00 00 	movl   $0x1,(%esp)
 8057111:	89 44 24 04          	mov    %eax,0x4(%esp)
 8057115:	e8 3e 22 ff ff       	call   8049358 <__printf_chk@plt>
 805711a:	83 7d 10 01          	cmpl   $0x1,0x10(%ebp)
 805711e:	0f 84 57 05 00 00    	je     805767b <geteuid@plt+0xdea3>
 8057124:	c7 04 24 10 f7 05 08 	movl   $0x805f710,(%esp)
 805712b:	e8 f8 22 ff ff       	call   8049428 <gettext@plt>
 8057130:	c7 04 24 01 00 00 00 	movl   $0x1,(%esp)
 8057137:	89 44 24 04          	mov    %eax,0x4(%esp)
 805713b:	e8 18 22 ff ff       	call   8049358 <__printf_chk@plt>
 8057140:	31 ff                	xor    %edi,%edi
 8057142:	8b 9d cc fd ff ff    	mov    -0x234(%ebp),%ebx
 8057148:	89 bd d4 fd ff ff    	mov    %edi,-0x22c(%ebp)
 805714e:	8b 7d 0c             	mov    0xc(%ebp),%edi
 8057151:	e9 28 01 00 00       	jmp    805727e <geteuid@plt+0xdaa6>
 8057156:	66 90                	xchg   %ax,%ax
 8057158:	0f bf 43 34          	movswl 0x34(%ebx),%eax
 805715c:	89 44 24 0c          	mov    %eax,0xc(%esp)
 8057160:	8b 43 30             	mov    0x30(%ebx),%eax
 8057163:	c7 44 24 04 01 f6 05 	movl   $0x805f601,0x4(%esp)
 805716a:	08 
 805716b:	c7 04 24 01 00 00 00 	movl   $0x1,(%esp)
 8057172:	89 44 24 08          	mov    %eax,0x8(%esp)
 8057176:	e8 dd 21 ff ff       	call   8049358 <__printf_chk@plt>
 805717b:	8d 43 08             	lea    0x8(%ebx),%eax
 805717e:	8b 55 08             	mov    0x8(%ebp),%edx
 8057181:	89 04 24             	mov    %eax,(%esp)
 8057184:	a1 20 32 06 08       	mov    0x8063220,%eax
 8057189:	89 54 24 04          	mov    %edx,0x4(%esp)
 805718d:	ff 50 14             	call   *0x14(%eax)
 8057190:	c7 44 24 04 db f5 05 	movl   $0x805f5db,0x4(%esp)
 8057197:	08 
 8057198:	c7 04 24 01 00 00 00 	movl   $0x1,(%esp)
 805719f:	89 44 24 08          	mov    %eax,0x8(%esp)
 80571a3:	e8 b0 21 ff ff       	call   8049358 <__printf_chk@plt>
 80571a8:	8d 43 18             	lea    0x18(%ebx),%eax
 80571ab:	8b 4d 08             	mov    0x8(%ebp),%ecx
 80571ae:	89 04 24             	mov    %eax,(%esp)
 80571b1:	a1 20 32 06 08       	mov    0x8063220,%eax
 80571b6:	89 4c 24 04          	mov    %ecx,0x4(%esp)
 80571ba:	ff 50 14             	call   *0x14(%eax)
 80571bd:	c7 44 24 04 db f5 05 	movl   $0x805f5db,0x4(%esp)
 80571c4:	08 
 80571c5:	c7 04 24 01 00 00 00 	movl   $0x1,(%esp)
 80571cc:	89 44 24 08          	mov    %eax,0x8(%esp)
 80571d0:	e8 83 21 ff ff       	call   8049358 <__printf_chk@plt>
 80571d5:	89 7c 24 08          	mov    %edi,0x8(%esp)
 80571d9:	8b 43 04             	mov    0x4(%ebx),%eax
 80571dc:	89 44 24 04          	mov    %eax,0x4(%esp)
 80571e0:	0f b7 43 28          	movzwl 0x28(%ebx),%eax
 80571e4:	89 04 24             	mov    %eax,(%esp)
 80571e7:	e8 f4 91 ff ff       	call   80503e0 <geteuid@plt+0x6c08>
 80571ec:	c7 44 24 04 e2 f5 05 	movl   $0x805f5e2,0x4(%esp)
 80571f3:	08 
 80571f4:	c7 04 24 01 00 00 00 	movl   $0x1,(%esp)
 80571fb:	89 44 24 08          	mov    %eax,0x8(%esp)
 80571ff:	e8 54 21 ff ff       	call   8049358 <__printf_chk@plt>
 8057204:	89 7c 24 08          	mov    %edi,0x8(%esp)
 8057208:	8b 43 04             	mov    0x4(%ebx),%eax
 805720b:	89 44 24 04          	mov    %eax,0x4(%esp)
 805720f:	0f b7 43 2a          	movzwl 0x2a(%ebx),%eax
 8057213:	89 04 24             	mov    %eax,(%esp)
 8057216:	e8 c5 91 ff ff       	call   80503e0 <geteuid@plt+0x6c08>
 805721b:	c7 44 24 04 70 f4 05 	movl   $0x805f470,0x4(%esp)
 8057222:	08 
 8057223:	c7 04 24 01 00 00 00 	movl   $0x1,(%esp)
 805722a:	89 44 24 08          	mov    %eax,0x8(%esp)
 805722e:	e8 25 21 ff ff       	call   8049358 <__printf_chk@plt>
 8057233:	89 7c 24 08          	mov    %edi,0x8(%esp)
 8057237:	8b 43 04             	mov    0x4(%ebx),%eax
 805723a:	89 44 24 04          	mov    %eax,0x4(%esp)
 805723e:	0f b7 43 2c          	movzwl 0x2c(%ebx),%eax
 8057242:	83 c3 38             	add    $0x38,%ebx
 8057245:	89 04 24             	mov    %eax,(%esp)
 8057248:	e8 93 91 ff ff       	call   80503e0 <geteuid@plt+0x6c08>
 805724d:	c7 44 24 04 e9 f5 05 	movl   $0x805f5e9,0x4(%esp)
 8057254:	08 
 8057255:	c7 04 24 01 00 00 00 	movl   $0x1,(%esp)
 805725c:	89 44 24 08          	mov    %eax,0x8(%esp)
 8057260:	e8 f3 20 ff ff       	call   8049358 <__printf_chk@plt>
 8057265:	83 85 d4 fd ff ff 01 	addl   $0x1,-0x22c(%ebp)
 805726c:	8b 85 d4 fd ff ff    	mov    -0x22c(%ebp),%eax
 8057272:	39 85 c4 fd ff ff    	cmp    %eax,-0x23c(%ebp)
 8057278:	0f 8e de 03 00 00    	jle    805765c <geteuid@plt+0xde84>
 805727e:	8b 43 04             	mov    0x4(%ebx),%eax
 8057281:	c7 44 24 04 c4 f5 05 	movl   $0x805f5c4,0x4(%esp)
 8057288:	08 
 8057289:	c7 04 24 01 00 00 00 	movl   $0x1,(%esp)
 8057290:	89 44 24 08          	mov    %eax,0x8(%esp)
 8057294:	e8 bf 20 ff ff       	call   8049358 <__printf_chk@plt>
 8057299:	8b 33                	mov    (%ebx),%esi
 805729b:	b8 1f 85 eb 51       	mov    $0x51eb851f,%eax
 80572a0:	c7 44 24 04 c9 f5 05 	movl   $0x805f5c9,0x4(%esp)
 80572a7:	08 
 80572a8:	c7 04 24 01 00 00 00 	movl   $0x1,(%esp)
 80572af:	f7 e6                	mul    %esi
 80572b1:	89 d1                	mov    %edx,%ecx
 80572b3:	89 f2                	mov    %esi,%edx
 80572b5:	c1 e9 05             	shr    $0x5,%ecx
 80572b8:	6b c1 64             	imul   $0x64,%ecx,%eax
 80572bb:	29 c2                	sub    %eax,%edx
 80572bd:	b8 89 88 88 88       	mov    $0x88888889,%eax
 80572c2:	89 54 24 10          	mov    %edx,0x10(%esp)
 80572c6:	f7 e1                	mul    %ecx
 80572c8:	89 f0                	mov    %esi,%eax
 80572ca:	c1 ea 05             	shr    $0x5,%edx
 80572cd:	6b d2 3c             	imul   $0x3c,%edx,%edx
 80572d0:	29 d1                	sub    %edx,%ecx
 80572d2:	ba f1 19 76 05       	mov    $0x57619f1,%edx
 80572d7:	f7 e2                	mul    %edx
 80572d9:	89 4c 24 0c          	mov    %ecx,0xc(%esp)
 80572dd:	c1 ea 07             	shr    $0x7,%edx
 80572e0:	89 54 24 08          	mov    %edx,0x8(%esp)
 80572e4:	e8 6f 20 ff ff       	call   8049358 <__printf_chk@plt>
 80572e9:	83 7d 10 01          	cmpl   $0x1,0x10(%ebp)
 80572ed:	0f 8e 88 fe ff ff    	jle    805717b <geteuid@plt+0xd9a3>
 80572f3:	8b 15 24 32 06 08    	mov    0x8063224,%edx
 80572f9:	85 d2                	test   %edx,%edx
 80572fb:	0f 84 57 fe ff ff    	je     8057158 <geteuid@plt+0xd980>
 8057301:	0f bf 43 36          	movswl 0x36(%ebx),%eax
 8057305:	89 44 24 10          	mov    %eax,0x10(%esp)
 8057309:	0f bf 43 34          	movswl 0x34(%ebx),%eax
 805730d:	89 44 24 0c          	mov    %eax,0xc(%esp)
 8057311:	8b 43 30             	mov    0x30(%ebx),%eax
 8057314:	c7 44 24 04 f0 f5 05 	movl   $0x805f5f0,0x4(%esp)
 805731b:	08 
 805731c:	c7 04 24 01 00 00 00 	movl   $0x1,(%esp)
 8057323:	89 44 24 08          	mov    %eax,0x8(%esp)
 8057327:	e8 2c 20 ff ff       	call   8049358 <__printf_chk@plt>
 805732c:	e9 4a fe ff ff       	jmp    805717b <geteuid@plt+0xd9a3>
 8057331:	8d b4 26 00 00 00 00 	lea    0x0(%esi,%eiz,1),%esi
 8057338:	83 f8 09             	cmp    $0x9,%eax
 805733b:	74 09                	je     8057346 <geteuid@plt+0xdb6e>
 805733d:	85 c9                	test   %ecx,%ecx
 805733f:	90                   	nop
 8057340:	0f 84 46 fd ff ff    	je     805708c <geteuid@plt+0xd8b4>
 8057346:	66 c7 43 08 02 00    	movw   $0x2,0x8(%ebx)
 805734c:	66 c7 43 18 02 00    	movw   $0x2,0x18(%ebx)
 8057352:	0f b6 0a             	movzbl (%edx),%ecx
 8057355:	89 8d b4 fd ff ff    	mov    %ecx,-0x24c(%ebp)
 805735b:	0f b6 0d 6e f5 05 08 	movzbl 0x805f56e,%ecx
 8057362:	3b 8d b4 fd ff ff    	cmp    -0x24c(%ebp),%ecx
 8057368:	0f 85 a2 01 00 00    	jne    8057510 <geteuid@plt+0xdd38>
 805736e:	0f b6 0d 6f f5 05 08 	movzbl 0x805f56f,%ecx
 8057375:	3a 4a 01             	cmp    0x1(%edx),%cl
 8057378:	0f 85 92 01 00 00    	jne    8057510 <geteuid@plt+0xdd38>
 805737e:	0f b6 0d 70 f5 05 08 	movzbl 0x805f570,%ecx
 8057385:	3a 4a 02             	cmp    0x2(%edx),%cl
 8057388:	0f 85 82 01 00 00    	jne    8057510 <geteuid@plt+0xdd38>
 805738e:	0f b6 0d 71 f5 05 08 	movzbl 0x805f571,%ecx
 8057395:	3a 4a 03             	cmp    0x3(%edx),%cl
 8057398:	0f 85 72 01 00 00    	jne    8057510 <geteuid@plt+0xdd38>
 805739e:	c7 43 04 dd ba 05 08 	movl   $0x805badd,0x4(%ebx)
 80573a5:	83 85 d4 fd ff ff 01 	addl   $0x1,-0x22c(%ebp)
 80573ac:	8b 43 0c             	mov    0xc(%ebx),%eax
 80573af:	0f c8                	bswap  %eax
 80573b1:	89 43 0c             	mov    %eax,0xc(%ebx)
 80573b4:	8b 43 1c             	mov    0x1c(%ebx),%eax
 80573b7:	0f c8                	bswap  %eax
 80573b9:	89 43 1c             	mov    %eax,0x1c(%ebx)
 80573bc:	0f b7 43 28          	movzwl 0x28(%ebx),%eax
 80573c0:	66 c1 c8 08          	ror    $0x8,%ax
 80573c4:	66 89 43 28          	mov    %ax,0x28(%ebx)
 80573c8:	0f b7 43 2a          	movzwl 0x2a(%ebx),%eax
 80573cc:	66 c1 c8 08          	ror    $0x8,%ax
 80573d0:	66 89 43 2a          	mov    %ax,0x2a(%ebx)
 80573d4:	0f b7 43 2c          	movzwl 0x2c(%ebx),%eax
 80573d8:	66 c1 c8 08          	ror    $0x8,%ax
 80573dc:	66 89 43 2c          	mov    %ax,0x2c(%ebx)
 80573e0:	83 c3 38             	add    $0x38,%ebx
 80573e3:	83 bd d4 fd ff ff 10 	cmpl   $0x10,-0x22c(%ebp)
 80573ea:	0f 85 10 fc ff ff    	jne    8057000 <geteuid@plt+0xd828>
 80573f0:	8b 85 c8 fd ff ff    	mov    -0x238(%ebp),%eax
 80573f6:	83 85 c4 fd ff ff 10 	addl   $0x10,-0x23c(%ebp)
 80573fd:	89 95 c0 fd ff ff    	mov    %edx,-0x240(%ebp)
 8057403:	05 00 07 00 00       	add    $0x700,%eax
 8057408:	89 44 24 04          	mov    %eax,0x4(%esp)
 805740c:	8b 85 cc fd ff ff    	mov    -0x234(%ebp),%eax
 8057412:	89 04 24             	mov    %eax,(%esp)
 8057415:	e8 1e 1f ff ff       	call   8049338 <realloc@plt>
 805741a:	8b 95 c0 fd ff ff    	mov    -0x240(%ebp),%edx
 8057420:	81 85 c8 fd ff ff 80 	addl   $0x380,-0x238(%ebp)
 8057427:	03 00 00 
 805742a:	85 c0                	test   %eax,%eax
 805742c:	89 85 cc fd ff ff    	mov    %eax,-0x234(%ebp)
 8057432:	0f 85 ab fb ff ff    	jne    8056fe3 <geteuid@plt+0xd80b>
 8057438:	c7 04 24 b5 bd 05 08 	movl   $0x805bdb5,(%esp)
 805743f:	e8 e4 1f ff ff       	call   8049428 <gettext@plt>
 8057444:	c7 44 24 10 36 f5 05 	movl   $0x805f536,0x10(%esp)
 805744b:	08 
 805744c:	89 44 24 08          	mov    %eax,0x8(%esp)
 8057450:	a1 80 28 06 08       	mov    0x8062880,%eax
 8057455:	c7 44 24 0c 15 f5 05 	movl   $0x805f515,0xc(%esp)
 805745c:	08 
 805745d:	c7 44 24 04 01 00 00 	movl   $0x1,0x4(%esp)
 8057464:	00 
 8057465:	89 04 24             	mov    %eax,(%esp)
 8057468:	e8 9b 1e ff ff       	call   8049308 <__fprintf_chk@plt>
 805746d:	8b 95 d0 fd ff ff    	mov    -0x230(%ebp),%edx
 8057473:	89 14 24             	mov    %edx,(%esp)
 8057476:	e8 8d 20 ff ff       	call   8049508 <fclose@plt>
 805747b:	b8 ff ff ff ff       	mov    $0xffffffff,%eax
 8057480:	8b 4d e4             	mov    -0x1c(%ebp),%ecx
 8057483:	65 33 0d 14 00 00 00 	xor    %gs:0x14,%ecx
 805748a:	0f 85 5f 02 00 00    	jne    80576ef <geteuid@plt+0xdf17>
 8057490:	81 c4 7c 02 00 00    	add    $0x27c,%esp
 8057496:	5b                   	pop    %ebx
 8057497:	5e                   	pop    %esi
 8057498:	5f                   	pop    %edi
 8057499:	5d                   	pop    %ebp
 805749a:	c3                   	ret    
 805749b:	90                   	nop
 805749c:	8d 74 26 00          	lea    0x0(%esi,%eiz,1),%esi
 80574a0:	8d 43 34             	lea    0x34(%ebx),%eax
 80574a3:	89 44 24 24          	mov    %eax,0x24(%esp)
 80574a7:	8d 43 30             	lea    0x30(%ebx),%eax
 80574aa:	89 44 24 20          	mov    %eax,0x20(%esp)
 80574ae:	8d 43 2c             	lea    0x2c(%ebx),%eax
 80574b1:	89 44 24 1c          	mov    %eax,0x1c(%esp)
 80574b5:	8d 43 2a             	lea    0x2a(%ebx),%eax
 80574b8:	89 44 24 18          	mov    %eax,0x18(%esp)
 80574bc:	8d 43 1c             	lea    0x1c(%ebx),%eax
 80574bf:	89 44 24 14          	mov    %eax,0x14(%esp)
 80574c3:	8d 43 28             	lea    0x28(%ebx),%eax
 80574c6:	89 44 24 10          	mov    %eax,0x10(%esp)
 80574ca:	8d 43 0c             	lea    0xc(%ebx),%eax
 80574cd:	89 44 24 0c          	mov    %eax,0xc(%esp)
 80574d1:	8b 85 d0 fd ff ff    	mov    -0x230(%ebp),%eax
 80574d7:	89 54 24 08          	mov    %edx,0x8(%esp)
 80574db:	89 95 c0 fd ff ff    	mov    %edx,-0x240(%ebp)
 80574e1:	89 5c 24 28          	mov    %ebx,0x28(%esp)
 80574e5:	c7 44 24 04 ac f6 05 	movl   $0x805f6ac,0x4(%esp)
 80574ec:	08 
 80574ed:	89 04 24             	mov    %eax,(%esp)
 80574f0:	e8 13 22 ff ff       	call   8049708 <fscanf@plt>
 80574f5:	8b 95 c0 fd ff ff    	mov    -0x240(%ebp),%edx
 80574fb:	83 f8 ff             	cmp    $0xffffffff,%eax
 80574fe:	0f 85 71 fb ff ff    	jne    8057075 <geteuid@plt+0xd89d>
 8057504:	e9 c2 fb ff ff       	jmp    80570cb <geteuid@plt+0xd8f3>
 8057509:	8d b4 26 00 00 00 00 	lea    0x0(%esi,%eiz,1),%esi
 8057510:	0f b6 0d 72 f5 05 08 	movzbl 0x805f572,%ecx
 8057517:	39 8d b4 fd ff ff    	cmp    %ecx,-0x24c(%ebp)
 805751d:	75 31                	jne    8057550 <geteuid@plt+0xdd78>
 805751f:	0f b6 0d 73 f5 05 08 	movzbl 0x805f573,%ecx
 8057526:	3a 4a 01             	cmp    0x1(%edx),%cl
 8057529:	75 25                	jne    8057550 <geteuid@plt+0xdd78>
 805752b:	0f b6 0d 74 f5 05 08 	movzbl 0x805f574,%ecx
 8057532:	3a 4a 02             	cmp    0x2(%edx),%cl
 8057535:	75 19                	jne    8057550 <geteuid@plt+0xdd78>
 8057537:	0f b6 0d 75 f5 05 08 	movzbl 0x805f575,%ecx
 805753e:	3a 4a 03             	cmp    0x3(%edx),%cl
 8057541:	75 0d                	jne    8057550 <geteuid@plt+0xdd78>
 8057543:	c7 43 04 4e bb 05 08 	movl   $0x805bb4e,0x4(%ebx)
 805754a:	e9 56 fe ff ff       	jmp    80573a5 <geteuid@plt+0xdbcd>
 805754f:	90                   	nop
 8057550:	be 76 f5 05 08       	mov    $0x805f576,%esi
 8057555:	89 d7                	mov    %edx,%edi
 8057557:	b9 05 00 00 00       	mov    $0x5,%ecx
 805755c:	f3 a6                	repz cmpsb %es:(%edi),%ds:(%esi)
 805755e:	75 10                	jne    8057570 <geteuid@plt+0xdd98>
 8057560:	c7 43 04 7b f5 05 08 	movl   $0x805f57b,0x4(%ebx)
 8057567:	e9 39 fe ff ff       	jmp    80573a5 <geteuid@plt+0xdbcd>
 805756c:	8d 74 26 00          	lea    0x0(%esi,%eiz,1),%esi
 8057570:	0f b6 0d 80 f5 05 08 	movzbl 0x805f580,%ecx
 8057577:	39 8d b4 fd ff ff    	cmp    %ecx,-0x24c(%ebp)
 805757d:	75 31                	jne    80575b0 <geteuid@plt+0xddd8>
 805757f:	0f b6 0d 81 f5 05 08 	movzbl 0x805f581,%ecx
 8057586:	3a 4a 01             	cmp    0x1(%edx),%cl
 8057589:	75 25                	jne    80575b0 <geteuid@plt+0xddd8>
 805758b:	0f b6 0d 82 f5 05 08 	movzbl 0x805f582,%ecx
 8057592:	3a 4a 02             	cmp    0x2(%edx),%cl
 8057595:	75 19                	jne    80575b0 <geteuid@plt+0xddd8>
 8057597:	0f b6 0d 83 f5 05 08 	movzbl 0x805f583,%ecx
 805759e:	3a 4a 03             	cmp    0x3(%edx),%cl
 80575a1:	75 0d                	jne    80575b0 <geteuid@plt+0xddd8>
 80575a3:	c7 43 04 84 f5 05 08 	movl   $0x805f584,0x4(%ebx)
 80575aa:	e9 f6 fd ff ff       	jmp    80573a5 <geteuid@plt+0xdbcd>
 80575af:	90                   	nop
 80575b0:	0f b6 0d 88 f5 05 08 	movzbl 0x805f588,%ecx
 80575b7:	39 8d b4 fd ff ff    	cmp    %ecx,-0x24c(%ebp)
 80575bd:	74 19                	je     80575d8 <geteuid@plt+0xde00>
 80575bf:	c7 04 24 b5 bd 05 08 	movl   $0x805bdb5,(%esp)
 80575c6:	e8 5d 1e ff ff       	call   8049428 <gettext@plt>
 80575cb:	c7 44 24 10 90 f5 05 	movl   $0x805f590,0x10(%esp)
 80575d2:	08 
 80575d3:	e9 c8 fa ff ff       	jmp    80570a0 <geteuid@plt+0xd8c8>
 80575d8:	0f b6 05 89 f5 05 08 	movzbl 0x805f589,%eax
 80575df:	3a 42 01             	cmp    0x1(%edx),%al
 80575e2:	75 db                	jne    80575bf <geteuid@plt+0xdde7>
 80575e4:	0f b6 05 8a f5 05 08 	movzbl 0x805f58a,%eax
 80575eb:	3a 42 02             	cmp    0x2(%edx),%al
 80575ee:	75 cf                	jne    80575bf <geteuid@plt+0xdde7>
 80575f0:	0f b6 05 8b f5 05 08 	movzbl 0x805f58b,%eax
 80575f7:	3a 42 03             	cmp    0x3(%edx),%al
 80575fa:	75 c3                	jne    80575bf <geteuid@plt+0xdde7>
 80575fc:	c7 43 04 8c f5 05 08 	movl   $0x805f58c,0x4(%ebx)
 8057603:	e9 9d fd ff ff       	jmp    80573a5 <geteuid@plt+0xdbcd>
 8057608:	e8 6b 1c ff ff       	call   8049278 <__errno_location@plt>
 805760d:	83 38 02             	cmpl   $0x2,(%eax)
 8057610:	0f 85 86 00 00 00    	jne    805769c <geteuid@plt+0xdec4>
 8057616:	c7 04 24 68 b2 05 08 	movl   $0x805b268,(%esp)
 805761d:	e8 06 1e ff ff       	call   8049428 <gettext@plt>
 8057622:	c7 44 24 10 ff f4 05 	movl   $0x805f4ff,0x10(%esp)
 8057629:	08 
 805762a:	c7 44 24 0c ac c4 05 	movl   $0x805c4ac,0xc(%esp)
 8057631:	08 
 8057632:	c7 44 24 04 01 00 00 	movl   $0x1,0x4(%esp)
 8057639:	00 
 805763a:	89 44 24 08          	mov    %eax,0x8(%esp)
 805763e:	a1 80 28 06 08       	mov    0x8062880,%eax
 8057643:	89 04 24             	mov    %eax,(%esp)
 8057646:	e8 bd 1c ff ff       	call   8049308 <__fprintf_chk@plt>
 805764b:	b8 01 00 00 00       	mov    $0x1,%eax
 8057650:	e9 2b fe ff ff       	jmp    8057480 <geteuid@plt+0xdca8>
 8057655:	31 c0                	xor    %eax,%eax
 8057657:	e9 24 fe ff ff       	jmp    8057480 <geteuid@plt+0xdca8>
 805765c:	8b 85 cc fd ff ff    	mov    -0x234(%ebp),%eax
 8057662:	85 c0                	test   %eax,%eax
 8057664:	74 ef                	je     8057655 <geteuid@plt+0xde7d>
 8057666:	8b 95 cc fd ff ff    	mov    -0x234(%ebp),%edx
 805766c:	89 14 24             	mov    %edx,(%esp)
 805766f:	e8 f4 1d ff ff       	call   8049468 <free@plt>
 8057674:	31 c0                	xor    %eax,%eax
 8057676:	e9 05 fe ff ff       	jmp    8057480 <geteuid@plt+0xdca8>
 805767b:	c7 04 24 d0 f6 05 08 	movl   $0x805f6d0,(%esp)
 8057682:	e8 a1 1d ff ff       	call   8049428 <gettext@plt>
 8057687:	c7 04 24 01 00 00 00 	movl   $0x1,(%esp)
 805768e:	89 44 24 04          	mov    %eax,0x4(%esp)
 8057692:	e8 c1 1c ff ff       	call   8049358 <__printf_chk@plt>
 8057697:	e9 a4 fa ff ff       	jmp    8057140 <geteuid@plt+0xd968>
 805769c:	c7 04 24 f5 f4 05 08 	movl   $0x805f4f5,(%esp)
 80576a3:	e8 60 1d ff ff       	call   8049408 <perror@plt>
 80576a8:	83 c8 ff             	or     $0xffffffff,%eax
 80576ab:	e9 d0 fd ff ff       	jmp    8057480 <geteuid@plt+0xdca8>
 80576b0:	c7 04 24 14 f6 05 08 	movl   $0x805f614,(%esp)
 80576b7:	e8 6c 1d ff ff       	call   8049428 <gettext@plt>
 80576bc:	c7 44 24 10 0d f5 05 	movl   $0x805f50d,0x10(%esp)
 80576c3:	08 
 80576c4:	e9 83 fd ff ff       	jmp    805744c <geteuid@plt+0xdc74>
 80576c9:	83 c8 ff             	or     $0xffffffff,%eax
 80576cc:	83 bd cc fd ff ff 00 	cmpl   $0x0,-0x234(%ebp)
 80576d3:	0f 84 a7 fd ff ff    	je     8057480 <geteuid@plt+0xdca8>
 80576d9:	8b 95 cc fd ff ff    	mov    -0x234(%ebp),%edx
 80576df:	89 14 24             	mov    %edx,(%esp)
 80576e2:	e8 81 1d ff ff       	call   8049468 <free@plt>
 80576e7:	83 c8 ff             	or     $0xffffffff,%eax
 80576ea:	e9 91 fd ff ff       	jmp    8057480 <geteuid@plt+0xdca8>
 80576ef:	e8 74 1f ff ff       	call   8049668 <__stack_chk_fail@plt>
 80576f4:	c7 04 24 b5 bd 05 08 	movl   $0x805bdb5,(%esp)
 80576fb:	e8 28 1d ff ff       	call   8049428 <gettext@plt>
 8057700:	c7 44 24 10 26 f5 05 	movl   $0x805f526,0x10(%esp)
 8057707:	08 
 8057708:	c7 44 24 0c 15 f5 05 	movl   $0x805f515,0xc(%esp)
 805770f:	08 
 8057710:	c7 44 24 04 01 00 00 	movl   $0x1,0x4(%esp)
 8057717:	00 
 8057718:	89 44 24 08          	mov    %eax,0x8(%esp)
 805771c:	a1 80 28 06 08       	mov    0x8062880,%eax
 8057721:	89 04 24             	mov    %eax,(%esp)
 8057724:	e8 df 1b ff ff       	call   8049308 <__fprintf_chk@plt>
 8057729:	8b 85 d0 fd ff ff    	mov    -0x230(%ebp),%eax
 805772f:	89 04 24             	mov    %eax,(%esp)
 8057732:	e8 d1 1d ff ff       	call   8049508 <fclose@plt>
 8057737:	83 c8 ff             	or     $0xffffffff,%eax
 805773a:	e9 41 fd ff ff       	jmp    8057480 <geteuid@plt+0xdca8>
 805773f:	90                   	nop
 8057740:	55                   	push   %ebp
 8057741:	89 e5                	mov    %esp,%ebp
 8057743:	83 ec 28             	sub    $0x28,%esp
 8057746:	8b 45 08             	mov    0x8(%ebp),%eax
 8057749:	85 c0                	test   %eax,%eax
 805774b:	74 2b                	je     8057778 <geteuid@plt+0xdfa0>
 805774d:	c7 44 24 10 60 32 06 	movl   $0x8063260,0x10(%esp)
 8057754:	08 
 8057755:	89 44 24 0c          	mov    %eax,0xc(%esp)
 8057759:	c7 44 24 08 df e2 05 	movl   $0x805e2df,0x8(%esp)
 8057760:	08 
 8057761:	c7 44 24 04 01 00 00 	movl   $0x1,0x4(%esp)
 8057768:	00 
 8057769:	a1 80 28 06 08       	mov    0x8062880,%eax
 805776e:	89 04 24             	mov    %eax,(%esp)
 8057771:	e8 92 1b ff ff       	call   8049308 <__fprintf_chk@plt>
 8057776:	c9                   	leave  
 8057777:	c3                   	ret    
 8057778:	c7 44 24 0c 60 32 06 	movl   $0x8063260,0xc(%esp)
 805777f:	08 
 8057780:	c7 44 24 08 61 be 05 	movl   $0x805be61,0x8(%esp)
 8057787:	08 
 8057788:	c7 44 24 04 01 00 00 	movl   $0x1,0x4(%esp)
 805778f:	00 
 8057790:	a1 80 28 06 08       	mov    0x8062880,%eax
 8057795:	89 04 24             	mov    %eax,(%esp)
 8057798:	e8 6b 1b ff ff       	call   8049308 <__fprintf_chk@plt>
 805779d:	c9                   	leave  
 805779e:	c3                   	ret    
 805779f:	90                   	nop
 80577a0:	55                   	push   %ebp
 80577a1:	89 e5                	mov    %esp,%ebp
 80577a3:	57                   	push   %edi
 80577a4:	56                   	push   %esi
 80577a5:	53                   	push   %ebx
 80577a6:	83 ec 2c             	sub    $0x2c,%esp
 80577a9:	8b 4d 10             	mov    0x10(%ebp),%ecx
 80577ac:	8b 7d 0c             	mov    0xc(%ebp),%edi
 80577af:	a1 88 23 06 08       	mov    0x8062388,%eax
 80577b4:	66 89 01             	mov    %ax,(%ecx)
 80577b7:	0f b6 17             	movzbl (%edi),%edx
 80577ba:	83 c1 02             	add    $0x2,%ecx
 80577bd:	89 cb                	mov    %ecx,%ebx
 80577bf:	80 fa 2d             	cmp    $0x2d,%dl
 80577c2:	0f 84 70 01 00 00    	je     8057938 <geteuid@plt+0xe160>
 80577c8:	84 d2                	test   %dl,%dl
 80577ca:	0f 84 68 01 00 00    	je     8057938 <geteuid@plt+0xe160>
 80577d0:	88 55 dc             	mov    %dl,-0x24(%ebp)
 80577d3:	be 01 00 00 00       	mov    $0x1,%esi
 80577d8:	89 4d d8             	mov    %ecx,-0x28(%ebp)
 80577db:	e8 f8 1c ff ff       	call   80494d8 <__ctype_b_loc@plt>
 80577e0:	0f b6 55 dc          	movzbl -0x24(%ebp),%edx
 80577e4:	89 45 e4             	mov    %eax,-0x1c(%ebp)
 80577e7:	89 d0                	mov    %edx,%eax
 80577e9:	89 da                	mov    %ebx,%edx
 80577eb:	8b 5d e4             	mov    -0x1c(%ebp),%ebx
 80577ee:	8b 0b                	mov    (%ebx),%ecx
 80577f0:	0f be d8             	movsbl %al,%ebx
 80577f3:	0f b7 04 59          	movzwl (%ecx,%ebx,2),%eax
 80577f7:	f6 c4 02             	test   $0x2,%ah
 80577fa:	74 1b                	je     8057817 <geteuid@plt+0xe03f>
 80577fc:	89 55 dc             	mov    %edx,-0x24(%ebp)
 80577ff:	89 4d d8             	mov    %ecx,-0x28(%ebp)
 8057802:	e8 51 1c ff ff       	call   8049458 <__ctype_toupper_loc@plt>
 8057807:	8b 4d d8             	mov    -0x28(%ebp),%ecx
 805780a:	8b 55 dc             	mov    -0x24(%ebp),%edx
 805780d:	8b 00                	mov    (%eax),%eax
 805780f:	0f be 1c 98          	movsbl (%eax,%ebx,4),%ebx
 8057813:	0f b7 04 59          	movzwl (%ecx,%ebx,2),%eax
 8057817:	f6 c4 09             	test   $0x9,%ah
 805781a:	0f 84 b0 00 00 00    	je     80578d0 <geteuid@plt+0xe0f8>
 8057820:	01 db                	add    %ebx,%ebx
 8057822:	83 c7 01             	add    $0x1,%edi
 8057825:	88 5c 32 ff          	mov    %bl,-0x1(%edx,%esi,1)
 8057829:	0f b6 07             	movzbl (%edi),%eax
 805782c:	8d 1c 32             	lea    (%edx,%esi,1),%ebx
 805782f:	3c 2d                	cmp    $0x2d,%al
 8057831:	88 45 e3             	mov    %al,-0x1d(%ebp)
 8057834:	74 04                	je     805783a <geteuid@plt+0xe062>
 8057836:	84 c0                	test   %al,%al
 8057838:	75 46                	jne    8057880 <geteuid@plt+0xe0a8>
 805783a:	83 fe 06             	cmp    $0x6,%esi
 805783d:	89 c2                	mov    %eax,%edx
 805783f:	74 4f                	je     8057890 <geteuid@plt+0xe0b8>
 8057841:	83 fe 05             	cmp    $0x5,%esi
 8057844:	8d 46 01             	lea    0x1(%esi),%eax
 8057847:	0f 87 f5 00 00 00    	ja     8057942 <geteuid@plt+0xe16a>
 805784d:	8d 76 00             	lea    0x0(%esi),%esi
 8057850:	83 c0 01             	add    $0x1,%eax
 8057853:	8d 50 ff             	lea    -0x1(%eax),%edx
 8057856:	c6 03 40             	movb   $0x40,(%ebx)
 8057859:	83 c3 01             	add    $0x1,%ebx
 805785c:	83 fa 05             	cmp    $0x5,%edx
 805785f:	76 ef                	jbe    8057850 <geteuid@plt+0xe078>
 8057861:	0f b6 17             	movzbl (%edi),%edx
 8057864:	80 fa 2d             	cmp    $0x2d,%dl
 8057867:	0f 84 9f 00 00 00    	je     805790c <geteuid@plt+0xe134>
 805786d:	c6 03 00             	movb   $0x0,(%ebx)
 8057870:	31 c0                	xor    %eax,%eax
 8057872:	83 c4 2c             	add    $0x2c,%esp
 8057875:	5b                   	pop    %ebx
 8057876:	5e                   	pop    %esi
 8057877:	5f                   	pop    %edi
 8057878:	5d                   	pop    %ebp
 8057879:	c3                   	ret    
 805787a:	8d b6 00 00 00 00    	lea    0x0(%esi),%esi
 8057880:	8d 4e 01             	lea    0x1(%esi),%ecx
 8057883:	83 f9 07             	cmp    $0x7,%ecx
 8057886:	74 b2                	je     805783a <geteuid@plt+0xe062>
 8057888:	89 ce                	mov    %ecx,%esi
 805788a:	e9 5c ff ff ff       	jmp    80577eb <geteuid@plt+0xe013>
 805788f:	90                   	nop
 8057890:	80 7d e3 2d          	cmpb   $0x2d,-0x1d(%ebp)
 8057894:	74 ce                	je     8057864 <geteuid@plt+0xe08c>
 8057896:	80 7d e3 00          	cmpb   $0x0,-0x1d(%ebp)
 805789a:	74 c8                	je     8057864 <geteuid@plt+0xe08c>
 805789c:	c7 04 24 f8 e2 05 08 	movl   $0x805e2f8,(%esp)
 80578a3:	e8 80 1b ff ff       	call   8049428 <gettext@plt>
 80578a8:	c7 44 24 08 80 00 00 	movl   $0x80,0x8(%esp)
 80578af:	00 
 80578b0:	c7 04 24 60 32 06 08 	movl   $0x8063260,(%esp)
 80578b7:	89 44 24 04          	mov    %eax,0x4(%esp)
 80578bb:	e8 c0 0e 00 00       	call   8058780 <geteuid@plt+0xefa8>
 80578c0:	e8 b3 19 ff ff       	call   8049278 <__errno_location@plt>
 80578c5:	c7 00 07 00 00 00    	movl   $0x7,(%eax)
 80578cb:	83 c8 ff             	or     $0xffffffff,%eax
 80578ce:	eb a2                	jmp    8057872 <geteuid@plt+0xe09a>
 80578d0:	c7 04 24 e7 e2 05 08 	movl   $0x805e2e7,(%esp)
 80578d7:	e8 4c 1b ff ff       	call   8049428 <gettext@plt>
 80578dc:	c7 44 24 08 80 00 00 	movl   $0x80,0x8(%esp)
 80578e3:	00 
 80578e4:	c7 04 24 60 32 06 08 	movl   $0x8063260,(%esp)
 80578eb:	89 44 24 04          	mov    %eax,0x4(%esp)
 80578ef:	e8 8c 0e 00 00       	call   8058780 <geteuid@plt+0xefa8>
 80578f4:	e8 7f 19 ff ff       	call   8049278 <__errno_location@plt>
 80578f9:	c7 00 16 00 00 00    	movl   $0x16,(%eax)
 80578ff:	83 c4 2c             	add    $0x2c,%esp
 8057902:	b8 ff ff ff ff       	mov    $0xffffffff,%eax
 8057907:	5b                   	pop    %ebx
 8057908:	5e                   	pop    %esi
 8057909:	5f                   	pop    %edi
 805790a:	5d                   	pop    %ebp
 805790b:	c3                   	ret    
 805790c:	83 c7 01             	add    $0x1,%edi
 805790f:	c7 44 24 08 0a 00 00 	movl   $0xa,0x8(%esp)
 8057916:	00 
 8057917:	c7 44 24 04 00 00 00 	movl   $0x0,0x4(%esp)
 805791e:	00 
 805791f:	89 3c 24             	mov    %edi,(%esp)
 8057922:	e8 21 1b ff ff       	call   8049448 <strtol@plt>
 8057927:	01 c0                	add    %eax,%eax
 8057929:	88 03                	mov    %al,(%ebx)
 805792b:	31 c0                	xor    %eax,%eax
 805792d:	e9 40 ff ff ff       	jmp    8057872 <geteuid@plt+0xe09a>
 8057932:	8d b6 00 00 00 00    	lea    0x0(%esi),%esi
 8057938:	b8 01 00 00 00       	mov    $0x1,%eax
 805793d:	e9 0e ff ff ff       	jmp    8057850 <geteuid@plt+0xe078>
 8057942:	0f b6 55 e3          	movzbl -0x1d(%ebp),%edx
 8057946:	e9 19 ff ff ff       	jmp    8057864 <geteuid@plt+0xe08c>
 805794b:	90                   	nop
 805794c:	8d 74 26 00          	lea    0x0(%esi,%eiz,1),%esi
 8057950:	55                   	push   %ebp
 8057951:	89 e5                	mov    %esp,%ebp
 8057953:	53                   	push   %ebx
 8057954:	83 ec 14             	sub    $0x14,%esp
 8057957:	8b 5d 0c             	mov    0xc(%ebp),%ebx
 805795a:	8b 45 08             	mov    0x8(%ebp),%eax
 805795d:	c7 04 24 00 00 00 00 	movl   $0x0,(%esp)
 8057964:	89 5c 24 08          	mov    %ebx,0x8(%esp)
 8057968:	89 44 24 04          	mov    %eax,0x4(%esp)
 805796c:	e8 2f fe ff ff       	call   80577a0 <geteuid@plt+0xdfc8>
 8057971:	89 c2                	mov    %eax,%edx
 8057973:	b8 ff ff ff ff       	mov    $0xffffffff,%eax
 8057978:	85 d2                	test   %edx,%edx
 805797a:	78 07                	js     8057983 <geteuid@plt+0xe1ab>
 805797c:	66 c7 03 00 00       	movw   $0x0,(%ebx)
 8057981:	31 c0                	xor    %eax,%eax
 8057983:	83 c4 14             	add    $0x14,%esp
 8057986:	5b                   	pop    %ebx
 8057987:	5d                   	pop    %ebp
 8057988:	c3                   	ret    
 8057989:	8d b4 26 00 00 00 00 	lea    0x0(%esi,%eiz,1),%esi
 8057990:	55                   	push   %ebp
 8057991:	31 c0                	xor    %eax,%eax
 8057993:	89 e5                	mov    %esp,%ebp
 8057995:	53                   	push   %ebx
 8057996:	83 ec 24             	sub    $0x24,%esp
 8057999:	8b 5d 08             	mov    0x8(%ebp),%ebx
 805799c:	8d 74 26 00          	lea    0x0(%esi,%eiz,1),%esi
 80579a0:	0f b6 14 03          	movzbl (%ebx,%eax,1),%edx
 80579a4:	d0 ea                	shr    %dl
 80579a6:	80 fa 20             	cmp    $0x20,%dl
 80579a9:	0f 94 c1             	sete   %cl
 80579ac:	83 e9 01             	sub    $0x1,%ecx
 80579af:	21 d1                	and    %edx,%ecx
 80579b1:	88 88 40 32 06 08    	mov    %cl,0x8063240(%eax)
 80579b7:	83 c0 01             	add    $0x1,%eax
 80579ba:	83 f8 06             	cmp    $0x6,%eax
 80579bd:	75 e1                	jne    80579a0 <geteuid@plt+0xe1c8>
 80579bf:	c6 05 46 32 06 08 00 	movb   $0x0,0x8063246
 80579c6:	0f b6 5b 06          	movzbl 0x6(%ebx),%ebx
 80579ca:	83 e3 1e             	and    $0x1e,%ebx
 80579cd:	d1 fb                	sar    %ebx
 80579cf:	74 35                	je     8057a06 <geteuid@plt+0xe22e>
 80579d1:	c7 04 24 40 32 06 08 	movl   $0x8063240,(%esp)
 80579d8:	e8 6b 1b ff ff       	call   8049548 <strlen@plt>
 80579dd:	89 5c 24 10          	mov    %ebx,0x10(%esp)
 80579e1:	c7 44 24 0c 0a e3 05 	movl   $0x805e30a,0xc(%esp)
 80579e8:	08 
 80579e9:	c7 44 24 08 ff ff ff 	movl   $0xffffffff,0x8(%esp)
 80579f0:	ff 
 80579f1:	c7 44 24 04 01 00 00 	movl   $0x1,0x4(%esp)
 80579f8:	00 
 80579f9:	05 40 32 06 08       	add    $0x8063240,%eax
 80579fe:	89 04 24             	mov    %eax,(%esp)
 8057a01:	e8 12 1d ff ff       	call   8049718 <__sprintf_chk@plt>
 8057a06:	83 c4 24             	add    $0x24,%esp
 8057a09:	b8 40 32 06 08       	mov    $0x8063240,%eax
 8057a0e:	5b                   	pop    %ebx
 8057a0f:	5d                   	pop    %ebp
 8057a10:	c3                   	ret    
 8057a11:	eb 0d                	jmp    8057a20 <geteuid@plt+0xe248>
 8057a13:	90                   	nop
 8057a14:	90                   	nop
 8057a15:	90                   	nop
 8057a16:	90                   	nop
 8057a17:	90                   	nop
 8057a18:	90                   	nop
 8057a19:	90                   	nop
 8057a1a:	90                   	nop
 8057a1b:	90                   	nop
 8057a1c:	90                   	nop
 8057a1d:	90                   	nop
 8057a1e:	90                   	nop
 8057a1f:	90                   	nop
 8057a20:	55                   	push   %ebp
 8057a21:	89 e5                	mov    %esp,%ebp
 8057a23:	83 ec 68             	sub    $0x68,%esp
 8057a26:	8b 45 08             	mov    0x8(%ebp),%eax
 8057a29:	65 8b 15 14 00 00 00 	mov    %gs:0x14,%edx
 8057a30:	89 55 f4             	mov    %edx,-0xc(%ebp)
 8057a33:	31 d2                	xor    %edx,%edx
 8057a35:	0f b7 10             	movzwl (%eax),%edx
 8057a38:	83 ea 01             	sub    $0x1,%edx
 8057a3b:	66 83 fa fd          	cmp    $0xfffd,%dx
 8057a3f:	77 1f                	ja     8057a60 <geteuid@plt+0xe288>
 8057a41:	83 c0 02             	add    $0x2,%eax
 8057a44:	89 04 24             	mov    %eax,(%esp)
 8057a47:	e8 44 ff ff ff       	call   8057990 <geteuid@plt+0xe1b8>
 8057a4c:	8b 55 f4             	mov    -0xc(%ebp),%edx
 8057a4f:	65 33 15 14 00 00 00 	xor    %gs:0x14,%edx
 8057a56:	75 2d                	jne    8057a85 <geteuid@plt+0xe2ad>
 8057a58:	c9                   	leave  
 8057a59:	c3                   	ret    
 8057a5a:	8d b6 00 00 00 00    	lea    0x0(%esi),%esi
 8057a60:	c7 04 24 b2 e2 05 08 	movl   $0x805e2b2,(%esp)
 8057a67:	e8 bc 19 ff ff       	call   8049428 <gettext@plt>
 8057a6c:	c7 44 24 08 40 00 00 	movl   $0x40,0x8(%esp)
 8057a73:	00 
 8057a74:	89 44 24 04          	mov    %eax,0x4(%esp)
 8057a78:	8d 45 b4             	lea    -0x4c(%ebp),%eax
 8057a7b:	89 04 24             	mov    %eax,(%esp)
 8057a7e:	e8 fd 0c 00 00       	call   8058780 <geteuid@plt+0xefa8>
 8057a83:	eb c7                	jmp    8057a4c <geteuid@plt+0xe274>
 8057a85:	e8 de 1b ff ff       	call   8049668 <__stack_chk_fail@plt>
 8057a8a:	90                   	nop
 8057a8b:	90                   	nop
 8057a8c:	90                   	nop
 8057a8d:	90                   	nop
 8057a8e:	90                   	nop
 8057a8f:	90                   	nop
 8057a90:	55                   	push   %ebp
 8057a91:	89 e5                	mov    %esp,%ebp
 8057a93:	57                   	push   %edi
 8057a94:	56                   	push   %esi
 8057a95:	53                   	push   %ebx
 8057a96:	81 ec 4c 01 00 00    	sub    $0x14c,%esp
 8057a9c:	c7 44 24 04 7a bf 05 	movl   $0x805bf7a,0x4(%esp)
 8057aa3:	08 
 8057aa4:	65 a1 14 00 00 00    	mov    %gs:0x14,%eax
 8057aaa:	89 45 e4             	mov    %eax,-0x1c(%ebp)
 8057aad:	31 c0                	xor    %eax,%eax
 8057aaf:	c7 04 24 66 f7 05 08 	movl   $0x805f766,(%esp)
 8057ab6:	e8 9d 1a ff ff       	call   8049558 <fopen@plt>
 8057abb:	c7 44 24 04 7a bf 05 	movl   $0x805bf7a,0x4(%esp)
 8057ac2:	08 
 8057ac3:	c7 04 24 79 f7 05 08 	movl   $0x805f779,(%esp)
 8057aca:	e8 89 1a ff ff       	call   8049558 <fopen@plt>
 8057acf:	c7 44 24 04 7a bf 05 	movl   $0x805bf7a,0x4(%esp)
 8057ad6:	08 
 8057ad7:	c7 04 24 66 f7 05 08 	movl   $0x805f766,(%esp)
 8057ade:	e8 75 1a ff ff       	call   8049558 <fopen@plt>
 8057ae3:	85 c0                	test   %eax,%eax
 8057ae5:	89 85 d4 fe ff ff    	mov    %eax,-0x12c(%ebp)
 8057aeb:	0f 84 3d 02 00 00    	je     8057d2e <geteuid@plt+0xe556>
 8057af1:	c7 44 24 04 7a bf 05 	movl   $0x805bf7a,0x4(%esp)
 8057af8:	08 
 8057af9:	c7 04 24 79 f7 05 08 	movl   $0x805f779,(%esp)
 8057b00:	e8 53 1a ff ff       	call   8049558 <fopen@plt>
 8057b05:	85 c0                	test   %eax,%eax
 8057b07:	89 c7                	mov    %eax,%edi
 8057b09:	0f 84 f0 01 00 00    	je     8057cff <geteuid@plt+0xe527>
 8057b0f:	8b 85 d4 fe ff ff    	mov    -0x12c(%ebp),%eax
 8057b15:	85 c0                	test   %eax,%eax
 8057b17:	0f 84 ee 01 00 00    	je     8057d0b <geteuid@plt+0xe533>
 8057b1d:	c7 04 24 8c f7 05 08 	movl   $0x805f78c,(%esp)
 8057b24:	8d 9d e4 fe ff ff    	lea    -0x11c(%ebp),%ebx
 8057b2a:	e8 f9 18 ff ff       	call   8049428 <gettext@plt>
 8057b2f:	c7 04 24 01 00 00 00 	movl   $0x1,(%esp)
 8057b36:	89 44 24 04          	mov    %eax,0x4(%esp)
 8057b3a:	e8 19 18 ff ff       	call   8049358 <__printf_chk@plt>
 8057b3f:	c7 04 24 f8 f7 05 08 	movl   $0x805f7f8,(%esp)
 8057b46:	e8 dd 18 ff ff       	call   8049428 <gettext@plt>
 8057b4b:	c7 04 24 01 00 00 00 	movl   $0x1,(%esp)
 8057b52:	89 44 24 04          	mov    %eax,0x4(%esp)
 8057b56:	e8 fd 17 ff ff       	call   8049358 <__printf_chk@plt>
 8057b5b:	8b 95 d4 fe ff ff    	mov    -0x12c(%ebp),%edx
 8057b61:	c7 44 24 04 00 01 00 	movl   $0x100,0x4(%esp)
 8057b68:	00 
 8057b69:	89 1c 24             	mov    %ebx,(%esp)
 8057b6c:	89 54 24 08          	mov    %edx,0x8(%esp)
 8057b70:	e8 33 18 ff ff       	call   80493a8 <fgets@plt>
 8057b75:	8d 76 00             	lea    0x0(%esi),%esi
 8057b78:	8b 95 d4 fe ff ff    	mov    -0x12c(%ebp),%edx
 8057b7e:	c7 44 24 04 00 01 00 	movl   $0x100,0x4(%esp)
 8057b85:	00 
 8057b86:	89 1c 24             	mov    %ebx,(%esp)
 8057b89:	89 54 24 08          	mov    %edx,0x8(%esp)
 8057b8d:	e8 16 18 ff ff       	call   80493a8 <fgets@plt>
 8057b92:	85 c0                	test   %eax,%eax
 8057b94:	0f 84 36 01 00 00    	je     8057cd0 <geteuid@plt+0xe4f8>
 8057b9a:	8d 85 f7 fe ff ff    	lea    -0x109(%ebp),%eax
 8057ba0:	c6 85 ed fe ff ff 00 	movb   $0x0,-0x113(%ebp)
 8057ba7:	c6 85 f5 fe ff ff 00 	movb   $0x0,-0x10b(%ebp)
 8057bae:	c7 44 24 08 0a 00 00 	movl   $0xa,0x8(%esp)
 8057bb5:	00 
 8057bb6:	c7 44 24 04 00 00 00 	movl   $0x0,0x4(%esp)
 8057bbd:	00 
 8057bbe:	89 04 24             	mov    %eax,(%esp)
 8057bc1:	e8 82 18 ff ff       	call   8049448 <strtol@plt>
 8057bc6:	8d 95 ee fe ff ff    	lea    -0x112(%ebp),%edx
 8057bcc:	89 54 24 0c          	mov    %edx,0xc(%esp)
 8057bd0:	89 5c 24 08          	mov    %ebx,0x8(%esp)
 8057bd4:	c7 44 24 04 aa f7 05 	movl   $0x805f7aa,0x4(%esp)
 8057bdb:	08 
 8057bdc:	c7 04 24 01 00 00 00 	movl   $0x1,(%esp)
 8057be3:	89 c6                	mov    %eax,%esi
 8057be5:	e8 6e 17 ff ff       	call   8049358 <__printf_chk@plt>
 8057bea:	8d 46 ff             	lea    -0x1(%esi),%eax
 8057bed:	89 c6                	mov    %eax,%esi
 8057bef:	c1 e6 04             	shl    $0x4,%esi
 8057bf2:	29 c6                	sub    %eax,%esi
 8057bf4:	8d 44 33 18          	lea    0x18(%ebx,%esi,1),%eax
 8057bf8:	c7 44 24 08 0a 00 00 	movl   $0xa,0x8(%esp)
 8057bff:	00 
 8057c00:	c7 44 24 04 00 00 00 	movl   $0x0,0x4(%esp)
 8057c07:	00 
 8057c08:	89 04 24             	mov    %eax,(%esp)
 8057c0b:	e8 38 18 ff ff       	call   8049448 <strtol@plt>
 8057c10:	c7 44 24 08 0a 00 00 	movl   $0xa,0x8(%esp)
 8057c17:	00 
 8057c18:	c7 44 24 04 00 00 00 	movl   $0x0,0x4(%esp)
 8057c1f:	00 
 8057c20:	89 85 d0 fe ff ff    	mov    %eax,-0x130(%ebp)
 8057c26:	8d 44 33 20          	lea    0x20(%ebx,%esi,1),%eax
 8057c2a:	89 04 24             	mov    %eax,(%esp)
 8057c2d:	e8 16 18 ff ff       	call   8049448 <strtol@plt>
 8057c32:	89 3c 24             	mov    %edi,(%esp)
 8057c35:	89 c6                	mov    %eax,%esi
 8057c37:	e8 0c 17 ff ff       	call   8049348 <rewind@plt>
 8057c3c:	89 7c 24 08          	mov    %edi,0x8(%esp)
 8057c40:	c7 44 24 04 00 01 00 	movl   $0x100,0x4(%esp)
 8057c47:	00 
 8057c48:	89 1c 24             	mov    %ebx,(%esp)
 8057c4b:	e8 58 17 ff ff       	call   80493a8 <fgets@plt>
 8057c50:	89 7c 24 08          	mov    %edi,0x8(%esp)
 8057c54:	c7 44 24 04 00 01 00 	movl   $0x100,0x4(%esp)
 8057c5b:	00 
 8057c5c:	89 1c 24             	mov    %ebx,(%esp)
 8057c5f:	e8 44 17 ff ff       	call   80493a8 <fgets@plt>
 8057c64:	85 c0                	test   %eax,%eax
 8057c66:	0f 84 0c ff ff ff    	je     8057b78 <geteuid@plt+0xe3a0>
 8057c6c:	c7 44 24 08 0a 00 00 	movl   $0xa,0x8(%esp)
 8057c73:	00 
 8057c74:	c7 44 24 04 00 00 00 	movl   $0x0,0x4(%esp)
 8057c7b:	00 
 8057c7c:	89 1c 24             	mov    %ebx,(%esp)
 8057c7f:	e8 c4 17 ff ff       	call   8049448 <strtol@plt>
 8057c84:	39 c6                	cmp    %eax,%esi
 8057c86:	75 c8                	jne    8057c50 <geteuid@plt+0xe478>
 8057c88:	8d 85 f4 fe ff ff    	lea    -0x10c(%ebp),%eax
 8057c8e:	89 44 24 10          	mov    %eax,0x10(%esp)
 8057c92:	8b 85 d0 fe ff ff    	mov    -0x130(%ebp),%eax
 8057c98:	8d 95 ea fe ff ff    	lea    -0x116(%ebp),%edx
 8057c9e:	c6 85 f3 fe ff ff 00 	movb   $0x0,-0x10d(%ebp)
 8057ca5:	c6 85 f8 fe ff ff 00 	movb   $0x0,-0x108(%ebp)
 8057cac:	89 54 24 0c          	mov    %edx,0xc(%esp)
 8057cb0:	89 44 24 08          	mov    %eax,0x8(%esp)
 8057cb4:	c7 44 24 04 ba f7 05 	movl   $0x805f7ba,0x4(%esp)
 8057cbb:	08 
 8057cbc:	c7 04 24 01 00 00 00 	movl   $0x1,(%esp)
 8057cc3:	e8 90 16 ff ff       	call   8049358 <__printf_chk@plt>
 8057cc8:	e9 ab fe ff ff       	jmp    8057b78 <geteuid@plt+0xe3a0>
 8057ccd:	8d 76 00             	lea    0x0(%esi),%esi
 8057cd0:	8b 85 d4 fe ff ff    	mov    -0x12c(%ebp),%eax
 8057cd6:	89 04 24             	mov    %eax,(%esp)
 8057cd9:	e8 2a 18 ff ff       	call   8049508 <fclose@plt>
 8057cde:	89 3c 24             	mov    %edi,(%esp)
 8057ce1:	e8 22 18 ff ff       	call   8049508 <fclose@plt>
 8057ce6:	31 c0                	xor    %eax,%eax
 8057ce8:	8b 55 e4             	mov    -0x1c(%ebp),%edx
 8057ceb:	65 33 15 14 00 00 00 	xor    %gs:0x14,%edx
 8057cf2:	75 4b                	jne    8057d3f <geteuid@plt+0xe567>
 8057cf4:	81 c4 4c 01 00 00    	add    $0x14c,%esp
 8057cfa:	5b                   	pop    %ebx
 8057cfb:	5e                   	pop    %esi
 8057cfc:	5f                   	pop    %edi
 8057cfd:	5d                   	pop    %ebp
 8057cfe:	c3                   	ret    
 8057cff:	c7 04 24 79 f7 05 08 	movl   $0x805f779,(%esp)
 8057d06:	e8 fd 16 ff ff       	call   8049408 <perror@plt>
 8057d0b:	c7 04 24 d0 f7 05 08 	movl   $0x805f7d0,(%esp)
 8057d12:	e8 11 17 ff ff       	call   8049428 <gettext@plt>
 8057d17:	c7 04 24 01 00 00 00 	movl   $0x1,(%esp)
 8057d1e:	89 44 24 04          	mov    %eax,0x4(%esp)
 8057d22:	e8 31 16 ff ff       	call   8049358 <__printf_chk@plt>
 8057d27:	b8 01 00 00 00       	mov    $0x1,%eax
 8057d2c:	eb ba                	jmp    8057ce8 <geteuid@plt+0xe510>
 8057d2e:	c7 04 24 66 f7 05 08 	movl   $0x805f766,(%esp)
 8057d35:	e8 ce 16 ff ff       	call   8049408 <perror@plt>
 8057d3a:	e9 b2 fd ff ff       	jmp    8057af1 <geteuid@plt+0xe319>
 8057d3f:	e8 24 19 ff ff       	call   8049668 <__stack_chk_fail@plt>
 8057d44:	90                   	nop
 8057d45:	90                   	nop
 8057d46:	90                   	nop
 8057d47:	90                   	nop
 8057d48:	90                   	nop
 8057d49:	90                   	nop
 8057d4a:	90                   	nop
 8057d4b:	90                   	nop
 8057d4c:	90                   	nop
 8057d4d:	90                   	nop
 8057d4e:	90                   	nop
 8057d4f:	90                   	nop
 8057d50:	55                   	push   %ebp
 8057d51:	89 e5                	mov    %esp,%ebp
 8057d53:	56                   	push   %esi
 8057d54:	53                   	push   %ebx
 8057d55:	83 ec 10             	sub    $0x10,%esp
 8057d58:	8b 75 08             	mov    0x8(%ebp),%esi
 8057d5b:	89 34 24             	mov    %esi,(%esp)
 8057d5e:	e8 e5 17 ff ff       	call   8049548 <strlen@plt>
 8057d63:	85 c0                	test   %eax,%eax
 8057d65:	89 c3                	mov    %eax,%ebx
 8057d67:	7e 2f                	jle    8057d98 <geteuid@plt+0xe5c0>
 8057d69:	e8 6a 17 ff ff       	call   80494d8 <__ctype_b_loc@plt>
 8057d6e:	01 de                	add    %ebx,%esi
 8057d70:	8b 10                	mov    (%eax),%edx
 8057d72:	eb 0e                	jmp    8057d82 <geteuid@plt+0xe5aa>
 8057d74:	8d 74 26 00          	lea    0x0(%esi,%eiz,1),%esi
 8057d78:	83 eb 01             	sub    $0x1,%ebx
 8057d7b:	83 ee 01             	sub    $0x1,%esi
 8057d7e:	85 db                	test   %ebx,%ebx
 8057d80:	7e 16                	jle    8057d98 <geteuid@plt+0xe5c0>
 8057d82:	0f be 46 ff          	movsbl -0x1(%esi),%eax
 8057d86:	f6 44 42 01 08       	testb  $0x8,0x1(%edx,%eax,2)
 8057d8b:	75 eb                	jne    8057d78 <geteuid@plt+0xe5a0>
 8057d8d:	83 c4 10             	add    $0x10,%esp
 8057d90:	89 d8                	mov    %ebx,%eax
 8057d92:	5b                   	pop    %ebx
 8057d93:	5e                   	pop    %esi
 8057d94:	5d                   	pop    %ebp
 8057d95:	c3                   	ret    
 8057d96:	66 90                	xchg   %ax,%ax
 8057d98:	31 db                	xor    %ebx,%ebx
 8057d9a:	83 c4 10             	add    $0x10,%esp
 8057d9d:	89 d8                	mov    %ebx,%eax
 8057d9f:	5b                   	pop    %ebx
 8057da0:	5e                   	pop    %esi
 8057da1:	5d                   	pop    %ebp
 8057da2:	c3                   	ret    
 8057da3:	8d b6 00 00 00 00    	lea    0x0(%esi),%esi
 8057da9:	8d bc 27 00 00 00 00 	lea    0x0(%edi,%eiz,1),%edi
 8057db0:	55                   	push   %ebp
 8057db1:	89 e5                	mov    %esp,%ebp
 8057db3:	57                   	push   %edi
 8057db4:	56                   	push   %esi
 8057db5:	53                   	push   %ebx
 8057db6:	83 ec 2c             	sub    $0x2c,%esp
 8057db9:	8b 75 08             	mov    0x8(%ebp),%esi
 8057dbc:	89 34 24             	mov    %esi,(%esp)
 8057dbf:	e8 84 17 ff ff       	call   8049548 <strlen@plt>
 8057dc4:	85 c0                	test   %eax,%eax
 8057dc6:	89 c3                	mov    %eax,%ebx
 8057dc8:	7e 3a                	jle    8057e04 <geteuid@plt+0xe62c>
 8057dca:	0f b6 54 06 ff       	movzbl -0x1(%esi,%eax,1),%edx
 8057dcf:	88 55 e4             	mov    %dl,-0x1c(%ebp)
 8057dd2:	e8 01 17 ff ff       	call   80494d8 <__ctype_b_loc@plt>
 8057dd7:	0f b6 55 e4          	movzbl -0x1c(%ebp),%edx
 8057ddb:	8b 08                	mov    (%eax),%ecx
 8057ddd:	8d 44 1e fe          	lea    -0x2(%esi,%ebx,1),%eax
 8057de1:	eb 17                	jmp    8057dfa <geteuid@plt+0xe622>
 8057de3:	90                   	nop
 8057de4:	8d 74 26 00          	lea    0x0(%esi,%eiz,1),%esi
 8057de8:	83 eb 01             	sub    $0x1,%ebx
 8057deb:	74 17                	je     8057e04 <geteuid@plt+0xe62c>
 8057ded:	0f b6 10             	movzbl (%eax),%edx
 8057df0:	89 c7                	mov    %eax,%edi
 8057df2:	83 e8 01             	sub    $0x1,%eax
 8057df5:	80 fa 3a             	cmp    $0x3a,%dl
 8057df8:	74 16                	je     8057e10 <geteuid@plt+0xe638>
 8057dfa:	0f be d2             	movsbl %dl,%edx
 8057dfd:	f6 44 51 01 08       	testb  $0x8,0x1(%ecx,%edx,2)
 8057e02:	75 e4                	jne    8057de8 <geteuid@plt+0xe610>
 8057e04:	83 c4 2c             	add    $0x2c,%esp
 8057e07:	31 c0                	xor    %eax,%eax
 8057e09:	5b                   	pop    %ebx
 8057e0a:	5e                   	pop    %esi
 8057e0b:	5f                   	pop    %edi
 8057e0c:	5d                   	pop    %ebp
 8057e0d:	c3                   	ret    
 8057e0e:	66 90                	xchg   %ax,%ax
 8057e10:	c6 07 00             	movb   $0x0,(%edi)
 8057e13:	8d 04 1e             	lea    (%esi,%ebx,1),%eax
 8057e16:	83 c4 2c             	add    $0x2c,%esp
 8057e19:	5b                   	pop    %ebx
 8057e1a:	5e                   	pop    %esi
 8057e1b:	5f                   	pop    %edi
 8057e1c:	5d                   	pop    %ebp
 8057e1d:	c3                   	ret    
 8057e1e:	66 90                	xchg   %ax,%ax
 8057e20:	55                   	push   %ebp
 8057e21:	89 e5                	mov    %esp,%ebp
 8057e23:	57                   	push   %edi
 8057e24:	56                   	push   %esi
 8057e25:	53                   	push   %ebx
 8057e26:	83 ec 2c             	sub    $0x2c,%esp
 8057e29:	8b 45 08             	mov    0x8(%ebp),%eax
 8057e2c:	89 04 24             	mov    %eax,(%esp)
 8057e2f:	e8 84 19 ff ff       	call   80497b8 <__strdup@plt>
 8057e34:	89 c6                	mov    %eax,%esi
 8057e36:	8b 45 0c             	mov    0xc(%ebp),%eax
 8057e39:	89 04 24             	mov    %eax,(%esp)
 8057e3c:	e8 77 19 ff ff       	call   80497b8 <__strdup@plt>
 8057e41:	89 34 24             	mov    %esi,(%esp)
 8057e44:	89 c3                	mov    %eax,%ebx
 8057e46:	e8 65 ff ff ff       	call   8057db0 <geteuid@plt+0xe5d8>
 8057e4b:	89 45 dc             	mov    %eax,-0x24(%ebp)
 8057e4e:	89 1c 24             	mov    %ebx,(%esp)
 8057e51:	e8 5a ff ff ff       	call   8057db0 <geteuid@plt+0xe5d8>
 8057e56:	89 45 e0             	mov    %eax,-0x20(%ebp)
 8057e59:	89 34 24             	mov    %esi,(%esp)
 8057e5c:	e8 ef fe ff ff       	call   8057d50 <geteuid@plt+0xe578>
 8057e61:	89 45 e4             	mov    %eax,-0x1c(%ebp)
 8057e64:	89 1c 24             	mov    %ebx,(%esp)
 8057e67:	e8 e4 fe ff ff       	call   8057d50 <geteuid@plt+0xe578>
 8057e6c:	89 c7                	mov    %eax,%edi
 8057e6e:	3b 7d e4             	cmp    -0x1c(%ebp),%edi
 8057e71:	7e 03                	jle    8057e76 <geteuid@plt+0xe69e>
 8057e73:	8b 45 e4             	mov    -0x1c(%ebp),%eax
 8057e76:	89 44 24 08          	mov    %eax,0x8(%esp)
 8057e7a:	89 5c 24 04          	mov    %ebx,0x4(%esp)
 8057e7e:	89 34 24             	mov    %esi,(%esp)
 8057e81:	e8 a2 18 ff ff       	call   8049728 <strncmp@plt>
 8057e86:	85 c0                	test   %eax,%eax
 8057e88:	75 76                	jne    8057f00 <geteuid@plt+0xe728>
 8057e8a:	39 7d e4             	cmp    %edi,-0x1c(%ebp)
 8057e8d:	7f 4e                	jg     8057edd <geteuid@plt+0xe705>
 8057e8f:	90                   	nop
 8057e90:	0f 8c 0a 01 00 00    	jl     8057fa0 <geteuid@plt+0xe7c8>
 8057e96:	c7 44 24 08 0a 00 00 	movl   $0xa,0x8(%esp)
 8057e9d:	00 
 8057e9e:	8d 3c 3b             	lea    (%ebx,%edi,1),%edi
 8057ea1:	c7 44 24 04 00 00 00 	movl   $0x0,0x4(%esp)
 8057ea8:	00 
 8057ea9:	8b 55 e4             	mov    -0x1c(%ebp),%edx
 8057eac:	8d 04 16             	lea    (%esi,%edx,1),%eax
 8057eaf:	89 04 24             	mov    %eax,(%esp)
 8057eb2:	e8 91 15 ff ff       	call   8049448 <strtol@plt>
 8057eb7:	89 45 e4             	mov    %eax,-0x1c(%ebp)
 8057eba:	c7 44 24 08 0a 00 00 	movl   $0xa,0x8(%esp)
 8057ec1:	00 
 8057ec2:	c7 44 24 04 00 00 00 	movl   $0x0,0x4(%esp)
 8057ec9:	00 
 8057eca:	89 3c 24             	mov    %edi,(%esp)
 8057ecd:	e8 76 15 ff ff       	call   8049448 <strtol@plt>
 8057ed2:	39 45 e4             	cmp    %eax,-0x1c(%ebp)
 8057ed5:	0f 8c c5 00 00 00    	jl     8057fa0 <geteuid@plt+0xe7c8>
 8057edb:	7e 43                	jle    8057f20 <geteuid@plt+0xe748>
 8057edd:	89 34 24             	mov    %esi,(%esp)
 8057ee0:	e8 83 15 ff ff       	call   8049468 <free@plt>
 8057ee5:	89 1c 24             	mov    %ebx,(%esp)
 8057ee8:	e8 7b 15 ff ff       	call   8049468 <free@plt>
 8057eed:	b8 01 00 00 00       	mov    $0x1,%eax
 8057ef2:	83 c4 2c             	add    $0x2c,%esp
 8057ef5:	5b                   	pop    %ebx
 8057ef6:	5e                   	pop    %esi
 8057ef7:	5f                   	pop    %edi
 8057ef8:	5d                   	pop    %ebp
 8057ef9:	c3                   	ret    
 8057efa:	8d b6 00 00 00 00    	lea    0x0(%esi),%esi
 8057f00:	89 34 24             	mov    %esi,(%esp)
 8057f03:	89 45 d8             	mov    %eax,-0x28(%ebp)
 8057f06:	e8 5d 15 ff ff       	call   8049468 <free@plt>
 8057f0b:	89 1c 24             	mov    %ebx,(%esp)
 8057f0e:	e8 55 15 ff ff       	call   8049468 <free@plt>
 8057f13:	8b 45 d8             	mov    -0x28(%ebp),%eax
 8057f16:	83 c4 2c             	add    $0x2c,%esp
 8057f19:	5b                   	pop    %ebx
 8057f1a:	5e                   	pop    %esi
 8057f1b:	5f                   	pop    %edi
 8057f1c:	5d                   	pop    %ebp
 8057f1d:	c3                   	ret    
 8057f1e:	66 90                	xchg   %ax,%ax
 8057f20:	8b 55 dc             	mov    -0x24(%ebp),%edx
 8057f23:	bf ff ff ff ff       	mov    $0xffffffff,%edi
 8057f28:	85 d2                	test   %edx,%edx
 8057f2a:	74 1d                	je     8057f49 <geteuid@plt+0xe771>
 8057f2c:	c7 44 24 08 0a 00 00 	movl   $0xa,0x8(%esp)
 8057f33:	00 
 8057f34:	c7 44 24 04 00 00 00 	movl   $0x0,0x4(%esp)
 8057f3b:	00 
 8057f3c:	8b 45 dc             	mov    -0x24(%ebp),%eax
 8057f3f:	89 04 24             	mov    %eax,(%esp)
 8057f42:	e8 01 15 ff ff       	call   8049448 <strtol@plt>
 8057f47:	89 c7                	mov    %eax,%edi
 8057f49:	8b 45 e0             	mov    -0x20(%ebp),%eax
 8057f4c:	ba ff ff ff ff       	mov    $0xffffffff,%edx
 8057f51:	85 c0                	test   %eax,%eax
 8057f53:	74 1d                	je     8057f72 <geteuid@plt+0xe79a>
 8057f55:	c7 44 24 08 0a 00 00 	movl   $0xa,0x8(%esp)
 8057f5c:	00 
 8057f5d:	c7 44 24 04 00 00 00 	movl   $0x0,0x4(%esp)
 8057f64:	00 
 8057f65:	8b 55 e0             	mov    -0x20(%ebp),%edx
 8057f68:	89 14 24             	mov    %edx,(%esp)
 8057f6b:	e8 d8 14 ff ff       	call   8049448 <strtol@plt>
 8057f70:	89 c2                	mov    %eax,%edx
 8057f72:	89 34 24             	mov    %esi,(%esp)
 8057f75:	89 55 d8             	mov    %edx,-0x28(%ebp)
 8057f78:	e8 eb 14 ff ff       	call   8049468 <free@plt>
 8057f7d:	89 1c 24             	mov    %ebx,(%esp)
 8057f80:	e8 e3 14 ff ff       	call   8049468 <free@plt>
 8057f85:	8b 55 d8             	mov    -0x28(%ebp),%edx
 8057f88:	b8 ff ff ff ff       	mov    $0xffffffff,%eax
 8057f8d:	39 d7                	cmp    %edx,%edi
 8057f8f:	0f 8c 5d ff ff ff    	jl     8057ef2 <geteuid@plt+0xe71a>
 8057f95:	0f 9f c0             	setg   %al
 8057f98:	0f b6 c0             	movzbl %al,%eax
 8057f9b:	e9 52 ff ff ff       	jmp    8057ef2 <geteuid@plt+0xe71a>
 8057fa0:	89 34 24             	mov    %esi,(%esp)
 8057fa3:	e8 c0 14 ff ff       	call   8049468 <free@plt>
 8057fa8:	89 1c 24             	mov    %ebx,(%esp)
 8057fab:	e8 b8 14 ff ff       	call   8049468 <free@plt>
 8057fb0:	b8 ff ff ff ff       	mov    $0xffffffff,%eax
 8057fb5:	e9 38 ff ff ff       	jmp    8057ef2 <geteuid@plt+0xe71a>
 8057fba:	90                   	nop
 8057fbb:	90                   	nop
 8057fbc:	90                   	nop
 8057fbd:	90                   	nop
 8057fbe:	90                   	nop
 8057fbf:	90                   	nop
 8057fc0:	55                   	push   %ebp
 8057fc1:	89 e5                	mov    %esp,%ebp
 8057fc3:	53                   	push   %ebx
 8057fc4:	83 ec 14             	sub    $0x14,%esp
 8057fc7:	8b 45 08             	mov    0x8(%ebp),%eax
 8057fca:	c7 44 24 04 7a bf 05 	movl   $0x805bf7a,0x4(%esp)
 8057fd1:	08 
 8057fd2:	89 04 24             	mov    %eax,(%esp)
 8057fd5:	e8 7e 15 ff ff       	call   8049558 <fopen@plt>
 8057fda:	85 c0                	test   %eax,%eax
 8057fdc:	89 c3                	mov    %eax,%ebx
 8057fde:	74 27                	je     8058007 <geteuid@plt+0xe82f>
 8057fe0:	a1 e4 32 06 08       	mov    0x80632e4,%eax
 8057fe5:	85 c0                	test   %eax,%eax
 8057fe7:	74 27                	je     8058010 <geteuid@plt+0xe838>
 8057fe9:	8b 15 e0 32 06 08    	mov    0x80632e0,%edx
 8057fef:	c7 44 24 08 00 00 00 	movl   $0x0,0x8(%esp)
 8057ff6:	00 
 8057ff7:	89 44 24 04          	mov    %eax,0x4(%esp)
 8057ffb:	89 1c 24             	mov    %ebx,(%esp)
 8057ffe:	89 54 24 0c          	mov    %edx,0xc(%esp)
 8058002:	e8 41 16 ff ff       	call   8049648 <setvbuf@plt>
 8058007:	89 d8                	mov    %ebx,%eax
 8058009:	83 c4 14             	add    $0x14,%esp
 805800c:	5b                   	pop    %ebx
 805800d:	5d                   	pop    %ebp
 805800e:	c3                   	ret    
 805800f:	90                   	nop
 8058010:	e8 43 12 ff ff       	call   8049258 <getpagesize@plt>
 8058015:	a3 e0 32 06 08       	mov    %eax,0x80632e0
 805801a:	89 04 24             	mov    %eax,(%esp)
 805801d:	e8 36 16 ff ff       	call   8049658 <malloc@plt>
 8058022:	a3 e4 32 06 08       	mov    %eax,0x80632e4
 8058027:	eb c0                	jmp    8057fe9 <geteuid@plt+0xe811>
 8058029:	8d b4 26 00 00 00 00 	lea    0x0(%esi,%eiz,1),%esi
 8058030:	55                   	push   %ebp
 8058031:	89 e5                	mov    %esp,%ebp
 8058033:	57                   	push   %edi
 8058034:	56                   	push   %esi
 8058035:	53                   	push   %ebx
 8058036:	81 ec 3c 02 00 00    	sub    $0x23c,%esp
 805803c:	65 a1 14 00 00 00    	mov    %gs:0x14,%eax
 8058042:	89 45 e4             	mov    %eax,-0x1c(%ebp)
 8058045:	31 c0                	xor    %eax,%eax
 8058047:	8b 45 0c             	mov    0xc(%ebp),%eax
 805804a:	8d b5 e4 fd ff ff    	lea    -0x21c(%ebp),%esi
 8058050:	c7 44 24 04 ff 01 00 	movl   $0x1ff,0x4(%esp)
 8058057:	00 
 8058058:	89 34 24             	mov    %esi,(%esp)
 805805b:	89 44 24 08          	mov    %eax,0x8(%esp)
 805805f:	e8 44 13 ff ff       	call   80493a8 <fgets@plt>
 8058064:	c7 85 d4 fd ff ff ff 	movl   $0xffffffff,-0x22c(%ebp)
 805806b:	ff ff ff 
 805806e:	85 c0                	test   %eax,%eax
 8058070:	74 4e                	je     80580c0 <geteuid@plt+0xe8e8>
 8058072:	c7 44 24 08 00 02 00 	movl   $0x200,0x8(%esp)
 8058079:	00 
 805807a:	8d 5d 10             	lea    0x10(%ebp),%ebx
 805807d:	c7 44 24 04 33 f8 05 	movl   $0x805f833,0x4(%esp)
 8058084:	08 
 8058085:	89 34 24             	mov    %esi,(%esp)
 8058088:	e8 8b 13 ff ff       	call   8049418 <__strcat_chk@plt>
 805808d:	c7 85 d4 fd ff ff 00 	movl   $0x0,-0x22c(%ebp)
 8058094:	00 00 00 
 8058097:	90                   	nop
 8058098:	8b 03                	mov    (%ebx),%eax
 805809a:	85 c0                	test   %eax,%eax
 805809c:	74 22                	je     80580c0 <geteuid@plt+0xe8e8>
 805809e:	83 c3 08             	add    $0x8,%ebx
 80580a1:	8b 7b fc             	mov    -0x4(%ebx),%edi
 80580a4:	89 44 24 04          	mov    %eax,0x4(%esp)
 80580a8:	89 34 24             	mov    %esi,(%esp)
 80580ab:	e8 88 15 ff ff       	call   8049638 <strstr@plt>
 80580b0:	85 c0                	test   %eax,%eax
 80580b2:	74 e4                	je     8058098 <geteuid@plt+0xe8c0>
 80580b4:	8b 03                	mov    (%ebx),%eax
 80580b6:	09 bd d4 fd ff ff    	or     %edi,-0x22c(%ebp)
 80580bc:	85 c0                	test   %eax,%eax
 80580be:	75 de                	jne    805809e <geteuid@plt+0xe8c6>
 80580c0:	8b 55 e4             	mov    -0x1c(%ebp),%edx
 80580c3:	65 33 15 14 00 00 00 	xor    %gs:0x14,%edx
 80580ca:	8b 85 d4 fd ff ff    	mov    -0x22c(%ebp),%eax
 80580d0:	75 0b                	jne    80580dd <geteuid@plt+0xe905>
 80580d2:	81 c4 3c 02 00 00    	add    $0x23c,%esp
 80580d8:	5b                   	pop    %ebx
 80580d9:	5e                   	pop    %esi
 80580da:	5f                   	pop    %edi
 80580db:	5d                   	pop    %ebp
 80580dc:	c3                   	ret    
 80580dd:	e8 86 15 ff ff       	call   8049668 <__stack_chk_fail@plt>
 80580e2:	8d b4 26 00 00 00 00 	lea    0x0(%esi,%eiz,1),%esi
 80580e9:	8d bc 27 00 00 00 00 	lea    0x0(%edi,%eiz,1),%edi
 80580f0:	55                   	push   %ebp
 80580f1:	b9 7f 00 00 00       	mov    $0x7f,%ecx
 80580f6:	89 e5                	mov    %esp,%ebp
 80580f8:	57                   	push   %edi
 80580f9:	56                   	push   %esi
 80580fa:	53                   	push   %ebx
 80580fb:	81 ec 4c 04 00 00    	sub    $0x44c,%esp
 8058101:	8b 45 08             	mov    0x8(%ebp),%eax
 8058104:	8d bd e8 fb ff ff    	lea    -0x418(%ebp),%edi
 805810a:	65 8b 15 14 00 00 00 	mov    %gs:0x14,%edx
 8058111:	89 55 e4             	mov    %edx,-0x1c(%ebp)
 8058114:	31 d2                	xor    %edx,%edx
 8058116:	8d 9d e4 fd ff ff    	lea    -0x21c(%ebp),%ebx
 805811c:	c7 85 e4 fb ff ff 00 	movl   $0x0,-0x41c(%ebp)
 8058123:	00 00 00 
 8058126:	89 85 cc fb ff ff    	mov    %eax,-0x434(%ebp)
 805812c:	31 c0                	xor    %eax,%eax
 805812e:	f3 ab                	rep stos %eax,%es:(%edi)
 8058130:	8b 45 10             	mov    0x10(%ebp),%eax
 8058133:	c7 44 24 04 ff 01 00 	movl   $0x1ff,0x4(%esp)
 805813a:	00 
 805813b:	89 1c 24             	mov    %ebx,(%esp)
 805813e:	89 44 24 08          	mov    %eax,0x8(%esp)
 8058142:	e8 61 12 ff ff       	call   80493a8 <fgets@plt>
 8058147:	89 c2                	mov    %eax,%edx
 8058149:	31 c0                	xor    %eax,%eax
 805814b:	85 d2                	test   %edx,%edx
 805814d:	0f 84 45 01 00 00    	je     8058298 <geteuid@plt+0xeac0>
 8058153:	c7 44 24 08 00 02 00 	movl   $0x200,0x8(%esp)
 805815a:	00 
 805815b:	c7 44 24 04 10 e2 05 	movl   $0x805e210,0x4(%esp)
 8058162:	08 
 8058163:	89 1c 24             	mov    %ebx,(%esp)
 8058166:	e8 ad 12 ff ff       	call   8049418 <__strcat_chk@plt>
 805816b:	8d 45 18             	lea    0x18(%ebp),%eax
 805816e:	8b 7d 14             	mov    0x14(%ebp),%edi
 8058171:	89 85 d4 fb ff ff    	mov    %eax,-0x42c(%ebp)
 8058177:	e8 5c 13 ff ff       	call   80494d8 <__ctype_b_loc@plt>
 805817c:	89 85 d0 fb ff ff    	mov    %eax,-0x430(%ebp)
 8058182:	8d b6 00 00 00 00    	lea    0x0(%esi),%esi
 8058188:	8b 95 d0 fb ff ff    	mov    -0x430(%ebp),%edx
 805818e:	8b 0a                	mov    (%edx),%ecx
 8058190:	eb 09                	jmp    805819b <geteuid@plt+0xe9c3>
 8058192:	8d b6 00 00 00 00    	lea    0x0(%esi),%esi
 8058198:	83 c3 01             	add    $0x1,%ebx
 805819b:	0f b6 03             	movzbl (%ebx),%eax
 805819e:	0f be d0             	movsbl %al,%edx
 80581a1:	f6 44 51 01 20       	testb  $0x20,0x1(%ecx,%edx,2)
 80581a6:	75 f0                	jne    8058198 <geteuid@plt+0xe9c0>
 80581a8:	3c 7c                	cmp    $0x7c,%al
 80581aa:	74 ec                	je     8058198 <geteuid@plt+0xe9c0>
 80581ac:	c7 44 24 04 2a f8 05 	movl   $0x805f82a,0x4(%esp)
 80581b3:	08 
 80581b4:	89 1c 24             	mov    %ebx,(%esp)
 80581b7:	e8 ac 15 ff ff       	call   8049768 <strpbrk@plt>
 80581bc:	85 c0                	test   %eax,%eax
 80581be:	89 c6                	mov    %eax,%esi
 80581c0:	74 06                	je     80581c8 <geteuid@plt+0xe9f0>
 80581c2:	c6 00 00             	movb   $0x0,(%eax)
 80581c5:	83 c6 01             	add    $0x1,%esi
 80581c8:	89 5c 24 04          	mov    %ebx,0x4(%esp)
 80581cc:	89 3c 24             	mov    %edi,(%esp)
 80581cf:	e8 c4 15 ff ff       	call   8049798 <strcmp@plt>
 80581d4:	85 c0                	test   %eax,%eax
 80581d6:	75 68                	jne    8058240 <geteuid@plt+0xea68>
 80581d8:	8b 95 d4 fb ff ff    	mov    -0x42c(%ebp),%edx
 80581de:	8b 9d d4 fb ff ff    	mov    -0x42c(%ebp),%ebx
 80581e4:	c7 44 24 08 00 02 00 	movl   $0x200,0x8(%esp)
 80581eb:	00 
 80581ec:	8b 02                	mov    (%edx),%eax
 80581ee:	83 c3 04             	add    $0x4,%ebx
 80581f1:	89 44 24 04          	mov    %eax,0x4(%esp)
 80581f5:	8d 85 e4 fb ff ff    	lea    -0x41c(%ebp),%eax
 80581fb:	89 04 24             	mov    %eax,(%esp)
 80581fe:	e8 15 12 ff ff       	call   8049418 <__strcat_chk@plt>
 8058203:	8b 3b                	mov    (%ebx),%edi
 8058205:	83 85 d4 fb ff ff 08 	addl   $0x8,-0x42c(%ebp)
 805820c:	85 ff                	test   %edi,%edi
 805820e:	0f 84 9b 00 00 00    	je     80582af <geteuid@plt+0xead7>
 8058214:	8d 85 e4 fb ff ff    	lea    -0x41c(%ebp),%eax
 805821a:	c7 44 24 08 00 02 00 	movl   $0x200,0x8(%esp)
 8058221:	00 
 8058222:	c7 44 24 04 10 e2 05 	movl   $0x805e210,0x4(%esp)
 8058229:	08 
 805822a:	89 04 24             	mov    %eax,(%esp)
 805822d:	e8 e6 11 ff ff       	call   8049418 <__strcat_chk@plt>
 8058232:	85 f6                	test   %esi,%esi
 8058234:	74 2a                	je     8058260 <geteuid@plt+0xea88>
 8058236:	89 f3                	mov    %esi,%ebx
 8058238:	e9 4b ff ff ff       	jmp    8058188 <geteuid@plt+0xe9b0>
 805823d:	8d 76 00             	lea    0x0(%esi),%esi
 8058240:	8d 95 e4 fb ff ff    	lea    -0x41c(%ebp),%edx
 8058246:	c7 44 24 08 00 02 00 	movl   $0x200,0x8(%esp)
 805824d:	00 
 805824e:	c7 44 24 04 2f f8 05 	movl   $0x805f82f,0x4(%esp)
 8058255:	08 
 8058256:	89 14 24             	mov    %edx,(%esp)
 8058259:	e8 ba 11 ff ff       	call   8049418 <__strcat_chk@plt>
 805825e:	eb b4                	jmp    8058214 <geteuid@plt+0xea3c>
 8058260:	85 ff                	test   %edi,%edi
 8058262:	74 4b                	je     80582af <geteuid@plt+0xead7>
 8058264:	8b 45 0c             	mov    0xc(%ebp),%eax
 8058267:	85 c0                	test   %eax,%eax
 8058269:	75 44                	jne    80582af <geteuid@plt+0xead7>
 805826b:	8b 85 cc fb ff ff    	mov    -0x434(%ebp),%eax
 8058271:	89 7c 24 10          	mov    %edi,0x10(%esp)
 8058275:	c7 44 24 08 38 f8 05 	movl   $0x805f838,0x8(%esp)
 805827c:	08 
 805827d:	c7 44 24 04 01 00 00 	movl   $0x1,0x4(%esp)
 8058284:	00 
 8058285:	89 44 24 0c          	mov    %eax,0xc(%esp)
 8058289:	a1 80 28 06 08       	mov    0x8062880,%eax
 805828e:	89 04 24             	mov    %eax,(%esp)
 8058291:	e8 72 10 ff ff       	call   8049308 <__fprintf_chk@plt>
 8058296:	31 c0                	xor    %eax,%eax
 8058298:	8b 55 e4             	mov    -0x1c(%ebp),%edx
 805829b:	65 33 15 14 00 00 00 	xor    %gs:0x14,%edx
 80582a2:	75 1b                	jne    80582bf <geteuid@plt+0xeae7>
 80582a4:	81 c4 4c 04 00 00    	add    $0x44c,%esp
 80582aa:	5b                   	pop    %ebx
 80582ab:	5e                   	pop    %esi
 80582ac:	5f                   	pop    %edi
 80582ad:	5d                   	pop    %ebp
 80582ae:	c3                   	ret    
 80582af:	8d 95 e4 fb ff ff    	lea    -0x41c(%ebp),%edx
 80582b5:	89 14 24             	mov    %edx,(%esp)
 80582b8:	e8 fb 14 ff ff       	call   80497b8 <__strdup@plt>
 80582bd:	eb d9                	jmp    8058298 <geteuid@plt+0xeac0>
 80582bf:	e8 a4 13 ff ff       	call   8049668 <__stack_chk_fail@plt>
 80582c4:	90                   	nop
 80582c5:	90                   	nop
 80582c6:	90                   	nop
 80582c7:	90                   	nop
 80582c8:	90                   	nop
 80582c9:	90                   	nop
 80582ca:	90                   	nop
 80582cb:	90                   	nop
 80582cc:	90                   	nop
 80582cd:	90                   	nop
 80582ce:	90                   	nop
 80582cf:	90                   	nop
 80582d0:	55                   	push   %ebp
 80582d1:	89 e5                	mov    %esp,%ebp
 80582d3:	83 ec 28             	sub    $0x28,%esp
 80582d6:	8b 45 08             	mov    0x8(%ebp),%eax
 80582d9:	85 c0                	test   %eax,%eax
 80582db:	74 2b                	je     8058308 <geteuid@plt+0xeb30>
 80582dd:	c7 44 24 10 20 33 06 	movl   $0x8063320,0x10(%esp)
 80582e4:	08 
 80582e5:	89 44 24 0c          	mov    %eax,0xc(%esp)
 80582e9:	c7 44 24 08 df e2 05 	movl   $0x805e2df,0x8(%esp)
 80582f0:	08 
 80582f1:	c7 44 24 04 01 00 00 	movl   $0x1,0x4(%esp)
 80582f8:	00 
 80582f9:	a1 80 28 06 08       	mov    0x8062880,%eax
 80582fe:	89 04 24             	mov    %eax,(%esp)
 8058301:	e8 02 10 ff ff       	call   8049308 <__fprintf_chk@plt>
 8058306:	c9                   	leave  
 8058307:	c3                   	ret    
 8058308:	c7 44 24 0c 20 33 06 	movl   $0x8063320,0xc(%esp)
 805830f:	08 
 8058310:	c7 44 24 08 61 be 05 	movl   $0x805be61,0x8(%esp)
 8058317:	08 
 8058318:	c7 44 24 04 01 00 00 	movl   $0x1,0x4(%esp)
 805831f:	00 
 8058320:	a1 80 28 06 08       	mov    0x8062880,%eax
 8058325:	89 04 24             	mov    %eax,(%esp)
 8058328:	e8 db 0f ff ff       	call   8049308 <__fprintf_chk@plt>
 805832d:	c9                   	leave  
 805832e:	c3                   	ret    
 805832f:	90                   	nop
 8058330:	55                   	push   %ebp
 8058331:	89 e5                	mov    %esp,%ebp
 8058333:	56                   	push   %esi
 8058334:	53                   	push   %ebx
 8058335:	83 ec 10             	sub    $0x10,%esp
 8058338:	a1 e8 23 06 08       	mov    0x80623e8,%eax
 805833d:	8b 5d 0c             	mov    0xc(%ebp),%ebx
 8058340:	8b 75 10             	mov    0x10(%ebp),%esi
 8058343:	66 89 06             	mov    %ax,(%esi)
 8058346:	89 1c 24             	mov    %ebx,(%esp)
 8058349:	e8 fa 11 ff ff       	call   8049548 <strlen@plt>
 805834e:	31 d2                	xor    %edx,%edx
 8058350:	83 f8 0a             	cmp    $0xa,%eax
 8058353:	75 26                	jne    805837b <geteuid@plt+0xeba3>
 8058355:	0f be 04 53          	movsbl (%ebx,%edx,2),%eax
 8058359:	0f b6 4c 53 01       	movzbl 0x1(%ebx,%edx,2),%ecx
 805835e:	c1 e0 04             	shl    $0x4,%eax
 8058361:	83 e9 30             	sub    $0x30,%ecx
 8058364:	09 c8                	or     %ecx,%eax
 8058366:	88 44 16 02          	mov    %al,0x2(%esi,%edx,1)
 805836a:	83 c2 01             	add    $0x1,%edx
 805836d:	83 fa 05             	cmp    $0x5,%edx
 8058370:	75 e3                	jne    8058355 <geteuid@plt+0xeb7d>
 8058372:	31 c0                	xor    %eax,%eax
 8058374:	83 c4 10             	add    $0x10,%esp
 8058377:	5b                   	pop    %ebx
 8058378:	5e                   	pop    %esi
 8058379:	5d                   	pop    %ebp
 805837a:	c3                   	ret    
 805837b:	c7 04 24 8c f8 05 08 	movl   $0x805f88c,(%esp)
 8058382:	e8 a1 10 ff ff       	call   8049428 <gettext@plt>
 8058387:	c7 44 24 08 80 00 00 	movl   $0x80,0x8(%esp)
 805838e:	00 
 805838f:	c7 04 24 20 33 06 08 	movl   $0x8063320,(%esp)
 8058396:	89 44 24 04          	mov    %eax,0x4(%esp)
 805839a:	e8 49 12 ff ff       	call   80495e8 <__strcpy_chk@plt>
 805839f:	e8 d4 0e ff ff       	call   8049278 <__errno_location@plt>
 80583a4:	c7 00 16 00 00 00    	movl   $0x16,(%eax)
 80583aa:	b8 ff ff ff ff       	mov    $0xffffffff,%eax
 80583af:	eb c3                	jmp    8058374 <geteuid@plt+0xeb9c>
 80583b1:	eb 0d                	jmp    80583c0 <geteuid@plt+0xebe8>
 80583b3:	90                   	nop
 80583b4:	90                   	nop
 80583b5:	90                   	nop
 80583b6:	90                   	nop
 80583b7:	90                   	nop
 80583b8:	90                   	nop
 80583b9:	90                   	nop
 80583ba:	90                   	nop
 80583bb:	90                   	nop
 80583bc:	90                   	nop
 80583bd:	90                   	nop
 80583be:	90                   	nop
 80583bf:	90                   	nop
 80583c0:	55                   	push   %ebp
 80583c1:	89 e5                	mov    %esp,%ebp
 80583c3:	53                   	push   %ebx
 80583c4:	83 ec 14             	sub    $0x14,%esp
 80583c7:	8b 5d 0c             	mov    0xc(%ebp),%ebx
 80583ca:	8b 45 08             	mov    0x8(%ebp),%eax
 80583cd:	c7 04 24 00 00 00 00 	movl   $0x0,(%esp)
 80583d4:	89 5c 24 08          	mov    %ebx,0x8(%esp)
 80583d8:	89 44 24 04          	mov    %eax,0x4(%esp)
 80583dc:	e8 4f ff ff ff       	call   8058330 <geteuid@plt+0xeb58>
 80583e1:	89 c2                	mov    %eax,%edx
 80583e3:	b8 ff ff ff ff       	mov    $0xffffffff,%eax
 80583e8:	85 d2                	test   %edx,%edx
 80583ea:	78 07                	js     80583f3 <geteuid@plt+0xec1b>
 80583ec:	66 c7 03 0e 01       	movw   $0x10e,(%ebx)
 80583f1:	31 c0                	xor    %eax,%eax
 80583f3:	83 c4 14             	add    $0x14,%esp
 80583f6:	5b                   	pop    %ebx
 80583f7:	5d                   	pop    %ebp
 80583f8:	c3                   	ret    
 80583f9:	8d b4 26 00 00 00 00 	lea    0x0(%esi,%eiz,1),%esi
 8058400:	55                   	push   %ebp
 8058401:	89 e5                	mov    %esp,%ebp
 8058403:	83 ec 38             	sub    $0x38,%esp
 8058406:	8b 45 08             	mov    0x8(%ebp),%eax
 8058409:	0f b6 50 04          	movzbl 0x4(%eax),%edx
 805840d:	89 54 24 24          	mov    %edx,0x24(%esp)
 8058411:	0f b6 50 03          	movzbl 0x3(%eax),%edx
 8058415:	89 54 24 20          	mov    %edx,0x20(%esp)
 8058419:	0f b6 50 02          	movzbl 0x2(%eax),%edx
 805841d:	89 54 24 1c          	mov    %edx,0x1c(%esp)
 8058421:	0f b6 50 01          	movzbl 0x1(%eax),%edx
 8058425:	89 54 24 18          	mov    %edx,0x18(%esp)
 8058429:	0f b6 00             	movzbl (%eax),%eax
 805842c:	c7 44 24 10 68 f8 05 	movl   $0x805f868,0x10(%esp)
 8058433:	08 
 8058434:	c7 44 24 0c 0c 00 00 	movl   $0xc,0xc(%esp)
 805843b:	00 
 805843c:	c7 44 24 08 01 00 00 	movl   $0x1,0x8(%esp)
 8058443:	00 
 8058444:	89 44 24 14          	mov    %eax,0x14(%esp)
 8058448:	c7 44 24 04 0c 00 00 	movl   $0xc,0x4(%esp)
 805844f:	00 
 8058450:	c7 04 24 00 33 06 08 	movl   $0x8063300,(%esp)
 8058457:	e8 ec 12 ff ff       	call   8049748 <__snprintf_chk@plt>
 805845c:	b8 00 33 06 08       	mov    $0x8063300,%eax
 8058461:	c6 05 0a 33 06 08 00 	movb   $0x0,0x806330a
 8058468:	c9                   	leave  
 8058469:	c3                   	ret    
 805846a:	8d b6 00 00 00 00    	lea    0x0(%esi),%esi
 8058470:	55                   	push   %ebp
 8058471:	89 e5                	mov    %esp,%ebp
 8058473:	83 ec 08             	sub    $0x8,%esp
 8058476:	8b 45 08             	mov    0x8(%ebp),%eax
 8058479:	0f b7 10             	movzwl (%eax),%edx
 805847c:	83 ea 01             	sub    $0x1,%edx
 805847f:	66 83 fa fd          	cmp    $0xfffd,%dx
 8058483:	77 13                	ja     8058498 <geteuid@plt+0xecc0>
 8058485:	83 c0 02             	add    $0x2,%eax
 8058488:	89 45 08             	mov    %eax,0x8(%ebp)
 805848b:	c9                   	leave  
 805848c:	e9 6f ff ff ff       	jmp    8058400 <geteuid@plt+0xec28>
 8058491:	8d b4 26 00 00 00 00 	lea    0x0(%esi,%eiz,1),%esi
 8058498:	c7 45 08 b2 e2 05 08 	movl   $0x805e2b2,0x8(%ebp)
 805849f:	c9                   	leave  
 80584a0:	e9 83 0f ff ff       	jmp    8049428 <gettext@plt>
 80584a5:	90                   	nop
 80584a6:	90                   	nop
 80584a7:	90                   	nop
 80584a8:	90                   	nop
 80584a9:	90                   	nop
 80584aa:	90                   	nop
 80584ab:	90                   	nop
 80584ac:	90                   	nop
 80584ad:	90                   	nop
 80584ae:	90                   	nop
 80584af:	90                   	nop
 80584b0:	55                   	push   %ebp
 80584b1:	89 e5                	mov    %esp,%ebp
 80584b3:	57                   	push   %edi
 80584b4:	56                   	push   %esi
 80584b5:	53                   	push   %ebx
 80584b6:	83 ec 2c             	sub    $0x2c,%esp
 80584b9:	8b 1d 18 24 06 08    	mov    0x8062418,%ebx
 80584bf:	85 db                	test   %ebx,%ebx
 80584c1:	0f 88 19 01 00 00    	js     80585e0 <geteuid@plt+0xee08>
 80584c7:	8b 1d 80 20 06 08    	mov    0x8062080,%ebx
 80584cd:	ba ff ff ff ff       	mov    $0xffffffff,%edx
 80584d2:	be 80 20 06 08       	mov    $0x8062080,%esi
 80584d7:	bf ff ff ff ff       	mov    $0xffffffff,%edi
 80584dc:	85 db                	test   %ebx,%ebx
 80584de:	0f 84 cc 00 00 00    	je     80585b0 <geteuid@plt+0xedd8>
 80584e4:	8d 74 26 00          	lea    0x0(%esi,%eiz,1),%esi
 80584e8:	8b 43 08             	mov    0x8(%ebx),%eax
 80584eb:	85 c0                	test   %eax,%eax
 80584ed:	74 0c                	je     80584fb <geteuid@plt+0xed23>
 80584ef:	8b 4d 08             	mov    0x8(%ebp),%ecx
 80584f2:	85 c9                	test   %ecx,%ecx
 80584f4:	74 1a                	je     8058510 <geteuid@plt+0xed38>
 80584f6:	3b 45 08             	cmp    0x8(%ebp),%eax
 80584f9:	74 15                	je     8058510 <geteuid@plt+0xed38>
 80584fb:	89 d7                	mov    %edx,%edi
 80584fd:	83 c6 04             	add    $0x4,%esi
 8058500:	8b 1e                	mov    (%esi),%ebx
 8058502:	85 db                	test   %ebx,%ebx
 8058504:	74 62                	je     8058568 <geteuid@plt+0xed90>
 8058506:	89 fa                	mov    %edi,%edx
 8058508:	eb de                	jmp    80584e8 <geteuid@plt+0xed10>
 805850a:	8d b6 00 00 00 00    	lea    0x0(%esi),%esi
 8058510:	8b 7b 2c             	mov    0x2c(%ebx),%edi
 8058513:	83 ff ff             	cmp    $0xffffffff,%edi
 8058516:	75 e5                	jne    80584fd <geteuid@plt+0xed25>
 8058518:	8b 7d 08             	mov    0x8(%ebp),%edi
 805851b:	85 ff                	test   %edi,%edi
 805851d:	74 59                	je     8058578 <geteuid@plt+0xeda0>
 805851f:	83 f8 06             	cmp    $0x6,%eax
 8058522:	bf 05 00 00 00       	mov    $0x5,%edi
 8058527:	74 12                	je     805853b <geteuid@plt+0xed63>
 8058529:	83 f8 09             	cmp    $0x9,%eax
 805852c:	0f 94 c1             	sete   %cl
 805852f:	89 cf                	mov    %ecx,%edi
 8058531:	81 e7 ff 00 00 00    	and    $0xff,%edi
 8058537:	8d 7c 7f 02          	lea    0x2(%edi,%edi,2),%edi
 805853b:	89 7c 24 04          	mov    %edi,0x4(%esp)
 805853f:	c7 44 24 08 00 00 00 	movl   $0x0,0x8(%esp)
 8058546:	00 
 8058547:	89 04 24             	mov    %eax,(%esp)
 805854a:	89 55 e4             	mov    %edx,-0x1c(%ebp)
 805854d:	e8 76 0f ff ff       	call   80494c8 <socket@plt>
 8058552:	8b 55 e4             	mov    -0x1c(%ebp),%edx
 8058555:	85 c0                	test   %eax,%eax
 8058557:	89 c7                	mov    %eax,%edi
 8058559:	89 43 2c             	mov    %eax,0x2c(%ebx)
 805855c:	78 9d                	js     80584fb <geteuid@plt+0xed23>
 805855e:	83 c6 04             	add    $0x4,%esi
 8058561:	8b 1e                	mov    (%esi),%ebx
 8058563:	85 db                	test   %ebx,%ebx
 8058565:	75 9f                	jne    8058506 <geteuid@plt+0xed2e>
 8058567:	90                   	nop
 8058568:	85 ff                	test   %edi,%edi
 805856a:	78 44                	js     80585b0 <geteuid@plt+0xedd8>
 805856c:	83 c4 2c             	add    $0x2c,%esp
 805856f:	89 f8                	mov    %edi,%eax
 8058571:	5b                   	pop    %ebx
 8058572:	5e                   	pop    %esi
 8058573:	5f                   	pop    %edi
 8058574:	5d                   	pop    %ebp
 8058575:	c3                   	ret    
 8058576:	66 90                	xchg   %ax,%ax
 8058578:	8b 0d 18 24 06 08    	mov    0x8062418,%ecx
 805857e:	85 c9                	test   %ecx,%ecx
 8058580:	75 9d                	jne    805851f <geteuid@plt+0xed47>
 8058582:	8b 7b 30             	mov    0x30(%ebx),%edi
 8058585:	85 ff                	test   %edi,%edi
 8058587:	74 96                	je     805851f <geteuid@plt+0xed47>
 8058589:	c7 44 24 04 04 00 00 	movl   $0x4,0x4(%esp)
 8058590:	00 
 8058591:	89 3c 24             	mov    %edi,(%esp)
 8058594:	89 55 e4             	mov    %edx,-0x1c(%ebp)
 8058597:	e8 ec 0e ff ff       	call   8049488 <access@plt>
 805859c:	8b 55 e4             	mov    -0x1c(%ebp),%edx
 805859f:	85 c0                	test   %eax,%eax
 80585a1:	0f 85 54 ff ff ff    	jne    80584fb <geteuid@plt+0xed23>
 80585a7:	8b 43 08             	mov    0x8(%ebx),%eax
 80585aa:	e9 70 ff ff ff       	jmp    805851f <geteuid@plt+0xed47>
 80585af:	90                   	nop
 80585b0:	c7 04 24 b8 f8 05 08 	movl   $0x805f8b8,(%esp)
 80585b7:	e8 6c 0e ff ff       	call   8049428 <gettext@plt>
 80585bc:	c7 44 24 04 01 00 00 	movl   $0x1,0x4(%esp)
 80585c3:	00 
 80585c4:	89 44 24 08          	mov    %eax,0x8(%esp)
 80585c8:	a1 80 28 06 08       	mov    0x8062880,%eax
 80585cd:	89 04 24             	mov    %eax,(%esp)
 80585d0:	e8 33 0d ff ff       	call   8049308 <__fprintf_chk@plt>
 80585d5:	83 c4 2c             	add    $0x2c,%esp
 80585d8:	89 f8                	mov    %edi,%eax
 80585da:	5b                   	pop    %ebx
 80585db:	5e                   	pop    %esi
 80585dc:	5f                   	pop    %edi
 80585dd:	5d                   	pop    %ebp
 80585de:	c3                   	ret    
 80585df:	90                   	nop
 80585e0:	c7 05 18 24 06 08 00 	movl   $0x0,0x8062418
 80585e7:	00 00 00 
 80585ea:	e8 c1 01 00 00       	call   80587b0 <geteuid@plt+0xefd8>
 80585ef:	3d 07 52 00 00       	cmp    $0x5207,%eax
 80585f4:	7f 0a                	jg     8058600 <geteuid@plt+0xee28>
 80585f6:	c7 05 18 24 06 08 01 	movl   $0x1,0x8062418
 80585fd:	00 00 00 
 8058600:	c7 44 24 04 04 00 00 	movl   $0x4,0x4(%esp)
 8058607:	00 
 8058608:	c7 04 24 ac f8 05 08 	movl   $0x805f8ac,(%esp)
 805860f:	e8 74 0e ff ff       	call   8049488 <access@plt>
 8058614:	85 c0                	test   %eax,%eax
 8058616:	0f 84 ab fe ff ff    	je     80584c7 <geteuid@plt+0xecef>
 805861c:	c7 05 18 24 06 08 01 	movl   $0x1,0x8062418
 8058623:	00 00 00 
 8058626:	e9 9c fe ff ff       	jmp    80584c7 <geteuid@plt+0xecef>
 805862b:	90                   	nop
 805862c:	90                   	nop
 805862d:	90                   	nop
 805862e:	90                   	nop
 805862f:	90                   	nop
 8058630:	55                   	push   %ebp
 8058631:	89 e5                	mov    %esp,%ebp
 8058633:	8b 45 08             	mov    0x8(%ebp),%eax
 8058636:	5d                   	pop    %ebp
 8058637:	c3                   	ret    
 8058638:	90                   	nop
 8058639:	8d b4 26 00 00 00 00 	lea    0x0(%esi,%eiz,1),%esi
 8058640:	55                   	push   %ebp
 8058641:	89 e5                	mov    %esp,%ebp
 8058643:	83 ec 18             	sub    $0x18,%esp
 8058646:	8b 45 08             	mov    0x8(%ebp),%eax
 8058649:	0f b7 10             	movzwl (%eax),%edx
 805864c:	83 ea 01             	sub    $0x1,%edx
 805864f:	66 83 fa fd          	cmp    $0xfffd,%dx
 8058653:	77 0b                	ja     8058660 <geteuid@plt+0xee88>
 8058655:	83 c0 02             	add    $0x2,%eax
 8058658:	c9                   	leave  
 8058659:	c3                   	ret    
 805865a:	8d b6 00 00 00 00    	lea    0x0(%esi),%esi
 8058660:	c7 04 24 b2 e2 05 08 	movl   $0x805e2b2,(%esp)
 8058667:	e8 bc 0d ff ff       	call   8049428 <gettext@plt>
 805866c:	c7 44 24 08 40 00 00 	movl   $0x40,0x8(%esp)
 8058673:	00 
 8058674:	c7 04 24 20 34 06 08 	movl   $0x8063420,(%esp)
 805867b:	89 44 24 04          	mov    %eax,0x4(%esp)
 805867f:	e8 fc 00 00 00       	call   8058780 <geteuid@plt+0xefa8>
 8058684:	c9                   	leave  
 8058685:	c3                   	ret    
 8058686:	8d 76 00             	lea    0x0(%esi),%esi
 8058689:	8d bc 27 00 00 00 00 	lea    0x0(%edi,%eiz,1),%edi
 8058690:	55                   	push   %ebp
 8058691:	89 e5                	mov    %esp,%ebp
 8058693:	57                   	push   %edi
 8058694:	56                   	push   %esi
 8058695:	be e0 33 06 08       	mov    $0x80633e0,%esi
 805869a:	53                   	push   %ebx
 805869b:	31 db                	xor    %ebx,%ebx
 805869d:	83 ec 2c             	sub    $0x2c,%esp
 80586a0:	8b 7d 08             	mov    0x8(%ebp),%edi
 80586a3:	90                   	nop
 80586a4:	8d 74 26 00          	lea    0x0(%esi,%eiz,1),%esi
 80586a8:	0f b6 04 1f          	movzbl (%edi,%ebx,1),%eax
 80586ac:	83 c3 01             	add    $0x1,%ebx
 80586af:	89 34 24             	mov    %esi,(%esp)
 80586b2:	c7 44 24 0c db f8 05 	movl   $0x805f8db,0xc(%esp)
 80586b9:	08 
 80586ba:	c7 44 24 08 ff ff ff 	movl   $0xffffffff,0x8(%esp)
 80586c1:	ff 
 80586c2:	89 44 24 10          	mov    %eax,0x10(%esp)
 80586c6:	c7 44 24 04 01 00 00 	movl   $0x1,0x4(%esp)
 80586cd:	00 
 80586ce:	e8 45 10 ff ff       	call   8049718 <__sprintf_chk@plt>
 80586d3:	01 c6                	add    %eax,%esi
 80586d5:	83 fb 10             	cmp    $0x10,%ebx
 80586d8:	75 ce                	jne    80586a8 <geteuid@plt+0xeed0>
 80586da:	ba e0 33 06 08       	mov    $0x80633e0,%edx
 80586df:	8b 0a                	mov    (%edx),%ecx
 80586e1:	83 c2 04             	add    $0x4,%edx
 80586e4:	8d 81 ff fe fe fe    	lea    -0x1010101(%ecx),%eax
 80586ea:	f7 d1                	not    %ecx
 80586ec:	21 c8                	and    %ecx,%eax
 80586ee:	25 80 80 80 80       	and    $0x80808080,%eax
 80586f3:	74 ea                	je     80586df <geteuid@plt+0xef07>
 80586f5:	a9 80 80 00 00       	test   $0x8080,%eax
 80586fa:	74 24                	je     8058720 <geteuid@plt+0xef48>
 80586fc:	00 c0                	add    %al,%al
 80586fe:	b8 e0 33 06 08       	mov    $0x80633e0,%eax
 8058703:	83 da 03             	sbb    $0x3,%edx
 8058706:	81 ea e0 33 06 08    	sub    $0x80633e0,%edx
 805870c:	c6 82 df 33 06 08 00 	movb   $0x0,0x80633df(%edx)
 8058713:	83 c4 2c             	add    $0x2c,%esp
 8058716:	5b                   	pop    %ebx
 8058717:	5e                   	pop    %esi
 8058718:	5f                   	pop    %edi
 8058719:	5d                   	pop    %ebp
 805871a:	c3                   	ret    
 805871b:	90                   	nop
 805871c:	8d 74 26 00          	lea    0x0(%esi,%eiz,1),%esi
 8058720:	c1 e8 10             	shr    $0x10,%eax
 8058723:	83 c2 02             	add    $0x2,%edx
 8058726:	eb d4                	jmp    80586fc <geteuid@plt+0xef24>
 8058728:	90                   	nop
 8058729:	8d b4 26 00 00 00 00 	lea    0x0(%esi,%eiz,1),%esi
 8058730:	55                   	push   %ebp
 8058731:	89 e5                	mov    %esp,%ebp
 8058733:	83 ec 18             	sub    $0x18,%esp
 8058736:	8b 45 08             	mov    0x8(%ebp),%eax
 8058739:	0f b7 10             	movzwl (%eax),%edx
 805873c:	83 ea 01             	sub    $0x1,%edx
 805873f:	66 83 fa fd          	cmp    $0xfffd,%dx
 8058743:	77 13                	ja     8058758 <geteuid@plt+0xef80>
 8058745:	83 c0 02             	add    $0x2,%eax
 8058748:	89 45 08             	mov    %eax,0x8(%ebp)
 805874b:	c9                   	leave  
 805874c:	e9 3f ff ff ff       	jmp    8058690 <geteuid@plt+0xeeb8>
 8058751:	8d b4 26 00 00 00 00 	lea    0x0(%esi,%eiz,1),%esi
 8058758:	c7 04 24 b2 e2 05 08 	movl   $0x805e2b2,(%esp)
 805875f:	e8 c4 0c ff ff       	call   8049428 <gettext@plt>
 8058764:	c7 44 24 08 40 00 00 	movl   $0x40,0x8(%esp)
 805876b:	00 
 805876c:	c7 04 24 a0 33 06 08 	movl   $0x80633a0,(%esp)
 8058773:	89 44 24 04          	mov    %eax,0x4(%esp)
 8058777:	e8 04 00 00 00       	call   8058780 <geteuid@plt+0xefa8>
 805877c:	c9                   	leave  
 805877d:	c3                   	ret    
 805877e:	90                   	nop
 805877f:	90                   	nop
 8058780:	55                   	push   %ebp
 8058781:	89 e5                	mov    %esp,%ebp
 8058783:	83 ec 08             	sub    $0x8,%esp
 8058786:	8b 55 10             	mov    0x10(%ebp),%edx
 8058789:	8b 45 08             	mov    0x8(%ebp),%eax
 805878c:	8b 4d 0c             	mov    0xc(%ebp),%ecx
 805878f:	c6 44 10 ff 00       	movb   $0x0,-0x1(%eax,%edx,1)
 8058794:	83 ea 01             	sub    $0x1,%edx
 8058797:	89 55 10             	mov    %edx,0x10(%ebp)
 805879a:	89 4d 0c             	mov    %ecx,0xc(%ebp)
 805879d:	89 45 08             	mov    %eax,0x8(%ebp)
 80587a0:	c9                   	leave  
 80587a1:	e9 f2 0b ff ff       	jmp    8049398 <strncpy@plt>
 80587a6:	8d 76 00             	lea    0x0(%esi),%esi
 80587a9:	8d bc 27 00 00 00 00 	lea    0x0(%edi,%eiz,1),%edi
 80587b0:	55                   	push   %ebp
 80587b1:	89 e5                	mov    %esp,%ebp
 80587b3:	81 ec c8 01 00 00    	sub    $0x1c8,%esp
 80587b9:	65 a1 14 00 00 00    	mov    %gs:0x14,%eax
 80587bf:	89 45 f4             	mov    %eax,-0xc(%ebp)
 80587c2:	31 c0                	xor    %eax,%eax
 80587c4:	8d 85 6e fe ff ff    	lea    -0x192(%ebp),%eax
 80587ca:	89 04 24             	mov    %eax,(%esp)
 80587cd:	e8 06 0c ff ff       	call   80493d8 <uname@plt>
 80587d2:	85 c0                	test   %eax,%eax
 80587d4:	79 1a                	jns    80587f0 <geteuid@plt+0xf018>
 80587d6:	b8 ff ff ff ff       	mov    $0xffffffff,%eax
 80587db:	8b 55 f4             	mov    -0xc(%ebp),%edx
 80587de:	65 33 15 14 00 00 00 	xor    %gs:0x14,%edx
 80587e5:	75 61                	jne    8058848 <geteuid@plt+0xf070>
 80587e7:	c9                   	leave  
 80587e8:	c3                   	ret    
 80587e9:	8d b4 26 00 00 00 00 	lea    0x0(%esi,%eiz,1),%esi
 80587f0:	8d 85 60 fe ff ff    	lea    -0x1a0(%ebp),%eax
 80587f6:	89 44 24 10          	mov    %eax,0x10(%esp)
 80587fa:	8d 85 64 fe ff ff    	lea    -0x19c(%ebp),%eax
 8058800:	89 44 24 0c          	mov    %eax,0xc(%esp)
 8058804:	8d 85 68 fe ff ff    	lea    -0x198(%ebp),%eax
 805880a:	89 44 24 08          	mov    %eax,0x8(%esp)
 805880e:	8d 85 f0 fe ff ff    	lea    -0x110(%ebp),%eax
 8058814:	c7 44 24 04 e8 f8 05 	movl   $0x805f8e8,0x4(%esp)
 805881b:	08 
 805881c:	89 04 24             	mov    %eax,(%esp)
 805881f:	e8 c4 0e ff ff       	call   80496e8 <sscanf@plt>
 8058824:	83 f8 03             	cmp    $0x3,%eax
 8058827:	75 ad                	jne    80587d6 <geteuid@plt+0xeffe>
 8058829:	69 95 68 fe ff ff 10 	imul   $0x2710,-0x198(%ebp),%edx
 8058830:	27 00 00 
 8058833:	69 85 64 fe ff ff e8 	imul   $0x3e8,-0x19c(%ebp),%eax
 805883a:	03 00 00 
 805883d:	8d 04 02             	lea    (%edx,%eax,1),%eax
 8058840:	03 85 60 fe ff ff    	add    -0x1a0(%ebp),%eax
 8058846:	eb 93                	jmp    80587db <geteuid@plt+0xf003>
 8058848:	e8 1b 0e ff ff       	call   8049668 <__stack_chk_fail@plt>
 805884d:	8d 76 00             	lea    0x0(%esi),%esi
 8058850:	55                   	push   %ebp
 8058851:	89 e5                	mov    %esp,%ebp
 8058853:	83 ec 18             	sub    $0x18,%esp
 8058856:	a1 80 28 06 08       	mov    0x8062880,%eax
 805885b:	c7 44 24 08 f1 f8 05 	movl   $0x805f8f1,0x8(%esp)
 8058862:	08 
 8058863:	c7 44 24 04 01 00 00 	movl   $0x1,0x4(%esp)
 805886a:	00 
 805886b:	89 04 24             	mov    %eax,(%esp)
 805886e:	e8 95 0a ff ff       	call   8049308 <__fprintf_chk@plt>
 8058873:	c7 04 24 02 00 00 00 	movl   $0x2,(%esp)
 805887a:	e8 49 0f ff ff       	call   80497c8 <exit@plt>
 805887f:	90                   	nop
 8058880:	55                   	push   %ebp
 8058881:	89 e5                	mov    %esp,%ebp
 8058883:	83 ec 28             	sub    $0x28,%esp
 8058886:	8b 45 0c             	mov    0xc(%ebp),%eax
 8058889:	89 44 24 04          	mov    %eax,0x4(%esp)
 805888d:	8b 45 08             	mov    0x8(%ebp),%eax
 8058890:	89 04 24             	mov    %eax,(%esp)
 8058893:	e8 a0 0a ff ff       	call   8049338 <realloc@plt>
 8058898:	85 c0                	test   %eax,%eax
 805889a:	74 04                	je     80588a0 <geteuid@plt+0xf0c8>
 805889c:	c9                   	leave  
 805889d:	c3                   	ret    
 805889e:	66 90                	xchg   %ax,%ax
 80588a0:	89 45 f4             	mov    %eax,-0xc(%ebp)
 80588a3:	90                   	nop
 80588a4:	8d 74 26 00          	lea    0x0(%esi,%eiz,1),%esi
 80588a8:	e8 a3 ff ff ff       	call   8058850 <geteuid@plt+0xf078>
 80588ad:	8b 45 f4             	mov    -0xc(%ebp),%eax
 80588b0:	c9                   	leave  
 80588b1:	c3                   	ret    
 80588b2:	8d b4 26 00 00 00 00 	lea    0x0(%esi,%eiz,1),%esi
 80588b9:	8d bc 27 00 00 00 00 	lea    0x0(%edi,%eiz,1),%edi
 80588c0:	55                   	push   %ebp
 80588c1:	89 e5                	mov    %esp,%ebp
 80588c3:	83 ec 28             	sub    $0x28,%esp
 80588c6:	c7 44 24 04 01 00 00 	movl   $0x1,0x4(%esp)
 80588cd:	00 
 80588ce:	8b 45 08             	mov    0x8(%ebp),%eax
 80588d1:	89 04 24             	mov    %eax,(%esp)
 80588d4:	e8 af 0a ff ff       	call   8049388 <calloc@plt>
 80588d9:	85 c0                	test   %eax,%eax
 80588db:	74 03                	je     80588e0 <geteuid@plt+0xf108>
 80588dd:	c9                   	leave  
 80588de:	c3                   	ret    
 80588df:	90                   	nop
 80588e0:	89 45 f4             	mov    %eax,-0xc(%ebp)
 80588e3:	90                   	nop
 80588e4:	8d 74 26 00          	lea    0x0(%esi,%eiz,1),%esi
 80588e8:	e8 63 ff ff ff       	call   8058850 <geteuid@plt+0xf078>
 80588ed:	8b 45 f4             	mov    -0xc(%ebp),%eax
 80588f0:	c9                   	leave  
 80588f1:	c3                   	ret    
 80588f2:	90                   	nop
 80588f3:	90                   	nop
 80588f4:	90                   	nop
 80588f5:	90                   	nop
 80588f6:	90                   	nop
 80588f7:	90                   	nop
 80588f8:	90                   	nop
 80588f9:	90                   	nop
 80588fa:	90                   	nop
 80588fb:	90                   	nop
 80588fc:	90                   	nop
 80588fd:	90                   	nop
 80588fe:	90                   	nop
 80588ff:	90                   	nop
 8058900:	55                   	push   %ebp
 8058901:	89 e5                	mov    %esp,%ebp
 8058903:	83 ec 28             	sub    $0x28,%esp
 8058906:	8b 45 08             	mov    0x8(%ebp),%eax
 8058909:	85 c0                	test   %eax,%eax
 805890b:	74 2b                	je     8058938 <geteuid@plt+0xf160>
 805890d:	c7 44 24 10 80 34 06 	movl   $0x8063480,0x10(%esp)
 8058914:	08 
 8058915:	89 44 24 0c          	mov    %eax,0xc(%esp)
 8058919:	c7 44 24 08 df e2 05 	movl   $0x805e2df,0x8(%esp)
 8058920:	08 
 8058921:	c7 44 24 04 01 00 00 	movl   $0x1,0x4(%esp)
 8058928:	00 
 8058929:	a1 80 28 06 08       	mov    0x8062880,%eax
 805892e:	89 04 24             	mov    %eax,(%esp)
 8058931:	e8 d2 09 ff ff       	call   8049308 <__fprintf_chk@plt>
 8058936:	c9                   	leave  
 8058937:	c3                   	ret    
 8058938:	c7 44 24 0c 80 34 06 	movl   $0x8063480,0xc(%esp)
 805893f:	08 
 8058940:	c7 44 24 08 61 be 05 	movl   $0x805be61,0x8(%esp)
 8058947:	08 
 8058948:	c7 44 24 04 01 00 00 	movl   $0x1,0x4(%esp)
 805894f:	00 
 8058950:	a1 80 28 06 08       	mov    0x8062880,%eax
 8058955:	89 04 24             	mov    %eax,(%esp)
 8058958:	e8 ab 09 ff ff       	call   8049308 <__fprintf_chk@plt>
 805895d:	c9                   	leave  
 805895e:	c3                   	ret    
 805895f:	90                   	nop
 8058960:	55                   	push   %ebp
 8058961:	89 e5                	mov    %esp,%ebp
 8058963:	83 ec 28             	sub    $0x28,%esp
 8058966:	a1 c8 24 06 08       	mov    0x80624c8,%eax
 805896b:	89 5d f4             	mov    %ebx,-0xc(%ebp)
 805896e:	8b 55 10             	mov    0x10(%ebp),%edx
 8058971:	8b 5d 0c             	mov    0xc(%ebp),%ebx
 8058974:	89 75 f8             	mov    %esi,-0x8(%ebp)
 8058977:	89 7d fc             	mov    %edi,-0x4(%ebp)
 805897a:	66 89 02             	mov    %ax,(%edx)
 805897d:	89 1c 24             	mov    %ebx,(%esp)
 8058980:	e8 c3 0b ff ff       	call   8049548 <strlen@plt>
 8058985:	83 f8 12             	cmp    $0x12,%eax
 8058988:	89 c6                	mov    %eax,%esi
 805898a:	0f 87 b8 00 00 00    	ja     8058a48 <geteuid@plt+0xf270>
 8058990:	c7 44 24 04 2f 00 00 	movl   $0x2f,0x4(%esp)
 8058997:	00 
 8058998:	89 1c 24             	mov    %ebx,(%esp)
 805899b:	e8 d8 09 ff ff       	call   8049378 <strchr@plt>
 80589a0:	85 c0                	test   %eax,%eax
 80589a2:	89 c7                	mov    %eax,%edi
 80589a4:	74 20                	je     80589c6 <geteuid@plt+0xf1ee>
 80589a6:	c6 00 00             	movb   $0x0,(%eax)
 80589a9:	8d 40 01             	lea    0x1(%eax),%eax
 80589ac:	c7 44 24 08 0a 00 00 	movl   $0xa,0x8(%esp)
 80589b3:	00 
 80589b4:	c7 44 24 04 00 00 00 	movl   $0x0,0x4(%esp)
 80589bb:	00 
 80589bc:	89 04 24             	mov    %eax,(%esp)
 80589bf:	e8 84 0a ff ff       	call   8049448 <strtol@plt>
 80589c4:	89 c6                	mov    %eax,%esi
 80589c6:	80 3b 00             	cmpb   $0x0,(%ebx)
 80589c9:	74 3d                	je     8058a08 <geteuid@plt+0xf230>
 80589cb:	89 1c 24             	mov    %ebx,(%esp)
 80589ce:	e8 75 0b ff ff       	call   8049548 <strlen@plt>
 80589d3:	83 f8 0f             	cmp    $0xf,%eax
 80589d6:	77 30                	ja     8058a08 <geteuid@plt+0xf230>
 80589d8:	39 c6                	cmp    %eax,%esi
 80589da:	77 2c                	ja     8058a08 <geteuid@plt+0xf230>
 80589dc:	8d 46 01             	lea    0x1(%esi),%eax
 80589df:	89 44 24 08          	mov    %eax,0x8(%esp)
 80589e3:	8b 45 10             	mov    0x10(%ebp),%eax
 80589e6:	89 5c 24 04          	mov    %ebx,0x4(%esp)
 80589ea:	83 c0 02             	add    $0x2,%eax
 80589ed:	89 04 24             	mov    %eax,(%esp)
 80589f0:	e8 a3 09 ff ff       	call   8049398 <strncpy@plt>
 80589f5:	89 f0                	mov    %esi,%eax
 80589f7:	8b 5d f4             	mov    -0xc(%ebp),%ebx
 80589fa:	8b 75 f8             	mov    -0x8(%ebp),%esi
 80589fd:	8b 7d fc             	mov    -0x4(%ebp),%edi
 8058a00:	89 ec                	mov    %ebp,%esp
 8058a02:	5d                   	pop    %ebp
 8058a03:	c3                   	ret    
 8058a04:	8d 74 26 00          	lea    0x0(%esi,%eiz,1),%esi
 8058a08:	c6 07 2f             	movb   $0x2f,(%edi)
 8058a0b:	c7 04 24 08 f9 05 08 	movl   $0x805f908,(%esp)
 8058a12:	e8 11 0a ff ff       	call   8049428 <gettext@plt>
 8058a17:	c7 44 24 08 80 00 00 	movl   $0x80,0x8(%esp)
 8058a1e:	00 
 8058a1f:	c7 04 24 80 34 06 08 	movl   $0x8063480,(%esp)
 8058a26:	89 44 24 04          	mov    %eax,0x4(%esp)
 8058a2a:	e8 b9 0b ff ff       	call   80495e8 <__strcpy_chk@plt>
 8058a2f:	e8 44 08 ff ff       	call   8049278 <__errno_location@plt>
 8058a34:	c7 00 16 00 00 00    	movl   $0x16,(%eax)
 8058a3a:	b8 ff ff ff ff       	mov    $0xffffffff,%eax
 8058a3f:	eb b6                	jmp    80589f7 <geteuid@plt+0xf21f>
 8058a41:	8d b4 26 00 00 00 00 	lea    0x0(%esi,%eiz,1),%esi
 8058a48:	c7 04 24 18 f9 05 08 	movl   $0x805f918,(%esp)
 8058a4f:	eb c1                	jmp    8058a12 <geteuid@plt+0xf23a>
 8058a51:	eb 0d                	jmp    8058a60 <geteuid@plt+0xf288>
 8058a53:	90                   	nop
 8058a54:	90                   	nop
 8058a55:	90                   	nop
 8058a56:	90                   	nop
 8058a57:	90                   	nop
 8058a58:	90                   	nop
 8058a59:	90                   	nop
 8058a5a:	90                   	nop
 8058a5b:	90                   	nop
 8058a5c:	90                   	nop
 8058a5d:	90                   	nop
 8058a5e:	90                   	nop
 8058a5f:	90                   	nop
 8058a60:	55                   	push   %ebp
 8058a61:	89 e5                	mov    %esp,%ebp
 8058a63:	53                   	push   %ebx
 8058a64:	83 ec 14             	sub    $0x14,%esp
 8058a67:	8b 5d 0c             	mov    0xc(%ebp),%ebx
 8058a6a:	8b 45 08             	mov    0x8(%ebp),%eax
 8058a6d:	c7 04 24 00 00 00 00 	movl   $0x0,(%esp)
 8058a74:	89 5c 24 08          	mov    %ebx,0x8(%esp)
 8058a78:	89 44 24 04          	mov    %eax,0x4(%esp)
 8058a7c:	e8 df fe ff ff       	call   8058960 <geteuid@plt+0xf188>
 8058a81:	89 c2                	mov    %eax,%edx
 8058a83:	b8 ff ff ff ff       	mov    $0xffffffff,%eax
 8058a88:	85 d2                	test   %edx,%edx
 8058a8a:	78 07                	js     8058a93 <geteuid@plt+0xf2bb>
 8058a8c:	66 c7 03 0f 01       	movw   $0x10f,(%ebx)
 8058a91:	31 c0                	xor    %eax,%eax
 8058a93:	83 c4 14             	add    $0x14,%esp
 8058a96:	5b                   	pop    %ebx
 8058a97:	5d                   	pop    %ebp
 8058a98:	c3                   	ret    
 8058a99:	8d b4 26 00 00 00 00 	lea    0x0(%esi,%eiz,1),%esi
 8058aa0:	55                   	push   %ebp
 8058aa1:	89 e5                	mov    %esp,%ebp
 8058aa3:	83 ec 18             	sub    $0x18,%esp
 8058aa6:	8b 45 08             	mov    0x8(%ebp),%eax
 8058aa9:	c7 44 24 08 10 00 00 	movl   $0x10,0x8(%esp)
 8058ab0:	00 
 8058ab1:	c7 04 24 60 34 06 08 	movl   $0x8063460,(%esp)
 8058ab8:	89 44 24 04          	mov    %eax,0x4(%esp)
 8058abc:	e8 d7 08 ff ff       	call   8049398 <strncpy@plt>
 8058ac1:	b8 60 34 06 08       	mov    $0x8063460,%eax
 8058ac6:	c6 05 70 34 06 08 00 	movb   $0x0,0x8063470
 8058acd:	c9                   	leave  
 8058ace:	c3                   	ret    
 8058acf:	90                   	nop
 8058ad0:	55                   	push   %ebp
 8058ad1:	89 e5                	mov    %esp,%ebp
 8058ad3:	83 ec 08             	sub    $0x8,%esp
 8058ad6:	8b 45 08             	mov    0x8(%ebp),%eax
 8058ad9:	0f b7 10             	movzwl (%eax),%edx
 8058adc:	83 ea 01             	sub    $0x1,%edx
 8058adf:	66 83 fa fd          	cmp    $0xfffd,%dx
 8058ae3:	77 0b                	ja     8058af0 <geteuid@plt+0xf318>
 8058ae5:	83 c0 02             	add    $0x2,%eax
 8058ae8:	89 45 08             	mov    %eax,0x8(%ebp)
 8058aeb:	c9                   	leave  
 8058aec:	eb b2                	jmp    8058aa0 <geteuid@plt+0xf2c8>
 8058aee:	66 90                	xchg   %ax,%ax
 8058af0:	c7 45 08 b2 e2 05 08 	movl   $0x805e2b2,0x8(%ebp)
 8058af7:	c9                   	leave  
 8058af8:	e9 2b 09 ff ff       	jmp    8049428 <gettext@plt>
 8058afd:	90                   	nop
 8058afe:	90                   	nop
 8058aff:	90                   	nop
 8058b00:	55                   	push   %ebp
 8058b01:	89 e5                	mov    %esp,%ebp
 8058b03:	57                   	push   %edi
 8058b04:	56                   	push   %esi
 8058b05:	53                   	push   %ebx
 8058b06:	81 ec 3c 01 00 00    	sub    $0x13c,%esp
 8058b0c:	c7 44 24 04 7a bf 05 	movl   $0x805bf7a,0x4(%esp)
 8058b13:	08 
 8058b14:	65 a1 14 00 00 00    	mov    %gs:0x14,%eax
 8058b1a:	89 45 e4             	mov    %eax,-0x1c(%ebp)
 8058b1d:	31 c0                	xor    %eax,%eax
 8058b1f:	c7 04 24 4c f9 05 08 	movl   $0x805f94c,(%esp)
 8058b26:	e8 2d 0a ff ff       	call   8049558 <fopen@plt>
 8058b2b:	85 c0                	test   %eax,%eax
 8058b2d:	89 c6                	mov    %eax,%esi
 8058b2f:	0f 84 5b 01 00 00    	je     8058c90 <geteuid@plt+0xf4b8>
 8058b35:	c7 04 24 61 f9 05 08 	movl   $0x805f961,(%esp)
 8058b3c:	8d 9d e4 fe ff ff    	lea    -0x11c(%ebp),%ebx
 8058b42:	e8 e1 08 ff ff       	call   8049428 <gettext@plt>
 8058b47:	8d bd fd fe ff ff    	lea    -0x103(%ebp),%edi
 8058b4d:	c7 04 24 01 00 00 00 	movl   $0x1,(%esp)
 8058b54:	89 44 24 04          	mov    %eax,0x4(%esp)
 8058b58:	e8 fb 07 ff ff       	call   8049358 <__printf_chk@plt>
 8058b5d:	c7 04 24 7c f9 05 08 	movl   $0x805f97c,(%esp)
 8058b64:	e8 bf 08 ff ff       	call   8049428 <gettext@plt>
 8058b69:	c7 04 24 01 00 00 00 	movl   $0x1,(%esp)
 8058b70:	89 44 24 04          	mov    %eax,0x4(%esp)
 8058b74:	e8 df 07 ff ff       	call   8049358 <__printf_chk@plt>
 8058b79:	89 74 24 08          	mov    %esi,0x8(%esp)
 8058b7d:	c7 44 24 04 00 01 00 	movl   $0x100,0x4(%esp)
 8058b84:	00 
 8058b85:	89 1c 24             	mov    %ebx,(%esp)
 8058b88:	e8 1b 08 ff ff       	call   80493a8 <fgets@plt>
 8058b8d:	8d 76 00             	lea    0x0(%esi),%esi
 8058b90:	89 74 24 08          	mov    %esi,0x8(%esp)
 8058b94:	c7 44 24 04 00 01 00 	movl   $0x100,0x4(%esp)
 8058b9b:	00 
 8058b9c:	89 1c 24             	mov    %ebx,(%esp)
 8058b9f:	e8 04 08 ff ff       	call   80493a8 <fgets@plt>
 8058ba4:	85 c0                	test   %eax,%eax
 8058ba6:	0f 84 bc 00 00 00    	je     8058c68 <geteuid@plt+0xf490>
 8058bac:	c7 44 24 04 0a 00 00 	movl   $0xa,0x4(%esp)
 8058bb3:	00 
 8058bb4:	89 1c 24             	mov    %ebx,(%esp)
 8058bb7:	e8 bc 07 ff ff       	call   8049378 <strchr@plt>
 8058bbc:	85 c0                	test   %eax,%eax
 8058bbe:	74 03                	je     8058bc3 <geteuid@plt+0xf3eb>
 8058bc0:	c6 00 00             	movb   $0x0,(%eax)
 8058bc3:	8d 95 f5 fe ff ff    	lea    -0x10b(%ebp),%edx
 8058bc9:	c6 85 fc fe ff ff 00 	movb   $0x0,-0x104(%ebp)
 8058bd0:	c6 85 07 ff ff ff 00 	movb   $0x0,-0xf9(%ebp)
 8058bd7:	c7 44 24 08 0a 00 00 	movl   $0xa,0x8(%esp)
 8058bde:	00 
 8058bdf:	c7 44 24 04 00 00 00 	movl   $0x0,0x4(%esp)
 8058be6:	00 
 8058be7:	89 14 24             	mov    %edx,(%esp)
 8058bea:	e8 59 08 ff ff       	call   8049448 <strtol@plt>
 8058bef:	83 f8 0f             	cmp    $0xf,%eax
 8058bf2:	77 34                	ja     8058c28 <geteuid@plt+0xf450>
 8058bf4:	85 c0                	test   %eax,%eax
 8058bf6:	c6 84 05 e4 fe ff ff 	movb   $0x0,-0x11c(%ebp,%eax,1)
 8058bfd:	00 
 8058bfe:	0f 85 b4 00 00 00    	jne    8058cb8 <geteuid@plt+0xf4e0>
 8058c04:	89 7c 24 08          	mov    %edi,0x8(%esp)
 8058c08:	c7 44 24 04 98 f9 05 	movl   $0x805f998,0x4(%esp)
 8058c0f:	08 
 8058c10:	c7 04 24 01 00 00 00 	movl   $0x1,(%esp)
 8058c17:	e8 3c 07 ff ff       	call   8049358 <__printf_chk@plt>
 8058c1c:	e9 6f ff ff ff       	jmp    8058b90 <geteuid@plt+0xf3b8>
 8058c21:	8d b4 26 00 00 00 00 	lea    0x0(%esi,%eiz,1),%esi
 8058c28:	c6 85 f3 fe ff ff 00 	movb   $0x0,-0x10d(%ebp)
 8058c2f:	ba fe ff ff ff       	mov    $0xfffffffe,%edx
 8058c34:	b8 0f 00 00 00       	mov    $0xf,%eax
 8058c39:	89 7c 24 14          	mov    %edi,0x14(%esp)
 8058c3d:	89 44 24 10          	mov    %eax,0x10(%esp)
 8058c41:	89 54 24 0c          	mov    %edx,0xc(%esp)
 8058c45:	89 5c 24 08          	mov    %ebx,0x8(%esp)
 8058c49:	c7 44 24 04 b3 f9 05 	movl   $0x805f9b3,0x4(%esp)
 8058c50:	08 
 8058c51:	c7 04 24 01 00 00 00 	movl   $0x1,(%esp)
 8058c58:	e8 fb 06 ff ff       	call   8049358 <__printf_chk@plt>
 8058c5d:	e9 2e ff ff ff       	jmp    8058b90 <geteuid@plt+0xf3b8>
 8058c62:	8d b6 00 00 00 00    	lea    0x0(%esi),%esi
 8058c68:	89 34 24             	mov    %esi,(%esp)
 8058c6b:	e8 98 08 ff ff       	call   8049508 <fclose@plt>
 8058c70:	31 c0                	xor    %eax,%eax
 8058c72:	8b 55 e4             	mov    -0x1c(%ebp),%edx
 8058c75:	65 33 15 14 00 00 00 	xor    %gs:0x14,%edx
 8058c7c:	75 35                	jne    8058cb3 <geteuid@plt+0xf4db>
 8058c7e:	81 c4 3c 01 00 00    	add    $0x13c,%esp
 8058c84:	5b                   	pop    %ebx
 8058c85:	5e                   	pop    %esi
 8058c86:	5f                   	pop    %edi
 8058c87:	5d                   	pop    %ebp
 8058c88:	c3                   	ret    
 8058c89:	8d b4 26 00 00 00 00 	lea    0x0(%esi,%eiz,1),%esi
 8058c90:	c7 04 24 c4 f9 05 08 	movl   $0x805f9c4,(%esp)
 8058c97:	e8 8c 07 ff ff       	call   8049428 <gettext@plt>
 8058c9c:	c7 04 24 01 00 00 00 	movl   $0x1,(%esp)
 8058ca3:	89 44 24 04          	mov    %eax,0x4(%esp)
 8058ca7:	e8 ac 06 ff ff       	call   8049358 <__printf_chk@plt>
 8058cac:	b8 01 00 00 00       	mov    $0x1,%eax
 8058cb1:	eb bf                	jmp    8058c72 <geteuid@plt+0xf49a>
 8058cb3:	e8 b0 09 ff ff       	call   8049668 <__stack_chk_fail@plt>
 8058cb8:	8d 50 ef             	lea    -0x11(%eax),%edx
 8058cbb:	e9 79 ff ff ff       	jmp    8058c39 <geteuid@plt+0xf461>
 8058cc0:	55                   	push   %ebp
 8058cc1:	89 e5                	mov    %esp,%ebp
 8058cc3:	83 ec 18             	sub    $0x18,%esp
 8058cc6:	a1 80 28 06 08       	mov    0x8062880,%eax
 8058ccb:	c7 44 24 08 ec f9 05 	movl   $0x805f9ec,0x8(%esp)
 8058cd2:	08 
 8058cd3:	c7 44 24 04 01 00 00 	movl   $0x1,0x4(%esp)
 8058cda:	00 
 8058cdb:	89 04 24             	mov    %eax,(%esp)
 8058cde:	e8 25 06 ff ff       	call   8049308 <__fprintf_chk@plt>
 8058ce3:	a1 80 28 06 08       	mov    0x8062880,%eax
 8058ce8:	c7 44 24 08 20 fa 05 	movl   $0x805fa20,0x8(%esp)
 8058cef:	08 
 8058cf0:	c7 44 24 04 01 00 00 	movl   $0x1,0x4(%esp)
 8058cf7:	00 
 8058cf8:	89 04 24             	mov    %eax,(%esp)
 8058cfb:	e8 08 06 ff ff       	call   8049308 <__fprintf_chk@plt>
 8058d00:	b8 04 00 00 00       	mov    $0x4,%eax
 8058d05:	c9                   	leave  
 8058d06:	c3                   	ret    
 8058d07:	89 f6                	mov    %esi,%esi
 8058d09:	8d bc 27 00 00 00 00 	lea    0x0(%edi,%eiz,1),%edi
 8058d10:	55                   	push   %ebp
 8058d11:	89 e5                	mov    %esp,%ebp
 8058d13:	57                   	push   %edi
 8058d14:	56                   	push   %esi
 8058d15:	89 ce                	mov    %ecx,%esi
 8058d17:	53                   	push   %ebx
 8058d18:	81 ec bc 01 00 00    	sub    $0x1bc,%esp
 8058d1e:	89 85 64 fe ff ff    	mov    %eax,-0x19c(%ebp)
 8058d24:	65 a1 14 00 00 00    	mov    %gs:0x14,%eax
 8058d2a:	89 45 e4             	mov    %eax,-0x1c(%ebp)
 8058d2d:	31 c0                	xor    %eax,%eax
 8058d2f:	8b 01                	mov    (%ecx),%eax
 8058d31:	85 c0                	test   %eax,%eax
 8058d33:	0f 84 17 01 00 00    	je     8058e50 <geteuid@plt+0xf678>
 8058d39:	8d 9d 52 ff ff ff    	lea    -0xae(%ebp),%ebx
 8058d3f:	c7 44 24 08 80 00 00 	movl   $0x80,0x8(%esp)
 8058d46:	00 
 8058d47:	89 44 24 04          	mov    %eax,0x4(%esp)
 8058d4b:	89 1c 24             	mov    %ebx,(%esp)
 8058d4e:	e8 95 08 ff ff       	call   80495e8 <__strcpy_chk@plt>
 8058d53:	8d 95 74 fe ff ff    	lea    -0x18c(%ebp),%edx
 8058d59:	31 c0                	xor    %eax,%eax
 8058d5b:	89 d7                	mov    %edx,%edi
 8058d5d:	b9 37 00 00 00       	mov    $0x37,%ecx
 8058d62:	f3 ab                	rep stos %eax,%es:(%edi)
 8058d64:	8d 45 d2             	lea    -0x2e(%ebp),%eax
 8058d67:	89 95 54 fe ff ff    	mov    %edx,-0x1ac(%ebp)
 8058d6d:	89 44 24 08          	mov    %eax,0x8(%esp)
 8058d71:	89 5c 24 04          	mov    %ebx,0x4(%esp)
 8058d75:	c7 04 24 00 00 00 00 	movl   $0x0,(%esp)
 8058d7c:	ff 15 d8 24 06 08    	call   *0x80624d8
 8058d82:	85 c0                	test   %eax,%eax
 8058d84:	0f 88 6e 01 00 00    	js     8058ef8 <geteuid@plt+0xf720>
 8058d8a:	89 85 84 fe ff ff    	mov    %eax,-0x17c(%ebp)
 8058d90:	8b 45 d4             	mov    -0x2c(%ebp),%eax
 8058d93:	8d 5e 04             	lea    0x4(%esi),%ebx
 8058d96:	89 85 74 fe ff ff    	mov    %eax,-0x18c(%ebp)
 8058d9c:	8b 45 d8             	mov    -0x28(%ebp),%eax
 8058d9f:	89 85 78 fe ff ff    	mov    %eax,-0x188(%ebp)
 8058da5:	8b 45 dc             	mov    -0x24(%ebp),%eax
 8058da8:	89 85 7c fe ff ff    	mov    %eax,-0x184(%ebp)
 8058dae:	8b 45 e0             	mov    -0x20(%ebp),%eax
 8058db1:	89 85 80 fe ff ff    	mov    %eax,-0x180(%ebp)
 8058db7:	8b 46 04             	mov    0x4(%esi),%eax
 8058dba:	85 c0                	test   %eax,%eax
 8058dbc:	75 69                	jne    8058e27 <geteuid@plt+0xf64f>
 8058dbe:	e9 b5 00 00 00       	jmp    8058e78 <geteuid@plt+0xf6a0>
 8058dc3:	90                   	nop
 8058dc4:	8d 74 26 00          	lea    0x0(%esi,%eiz,1),%esi
 8058dc8:	0f b6 50 01          	movzbl 0x1(%eax),%edx
 8058dcc:	3a 15 68 f0 05 08    	cmp    0x805f068,%dl
 8058dd2:	75 6e                	jne    8058e42 <geteuid@plt+0xf66a>
 8058dd4:	0f b6 50 02          	movzbl 0x2(%eax),%edx
 8058dd8:	3a 15 69 f0 05 08    	cmp    0x805f069,%dl
 8058dde:	75 62                	jne    8058e42 <geteuid@plt+0xf66a>
 8058de0:	0f b6 40 03          	movzbl 0x3(%eax),%eax
 8058de4:	3a 05 6a f0 05 08    	cmp    0x805f06a,%al
 8058dea:	75 56                	jne    8058e42 <geteuid@plt+0xf66a>
 8058dec:	8d 74 26 00          	lea    0x0(%esi,%eiz,1),%esi
 8058df0:	83 c3 04             	add    $0x4,%ebx
 8058df3:	8b 13                	mov    (%ebx),%edx
 8058df5:	85 d2                	test   %edx,%edx
 8058df7:	74 57                	je     8058e50 <geteuid@plt+0xf678>
 8058df9:	80 bd 88 fe ff ff 00 	cmpb   $0x0,-0x178(%ebp)
 8058e00:	75 4e                	jne    8058e50 <geteuid@plt+0xf678>
 8058e02:	c7 44 24 08 c8 00 00 	movl   $0xc8,0x8(%esp)
 8058e09:	00 
 8058e0a:	8b 03                	mov    (%ebx),%eax
 8058e0c:	83 c3 04             	add    $0x4,%ebx
 8058e0f:	89 44 24 04          	mov    %eax,0x4(%esp)
 8058e13:	8d 85 88 fe ff ff    	lea    -0x178(%ebp),%eax
 8058e19:	89 04 24             	mov    %eax,(%esp)
 8058e1c:	e8 c7 07 ff ff       	call   80495e8 <__strcpy_chk@plt>
 8058e21:	8b 03                	mov    (%ebx),%eax
 8058e23:	85 c0                	test   %eax,%eax
 8058e25:	74 51                	je     8058e78 <geteuid@plt+0xf6a0>
 8058e27:	89 c6                	mov    %eax,%esi
 8058e29:	bf f0 e7 05 08       	mov    $0x805e7f0,%edi
 8058e2e:	b9 07 00 00 00       	mov    $0x7,%ecx
 8058e33:	f3 a6                	repz cmpsb %es:(%edi),%ds:(%esi)
 8058e35:	74 b9                	je     8058df0 <geteuid@plt+0xf618>
 8058e37:	0f b6 10             	movzbl (%eax),%edx
 8058e3a:	3a 15 67 f0 05 08    	cmp    0x805f067,%dl
 8058e40:	74 86                	je     8058dc8 <geteuid@plt+0xf5f0>
 8058e42:	8b 43 04             	mov    0x4(%ebx),%eax
 8058e45:	85 c0                	test   %eax,%eax
 8058e47:	74 b0                	je     8058df9 <geteuid@plt+0xf621>
 8058e49:	8d b4 26 00 00 00 00 	lea    0x0(%esi,%eiz,1),%esi
 8058e50:	e8 6b fe ff ff       	call   8058cc0 <geteuid@plt+0xf4e8>
 8058e55:	8b 55 e4             	mov    -0x1c(%ebp),%edx
 8058e58:	65 33 15 14 00 00 00 	xor    %gs:0x14,%edx
 8058e5f:	90                   	nop
 8058e60:	0f 85 a3 01 00 00    	jne    8059009 <geteuid@plt+0xf831>
 8058e66:	81 c4 bc 01 00 00    	add    $0x1bc,%esp
 8058e6c:	5b                   	pop    %ebx
 8058e6d:	5e                   	pop    %esi
 8058e6e:	5f                   	pop    %edi
 8058e6f:	5d                   	pop    %ebp
 8058e70:	c3                   	ret    
 8058e71:	8d b4 26 00 00 00 00 	lea    0x0(%esi,%eiz,1),%esi
 8058e78:	80 bd 88 fe ff ff 00 	cmpb   $0x0,-0x178(%ebp)
 8058e7f:	74 cf                	je     8058e50 <geteuid@plt+0xf678>
 8058e81:	8b 9d 84 fe ff ff    	mov    -0x17c(%ebp),%ebx
 8058e87:	8d 95 74 fe ff ff    	lea    -0x18c(%ebp),%edx
 8058e8d:	83 fb 0f             	cmp    $0xf,%ebx
 8058e90:	77 79                	ja     8058f0b <geteuid@plt+0xf733>
 8058e92:	8b 0a                	mov    (%edx),%ecx
 8058e94:	83 c2 04             	add    $0x4,%edx
 8058e97:	8d 81 ff fe fe fe    	lea    -0x1010101(%ecx),%eax
 8058e9d:	f7 d1                	not    %ecx
 8058e9f:	21 c8                	and    %ecx,%eax
 8058ea1:	25 80 80 80 80       	and    $0x80808080,%eax
 8058ea6:	74 ea                	je     8058e92 <geteuid@plt+0xf6ba>
 8058ea8:	a9 80 80 00 00       	test   $0x8080,%eax
 8058ead:	0f 84 8b 00 00 00    	je     8058f3e <geteuid@plt+0xf766>
 8058eb3:	00 c0                	add    %al,%al
 8058eb5:	83 da 03             	sbb    $0x3,%edx
 8058eb8:	2b 95 54 fe ff ff    	sub    -0x1ac(%ebp),%edx
 8058ebe:	39 d3                	cmp    %edx,%ebx
 8058ec0:	0f 86 83 00 00 00    	jbe    8058f49 <geteuid@plt+0xf771>
 8058ec6:	c7 04 24 54 fa 05 08 	movl   $0x805fa54,(%esp)
 8058ecd:	e8 56 05 ff ff       	call   8049428 <gettext@plt>
 8058ed2:	c7 44 24 04 01 00 00 	movl   $0x1,0x4(%esp)
 8058ed9:	00 
 8058eda:	89 44 24 08          	mov    %eax,0x8(%esp)
 8058ede:	a1 80 28 06 08       	mov    0x8062880,%eax
 8058ee3:	89 04 24             	mov    %eax,(%esp)
 8058ee6:	e8 1d 04 ff ff       	call   8049308 <__fprintf_chk@plt>
 8058eeb:	b8 03 00 00 00       	mov    $0x3,%eax
 8058ef0:	e9 60 ff ff ff       	jmp    8058e55 <geteuid@plt+0xf67d>
 8058ef5:	8d 76 00             	lea    0x0(%esi),%esi
 8058ef8:	89 1c 24             	mov    %ebx,(%esp)
 8058efb:	ff 15 dc 24 06 08    	call   *0x80624dc
 8058f01:	b8 01 00 00 00       	mov    $0x1,%eax
 8058f06:	e9 4a ff ff ff       	jmp    8058e55 <geteuid@plt+0xf67d>
 8058f0b:	c7 04 24 d9 fa 05 08 	movl   $0x805fad9,(%esp)
 8058f12:	e8 11 05 ff ff       	call   8049428 <gettext@plt>
 8058f17:	89 5c 24 0c          	mov    %ebx,0xc(%esp)
 8058f1b:	c7 44 24 04 01 00 00 	movl   $0x1,0x4(%esp)
 8058f22:	00 
 8058f23:	89 44 24 08          	mov    %eax,0x8(%esp)
 8058f27:	a1 80 28 06 08       	mov    0x8062880,%eax
 8058f2c:	89 04 24             	mov    %eax,(%esp)
 8058f2f:	e8 d4 03 ff ff       	call   8049308 <__fprintf_chk@plt>
 8058f34:	b8 03 00 00 00       	mov    $0x3,%eax
 8058f39:	e9 17 ff ff ff       	jmp    8058e55 <geteuid@plt+0xf67d>
 8058f3e:	c1 e8 10             	shr    $0x10,%eax
 8058f41:	83 c2 02             	add    $0x2,%edx
 8058f44:	e9 6a ff ff ff       	jmp    8058eb3 <geteuid@plt+0xf6db>
 8058f49:	c7 44 24 08 00 00 00 	movl   $0x0,0x8(%esp)
 8058f50:	00 
 8058f51:	c7 44 24 04 05 00 00 	movl   $0x5,0x4(%esp)
 8058f58:	00 
 8058f59:	c7 04 24 09 00 00 00 	movl   $0x9,(%esp)
 8058f60:	e8 63 05 ff ff       	call   80494c8 <socket@plt>
 8058f65:	85 c0                	test   %eax,%eax
 8058f67:	a3 f4 24 06 08       	mov    %eax,0x80624f4
 8058f6c:	78 3b                	js     8058fa9 <geteuid@plt+0xf7d1>
 8058f6e:	83 bd 64 fe ff ff 02 	cmpl   $0x2,-0x19c(%ebp)
 8058f75:	74 48                	je     8058fbf <geteuid@plt+0xf7e7>
 8058f77:	8d 95 74 fe ff ff    	lea    -0x18c(%ebp),%edx
 8058f7d:	89 54 24 08          	mov    %edx,0x8(%esp)
 8058f81:	c7 44 24 04 0b 89 00 	movl   $0x890b,0x4(%esp)
 8058f88:	00 
 8058f89:	89 04 24             	mov    %eax,(%esp)
 8058f8c:	e8 27 05 ff ff       	call   80494b8 <ioctl@plt>
 8058f91:	85 c0                	test   %eax,%eax
 8058f93:	78 6b                	js     8059000 <geteuid@plt+0xf828>
 8058f95:	a1 f4 24 06 08       	mov    0x80624f4,%eax
 8058f9a:	89 04 24             	mov    %eax,(%esp)
 8058f9d:	e8 66 06 ff ff       	call   8049608 <close@plt>
 8058fa2:	31 c0                	xor    %eax,%eax
 8058fa4:	e9 ac fe ff ff       	jmp    8058e55 <geteuid@plt+0xf67d>
 8058fa9:	c7 04 24 93 bd 05 08 	movl   $0x805bd93,(%esp)
 8058fb0:	e8 53 04 ff ff       	call   8049408 <perror@plt>
 8058fb5:	b8 07 00 00 00       	mov    $0x7,%eax
 8058fba:	e9 96 fe ff ff       	jmp    8058e55 <geteuid@plt+0xf67d>
 8058fbf:	8d 95 74 fe ff ff    	lea    -0x18c(%ebp),%edx
 8058fc5:	89 54 24 08          	mov    %edx,0x8(%esp)
 8058fc9:	c7 44 24 04 0c 89 00 	movl   $0x890c,0x4(%esp)
 8058fd0:	00 
 8058fd1:	89 04 24             	mov    %eax,(%esp)
 8058fd4:	e8 df 04 ff ff       	call   80494b8 <ioctl@plt>
 8058fd9:	85 c0                	test   %eax,%eax
 8058fdb:	79 b8                	jns    8058f95 <geteuid@plt+0xf7bd>
 8058fdd:	c7 04 24 03 e8 05 08 	movl   $0x805e803,(%esp)
 8058fe4:	e8 1f 04 ff ff       	call   8049408 <perror@plt>
 8058fe9:	a1 f4 24 06 08       	mov    0x80624f4,%eax
 8058fee:	89 04 24             	mov    %eax,(%esp)
 8058ff1:	e8 12 06 ff ff       	call   8049608 <close@plt>
 8058ff6:	b8 07 00 00 00       	mov    $0x7,%eax
 8058ffb:	e9 55 fe ff ff       	jmp    8058e55 <geteuid@plt+0xf67d>
 8059000:	c7 04 24 0d e8 05 08 	movl   $0x805e80d,(%esp)
 8059007:	eb db                	jmp    8058fe4 <geteuid@plt+0xf80c>
 8059009:	e8 5a 06 ff ff       	call   8049668 <__stack_chk_fail@plt>
 805900e:	66 90                	xchg   %ax,%ax
 8059010:	55                   	push   %ebp
 8059011:	89 e5                	mov    %esp,%ebp
 8059013:	83 ec 18             	sub    $0x18,%esp
 8059016:	8b 45 08             	mov    0x8(%ebp),%eax
 8059019:	8b 55 0c             	mov    0xc(%ebp),%edx
 805901c:	8b 4d 10             	mov    0x10(%ebp),%ecx
 805901f:	83 f8 04             	cmp    $0x4,%eax
 8059022:	74 44                	je     8059068 <geteuid@plt+0xf890>
 8059024:	f6 c2 40             	test   $0x40,%dl
 8059027:	75 17                	jne    8059040 <geteuid@plt+0xf868>
 8059029:	83 39 00             	cmpl   $0x0,(%ecx)
 805902c:	74 2f                	je     805905d <geteuid@plt+0xf885>
 805902e:	83 f8 03             	cmp    $0x3,%eax
 8059031:	74 2a                	je     805905d <geteuid@plt+0xf885>
 8059033:	c9                   	leave  
 8059034:	e9 d7 fc ff ff       	jmp    8058d10 <geteuid@plt+0xf538>
 8059039:	8d b4 26 00 00 00 00 	lea    0x0(%esi,%eiz,1),%esi
 8059040:	c7 44 24 08 ac fa 05 	movl   $0x805faac,0x8(%esp)
 8059047:	08 
 8059048:	c7 44 24 04 01 00 00 	movl   $0x1,0x4(%esp)
 805904f:	00 
 8059050:	a1 80 28 06 08       	mov    0x8062880,%eax
 8059055:	89 04 24             	mov    %eax,(%esp)
 8059058:	e8 ab 02 ff ff       	call   8049308 <__fprintf_chk@plt>
 805905d:	c9                   	leave  
 805905e:	e9 5d fc ff ff       	jmp    8058cc0 <geteuid@plt+0xf4e8>
 8059063:	90                   	nop
 8059064:	8d 74 26 00          	lea    0x0(%esi,%eiz,1),%esi
 8059068:	c7 44 24 08 80 fa 05 	movl   $0x805fa80,0x8(%esp)
 805906f:	08 
 8059070:	eb d6                	jmp    8059048 <geteuid@plt+0xf870>
 8059072:	90                   	nop
 8059073:	90                   	nop
 8059074:	90                   	nop
 8059075:	90                   	nop
 8059076:	90                   	nop
 8059077:	90                   	nop
 8059078:	90                   	nop
 8059079:	90                   	nop
 805907a:	90                   	nop
 805907b:	90                   	nop
 805907c:	90                   	nop
 805907d:	90                   	nop
 805907e:	90                   	nop
 805907f:	90                   	nop
 8059080:	55                   	push   %ebp
 8059081:	89 e5                	mov    %esp,%ebp
 8059083:	57                   	push   %edi
 8059084:	56                   	push   %esi
 8059085:	53                   	push   %ebx
 8059086:	81 ec 3c 01 00 00    	sub    $0x13c,%esp
 805908c:	c7 44 24 04 7a bf 05 	movl   $0x805bf7a,0x4(%esp)
 8059093:	08 
 8059094:	65 a1 14 00 00 00    	mov    %gs:0x14,%eax
 805909a:	89 45 e4             	mov    %eax,-0x1c(%ebp)
 805909d:	31 c0                	xor    %eax,%eax
 805909f:	c7 04 24 f2 fa 05 08 	movl   $0x805faf2,(%esp)
 80590a6:	e8 ad 04 ff ff       	call   8049558 <fopen@plt>
 80590ab:	85 c0                	test   %eax,%eax
 80590ad:	89 c6                	mov    %eax,%esi
 80590af:	0f 84 e3 00 00 00    	je     8059198 <geteuid@plt+0xf9c0>
 80590b5:	c7 04 24 07 fb 05 08 	movl   $0x805fb07,(%esp)
 80590bc:	8d 9d e4 fe ff ff    	lea    -0x11c(%ebp),%ebx
 80590c2:	e8 61 03 ff ff       	call   8049428 <gettext@plt>
 80590c7:	8d bd ee fe ff ff    	lea    -0x112(%ebp),%edi
 80590cd:	c7 04 24 01 00 00 00 	movl   $0x1,(%esp)
 80590d4:	89 44 24 04          	mov    %eax,0x4(%esp)
 80590d8:	e8 7b 02 ff ff       	call   8049358 <__printf_chk@plt>
 80590dd:	c7 04 24 23 fb 05 08 	movl   $0x805fb23,(%esp)
 80590e4:	e8 3f 03 ff ff       	call   8049428 <gettext@plt>
 80590e9:	c7 04 24 01 00 00 00 	movl   $0x1,(%esp)
 80590f0:	89 44 24 04          	mov    %eax,0x4(%esp)
 80590f4:	e8 5f 02 ff ff       	call   8049358 <__printf_chk@plt>
 80590f9:	89 74 24 08          	mov    %esi,0x8(%esp)
 80590fd:	c7 44 24 04 00 01 00 	movl   $0x100,0x4(%esp)
 8059104:	00 
 8059105:	89 1c 24             	mov    %ebx,(%esp)
 8059108:	e8 9b 02 ff ff       	call   80493a8 <fgets@plt>
 805910d:	eb 4d                	jmp    805915c <geteuid@plt+0xf984>
 805910f:	90                   	nop
 8059110:	8d 95 f3 fe ff ff    	lea    -0x10d(%ebp),%edx
 8059116:	c6 85 ed fe ff ff 00 	movb   $0x0,-0x113(%ebp)
 805911d:	c6 85 f2 fe ff ff 00 	movb   $0x0,-0x10e(%ebp)
 8059124:	c7 44 24 08 0a 00 00 	movl   $0xa,0x8(%esp)
 805912b:	00 
 805912c:	c7 44 24 04 00 00 00 	movl   $0x0,0x4(%esp)
 8059133:	00 
 8059134:	89 14 24             	mov    %edx,(%esp)
 8059137:	e8 0c 03 ff ff       	call   8049448 <strtol@plt>
 805913c:	89 7c 24 0c          	mov    %edi,0xc(%esp)
 8059140:	89 5c 24 08          	mov    %ebx,0x8(%esp)
 8059144:	c7 44 24 04 3e fb 05 	movl   $0x805fb3e,0x4(%esp)
 805914b:	08 
 805914c:	c7 04 24 01 00 00 00 	movl   $0x1,(%esp)
 8059153:	89 44 24 10          	mov    %eax,0x10(%esp)
 8059157:	e8 fc 01 ff ff       	call   8049358 <__printf_chk@plt>
 805915c:	89 74 24 08          	mov    %esi,0x8(%esp)
 8059160:	c7 44 24 04 00 01 00 	movl   $0x100,0x4(%esp)
 8059167:	00 
 8059168:	89 1c 24             	mov    %ebx,(%esp)
 805916b:	e8 38 02 ff ff       	call   80493a8 <fgets@plt>
 8059170:	85 c0                	test   %eax,%eax
 8059172:	75 9c                	jne    8059110 <geteuid@plt+0xf938>
 8059174:	89 34 24             	mov    %esi,(%esp)
 8059177:	e8 8c 03 ff ff       	call   8049508 <fclose@plt>
 805917c:	31 c0                	xor    %eax,%eax
 805917e:	8b 55 e4             	mov    -0x1c(%ebp),%edx
 8059181:	65 33 15 14 00 00 00 	xor    %gs:0x14,%edx
 8059188:	75 3d                	jne    80591c7 <geteuid@plt+0xf9ef>
 805918a:	81 c4 3c 01 00 00    	add    $0x13c,%esp
 8059190:	5b                   	pop    %ebx
 8059191:	5e                   	pop    %esi
 8059192:	5f                   	pop    %edi
 8059193:	5d                   	pop    %ebp
 8059194:	c3                   	ret    
 8059195:	8d 76 00             	lea    0x0(%esi),%esi
 8059198:	c7 04 24 f2 fa 05 08 	movl   $0x805faf2,(%esp)
 805919f:	e8 64 02 ff ff       	call   8049408 <perror@plt>
 80591a4:	c7 04 24 54 fb 05 08 	movl   $0x805fb54,(%esp)
 80591ab:	e8 78 02 ff ff       	call   8049428 <gettext@plt>
 80591b0:	c7 04 24 01 00 00 00 	movl   $0x1,(%esp)
 80591b7:	89 44 24 04          	mov    %eax,0x4(%esp)
 80591bb:	e8 98 01 ff ff       	call   8049358 <__printf_chk@plt>
 80591c0:	b8 01 00 00 00       	mov    $0x1,%eax
 80591c5:	eb b7                	jmp    805917e <geteuid@plt+0xf9a6>
 80591c7:	e8 9c 04 ff ff       	call   8049668 <__stack_chk_fail@plt>
 80591cc:	90                   	nop
 80591cd:	90                   	nop
 80591ce:	90                   	nop
 80591cf:	90                   	nop
 80591d0:	55                   	push   %ebp
 80591d1:	89 e5                	mov    %esp,%ebp
 80591d3:	57                   	push   %edi
 80591d4:	56                   	push   %esi
 80591d5:	53                   	push   %ebx
 80591d6:	83 ec 6c             	sub    $0x6c,%esp
 80591d9:	c7 44 24 04 7a bf 05 	movl   $0x805bf7a,0x4(%esp)
 80591e0:	08 
 80591e1:	65 a1 14 00 00 00    	mov    %gs:0x14,%eax
 80591e7:	89 45 e4             	mov    %eax,-0x1c(%ebp)
 80591ea:	31 c0                	xor    %eax,%eax
 80591ec:	c7 04 24 7a fb 05 08 	movl   $0x805fb7a,(%esp)
 80591f3:	e8 60 03 ff ff       	call   8049558 <fopen@plt>
 80591f8:	85 c0                	test   %eax,%eax
 80591fa:	89 c7                	mov    %eax,%edi
 80591fc:	0f 84 e6 04 00 00    	je     80596e8 <geteuid@plt+0xff10>
 8059202:	8d 55 b8             	lea    -0x48(%ebp),%edx
 8059205:	8d 45 b4             	lea    -0x4c(%ebp),%eax
 8059208:	89 54 24 14          	mov    %edx,0x14(%esp)
 805920c:	8d 55 bc             	lea    -0x44(%ebp),%edx
 805920f:	89 44 24 10          	mov    %eax,0x10(%esp)
 8059213:	8d 45 c0             	lea    -0x40(%ebp),%eax
 8059216:	89 54 24 0c          	mov    %edx,0xc(%esp)
 805921a:	8d 75 c4             	lea    -0x3c(%ebp),%esi
 805921d:	89 44 24 08          	mov    %eax,0x8(%esp)
 8059221:	c7 44 24 04 90 fb 05 	movl   $0x805fb90,0x4(%esp)
 8059228:	08 
 8059229:	89 3c 24             	mov    %edi,(%esp)
 805922c:	e8 d7 04 ff ff       	call   8049708 <fscanf@plt>
 8059231:	8b 45 c0             	mov    -0x40(%ebp),%eax
 8059234:	89 04 24             	mov    %eax,(%esp)
 8059237:	e8 2c 02 ff ff       	call   8049468 <free@plt>
 805923c:	8b 45 bc             	mov    -0x44(%ebp),%eax
 805923f:	89 04 24             	mov    %eax,(%esp)
 8059242:	e8 21 02 ff ff       	call   8049468 <free@plt>
 8059247:	8b 45 b8             	mov    -0x48(%ebp),%eax
 805924a:	89 04 24             	mov    %eax,(%esp)
 805924d:	e8 16 02 ff ff       	call   8049468 <free@plt>
 8059252:	8b 45 b4             	mov    -0x4c(%ebp),%eax
 8059255:	89 04 24             	mov    %eax,(%esp)
 8059258:	e8 0b 02 ff ff       	call   8049468 <free@plt>
 805925d:	c7 44 24 08 0c fc 05 	movl   $0x805fc0c,0x8(%esp)
 8059264:	08 
 8059265:	c7 44 24 04 61 be 05 	movl   $0x805be61,0x4(%esp)
 805926c:	08 
 805926d:	c7 04 24 01 00 00 00 	movl   $0x1,(%esp)
 8059274:	e8 df 00 ff ff       	call   8049358 <__printf_chk@plt>
 8059279:	e9 41 01 00 00       	jmp    80593bf <geteuid@plt+0xfbe7>
 805927e:	66 90                	xchg   %ax,%ax
 8059280:	f6 c3 02             	test   $0x2,%bl
 8059283:	0f 85 b5 01 00 00    	jne    805943e <geteuid@plt+0xfc66>
 8059289:	f6 c7 02             	test   $0x2,%bh
 805928c:	8d 74 26 00          	lea    0x0(%esi,%eiz,1),%esi
 8059290:	0f 85 c9 01 00 00    	jne    805945f <geteuid@plt+0xfc87>
 8059296:	f6 c3 04             	test   $0x4,%bl
 8059299:	0f 85 e1 01 00 00    	jne    8059480 <geteuid@plt+0xfca8>
 805929f:	f6 c3 08             	test   $0x8,%bl
 80592a2:	0f 85 f9 01 00 00    	jne    80594a1 <geteuid@plt+0xfcc9>
 80592a8:	f6 c3 10             	test   $0x10,%bl
 80592ab:	90                   	nop
 80592ac:	8d 74 26 00          	lea    0x0(%esi,%eiz,1),%esi
 80592b0:	0f 85 0c 02 00 00    	jne    80594c2 <geteuid@plt+0xfcea>
 80592b6:	f6 c3 20             	test   $0x20,%bl
 80592b9:	0f 85 24 02 00 00    	jne    80594e3 <geteuid@plt+0xfd0b>
 80592bf:	f7 c3 00 00 01 00    	test   $0x10000,%ebx
 80592c5:	0f 85 3c 02 00 00    	jne    8059507 <geteuid@plt+0xfd2f>
 80592cb:	f7 c3 00 00 02 00    	test   $0x20000,%ebx
 80592d1:	0f 85 54 02 00 00    	jne    805952b <geteuid@plt+0xfd53>
 80592d7:	f7 c3 00 00 04 00    	test   $0x40000,%ebx
 80592dd:	8d 76 00             	lea    0x0(%esi),%esi
 80592e0:	0f 85 69 02 00 00    	jne    805954f <geteuid@plt+0xfd77>
 80592e6:	f7 c3 00 00 20 00    	test   $0x200000,%ebx
 80592ec:	8d 74 26 00          	lea    0x0(%esi,%eiz,1),%esi
 80592f0:	0f 85 7d 02 00 00    	jne    8059573 <geteuid@plt+0xfd9b>
 80592f6:	f7 c3 00 00 40 00    	test   $0x400000,%ebx
 80592fc:	8d 74 26 00          	lea    0x0(%esi,%eiz,1),%esi
 8059300:	0f 85 91 02 00 00    	jne    8059597 <geteuid@plt+0xfdbf>
 8059306:	f7 c3 00 00 00 01    	test   $0x1000000,%ebx
 805930c:	8d 74 26 00          	lea    0x0(%esi,%eiz,1),%esi
 8059310:	0f 85 a5 02 00 00    	jne    80595bb <geteuid@plt+0xfde3>
 8059316:	f7 c3 00 00 00 02    	test   $0x2000000,%ebx
 805931c:	8d 74 26 00          	lea    0x0(%esi,%eiz,1),%esi
 8059320:	0f 85 b9 02 00 00    	jne    80595df <geteuid@plt+0xfe07>
 8059326:	f7 c3 00 00 00 04    	test   $0x4000000,%ebx
 805932c:	8d 74 26 00          	lea    0x0(%esi,%eiz,1),%esi
 8059330:	0f 85 cd 02 00 00    	jne    8059603 <geteuid@plt+0xfe2b>
 8059336:	85 db                	test   %ebx,%ebx
 8059338:	0f 88 e5 02 00 00    	js     8059623 <geteuid@plt+0xfe4b>
 805933e:	f6 c3 40             	test   $0x40,%bl
 8059341:	0f 85 01 03 00 00    	jne    8059648 <geteuid@plt+0xfe70>
 8059347:	84 db                	test   %bl,%bl
 8059349:	0f 88 19 03 00 00    	js     8059668 <geteuid@plt+0xfe90>
 805934f:	f6 c7 01             	test   $0x1,%bh
 8059352:	0f 85 31 03 00 00    	jne    8059689 <geteuid@plt+0xfeb1>
 8059358:	80 e7 04             	and    $0x4,%bh
 805935b:	90                   	nop
 805935c:	8d 74 26 00          	lea    0x0(%esi,%eiz,1),%esi
 8059360:	0f 85 44 03 00 00    	jne    80596aa <geteuid@plt+0xfed2>
 8059366:	8b 45 b8             	mov    -0x48(%ebp),%eax
 8059369:	89 74 24 14          	mov    %esi,0x14(%esp)
 805936d:	c7 44 24 04 a1 fb 05 	movl   $0x805fba1,0x4(%esp)
 8059374:	08 
 8059375:	c7 04 24 01 00 00 00 	movl   $0x1,(%esp)
 805937c:	89 44 24 10          	mov    %eax,0x10(%esp)
 8059380:	8b 45 bc             	mov    -0x44(%ebp),%eax
 8059383:	89 44 24 0c          	mov    %eax,0xc(%esp)
 8059387:	8b 45 c0             	mov    -0x40(%ebp),%eax
 805938a:	89 44 24 08          	mov    %eax,0x8(%esp)
 805938e:	e8 c5 ff fe ff       	call   8049358 <__printf_chk@plt>
 8059393:	8b 45 c0             	mov    -0x40(%ebp),%eax
 8059396:	89 04 24             	mov    %eax,(%esp)
 8059399:	e8 ca 00 ff ff       	call   8049468 <free@plt>
 805939e:	8b 45 bc             	mov    -0x44(%ebp),%eax
 80593a1:	89 04 24             	mov    %eax,(%esp)
 80593a4:	e8 bf 00 ff ff       	call   8049468 <free@plt>
 80593a9:	8b 45 b8             	mov    -0x48(%ebp),%eax
 80593ac:	89 04 24             	mov    %eax,(%esp)
 80593af:	e8 b4 00 ff ff       	call   8049468 <free@plt>
 80593b4:	8b 45 b4             	mov    -0x4c(%ebp),%eax
 80593b7:	89 04 24             	mov    %eax,(%esp)
 80593ba:	e8 a9 00 ff ff       	call   8049468 <free@plt>
 80593bf:	8d 55 b8             	lea    -0x48(%ebp),%edx
 80593c2:	8d 45 b4             	lea    -0x4c(%ebp),%eax
 80593c5:	89 54 24 14          	mov    %edx,0x14(%esp)
 80593c9:	8d 55 bc             	lea    -0x44(%ebp),%edx
 80593cc:	89 44 24 10          	mov    %eax,0x10(%esp)
 80593d0:	8d 45 c0             	lea    -0x40(%ebp),%eax
 80593d3:	89 54 24 0c          	mov    %edx,0xc(%esp)
 80593d7:	89 44 24 08          	mov    %eax,0x8(%esp)
 80593db:	c7 44 24 04 90 fb 05 	movl   $0x805fb90,0x4(%esp)
 80593e2:	08 
 80593e3:	89 3c 24             	mov    %edi,(%esp)
 80593e6:	e8 1d 03 ff ff       	call   8049708 <fscanf@plt>
 80593eb:	83 f8 04             	cmp    $0x4,%eax
 80593ee:	0f 85 d4 02 00 00    	jne    80596c8 <geteuid@plt+0xfef0>
 80593f4:	8b 45 b4             	mov    -0x4c(%ebp),%eax
 80593f7:	c7 44 24 08 0a 00 00 	movl   $0xa,0x8(%esp)
 80593fe:	00 
 80593ff:	c7 44 24 04 00 00 00 	movl   $0x0,0x4(%esp)
 8059406:	00 
 8059407:	89 04 24             	mov    %eax,(%esp)
 805940a:	e8 39 00 ff ff       	call   8049448 <strtol@plt>
 805940f:	c6 45 c4 00          	movb   $0x0,-0x3c(%ebp)
 8059413:	a8 01                	test   $0x1,%al
 8059415:	89 c3                	mov    %eax,%ebx
 8059417:	0f 84 63 fe ff ff    	je     8059280 <geteuid@plt+0xfaa8>
 805941d:	c7 44 24 08 20 00 00 	movl   $0x20,0x8(%esp)
 8059424:	00 
 8059425:	c7 44 24 04 72 e8 05 	movl   $0x805e872,0x4(%esp)
 805942c:	08 
 805942d:	89 34 24             	mov    %esi,(%esp)
 8059430:	e8 e3 ff fe ff       	call   8049418 <__strcat_chk@plt>
 8059435:	f6 c3 02             	test   $0x2,%bl
 8059438:	0f 84 4b fe ff ff    	je     8059289 <geteuid@plt+0xfab1>
 805943e:	c7 44 24 08 20 00 00 	movl   $0x20,0x8(%esp)
 8059445:	00 
 8059446:	c7 44 24 04 31 bd 05 	movl   $0x805bd31,0x4(%esp)
 805944d:	08 
 805944e:	89 34 24             	mov    %esi,(%esp)
 8059451:	e8 c2 ff fe ff       	call   8049418 <__strcat_chk@plt>
 8059456:	f6 c7 02             	test   $0x2,%bh
 8059459:	0f 84 37 fe ff ff    	je     8059296 <geteuid@plt+0xfabe>
 805945f:	c7 44 24 08 20 00 00 	movl   $0x20,0x8(%esp)
 8059466:	00 
 8059467:	c7 44 24 04 3c e4 05 	movl   $0x805e43c,0x4(%esp)
 805946e:	08 
 805946f:	89 34 24             	mov    %esi,(%esp)
 8059472:	e8 a1 ff fe ff       	call   8049418 <__strcat_chk@plt>
 8059477:	f6 c3 04             	test   $0x4,%bl
 805947a:	0f 84 1f fe ff ff    	je     805929f <geteuid@plt+0xfac7>
 8059480:	c7 44 24 08 20 00 00 	movl   $0x20,0x8(%esp)
 8059487:	00 
 8059488:	c7 44 24 04 2f e8 05 	movl   $0x805e82f,0x4(%esp)
 805948f:	08 
 8059490:	89 34 24             	mov    %esi,(%esp)
 8059493:	e8 80 ff fe ff       	call   8049418 <__strcat_chk@plt>
 8059498:	f6 c3 08             	test   $0x8,%bl
 805949b:	0f 84 07 fe ff ff    	je     80592a8 <geteuid@plt+0xfad0>
 80594a1:	c7 44 24 08 20 00 00 	movl   $0x20,0x8(%esp)
 80594a8:	00 
 80594a9:	c7 44 24 04 6d e4 05 	movl   $0x805e46d,0x4(%esp)
 80594b0:	08 
 80594b1:	89 34 24             	mov    %esi,(%esp)
 80594b4:	e8 5f ff fe ff       	call   8049418 <__strcat_chk@plt>
 80594b9:	f6 c3 10             	test   $0x10,%bl
 80594bc:	0f 84 f4 fd ff ff    	je     80592b6 <geteuid@plt+0xfade>
 80594c2:	c7 44 24 08 20 00 00 	movl   $0x20,0x8(%esp)
 80594c9:	00 
 80594ca:	c7 44 24 04 26 bb 05 	movl   $0x805bb26,0x4(%esp)
 80594d1:	08 
 80594d2:	89 34 24             	mov    %esi,(%esp)
 80594d5:	e8 3e ff fe ff       	call   8049418 <__strcat_chk@plt>
 80594da:	f6 c3 20             	test   $0x20,%bl
 80594dd:	0f 84 dc fd ff ff    	je     80592bf <geteuid@plt+0xfae7>
 80594e3:	c7 44 24 08 20 00 00 	movl   $0x20,0x8(%esp)
 80594ea:	00 
 80594eb:	c7 44 24 04 0a bd 05 	movl   $0x805bd0a,0x4(%esp)
 80594f2:	08 
 80594f3:	89 34 24             	mov    %esi,(%esp)
 80594f6:	e8 1d ff fe ff       	call   8049418 <__strcat_chk@plt>
 80594fb:	f7 c3 00 00 01 00    	test   $0x10000,%ebx
 8059501:	0f 84 c4 fd ff ff    	je     80592cb <geteuid@plt+0xfaf3>
 8059507:	c7 44 24 08 20 00 00 	movl   $0x20,0x8(%esp)
 805950e:	00 
 805950f:	c7 44 24 04 d4 bb 05 	movl   $0x805bbd4,0x4(%esp)
 8059516:	08 
 8059517:	89 34 24             	mov    %esi,(%esp)
 805951a:	e8 f9 fe fe ff       	call   8049418 <__strcat_chk@plt>
 805951f:	f7 c3 00 00 02 00    	test   $0x20000,%ebx
 8059525:	0f 84 ac fd ff ff    	je     80592d7 <geteuid@plt+0xfaff>
 805952b:	c7 44 24 08 20 00 00 	movl   $0x20,0x8(%esp)
 8059532:	00 
 8059533:	c7 44 24 04 90 fd 05 	movl   $0x805fd90,0x4(%esp)
 805953a:	08 
 805953b:	89 34 24             	mov    %esi,(%esp)
 805953e:	e8 d5 fe fe ff       	call   8049418 <__strcat_chk@plt>
 8059543:	f7 c3 00 00 04 00    	test   $0x40000,%ebx
 8059549:	0f 84 97 fd ff ff    	je     80592e6 <geteuid@plt+0xfb0e>
 805954f:	c7 44 24 08 20 00 00 	movl   $0x20,0x8(%esp)
 8059556:	00 
 8059557:	c7 44 24 04 6c f5 05 	movl   $0x805f56c,0x4(%esp)
 805955e:	08 
 805955f:	89 34 24             	mov    %esi,(%esp)
 8059562:	e8 b1 fe fe ff       	call   8049418 <__strcat_chk@plt>
 8059567:	f7 c3 00 00 20 00    	test   $0x200000,%ebx
 805956d:	0f 84 83 fd ff ff    	je     80592f6 <geteuid@plt+0xfb1e>
 8059573:	c7 44 24 08 20 00 00 	movl   $0x20,0x8(%esp)
 805957a:	00 
 805957b:	c7 44 24 04 8a d5 05 	movl   $0x805d58a,0x4(%esp)
 8059582:	08 
 8059583:	89 34 24             	mov    %esi,(%esp)
 8059586:	e8 8d fe fe ff       	call   8049418 <__strcat_chk@plt>
 805958b:	f7 c3 00 00 40 00    	test   $0x400000,%ebx
 8059591:	0f 84 6f fd ff ff    	je     8059306 <geteuid@plt+0xfb2e>
 8059597:	c7 44 24 08 20 00 00 	movl   $0x20,0x8(%esp)
 805959e:	00 
 805959f:	c7 44 24 04 b6 e8 05 	movl   $0x805e8b6,0x4(%esp)
 80595a6:	08 
 80595a7:	89 34 24             	mov    %esi,(%esp)
 80595aa:	e8 69 fe fe ff       	call   8049418 <__strcat_chk@plt>
 80595af:	f7 c3 00 00 00 01    	test   $0x1000000,%ebx
 80595b5:	0f 84 5b fd ff ff    	je     8059316 <geteuid@plt+0xfb3e>
 80595bb:	c7 44 24 08 20 00 00 	movl   $0x20,0x8(%esp)
 80595c2:	00 
 80595c3:	c7 44 24 04 6c f5 05 	movl   $0x805f56c,0x4(%esp)
 80595ca:	08 
 80595cb:	89 34 24             	mov    %esi,(%esp)
 80595ce:	e8 45 fe fe ff       	call   8049418 <__strcat_chk@plt>
 80595d3:	f7 c3 00 00 00 02    	test   $0x2000000,%ebx
 80595d9:	0f 84 47 fd ff ff    	je     8059326 <geteuid@plt+0xfb4e>
 80595df:	c7 44 24 08 20 00 00 	movl   $0x20,0x8(%esp)
 80595e6:	00 
 80595e7:	c7 44 24 04 45 e8 05 	movl   $0x805e845,0x4(%esp)
 80595ee:	08 
 80595ef:	89 34 24             	mov    %esi,(%esp)
 80595f2:	e8 21 fe fe ff       	call   8049418 <__strcat_chk@plt>
 80595f7:	f7 c3 00 00 00 04    	test   $0x4000000,%ebx
 80595fd:	0f 84 33 fd ff ff    	je     8059336 <geteuid@plt+0xfb5e>
 8059603:	c7 44 24 08 20 00 00 	movl   $0x20,0x8(%esp)
 805960a:	00 
 805960b:	c7 44 24 04 a1 d5 05 	movl   $0x805d5a1,0x4(%esp)
 8059612:	08 
 8059613:	89 34 24             	mov    %esi,(%esp)
 8059616:	e8 fd fd fe ff       	call   8049418 <__strcat_chk@plt>
 805961b:	85 db                	test   %ebx,%ebx
 805961d:	0f 89 1b fd ff ff    	jns    805933e <geteuid@plt+0xfb66>
 8059623:	c7 44 24 08 20 00 00 	movl   $0x20,0x8(%esp)
 805962a:	00 
 805962b:	c7 44 24 04 4c ee 05 	movl   $0x805ee4c,0x4(%esp)
 8059632:	08 
 8059633:	89 34 24             	mov    %esi,(%esp)
 8059636:	e8 dd fd fe ff       	call   8049418 <__strcat_chk@plt>
 805963b:	f6 c3 40             	test   $0x40,%bl
 805963e:	0f 84 03 fd ff ff    	je     8059347 <geteuid@plt+0xfb6f>
 8059644:	8d 74 26 00          	lea    0x0(%esi,%eiz,1),%esi
 8059648:	c7 44 24 08 20 00 00 	movl   $0x20,0x8(%esp)
 805964f:	00 
 8059650:	c7 44 24 04 5e cd 05 	movl   $0x805cd5e,0x4(%esp)
 8059657:	08 
 8059658:	89 34 24             	mov    %esi,(%esp)
 805965b:	e8 b8 fd fe ff       	call   8049418 <__strcat_chk@plt>
 8059660:	84 db                	test   %bl,%bl
 8059662:	0f 89 e7 fc ff ff    	jns    805934f <geteuid@plt+0xfb77>
 8059668:	c7 44 24 08 20 00 00 	movl   $0x20,0x8(%esp)
 805966f:	00 
 8059670:	c7 44 24 04 99 bb 05 	movl   $0x805bb99,0x4(%esp)
 8059677:	08 
 8059678:	89 34 24             	mov    %esi,(%esp)
 805967b:	e8 98 fd fe ff       	call   8049418 <__strcat_chk@plt>
 8059680:	f6 c7 01             	test   $0x1,%bh
 8059683:	0f 84 cf fc ff ff    	je     8059358 <geteuid@plt+0xfb80>
 8059689:	c7 44 24 08 20 00 00 	movl   $0x20,0x8(%esp)
 8059690:	00 
 8059691:	c7 44 24 04 ce fe 05 	movl   $0x805fece,0x4(%esp)
 8059698:	08 
 8059699:	89 34 24             	mov    %esi,(%esp)
 805969c:	e8 77 fd fe ff       	call   8049418 <__strcat_chk@plt>
 80596a1:	80 e7 04             	and    $0x4,%bh
 80596a4:	0f 84 bc fc ff ff    	je     8059366 <geteuid@plt+0xfb8e>
 80596aa:	c7 44 24 08 20 00 00 	movl   $0x20,0x8(%esp)
 80596b1:	00 
 80596b2:	c7 44 24 04 f6 e2 05 	movl   $0x805e2f6,0x4(%esp)
 80596b9:	08 
 80596ba:	89 34 24             	mov    %esi,(%esp)
 80596bd:	e8 56 fd fe ff       	call   8049418 <__strcat_chk@plt>
 80596c2:	e9 9f fc ff ff       	jmp    8059366 <geteuid@plt+0xfb8e>
 80596c7:	90                   	nop
 80596c8:	89 3c 24             	mov    %edi,(%esp)
 80596cb:	e8 38 fe fe ff       	call   8049508 <fclose@plt>
 80596d0:	31 c0                	xor    %eax,%eax
 80596d2:	8b 55 e4             	mov    -0x1c(%ebp),%edx
 80596d5:	65 33 15 14 00 00 00 	xor    %gs:0x14,%edx
 80596dc:	75 3a                	jne    8059718 <geteuid@plt+0xff40>
 80596de:	83 c4 6c             	add    $0x6c,%esp
 80596e1:	5b                   	pop    %ebx
 80596e2:	5e                   	pop    %esi
 80596e3:	5f                   	pop    %edi
 80596e4:	5d                   	pop    %ebp
 80596e5:	c3                   	ret    
 80596e6:	66 90                	xchg   %ax,%ax
 80596e8:	c7 04 24 b8 fb 05 08 	movl   $0x805fbb8,(%esp)
 80596ef:	e8 14 fd fe ff       	call   8049408 <perror@plt>
 80596f4:	a1 80 28 06 08       	mov    0x8062880,%eax
 80596f9:	c7 44 24 08 dc fb 05 	movl   $0x805fbdc,0x8(%esp)
 8059700:	08 
 8059701:	c7 44 24 04 01 00 00 	movl   $0x1,0x4(%esp)
 8059708:	00 
 8059709:	89 04 24             	mov    %eax,(%esp)
 805970c:	e8 f7 fb fe ff       	call   8049308 <__fprintf_chk@plt>
 8059711:	b8 01 00 00 00       	mov    $0x1,%eax
 8059716:	eb ba                	jmp    80596d2 <geteuid@plt+0xfefa>
 8059718:	e8 4b ff fe ff       	call   8049668 <__stack_chk_fail@plt>
 805971d:	90                   	nop
 805971e:	90                   	nop
 805971f:	90                   	nop
 8059720:	55                   	push   %ebp
 8059721:	89 e5                	mov    %esp,%ebp
 8059723:	8b 45 08             	mov    0x8(%ebp),%eax
 8059726:	8b 4d 0c             	mov    0xc(%ebp),%ecx
 8059729:	8b 50 0c             	mov    0xc(%eax),%edx
 805972c:	85 d2                	test   %edx,%edx
 805972e:	74 22                	je     8059752 <geteuid@plt+0xff7a>
 8059730:	31 c0                	xor    %eax,%eax
 8059732:	80 39 00             	cmpb   $0x0,(%ecx)
 8059735:	74 0f                	je     8059746 <geteuid@plt+0xff6e>
 8059737:	eb 27                	jmp    8059760 <geteuid@plt+0xff88>
 8059739:	8d b4 26 00 00 00 00 	lea    0x0(%esi,%eiz,1),%esi
 8059740:	80 3c 01 00          	cmpb   $0x0,(%ecx,%eax,1)
 8059744:	75 1a                	jne    8059760 <geteuid@plt+0xff88>
 8059746:	83 c0 01             	add    $0x1,%eax
 8059749:	39 d0                	cmp    %edx,%eax
 805974b:	90                   	nop
 805974c:	8d 74 26 00          	lea    0x0(%esi,%eiz,1),%esi
 8059750:	72 ee                	jb     8059740 <geteuid@plt+0xff68>
 8059752:	b8 01 00 00 00       	mov    $0x1,%eax
 8059757:	5d                   	pop    %ebp
 8059758:	c3                   	ret    
 8059759:	8d b4 26 00 00 00 00 	lea    0x0(%esi,%eiz,1),%esi
 8059760:	31 c0                	xor    %eax,%eax
 8059762:	5d                   	pop    %ebp
 8059763:	c3                   	ret    
 8059764:	8d b6 00 00 00 00    	lea    0x0(%esi),%esi
 805976a:	8d bf 00 00 00 00    	lea    0x0(%edi),%edi
 8059770:	55                   	push   %ebp
 8059771:	89 e5                	mov    %esp,%ebp
 8059773:	83 ec 18             	sub    $0x18,%esp
 8059776:	c7 04 24 42 fc 05 08 	movl   $0x805fc42,(%esp)
 805977d:	e8 a6 fc fe ff       	call   8049428 <gettext@plt>
 8059782:	c7 04 24 94 e1 05 08 	movl   $0x805e194,(%esp)
 8059789:	a3 c4 25 06 08       	mov    %eax,0x80625c4
 805978e:	e8 95 fc fe ff       	call   8049428 <gettext@plt>
 8059793:	c7 04 24 54 fc 05 08 	movl   $0x805fc54,(%esp)
 805979a:	a3 a4 25 06 08       	mov    %eax,0x80625a4
 805979f:	e8 84 fc fe ff       	call   8049428 <gettext@plt>
 80597a4:	c7 04 24 51 fc 05 08 	movl   $0x805fc51,(%esp)
 80597ab:	a3 24 26 06 08       	mov    %eax,0x8062624
 80597b0:	e8 73 fc fe ff       	call   8049428 <gettext@plt>
 80597b5:	c7 04 24 66 fc 05 08 	movl   $0x805fc66,(%esp)
 80597bc:	a3 44 26 06 08       	mov    %eax,0x8062644
 80597c1:	e8 62 fc fe ff       	call   8049428 <gettext@plt>
 80597c6:	c7 04 24 63 fc 05 08 	movl   $0x805fc63,(%esp)
 80597cd:	a3 64 26 06 08       	mov    %eax,0x8062664
 80597d2:	e8 51 fc fe ff       	call   8049428 <gettext@plt>
 80597d7:	c7 04 24 7b fc 05 08 	movl   $0x805fc7b,(%esp)
 80597de:	a3 84 26 06 08       	mov    %eax,0x8062684
 80597e3:	e8 40 fc fe ff       	call   8049428 <gettext@plt>
 80597e8:	c7 04 24 93 fc 05 08 	movl   $0x805fc93,(%esp)
 80597ef:	a3 a4 26 06 08       	mov    %eax,0x80626a4
 80597f4:	e8 2f fc fe ff       	call   8049428 <gettext@plt>
 80597f9:	c7 04 24 08 e2 05 08 	movl   $0x805e208,(%esp)
 8059800:	a3 84 27 06 08       	mov    %eax,0x8062784
 8059805:	e8 1e fc fe ff       	call   8049428 <gettext@plt>
 805980a:	c7 04 24 6c fd 05 08 	movl   $0x805fd6c,(%esp)
 8059811:	a3 c4 20 06 08       	mov    %eax,0x80620c4
 8059816:	e8 0d fc fe ff       	call   8049428 <gettext@plt>
 805981b:	c7 04 24 9c fc 05 08 	movl   $0x805fc9c,(%esp)
 8059822:	a3 c4 27 06 08       	mov    %eax,0x80627c4
 8059827:	e8 fc fb fe ff       	call   8049428 <gettext@plt>
 805982c:	c7 04 24 bb e1 05 08 	movl   $0x805e1bb,(%esp)
 8059833:	a3 64 28 06 08       	mov    %eax,0x8062864
 8059838:	e8 eb fb fe ff       	call   8049428 <gettext@plt>
 805983d:	c7 04 24 fe e1 05 08 	movl   $0x805e1fe,(%esp)
 8059844:	a3 24 21 06 08       	mov    %eax,0x8062124
 8059849:	e8 da fb fe ff       	call   8049428 <gettext@plt>
 805984e:	c7 04 24 c6 e1 05 08 	movl   $0x805e1c6,(%esp)
 8059855:	a3 c4 23 06 08       	mov    %eax,0x80623c4
 805985a:	e8 c9 fb fe ff       	call   8049428 <gettext@plt>
 805985f:	c7 04 24 a2 fc 05 08 	movl   $0x805fca2,(%esp)
 8059866:	a3 64 23 06 08       	mov    %eax,0x8062364
 805986b:	e8 b8 fb fe ff       	call   8049428 <gettext@plt>
 8059870:	c7 04 24 af fc 05 08 	movl   $0x805fcaf,(%esp)
 8059877:	a3 a4 24 06 08       	mov    %eax,0x80624a4
 805987c:	e8 a7 fb fe ff       	call   8049428 <gettext@plt>
 8059881:	c7 04 24 bb fc 05 08 	movl   $0x805fcbb,(%esp)
 8059888:	a3 24 27 06 08       	mov    %eax,0x8062724
 805988d:	e8 96 fb fe ff       	call   8049428 <gettext@plt>
 8059892:	c7 04 24 d3 fc 05 08 	movl   $0x805fcd3,(%esp)
 8059899:	a3 e4 25 06 08       	mov    %eax,0x80625e4
 805989e:	e8 85 fb fe ff       	call   8049428 <gettext@plt>
 80598a3:	c7 04 24 e0 fc 05 08 	movl   $0x805fce0,(%esp)
 80598aa:	a3 24 28 06 08       	mov    %eax,0x8062824
 80598af:	e8 74 fb fe ff       	call   8049428 <gettext@plt>
 80598b4:	c7 04 24 e5 fc 05 08 	movl   $0x805fce5,(%esp)
 80598bb:	a3 44 28 06 08       	mov    %eax,0x8062844
 80598c0:	e8 63 fb fe ff       	call   8049428 <gettext@plt>
 80598c5:	c7 04 24 ec fc 05 08 	movl   $0x805fcec,(%esp)
 80598cc:	a3 44 27 06 08       	mov    %eax,0x8062744
 80598d1:	e8 52 fb fe ff       	call   8049428 <gettext@plt>
 80598d6:	c7 04 24 fd fc 05 08 	movl   $0x805fcfd,(%esp)
 80598dd:	a3 e4 27 06 08       	mov    %eax,0x80627e4
 80598e2:	e8 41 fb fe ff       	call   8049428 <gettext@plt>
 80598e7:	c7 04 24 17 fd 05 08 	movl   $0x805fd17,(%esp)
 80598ee:	a3 04 28 06 08       	mov    %eax,0x8062804
 80598f3:	e8 30 fb fe ff       	call   8049428 <gettext@plt>
 80598f8:	c7 04 24 24 fd 05 08 	movl   $0x805fd24,(%esp)
 80598ff:	a3 04 26 06 08       	mov    %eax,0x8062604
 8059904:	e8 1f fb fe ff       	call   8049428 <gettext@plt>
 8059909:	c7 04 24 2a fd 05 08 	movl   $0x805fd2a,(%esp)
 8059910:	a3 84 25 06 08       	mov    %eax,0x8062584
 8059915:	e8 0e fb fe ff       	call   8049428 <gettext@plt>
 805991a:	c7 04 24 3f fd 05 08 	movl   $0x805fd3f,(%esp)
 8059921:	a3 e4 26 06 08       	mov    %eax,0x80626e4
 8059926:	e8 fd fa fe ff       	call   8049428 <gettext@plt>
 805992b:	c7 04 24 ec e1 05 08 	movl   $0x805e1ec,(%esp)
 8059932:	a3 04 27 06 08       	mov    %eax,0x8062704
 8059937:	e8 ec fa fe ff       	call   8049428 <gettext@plt>
 805993c:	c7 04 24 5a fd 05 08 	movl   $0x805fd5a,(%esp)
 8059943:	a3 64 27 06 08       	mov    %eax,0x8062764
 8059948:	e8 db fa fe ff       	call   8049428 <gettext@plt>
 805994d:	66 c7 05 00 35 06 08 	movw   $0x1,0x8063500
 8059954:	01 00 
 8059956:	a3 a4 27 06 08       	mov    %eax,0x80627a4
 805995b:	c9                   	leave  
 805995c:	c3                   	ret    
 805995d:	8d 76 00             	lea    0x0(%esi),%esi
 8059960:	55                   	push   %ebp
 8059961:	89 e5                	mov    %esp,%ebp
 8059963:	57                   	push   %edi
 8059964:	56                   	push   %esi
 8059965:	53                   	push   %ebx
 8059966:	83 ec 2c             	sub    $0x2c,%esp
 8059969:	8b 7d 08             	mov    0x8(%ebp),%edi
 805996c:	66 83 3d 00 35 06 08 	cmpw   $0x0,0x8063500
 8059973:	00 
 8059974:	0f 84 d6 00 00 00    	je     8059a50 <geteuid@plt+0x10278>
 805997a:	bb 04 25 06 08       	mov    $0x8062504,%ebx
 805997f:	31 f6                	xor    %esi,%esi
 8059981:	eb 7e                	jmp    8059a01 <geteuid@plt+0x10229>
 8059983:	90                   	nop
 8059984:	8d 74 26 00          	lea    0x0(%esi,%eiz,1),%esi
 8059988:	83 79 08 ff          	cmpl   $0xffffffff,0x8(%ecx)
 805998c:	74 70                	je     80599fe <geteuid@plt+0x10226>
 805998e:	b8 56 55 55 55       	mov    $0x55555556,%eax
 8059993:	f7 ee                	imul   %esi
 8059995:	89 f0                	mov    %esi,%eax
 8059997:	c1 f8 1f             	sar    $0x1f,%eax
 805999a:	29 c2                	sub    %eax,%edx
 805999c:	8d 04 52             	lea    (%edx,%edx,2),%eax
 805999f:	39 c6                	cmp    %eax,%esi
 80599a1:	75 2a                	jne    80599cd <geteuid@plt+0x101f5>
 80599a3:	85 f6                	test   %esi,%esi
 80599a5:	b8 0d e2 05 08       	mov    $0x805e20d,%eax
 80599aa:	74 05                	je     80599b1 <geteuid@plt+0x101d9>
 80599ac:	b8 0c e2 05 08       	mov    $0x805e20c,%eax
 80599b1:	89 44 24 08          	mov    %eax,0x8(%esp)
 80599b5:	a1 80 28 06 08       	mov    0x8062880,%eax
 80599ba:	c7 44 24 04 01 00 00 	movl   $0x1,0x4(%esp)
 80599c1:	00 
 80599c2:	89 04 24             	mov    %eax,(%esp)
 80599c5:	e8 3e f9 fe ff       	call   8049308 <__fprintf_chk@plt>
 80599ca:	8b 4b fc             	mov    -0x4(%ebx),%ecx
 80599cd:	8b 01                	mov    (%ecx),%eax
 80599cf:	85 c0                	test   %eax,%eax
 80599d1:	74 75                	je     8059a48 <geteuid@plt+0x10270>
 80599d3:	8b 51 04             	mov    0x4(%ecx),%edx
 80599d6:	83 c6 01             	add    $0x1,%esi
 80599d9:	89 44 24 0c          	mov    %eax,0xc(%esp)
 80599dd:	a1 80 28 06 08       	mov    0x8062880,%eax
 80599e2:	c7 44 24 08 15 e2 05 	movl   $0x805e215,0x8(%esp)
 80599e9:	08 
 80599ea:	c7 44 24 04 01 00 00 	movl   $0x1,0x4(%esp)
 80599f1:	00 
 80599f2:	89 54 24 10          	mov    %edx,0x10(%esp)
 80599f6:	89 04 24             	mov    %eax,(%esp)
 80599f9:	e8 0a f9 fe ff       	call   8049308 <__fprintf_chk@plt>
 80599fe:	83 c3 04             	add    $0x4,%ebx
 8059a01:	8b 4b fc             	mov    -0x4(%ebx),%ecx
 8059a04:	85 c9                	test   %ecx,%ecx
 8059a06:	74 18                	je     8059a20 <geteuid@plt+0x10248>
 8059a08:	83 ff 01             	cmp    $0x1,%edi
 8059a0b:	0f 85 77 ff ff ff    	jne    8059988 <geteuid@plt+0x101b0>
 8059a11:	8b 41 0c             	mov    0xc(%ecx),%eax
 8059a14:	85 c0                	test   %eax,%eax
 8059a16:	74 e6                	je     80599fe <geteuid@plt+0x10226>
 8059a18:	e9 6b ff ff ff       	jmp    8059988 <geteuid@plt+0x101b0>
 8059a1d:	8d 76 00             	lea    0x0(%esi),%esi
 8059a20:	a1 80 28 06 08       	mov    0x8062880,%eax
 8059a25:	c7 44 24 08 2d f8 05 	movl   $0x805f82d,0x8(%esp)
 8059a2c:	08 
 8059a2d:	c7 44 24 04 01 00 00 	movl   $0x1,0x4(%esp)
 8059a34:	00 
 8059a35:	89 04 24             	mov    %eax,(%esp)
 8059a38:	e8 cb f8 fe ff       	call   8049308 <__fprintf_chk@plt>
 8059a3d:	83 c4 2c             	add    $0x2c,%esp
 8059a40:	5b                   	pop    %ebx
 8059a41:	5e                   	pop    %esi
 8059a42:	5f                   	pop    %edi
 8059a43:	5d                   	pop    %ebp
 8059a44:	c3                   	ret    
 8059a45:	8d 76 00             	lea    0x0(%esi),%esi
 8059a48:	b8 12 e2 05 08       	mov    $0x805e212,%eax
 8059a4d:	eb 84                	jmp    80599d3 <geteuid@plt+0x101fb>
 8059a4f:	90                   	nop
 8059a50:	e8 1b fd ff ff       	call   8059770 <geteuid@plt+0xff98>
 8059a55:	e9 20 ff ff ff       	jmp    805997a <geteuid@plt+0x101a2>
 8059a5a:	8d b6 00 00 00 00    	lea    0x0(%esi),%esi
 8059a60:	55                   	push   %ebp
 8059a61:	89 e5                	mov    %esp,%ebp
 8059a63:	53                   	push   %ebx
 8059a64:	83 ec 04             	sub    $0x4,%esp
 8059a67:	8b 5d 08             	mov    0x8(%ebp),%ebx
 8059a6a:	66 83 3d 00 35 06 08 	cmpw   $0x0,0x8063500
 8059a71:	00 
 8059a72:	74 34                	je     8059aa8 <geteuid@plt+0x102d0>
 8059a74:	a1 00 25 06 08       	mov    0x8062500,%eax
 8059a79:	85 c0                	test   %eax,%eax
 8059a7b:	74 21                	je     8059a9e <geteuid@plt+0x102c6>
 8059a7d:	39 58 08             	cmp    %ebx,0x8(%eax)
 8059a80:	ba 00 25 06 08       	mov    $0x8062500,%edx
 8059a85:	75 0e                	jne    8059a95 <geteuid@plt+0x102bd>
 8059a87:	eb 15                	jmp    8059a9e <geteuid@plt+0x102c6>
 8059a89:	8d b4 26 00 00 00 00 	lea    0x0(%esi,%eiz,1),%esi
 8059a90:	39 58 08             	cmp    %ebx,0x8(%eax)
 8059a93:	74 09                	je     8059a9e <geteuid@plt+0x102c6>
 8059a95:	83 c2 04             	add    $0x4,%edx
 8059a98:	8b 02                	mov    (%edx),%eax
 8059a9a:	85 c0                	test   %eax,%eax
 8059a9c:	75 f2                	jne    8059a90 <geteuid@plt+0x102b8>
 8059a9e:	83 c4 04             	add    $0x4,%esp
 8059aa1:	5b                   	pop    %ebx
 8059aa2:	5d                   	pop    %ebp
 8059aa3:	c3                   	ret    
 8059aa4:	8d 74 26 00          	lea    0x0(%esi,%eiz,1),%esi
 8059aa8:	e8 c3 fc ff ff       	call   8059770 <geteuid@plt+0xff98>
 8059aad:	8d 76 00             	lea    0x0(%esi),%esi
 8059ab0:	eb c2                	jmp    8059a74 <geteuid@plt+0x1029c>
 8059ab2:	8d b4 26 00 00 00 00 	lea    0x0(%esi,%eiz,1),%esi
 8059ab9:	8d bc 27 00 00 00 00 	lea    0x0(%edi,%eiz,1),%edi
 8059ac0:	55                   	push   %ebp
 8059ac1:	89 e5                	mov    %esp,%ebp
 8059ac3:	57                   	push   %edi
 8059ac4:	56                   	push   %esi
 8059ac5:	53                   	push   %ebx
 8059ac6:	83 ec 1c             	sub    $0x1c,%esp
 8059ac9:	8b 7d 08             	mov    0x8(%ebp),%edi
 8059acc:	66 83 3d 00 35 06 08 	cmpw   $0x0,0x8063500
 8059ad3:	00 
 8059ad4:	74 3a                	je     8059b10 <geteuid@plt+0x10338>
 8059ad6:	8b 1d 00 25 06 08    	mov    0x8062500,%ebx
 8059adc:	85 db                	test   %ebx,%ebx
 8059ade:	74 23                	je     8059b03 <geteuid@plt+0x1032b>
 8059ae0:	be 00 25 06 08       	mov    $0x8062500,%esi
 8059ae5:	eb 0a                	jmp    8059af1 <geteuid@plt+0x10319>
 8059ae7:	90                   	nop
 8059ae8:	83 c6 04             	add    $0x4,%esi
 8059aeb:	8b 1e                	mov    (%esi),%ebx
 8059aed:	85 db                	test   %ebx,%ebx
 8059aef:	74 12                	je     8059b03 <geteuid@plt+0x1032b>
 8059af1:	8b 03                	mov    (%ebx),%eax
 8059af3:	89 7c 24 04          	mov    %edi,0x4(%esp)
 8059af7:	89 04 24             	mov    %eax,(%esp)
 8059afa:	e8 99 fc fe ff       	call   8049798 <strcmp@plt>
 8059aff:	85 c0                	test   %eax,%eax
 8059b01:	75 e5                	jne    8059ae8 <geteuid@plt+0x10310>
 8059b03:	83 c4 1c             	add    $0x1c,%esp
 8059b06:	89 d8                	mov    %ebx,%eax
 8059b08:	5b                   	pop    %ebx
 8059b09:	5e                   	pop    %esi
 8059b0a:	5f                   	pop    %edi
 8059b0b:	5d                   	pop    %ebp
 8059b0c:	c3                   	ret    
 8059b0d:	8d 76 00             	lea    0x0(%esi),%esi
 8059b10:	e8 5b fc ff ff       	call   8059770 <geteuid@plt+0xff98>
 8059b15:	eb bf                	jmp    8059ad6 <geteuid@plt+0x102fe>
 8059b17:	90                   	nop
 8059b18:	90                   	nop
 8059b19:	90                   	nop
 8059b1a:	90                   	nop
 8059b1b:	90                   	nop
 8059b1c:	90                   	nop
 8059b1d:	90                   	nop
 8059b1e:	90                   	nop
 8059b1f:	90                   	nop
 8059b20:	55                   	push   %ebp
 8059b21:	89 e5                	mov    %esp,%ebp
 8059b23:	83 ec 38             	sub    $0x38,%esp
 8059b26:	8b 45 08             	mov    0x8(%ebp),%eax
 8059b29:	0f b6 10             	movzbl (%eax),%edx
 8059b2c:	89 54 24 20          	mov    %edx,0x20(%esp)
 8059b30:	0f b6 50 01          	movzbl 0x1(%eax),%edx
 8059b34:	89 54 24 1c          	mov    %edx,0x1c(%esp)
 8059b38:	0f b6 50 02          	movzbl 0x2(%eax),%edx
 8059b3c:	89 54 24 18          	mov    %edx,0x18(%esp)
 8059b40:	0f b6 40 03          	movzbl 0x3(%eax),%eax
 8059b44:	c7 44 24 10 62 fe 05 	movl   $0x805fe62,0x10(%esp)
 8059b4b:	08 
 8059b4c:	c7 44 24 0c 0c 00 00 	movl   $0xc,0xc(%esp)
 8059b53:	00 
 8059b54:	c7 44 24 08 01 00 00 	movl   $0x1,0x8(%esp)
 8059b5b:	00 
 8059b5c:	89 44 24 14          	mov    %eax,0x14(%esp)
 8059b60:	c7 44 24 04 0c 00 00 	movl   $0xc,0x4(%esp)
 8059b67:	00 
 8059b68:	c7 04 24 04 35 06 08 	movl   $0x8063504,(%esp)
 8059b6f:	e8 d4 fb fe ff       	call   8049748 <__snprintf_chk@plt>
 8059b74:	b8 04 35 06 08       	mov    $0x8063504,%eax
 8059b79:	c9                   	leave  
 8059b7a:	c3                   	ret    
 8059b7b:	90                   	nop
 8059b7c:	90                   	nop
 8059b7d:	90                   	nop
 8059b7e:	90                   	nop
 8059b7f:	90                   	nop
 8059b80:	55                   	push   %ebp
 8059b81:	89 e5                	mov    %esp,%ebp
 8059b83:	57                   	push   %edi
 8059b84:	56                   	push   %esi
 8059b85:	be 20 35 06 08       	mov    $0x8063520,%esi
 8059b8a:	53                   	push   %ebx
 8059b8b:	31 db                	xor    %ebx,%ebx
 8059b8d:	83 ec 2c             	sub    $0x2c,%esp
 8059b90:	8b 7d 08             	mov    0x8(%ebp),%edi
 8059b93:	90                   	nop
 8059b94:	8d 74 26 00          	lea    0x0(%esi,%eiz,1),%esi
 8059b98:	0f b6 04 1f          	movzbl (%edi,%ebx,1),%eax
 8059b9c:	83 c3 01             	add    $0x1,%ebx
 8059b9f:	89 34 24             	mov    %esi,(%esp)
 8059ba2:	c7 44 24 0c db f8 05 	movl   $0x805f8db,0xc(%esp)
 8059ba9:	08 
 8059baa:	c7 44 24 08 ff ff ff 	movl   $0xffffffff,0x8(%esp)
 8059bb1:	ff 
 8059bb2:	89 44 24 10          	mov    %eax,0x10(%esp)
 8059bb6:	c7 44 24 04 01 00 00 	movl   $0x1,0x4(%esp)
 8059bbd:	00 
 8059bbe:	e8 55 fb fe ff       	call   8049718 <__sprintf_chk@plt>
 8059bc3:	01 c6                	add    %eax,%esi
 8059bc5:	83 fb 10             	cmp    $0x10,%ebx
 8059bc8:	75 ce                	jne    8059b98 <geteuid@plt+0x103c0>
 8059bca:	ba 20 35 06 08       	mov    $0x8063520,%edx
 8059bcf:	8b 0a                	mov    (%edx),%ecx
 8059bd1:	83 c2 04             	add    $0x4,%edx
 8059bd4:	8d 81 ff fe fe fe    	lea    -0x1010101(%ecx),%eax
 8059bda:	f7 d1                	not    %ecx
 8059bdc:	21 c8                	and    %ecx,%eax
 8059bde:	25 80 80 80 80       	and    $0x80808080,%eax
 8059be3:	74 ea                	je     8059bcf <geteuid@plt+0x103f7>
 8059be5:	a9 80 80 00 00       	test   $0x8080,%eax
 8059bea:	74 24                	je     8059c10 <geteuid@plt+0x10438>
 8059bec:	00 c0                	add    %al,%al
 8059bee:	b8 20 35 06 08       	mov    $0x8063520,%eax
 8059bf3:	83 da 03             	sbb    $0x3,%edx
 8059bf6:	81 ea 20 35 06 08    	sub    $0x8063520,%edx
 8059bfc:	c6 82 1f 35 06 08 00 	movb   $0x0,0x806351f(%edx)
 8059c03:	83 c4 2c             	add    $0x2c,%esp
 8059c06:	5b                   	pop    %ebx
 8059c07:	5e                   	pop    %esi
 8059c08:	5f                   	pop    %edi
 8059c09:	5d                   	pop    %ebp
 8059c0a:	c3                   	ret    
 8059c0b:	90                   	nop
 8059c0c:	8d 74 26 00          	lea    0x0(%esi,%eiz,1),%esi
 8059c10:	c1 e8 10             	shr    $0x10,%eax
 8059c13:	83 c2 02             	add    $0x2,%edx
 8059c16:	eb d4                	jmp    8059bec <geteuid@plt+0x10414>
 8059c18:	90                   	nop
 8059c19:	90                   	nop
 8059c1a:	90                   	nop
 8059c1b:	90                   	nop
 8059c1c:	90                   	nop
 8059c1d:	90                   	nop
 8059c1e:	90                   	nop
 8059c1f:	90                   	nop
 8059c20:	55                   	push   %ebp
 8059c21:	89 e5                	mov    %esp,%ebp
 8059c23:	83 ec 18             	sub    $0x18,%esp
 8059c26:	c7 04 24 98 fd 05 08 	movl   $0x805fd98,(%esp)
 8059c2d:	e8 f6 f7 fe ff       	call   8049428 <gettext@plt>
 8059c32:	c7 44 24 04 01 00 00 	movl   $0x1,0x4(%esp)
 8059c39:	00 
 8059c3a:	89 44 24 08          	mov    %eax,0x8(%esp)
 8059c3e:	a1 80 28 06 08       	mov    0x8062880,%eax
 8059c43:	89 04 24             	mov    %eax,(%esp)
 8059c46:	e8 bd f6 fe ff       	call   8049308 <__fprintf_chk@plt>
 8059c4b:	b8 ff ff ff ff       	mov    $0xffffffff,%eax
 8059c50:	c9                   	leave  
 8059c51:	c3                   	ret    
 8059c52:	90                   	nop
 8059c53:	90                   	nop
 8059c54:	90                   	nop
 8059c55:	90                   	nop
 8059c56:	90                   	nop
 8059c57:	90                   	nop
 8059c58:	90                   	nop
 8059c59:	90                   	nop
 8059c5a:	90                   	nop
 8059c5b:	90                   	nop
 8059c5c:	90                   	nop
 8059c5d:	90                   	nop
 8059c5e:	90                   	nop
 8059c5f:	90                   	nop
 8059c60:	55                   	push   %ebp
 8059c61:	89 e5                	mov    %esp,%ebp
 8059c63:	53                   	push   %ebx
 8059c64:	83 ec 34             	sub    $0x34,%esp
 8059c67:	8d 45 f4             	lea    -0xc(%ebp),%eax
 8059c6a:	c7 45 f4 04 00 00 00 	movl   $0x4,-0xc(%ebp)
 8059c71:	89 44 24 08          	mov    %eax,0x8(%esp)
 8059c75:	c7 44 24 04 23 54 00 	movl   $0x5423,0x4(%esp)
 8059c7c:	00 
 8059c7d:	8b 45 08             	mov    0x8(%ebp),%eax
 8059c80:	89 04 24             	mov    %eax,(%esp)
 8059c83:	e8 30 f8 fe ff       	call   80494b8 <ioctl@plt>
 8059c88:	89 c2                	mov    %eax,%edx
 8059c8a:	31 c0                	xor    %eax,%eax
 8059c8c:	85 d2                	test   %edx,%edx
 8059c8e:	78 08                	js     8059c98 <geteuid@plt+0x104c0>
 8059c90:	83 c4 34             	add    $0x34,%esp
 8059c93:	5b                   	pop    %ebx
 8059c94:	5d                   	pop    %ebp
 8059c95:	c3                   	ret    
 8059c96:	66 90                	xchg   %ax,%ax
 8059c98:	e8 db f5 fe ff       	call   8049278 <__errno_location@plt>
 8059c9d:	89 c3                	mov    %eax,%ebx
 8059c9f:	8b 00                	mov    (%eax),%eax
 8059ca1:	89 04 24             	mov    %eax,(%esp)
 8059ca4:	e8 0f f6 fe ff       	call   80492b8 <strerror@plt>
 8059ca9:	89 44 24 10          	mov    %eax,0x10(%esp)
 8059cad:	8b 45 f4             	mov    -0xc(%ebp),%eax
 8059cb0:	c7 44 24 08 df fd 05 	movl   $0x805fddf,0x8(%esp)
 8059cb7:	08 
 8059cb8:	c7 44 24 04 01 00 00 	movl   $0x1,0x4(%esp)
 8059cbf:	00 
 8059cc0:	89 44 24 0c          	mov    %eax,0xc(%esp)
 8059cc4:	a1 80 28 06 08       	mov    0x8062880,%eax
 8059cc9:	89 04 24             	mov    %eax,(%esp)
 8059ccc:	e8 37 f6 fe ff       	call   8049308 <__fprintf_chk@plt>
 8059cd1:	8b 03                	mov    (%ebx),%eax
 8059cd3:	83 c4 34             	add    $0x34,%esp
 8059cd6:	5b                   	pop    %ebx
 8059cd7:	5d                   	pop    %ebp
 8059cd8:	f7 d8                	neg    %eax
 8059cda:	c3                   	ret    
 8059cdb:	90                   	nop
 8059cdc:	8d 74 26 00          	lea    0x0(%esi,%eiz,1),%esi
 8059ce0:	55                   	push   %ebp
 8059ce1:	89 e5                	mov    %esp,%ebp
 8059ce3:	57                   	push   %edi
 8059ce4:	56                   	push   %esi
 8059ce5:	53                   	push   %ebx
 8059ce6:	83 ec 2c             	sub    $0x2c,%esp
 8059ce9:	8b 55 08             	mov    0x8(%ebp),%edx
 8059cec:	a1 c8 26 06 08       	mov    0x80626c8,%eax
 8059cf1:	8b 4d 0c             	mov    0xc(%ebp),%ecx
 8059cf4:	66 89 01             	mov    %ax,(%ecx)
 8059cf7:	80 3a 2a             	cmpb   $0x2a,(%edx)
 8059cfa:	0f 94 c0             	sete   %al
 8059cfd:	0f b6 f0             	movzbl %al,%esi
 8059d00:	8d 3c 32             	lea    (%edx,%esi,1),%edi
 8059d03:	0f b6 0f             	movzbl (%edi),%ecx
 8059d06:	80 f9 2d             	cmp    $0x2d,%cl
 8059d09:	0f 84 21 01 00 00    	je     8059e30 <geteuid@plt+0x10658>
 8059d0f:	84 c9                	test   %cl,%cl
 8059d11:	89 f8                	mov    %edi,%eax
 8059d13:	89 f3                	mov    %esi,%ebx
 8059d15:	0f 84 15 01 00 00    	je     8059e30 <geteuid@plt+0x10658>
 8059d1b:	90                   	nop
 8059d1c:	8d 74 26 00          	lea    0x0(%esi,%eiz,1),%esi
 8059d20:	0f b6 48 01          	movzbl 0x1(%eax),%ecx
 8059d24:	83 c3 01             	add    $0x1,%ebx
 8059d27:	83 c0 01             	add    $0x1,%eax
 8059d2a:	80 f9 2d             	cmp    $0x2d,%cl
 8059d2d:	74 19                	je     8059d48 <geteuid@plt+0x10570>
 8059d2f:	84 c9                	test   %cl,%cl
 8059d31:	75 ed                	jne    8059d20 <geteuid@plt+0x10548>
 8059d33:	80 f9 2d             	cmp    $0x2d,%cl
 8059d36:	74 10                	je     8059d48 <geteuid@plt+0x10570>
 8059d38:	b8 ff ff ff ff       	mov    $0xffffffff,%eax
 8059d3d:	83 c4 2c             	add    $0x2c,%esp
 8059d40:	5b                   	pop    %ebx
 8059d41:	5e                   	pop    %esi
 8059d42:	5f                   	pop    %edi
 8059d43:	5d                   	pop    %ebp
 8059d44:	c3                   	ret    
 8059d45:	8d 76 00             	lea    0x0(%esi),%esi
 8059d48:	8b 45 0c             	mov    0xc(%ebp),%eax
 8059d4b:	83 c0 02             	add    $0x2,%eax
 8059d4e:	89 45 e4             	mov    %eax,-0x1c(%ebp)
 8059d51:	89 d8                	mov    %ebx,%eax
 8059d53:	29 f0                	sub    %esi,%eax
 8059d55:	83 f8 02             	cmp    $0x2,%eax
 8059d58:	0f 84 d9 00 00 00    	je     8059e37 <geteuid@plt+0x1065f>
 8059d5e:	8b 45 e4             	mov    -0x1c(%ebp),%eax
 8059d61:	c6 40 01 00          	movb   $0x0,0x1(%eax)
 8059d65:	89 55 e0             	mov    %edx,-0x20(%ebp)
 8059d68:	c7 44 24 08 10 00 00 	movl   $0x10,0x8(%esp)
 8059d6f:	00 
 8059d70:	c7 44 24 04 00 00 00 	movl   $0x0,0x4(%esp)
 8059d77:	00 
 8059d78:	89 3c 24             	mov    %edi,(%esp)
 8059d7b:	e8 c8 f6 fe ff       	call   8049448 <strtol@plt>
 8059d80:	8b 4d e4             	mov    -0x1c(%ebp),%ecx
 8059d83:	c1 f8 08             	sar    $0x8,%eax
 8059d86:	88 41 02             	mov    %al,0x2(%ecx)
 8059d89:	c7 44 24 08 10 00 00 	movl   $0x10,0x8(%esp)
 8059d90:	00 
 8059d91:	c7 44 24 04 00 00 00 	movl   $0x0,0x4(%esp)
 8059d98:	00 
 8059d99:	89 3c 24             	mov    %edi,(%esp)
 8059d9c:	e8 a7 f6 fe ff       	call   8049448 <strtol@plt>
 8059da1:	8b 4d e4             	mov    -0x1c(%ebp),%ecx
 8059da4:	88 41 03             	mov    %al,0x3(%ecx)
 8059da7:	0f b6 07             	movzbl (%edi),%eax
 8059daa:	8b 55 e0             	mov    -0x20(%ebp),%edx
 8059dad:	3c 2d                	cmp    $0x2d,%al
 8059daf:	74 2d                	je     8059dde <geteuid@plt+0x10606>
 8059db1:	8d b4 26 00 00 00 00 	lea    0x0(%esi,%eiz,1),%esi
 8059db8:	84 c0                	test   %al,%al
 8059dba:	75 14                	jne    8059dd0 <geteuid@plt+0x105f8>
 8059dbc:	3c 2d                	cmp    $0x2d,%al
 8059dbe:	0f 85 74 ff ff ff    	jne    8059d38 <geteuid@plt+0x10560>
 8059dc4:	8d 74 26 00          	lea    0x0(%esi,%eiz,1),%esi
 8059dc8:	eb 14                	jmp    8059dde <geteuid@plt+0x10606>
 8059dca:	8d b6 00 00 00 00    	lea    0x0(%esi),%esi
 8059dd0:	0f b6 47 01          	movzbl 0x1(%edi),%eax
 8059dd4:	83 c6 01             	add    $0x1,%esi
 8059dd7:	83 c7 01             	add    $0x1,%edi
 8059dda:	3c 2d                	cmp    $0x2d,%al
 8059ddc:	75 da                	jne    8059db8 <geteuid@plt+0x105e0>
 8059dde:	8d 5c 32 01          	lea    0x1(%edx,%esi,1),%ebx
 8059de2:	c7 44 24 08 10 00 00 	movl   $0x10,0x8(%esp)
 8059de9:	00 
 8059dea:	c7 44 24 04 00 00 00 	movl   $0x0,0x4(%esp)
 8059df1:	00 
 8059df2:	89 1c 24             	mov    %ebx,(%esp)
 8059df5:	e8 4e f6 fe ff       	call   8049448 <strtol@plt>
 8059dfa:	8b 55 e4             	mov    -0x1c(%ebp),%edx
 8059dfd:	c1 f8 08             	sar    $0x8,%eax
 8059e00:	88 42 04             	mov    %al,0x4(%edx)
 8059e03:	c7 44 24 08 10 00 00 	movl   $0x10,0x8(%esp)
 8059e0a:	00 
 8059e0b:	c7 44 24 04 00 00 00 	movl   $0x0,0x4(%esp)
 8059e12:	00 
 8059e13:	89 1c 24             	mov    %ebx,(%esp)
 8059e16:	e8 2d f6 fe ff       	call   8049448 <strtol@plt>
 8059e1b:	8b 4d e4             	mov    -0x1c(%ebp),%ecx
 8059e1e:	88 41 05             	mov    %al,0x5(%ecx)
 8059e21:	8b 45 0c             	mov    0xc(%ebp),%eax
 8059e24:	c6 40 02 00          	movb   $0x0,0x2(%eax)
 8059e28:	31 c0                	xor    %eax,%eax
 8059e2a:	e9 0e ff ff ff       	jmp    8059d3d <geteuid@plt+0x10565>
 8059e2f:	90                   	nop
 8059e30:	89 f3                	mov    %esi,%ebx
 8059e32:	e9 fc fe ff ff       	jmp    8059d33 <geteuid@plt+0x1055b>
 8059e37:	89 3c 24             	mov    %edi,(%esp)
 8059e3a:	8d 73 01             	lea    0x1(%ebx),%esi
 8059e3d:	89 55 e0             	mov    %edx,-0x20(%ebp)
 8059e40:	c7 44 24 08 10 00 00 	movl   $0x10,0x8(%esp)
 8059e47:	00 
 8059e48:	c7 44 24 04 00 00 00 	movl   $0x0,0x4(%esp)
 8059e4f:	00 
 8059e50:	e8 f3 f5 fe ff       	call   8049448 <strtol@plt>
 8059e55:	8b 4d e4             	mov    -0x1c(%ebp),%ecx
 8059e58:	88 41 01             	mov    %al,0x1(%ecx)
 8059e5b:	8b 55 e0             	mov    -0x20(%ebp),%edx
 8059e5e:	8d 3c 32             	lea    (%edx,%esi,1),%edi
 8059e61:	80 3f 00             	cmpb   $0x0,(%edi)
 8059e64:	0f 84 ce fe ff ff    	je     8059d38 <geteuid@plt+0x10560>
 8059e6a:	e9 f6 fe ff ff       	jmp    8059d65 <geteuid@plt+0x1058d>
 8059e6f:	90                   	nop
 8059e70:	55                   	push   %ebp
 8059e71:	89 e5                	mov    %esp,%ebp
 8059e73:	83 ec 38             	sub    $0x38,%esp
 8059e76:	8b 45 08             	mov    0x8(%ebp),%eax
 8059e79:	0f b6 50 01          	movzbl 0x1(%eax),%edx
 8059e7d:	84 d2                	test   %dl,%dl
 8059e7f:	75 4f                	jne    8059ed0 <geteuid@plt+0x106f8>
 8059e81:	0f b6 50 05          	movzbl 0x5(%eax),%edx
 8059e85:	89 54 24 1c          	mov    %edx,0x1c(%esp)
 8059e89:	0f b6 50 04          	movzbl 0x4(%eax),%edx
 8059e8d:	89 54 24 18          	mov    %edx,0x18(%esp)
 8059e91:	0f b6 50 03          	movzbl 0x3(%eax),%edx
 8059e95:	89 54 24 14          	mov    %edx,0x14(%esp)
 8059e99:	0f b6 40 02          	movzbl 0x2(%eax),%eax
 8059e9d:	c7 44 24 0c fc fd 05 	movl   $0x805fdfc,0xc(%esp)
 8059ea4:	08 
 8059ea5:	c7 44 24 08 40 00 00 	movl   $0x40,0x8(%esp)
 8059eac:	00 
 8059ead:	c7 44 24 04 01 00 00 	movl   $0x1,0x4(%esp)
 8059eb4:	00 
 8059eb5:	89 44 24 10          	mov    %eax,0x10(%esp)
 8059eb9:	c7 04 24 60 35 06 08 	movl   $0x8063560,(%esp)
 8059ec0:	e8 53 f8 fe ff       	call   8049718 <__sprintf_chk@plt>
 8059ec5:	b8 60 35 06 08       	mov    $0x8063560,%eax
 8059eca:	c9                   	leave  
 8059ecb:	c3                   	ret    
 8059ecc:	8d 74 26 00          	lea    0x0(%esi,%eiz,1),%esi
 8059ed0:	0f b6 48 05          	movzbl 0x5(%eax),%ecx
 8059ed4:	0f b6 d2             	movzbl %dl,%edx
 8059ed7:	89 4c 24 20          	mov    %ecx,0x20(%esp)
 8059edb:	0f b6 48 04          	movzbl 0x4(%eax),%ecx
 8059edf:	89 4c 24 1c          	mov    %ecx,0x1c(%esp)
 8059ee3:	0f b6 48 03          	movzbl 0x3(%eax),%ecx
 8059ee7:	89 4c 24 18          	mov    %ecx,0x18(%esp)
 8059eeb:	0f b6 40 02          	movzbl 0x2(%eax),%eax
 8059eef:	89 54 24 10          	mov    %edx,0x10(%esp)
 8059ef3:	c7 44 24 0c f7 fd 05 	movl   $0x805fdf7,0xc(%esp)
 8059efa:	08 
 8059efb:	c7 44 24 08 40 00 00 	movl   $0x40,0x8(%esp)
 8059f02:	00 
 8059f03:	89 44 24 14          	mov    %eax,0x14(%esp)
 8059f07:	c7 44 24 04 01 00 00 	movl   $0x1,0x4(%esp)
 8059f0e:	00 
 8059f0f:	c7 04 24 60 35 06 08 	movl   $0x8063560,(%esp)
 8059f16:	e8 fd f7 fe ff       	call   8049718 <__sprintf_chk@plt>
 8059f1b:	b8 60 35 06 08       	mov    $0x8063560,%eax
 8059f20:	c9                   	leave  
 8059f21:	c3                   	ret    
 8059f22:	90                   	nop
 8059f23:	90                   	nop
 8059f24:	90                   	nop
 8059f25:	90                   	nop
 8059f26:	90                   	nop
 8059f27:	90                   	nop
 8059f28:	90                   	nop
 8059f29:	90                   	nop
 8059f2a:	90                   	nop
 8059f2b:	90                   	nop
 8059f2c:	90                   	nop
 8059f2d:	90                   	nop
 8059f2e:	90                   	nop
 8059f2f:	90                   	nop
 8059f30:	55                   	push   %ebp
 8059f31:	89 e5                	mov    %esp,%ebp
 8059f33:	57                   	push   %edi
 8059f34:	56                   	push   %esi
 8059f35:	53                   	push   %ebx
 8059f36:	83 ec 2c             	sub    $0x2c,%esp
 8059f39:	8b 7d 08             	mov    0x8(%ebp),%edi
 8059f3c:	8b 5d 0c             	mov    0xc(%ebp),%ebx
 8059f3f:	e8 6c e8 ff ff       	call   80587b0 <geteuid@plt+0xefd8>
 8059f44:	3d f5 59 00 00       	cmp    $0x59f5,%eax
 8059f49:	0f 8f c9 00 00 00    	jg     805a018 <geteuid@plt+0x10840>
 8059f4f:	a1 e8 26 06 08       	mov    0x80626e8,%eax
 8059f54:	66 89 03             	mov    %ax,(%ebx)
 8059f57:	83 c3 02             	add    $0x2,%ebx
 8059f5a:	31 f6                	xor    %esi,%esi
 8059f5c:	89 5d e4             	mov    %ebx,-0x1c(%ebp)
 8059f5f:	0f b6 1f             	movzbl (%edi),%ebx
 8059f62:	8d b6 00 00 00 00    	lea    0x0(%esi),%esi
 8059f68:	83 fe 05             	cmp    $0x5,%esi
 8059f6b:	7e 0b                	jle    8059f78 <geteuid@plt+0x107a0>
 8059f6d:	83 c4 2c             	add    $0x2c,%esp
 8059f70:	31 c0                	xor    %eax,%eax
 8059f72:	5b                   	pop    %ebx
 8059f73:	5e                   	pop    %esi
 8059f74:	5f                   	pop    %edi
 8059f75:	5d                   	pop    %ebp
 8059f76:	c3                   	ret    
 8059f77:	90                   	nop
 8059f78:	84 db                	test   %bl,%bl
 8059f7a:	74 f1                	je     8059f6d <geteuid@plt+0x10795>
 8059f7c:	e8 57 f5 fe ff       	call   80494d8 <__ctype_b_loc@plt>
 8059f81:	8b 10                	mov    (%eax),%edx
 8059f83:	0f be c3             	movsbl %bl,%eax
 8059f86:	f6 44 42 01 08       	testb  $0x8,0x1(%edx,%eax,2)
 8059f8b:	74 3b                	je     8059fc8 <geteuid@plt+0x107f0>
 8059f8d:	8d 58 d0             	lea    -0x30(%eax),%ebx
 8059f90:	c1 e3 04             	shl    $0x4,%ebx
 8059f93:	89 5d d4             	mov    %ebx,-0x2c(%ebp)
 8059f96:	8d 47 01             	lea    0x1(%edi),%eax
 8059f99:	0f b6 7f 01          	movzbl 0x1(%edi),%edi
 8059f9d:	89 fb                	mov    %edi,%ebx
 8059f9f:	0f be cb             	movsbl %bl,%ecx
 8059fa2:	f6 44 4a 01 08       	testb  $0x8,0x1(%edx,%ecx,2)
 8059fa7:	74 2f                	je     8059fd8 <geteuid@plt+0x10800>
 8059fa9:	83 e9 30             	sub    $0x30,%ecx
 8059fac:	0b 4d d4             	or     -0x2c(%ebp),%ecx
 8059faf:	8b 55 e4             	mov    -0x1c(%ebp),%edx
 8059fb2:	8d 78 01             	lea    0x1(%eax),%edi
 8059fb5:	88 0c 32             	mov    %cl,(%edx,%esi,1)
 8059fb8:	0f b6 58 01          	movzbl 0x1(%eax),%ebx
 8059fbc:	80 fb 3a             	cmp    $0x3a,%bl
 8059fbf:	74 27                	je     8059fe8 <geteuid@plt+0x10810>
 8059fc1:	83 c6 01             	add    $0x1,%esi
 8059fc4:	eb a2                	jmp    8059f68 <geteuid@plt+0x10790>
 8059fc6:	66 90                	xchg   %ax,%ax
 8059fc8:	8d 4b 9f             	lea    -0x61(%ebx),%ecx
 8059fcb:	80 f9 05             	cmp    $0x5,%cl
 8059fce:	77 28                	ja     8059ff8 <geteuid@plt+0x10820>
 8059fd0:	8d 58 a9             	lea    -0x57(%eax),%ebx
 8059fd3:	eb bb                	jmp    8059f90 <geteuid@plt+0x107b8>
 8059fd5:	8d 76 00             	lea    0x0(%esi),%esi
 8059fd8:	8d 57 9f             	lea    -0x61(%edi),%edx
 8059fdb:	80 fa 05             	cmp    $0x5,%dl
 8059fde:	77 28                	ja     805a008 <geteuid@plt+0x10830>
 8059fe0:	83 e9 57             	sub    $0x57,%ecx
 8059fe3:	0b 4d d4             	or     -0x2c(%ebp),%ecx
 8059fe6:	eb c7                	jmp    8059faf <geteuid@plt+0x107d7>
 8059fe8:	8d 78 02             	lea    0x2(%eax),%edi
 8059feb:	0f b6 58 02          	movzbl 0x2(%eax),%ebx
 8059fef:	eb d0                	jmp    8059fc1 <geteuid@plt+0x107e9>
 8059ff1:	8d b4 26 00 00 00 00 	lea    0x0(%esi,%eiz,1),%esi
 8059ff8:	83 eb 41             	sub    $0x41,%ebx
 8059ffb:	80 fb 05             	cmp    $0x5,%bl
 8059ffe:	77 28                	ja     805a028 <geteuid@plt+0x10850>
 805a000:	8d 58 c9             	lea    -0x37(%eax),%ebx
 805a003:	eb 8b                	jmp    8059f90 <geteuid@plt+0x107b8>
 805a005:	8d 76 00             	lea    0x0(%esi),%esi
 805a008:	8d 57 bf             	lea    -0x41(%edi),%edx
 805a00b:	80 fa 05             	cmp    $0x5,%dl
 805a00e:	77 18                	ja     805a028 <geteuid@plt+0x10850>
 805a010:	83 e9 37             	sub    $0x37,%ecx
 805a013:	0b 4d d4             	or     -0x2c(%ebp),%ecx
 805a016:	eb 97                	jmp    8059faf <geteuid@plt+0x107d7>
 805a018:	a1 08 27 06 08       	mov    0x8062708,%eax
 805a01d:	66 89 03             	mov    %ax,(%ebx)
 805a020:	e9 32 ff ff ff       	jmp    8059f57 <geteuid@plt+0x1077f>
 805a025:	8d 76 00             	lea    0x0(%esi),%esi
 805a028:	e8 4b f2 fe ff       	call   8049278 <__errno_location@plt>
 805a02d:	c7 00 16 00 00 00    	movl   $0x16,(%eax)
 805a033:	83 c4 2c             	add    $0x2c,%esp
 805a036:	b8 ff ff ff ff       	mov    $0xffffffff,%eax
 805a03b:	5b                   	pop    %ebx
 805a03c:	5e                   	pop    %esi
 805a03d:	5f                   	pop    %edi
 805a03e:	5d                   	pop    %ebp
 805a03f:	c3                   	ret    
 805a040:	55                   	push   %ebp
 805a041:	89 e5                	mov    %esp,%ebp
 805a043:	83 ec 38             	sub    $0x38,%esp
 805a046:	8b 45 08             	mov    0x8(%ebp),%eax
 805a049:	0f b6 50 05          	movzbl 0x5(%eax),%edx
 805a04d:	89 54 24 28          	mov    %edx,0x28(%esp)
 805a051:	0f b6 50 04          	movzbl 0x4(%eax),%edx
 805a055:	89 54 24 24          	mov    %edx,0x24(%esp)
 805a059:	0f b6 50 03          	movzbl 0x3(%eax),%edx
 805a05d:	89 54 24 20          	mov    %edx,0x20(%esp)
 805a061:	0f b6 50 02          	movzbl 0x2(%eax),%edx
 805a065:	89 54 24 1c          	mov    %edx,0x1c(%esp)
 805a069:	0f b6 50 01          	movzbl 0x1(%eax),%edx
 805a06d:	89 54 24 18          	mov    %edx,0x18(%esp)
 805a071:	0f b6 00             	movzbl (%eax),%eax
 805a074:	c7 44 24 10 29 fe 05 	movl   $0x805fe29,0x10(%esp)
 805a07b:	08 
 805a07c:	c7 44 24 0c 40 00 00 	movl   $0x40,0xc(%esp)
 805a083:	00 
 805a084:	c7 44 24 08 01 00 00 	movl   $0x1,0x8(%esp)
 805a08b:	00 
 805a08c:	89 44 24 14          	mov    %eax,0x14(%esp)
 805a090:	c7 44 24 04 40 00 00 	movl   $0x40,0x4(%esp)
 805a097:	00 
 805a098:	c7 04 24 a0 35 06 08 	movl   $0x80635a0,(%esp)
 805a09f:	e8 a4 f6 fe ff       	call   8049748 <__snprintf_chk@plt>
 805a0a4:	b8 a0 35 06 08       	mov    $0x80635a0,%eax
 805a0a9:	c9                   	leave  
 805a0aa:	c3                   	ret    
 805a0ab:	90                   	nop
 805a0ac:	90                   	nop
 805a0ad:	90                   	nop
 805a0ae:	90                   	nop
 805a0af:	90                   	nop
 805a0b0:	55                   	push   %ebp
 805a0b1:	b8 2e f8 05 08       	mov    $0x805f82e,%eax
 805a0b6:	89 e5                	mov    %esp,%ebp
 805a0b8:	5d                   	pop    %ebp
 805a0b9:	c3                   	ret    
 805a0ba:	8d b6 00 00 00 00    	lea    0x0(%esi),%esi
 805a0c0:	55                   	push   %ebp
 805a0c1:	b8 ff ff ff ff       	mov    $0xffffffff,%eax
 805a0c6:	89 e5                	mov    %esp,%ebp
 805a0c8:	5d                   	pop    %ebp
 805a0c9:	c3                   	ret    
 805a0ca:	90                   	nop
 805a0cb:	90                   	nop
 805a0cc:	90                   	nop
 805a0cd:	90                   	nop
 805a0ce:	90                   	nop
 805a0cf:	90                   	nop
 805a0d0:	55                   	push   %ebp
 805a0d1:	89 e5                	mov    %esp,%ebp
 805a0d3:	57                   	push   %edi
 805a0d4:	56                   	push   %esi
 805a0d5:	53                   	push   %ebx
 805a0d6:	83 ec 0c             	sub    $0xc,%esp
 805a0d9:	8b 7d 0c             	mov    0xc(%ebp),%edi
 805a0dc:	8b 75 08             	mov    0x8(%ebp),%esi
 805a0df:	a1 48 27 06 08       	mov    0x8062748,%eax
 805a0e4:	66 89 07             	mov    %ax,(%edi)
 805a0e7:	0f b6 1e             	movzbl (%esi),%ebx
 805a0ea:	83 c7 02             	add    $0x2,%edi
 805a0ed:	84 db                	test   %bl,%bl
 805a0ef:	74 2e                	je     805a11f <geteuid@plt+0x10947>
 805a0f1:	e8 e2 f3 fe ff       	call   80494d8 <__ctype_b_loc@plt>
 805a0f6:	8b 10                	mov    (%eax),%edx
 805a0f8:	0f be c3             	movsbl %bl,%eax
 805a0fb:	f6 44 42 01 08       	testb  $0x8,0x1(%edx,%eax,2)
 805a100:	74 2e                	je     805a130 <geteuid@plt+0x10958>
 805a102:	83 e8 30             	sub    $0x30,%eax
 805a105:	0f b6 5e 01          	movzbl 0x1(%esi),%ebx
 805a109:	89 c1                	mov    %eax,%ecx
 805a10b:	c1 e1 04             	shl    $0x4,%ecx
 805a10e:	0f be c3             	movsbl %bl,%eax
 805a111:	f6 44 42 01 08       	testb  $0x8,0x1(%edx,%eax,2)
 805a116:	74 28                	je     805a140 <geteuid@plt+0x10968>
 805a118:	83 e8 30             	sub    $0x30,%eax
 805a11b:	09 c8                	or     %ecx,%eax
 805a11d:	88 07                	mov    %al,(%edi)
 805a11f:	83 c4 0c             	add    $0xc,%esp
 805a122:	31 c0                	xor    %eax,%eax
 805a124:	5b                   	pop    %ebx
 805a125:	5e                   	pop    %esi
 805a126:	5f                   	pop    %edi
 805a127:	5d                   	pop    %ebp
 805a128:	c3                   	ret    
 805a129:	8d b4 26 00 00 00 00 	lea    0x0(%esi,%eiz,1),%esi
 805a130:	8d 4b 9f             	lea    -0x61(%ebx),%ecx
 805a133:	80 f9 05             	cmp    $0x5,%cl
 805a136:	77 20                	ja     805a158 <geteuid@plt+0x10980>
 805a138:	83 e8 57             	sub    $0x57,%eax
 805a13b:	eb c8                	jmp    805a105 <geteuid@plt+0x1092d>
 805a13d:	8d 76 00             	lea    0x0(%esi),%esi
 805a140:	8d 53 9f             	lea    -0x61(%ebx),%edx
 805a143:	80 fa 05             	cmp    $0x5,%dl
 805a146:	77 20                	ja     805a168 <geteuid@plt+0x10990>
 805a148:	83 e8 57             	sub    $0x57,%eax
 805a14b:	09 c8                	or     %ecx,%eax
 805a14d:	88 07                	mov    %al,(%edi)
 805a14f:	eb ce                	jmp    805a11f <geteuid@plt+0x10947>
 805a151:	8d b4 26 00 00 00 00 	lea    0x0(%esi,%eiz,1),%esi
 805a158:	83 eb 41             	sub    $0x41,%ebx
 805a15b:	80 fb 05             	cmp    $0x5,%bl
 805a15e:	77 20                	ja     805a180 <geteuid@plt+0x109a8>
 805a160:	83 e8 37             	sub    $0x37,%eax
 805a163:	eb a0                	jmp    805a105 <geteuid@plt+0x1092d>
 805a165:	8d 76 00             	lea    0x0(%esi),%esi
 805a168:	83 eb 41             	sub    $0x41,%ebx
 805a16b:	80 fb 05             	cmp    $0x5,%bl
 805a16e:	77 10                	ja     805a180 <geteuid@plt+0x109a8>
 805a170:	83 e8 37             	sub    $0x37,%eax
 805a173:	09 c8                	or     %ecx,%eax
 805a175:	88 07                	mov    %al,(%edi)
 805a177:	eb a6                	jmp    805a11f <geteuid@plt+0x10947>
 805a179:	8d b4 26 00 00 00 00 	lea    0x0(%esi,%eiz,1),%esi
 805a180:	e8 f3 f0 fe ff       	call   8049278 <__errno_location@plt>
 805a185:	c7 00 16 00 00 00    	movl   $0x16,(%eax)
 805a18b:	83 c4 0c             	add    $0xc,%esp
 805a18e:	b8 ff ff ff ff       	mov    $0xffffffff,%eax
 805a193:	5b                   	pop    %ebx
 805a194:	5e                   	pop    %esi
 805a195:	5f                   	pop    %edi
 805a196:	5d                   	pop    %ebp
 805a197:	c3                   	ret    
 805a198:	90                   	nop
 805a199:	8d b4 26 00 00 00 00 	lea    0x0(%esi,%eiz,1),%esi
 805a1a0:	55                   	push   %ebp
 805a1a1:	89 e5                	mov    %esp,%ebp
 805a1a3:	83 ec 28             	sub    $0x28,%esp
 805a1a6:	8b 45 08             	mov    0x8(%ebp),%eax
 805a1a9:	0f b6 00             	movzbl (%eax),%eax
 805a1ac:	c7 44 24 10 c3 fe 05 	movl   $0x805fec3,0x10(%esp)
 805a1b3:	08 
 805a1b4:	c7 44 24 0c 40 00 00 	movl   $0x40,0xc(%esp)
 805a1bb:	00 
 805a1bc:	c7 44 24 08 01 00 00 	movl   $0x1,0x8(%esp)
 805a1c3:	00 
 805a1c4:	89 44 24 14          	mov    %eax,0x14(%esp)
 805a1c8:	c7 44 24 04 40 00 00 	movl   $0x40,0x4(%esp)
 805a1cf:	00 
 805a1d0:	c7 04 24 e0 35 06 08 	movl   $0x80635e0,(%esp)
 805a1d7:	e8 6c f5 fe ff       	call   8049748 <__snprintf_chk@plt>
 805a1dc:	b8 e0 35 06 08       	mov    $0x80635e0,%eax
 805a1e1:	c9                   	leave  
 805a1e2:	c3                   	ret    
 805a1e3:	90                   	nop
 805a1e4:	90                   	nop
 805a1e5:	90                   	nop
 805a1e6:	90                   	nop
 805a1e7:	90                   	nop
 805a1e8:	90                   	nop
 805a1e9:	90                   	nop
 805a1ea:	90                   	nop
 805a1eb:	90                   	nop
 805a1ec:	90                   	nop
 805a1ed:	90                   	nop
 805a1ee:	90                   	nop
 805a1ef:	90                   	nop
 805a1f0:	55                   	push   %ebp
 805a1f1:	89 e5                	mov    %esp,%ebp
 805a1f3:	57                   	push   %edi
 805a1f4:	31 ff                	xor    %edi,%edi
 805a1f6:	56                   	push   %esi
 805a1f7:	53                   	push   %ebx
 805a1f8:	83 ec 1c             	sub    $0x1c,%esp
 805a1fb:	8b 45 0c             	mov    0xc(%ebp),%eax
 805a1fe:	8b 15 88 27 06 08    	mov    0x8062788,%edx
 805a204:	8b 5d 08             	mov    0x8(%ebp),%ebx
 805a207:	66 89 10             	mov    %dx,(%eax)
 805a20a:	83 c0 02             	add    $0x2,%eax
 805a20d:	89 45 e4             	mov    %eax,-0x1c(%ebp)
 805a210:	0f b6 33             	movzbl (%ebx),%esi
 805a213:	90                   	nop
 805a214:	8d 74 26 00          	lea    0x0(%esi,%eiz,1),%esi
 805a218:	83 ff 05             	cmp    $0x5,%edi
 805a21b:	7e 0b                	jle    805a228 <geteuid@plt+0x10a50>
 805a21d:	83 c4 1c             	add    $0x1c,%esp
 805a220:	31 c0                	xor    %eax,%eax
 805a222:	5b                   	pop    %ebx
 805a223:	5e                   	pop    %esi
 805a224:	5f                   	pop    %edi
 805a225:	5d                   	pop    %ebp
 805a226:	c3                   	ret    
 805a227:	90                   	nop
 805a228:	89 f0                	mov    %esi,%eax
 805a22a:	84 c0                	test   %al,%al
 805a22c:	74 ef                	je     805a21d <geteuid@plt+0x10a45>
 805a22e:	e8 a5 f2 fe ff       	call   80494d8 <__ctype_b_loc@plt>
 805a233:	89 f1                	mov    %esi,%ecx
 805a235:	8b 10                	mov    (%eax),%edx
 805a237:	0f be c1             	movsbl %cl,%eax
 805a23a:	f6 44 42 01 08       	testb  $0x8,0x1(%edx,%eax,2)
 805a23f:	74 37                	je     805a278 <geteuid@plt+0x10aa0>
 805a241:	83 e8 30             	sub    $0x30,%eax
 805a244:	83 c3 01             	add    $0x1,%ebx
 805a247:	89 c6                	mov    %eax,%esi
 805a249:	0f b6 03             	movzbl (%ebx),%eax
 805a24c:	c1 e6 04             	shl    $0x4,%esi
 805a24f:	0f be c8             	movsbl %al,%ecx
 805a252:	f6 44 4a 01 08       	testb  $0x8,0x1(%edx,%ecx,2)
 805a257:	74 2f                	je     805a288 <geteuid@plt+0x10ab0>
 805a259:	83 e9 30             	sub    $0x30,%ecx
 805a25c:	09 f1                	or     %esi,%ecx
 805a25e:	84 c0                	test   %al,%al
 805a260:	75 33                	jne    805a295 <geteuid@plt+0x10abd>
 805a262:	8b 45 e4             	mov    -0x1c(%ebp),%eax
 805a265:	88 0c 38             	mov    %cl,(%eax,%edi,1)
 805a268:	0f b6 33             	movzbl (%ebx),%esi
 805a26b:	89 f1                	mov    %esi,%ecx
 805a26d:	80 f9 3a             	cmp    $0x3a,%cl
 805a270:	74 36                	je     805a2a8 <geteuid@plt+0x10ad0>
 805a272:	83 c7 01             	add    $0x1,%edi
 805a275:	eb a1                	jmp    805a218 <geteuid@plt+0x10a40>
 805a277:	90                   	nop
 805a278:	8d 4e 9f             	lea    -0x61(%esi),%ecx
 805a27b:	80 f9 05             	cmp    $0x5,%cl
 805a27e:	77 30                	ja     805a2b0 <geteuid@plt+0x10ad8>
 805a280:	83 e8 57             	sub    $0x57,%eax
 805a283:	eb bf                	jmp    805a244 <geteuid@plt+0x10a6c>
 805a285:	8d 76 00             	lea    0x0(%esi),%esi
 805a288:	8d 50 9f             	lea    -0x61(%eax),%edx
 805a28b:	80 fa 05             	cmp    $0x5,%dl
 805a28e:	77 30                	ja     805a2c0 <geteuid@plt+0x10ae8>
 805a290:	83 e9 57             	sub    $0x57,%ecx
 805a293:	09 f1                	or     %esi,%ecx
 805a295:	8b 45 e4             	mov    -0x1c(%ebp),%eax
 805a298:	83 c3 01             	add    $0x1,%ebx
 805a29b:	88 0c 38             	mov    %cl,(%eax,%edi,1)
 805a29e:	0f b6 33             	movzbl (%ebx),%esi
 805a2a1:	89 f1                	mov    %esi,%ecx
 805a2a3:	80 f9 3a             	cmp    $0x3a,%cl
 805a2a6:	75 ca                	jne    805a272 <geteuid@plt+0x10a9a>
 805a2a8:	83 c3 01             	add    $0x1,%ebx
 805a2ab:	0f b6 33             	movzbl (%ebx),%esi
 805a2ae:	eb c2                	jmp    805a272 <geteuid@plt+0x10a9a>
 805a2b0:	8d 4e bf             	lea    -0x41(%esi),%ecx
 805a2b3:	80 f9 05             	cmp    $0x5,%cl
 805a2b6:	77 20                	ja     805a2d8 <geteuid@plt+0x10b00>
 805a2b8:	83 e8 37             	sub    $0x37,%eax
 805a2bb:	eb 87                	jmp    805a244 <geteuid@plt+0x10a6c>
 805a2bd:	8d 76 00             	lea    0x0(%esi),%esi
 805a2c0:	8d 50 bf             	lea    -0x41(%eax),%edx
 805a2c3:	80 fa 05             	cmp    $0x5,%dl
 805a2c6:	77 08                	ja     805a2d0 <geteuid@plt+0x10af8>
 805a2c8:	83 e9 37             	sub    $0x37,%ecx
 805a2cb:	09 f1                	or     %esi,%ecx
 805a2cd:	eb 8f                	jmp    805a25e <geteuid@plt+0x10a86>
 805a2cf:	90                   	nop
 805a2d0:	84 c0                	test   %al,%al
 805a2d2:	74 1c                	je     805a2f0 <geteuid@plt+0x10b18>
 805a2d4:	3c 3a                	cmp    $0x3a,%al
 805a2d6:	74 18                	je     805a2f0 <geteuid@plt+0x10b18>
 805a2d8:	e8 9b ef fe ff       	call   8049278 <__errno_location@plt>
 805a2dd:	c7 00 16 00 00 00    	movl   $0x16,(%eax)
 805a2e3:	83 c4 1c             	add    $0x1c,%esp
 805a2e6:	b8 ff ff ff ff       	mov    $0xffffffff,%eax
 805a2eb:	5b                   	pop    %ebx
 805a2ec:	5e                   	pop    %esi
 805a2ed:	5f                   	pop    %edi
 805a2ee:	5d                   	pop    %ebp
 805a2ef:	c3                   	ret    
 805a2f0:	89 f1                	mov    %esi,%ecx
 805a2f2:	c1 e9 04             	shr    $0x4,%ecx
 805a2f5:	e9 64 ff ff ff       	jmp    805a25e <geteuid@plt+0x10a86>
 805a2fa:	8d b6 00 00 00 00    	lea    0x0(%esi),%esi
 805a300:	55                   	push   %ebp
 805a301:	89 e5                	mov    %esp,%ebp
 805a303:	83 ec 38             	sub    $0x38,%esp
 805a306:	8b 45 08             	mov    0x8(%ebp),%eax
 805a309:	0f b6 50 05          	movzbl 0x5(%eax),%edx
 805a30d:	89 54 24 28          	mov    %edx,0x28(%esp)
 805a311:	0f b6 50 04          	movzbl 0x4(%eax),%edx
 805a315:	89 54 24 24          	mov    %edx,0x24(%esp)
 805a319:	0f b6 50 03          	movzbl 0x3(%eax),%edx
 805a31d:	89 54 24 20          	mov    %edx,0x20(%esp)
 805a321:	0f b6 50 02          	movzbl 0x2(%eax),%edx
 805a325:	89 54 24 1c          	mov    %edx,0x1c(%esp)
 805a329:	0f b6 50 01          	movzbl 0x1(%eax),%edx
 805a32d:	89 54 24 18          	mov    %edx,0x18(%esp)
 805a331:	0f b6 00             	movzbl (%eax),%eax
 805a334:	c7 44 24 10 58 fe 05 	movl   $0x805fe58,0x10(%esp)
 805a33b:	08 
 805a33c:	c7 44 24 0c 40 00 00 	movl   $0x40,0xc(%esp)
 805a343:	00 
 805a344:	c7 44 24 08 01 00 00 	movl   $0x1,0x8(%esp)
 805a34b:	00 
 805a34c:	89 44 24 14          	mov    %eax,0x14(%esp)
 805a350:	c7 44 24 04 40 00 00 	movl   $0x40,0x4(%esp)
 805a357:	00 
 805a358:	c7 04 24 20 36 06 08 	movl   $0x8063620,(%esp)
 805a35f:	e8 e4 f3 fe ff       	call   8049748 <__snprintf_chk@plt>
 805a364:	b8 20 36 06 08       	mov    $0x8063620,%eax
 805a369:	c9                   	leave  
 805a36a:	c3                   	ret    
 805a36b:	90                   	nop
 805a36c:	90                   	nop
 805a36d:	90                   	nop
 805a36e:	90                   	nop
 805a36f:	90                   	nop
 805a370:	55                   	push   %ebp
 805a371:	89 e5                	mov    %esp,%ebp
 805a373:	57                   	push   %edi
 805a374:	31 ff                	xor    %edi,%edi
 805a376:	56                   	push   %esi
 805a377:	53                   	push   %ebx
 805a378:	83 ec 1c             	sub    $0x1c,%esp
 805a37b:	8b 45 0c             	mov    0xc(%ebp),%eax
 805a37e:	8b 15 a8 27 06 08    	mov    0x80627a8,%edx
 805a384:	8b 5d 08             	mov    0x8(%ebp),%ebx
 805a387:	66 89 10             	mov    %dx,(%eax)
 805a38a:	83 c0 02             	add    $0x2,%eax
 805a38d:	89 45 e4             	mov    %eax,-0x1c(%ebp)
 805a390:	0f b6 33             	movzbl (%ebx),%esi
 805a393:	90                   	nop
 805a394:	8d 74 26 00          	lea    0x0(%esi,%eiz,1),%esi
 805a398:	83 ff 07             	cmp    $0x7,%edi
 805a39b:	7e 0b                	jle    805a3a8 <geteuid@plt+0x10bd0>
 805a39d:	83 c4 1c             	add    $0x1c,%esp
 805a3a0:	31 c0                	xor    %eax,%eax
 805a3a2:	5b                   	pop    %ebx
 805a3a3:	5e                   	pop    %esi
 805a3a4:	5f                   	pop    %edi
 805a3a5:	5d                   	pop    %ebp
 805a3a6:	c3                   	ret    
 805a3a7:	90                   	nop
 805a3a8:	89 f0                	mov    %esi,%eax
 805a3aa:	84 c0                	test   %al,%al
 805a3ac:	74 ef                	je     805a39d <geteuid@plt+0x10bc5>
 805a3ae:	e8 25 f1 fe ff       	call   80494d8 <__ctype_b_loc@plt>
 805a3b3:	89 f1                	mov    %esi,%ecx
 805a3b5:	8b 10                	mov    (%eax),%edx
 805a3b7:	0f be c1             	movsbl %cl,%eax
 805a3ba:	f6 44 42 01 08       	testb  $0x8,0x1(%edx,%eax,2)
 805a3bf:	74 37                	je     805a3f8 <geteuid@plt+0x10c20>
 805a3c1:	83 e8 30             	sub    $0x30,%eax
 805a3c4:	83 c3 01             	add    $0x1,%ebx
 805a3c7:	89 c6                	mov    %eax,%esi
 805a3c9:	0f b6 03             	movzbl (%ebx),%eax
 805a3cc:	c1 e6 04             	shl    $0x4,%esi
 805a3cf:	0f be c8             	movsbl %al,%ecx
 805a3d2:	f6 44 4a 01 08       	testb  $0x8,0x1(%edx,%ecx,2)
 805a3d7:	74 2f                	je     805a408 <geteuid@plt+0x10c30>
 805a3d9:	83 e9 30             	sub    $0x30,%ecx
 805a3dc:	09 f1                	or     %esi,%ecx
 805a3de:	84 c0                	test   %al,%al
 805a3e0:	75 33                	jne    805a415 <geteuid@plt+0x10c3d>
 805a3e2:	8b 45 e4             	mov    -0x1c(%ebp),%eax
 805a3e5:	88 0c 38             	mov    %cl,(%eax,%edi,1)
 805a3e8:	0f b6 33             	movzbl (%ebx),%esi
 805a3eb:	89 f1                	mov    %esi,%ecx
 805a3ed:	80 f9 3a             	cmp    $0x3a,%cl
 805a3f0:	74 36                	je     805a428 <geteuid@plt+0x10c50>
 805a3f2:	83 c7 01             	add    $0x1,%edi
 805a3f5:	eb a1                	jmp    805a398 <geteuid@plt+0x10bc0>
 805a3f7:	90                   	nop
 805a3f8:	8d 4e 9f             	lea    -0x61(%esi),%ecx
 805a3fb:	80 f9 05             	cmp    $0x5,%cl
 805a3fe:	77 30                	ja     805a430 <geteuid@plt+0x10c58>
 805a400:	83 e8 57             	sub    $0x57,%eax
 805a403:	eb bf                	jmp    805a3c4 <geteuid@plt+0x10bec>
 805a405:	8d 76 00             	lea    0x0(%esi),%esi
 805a408:	8d 50 9f             	lea    -0x61(%eax),%edx
 805a40b:	80 fa 05             	cmp    $0x5,%dl
 805a40e:	77 30                	ja     805a440 <geteuid@plt+0x10c68>
 805a410:	83 e9 57             	sub    $0x57,%ecx
 805a413:	09 f1                	or     %esi,%ecx
 805a415:	8b 45 e4             	mov    -0x1c(%ebp),%eax
 805a418:	83 c3 01             	add    $0x1,%ebx
 805a41b:	88 0c 38             	mov    %cl,(%eax,%edi,1)
 805a41e:	0f b6 33             	movzbl (%ebx),%esi
 805a421:	89 f1                	mov    %esi,%ecx
 805a423:	80 f9 3a             	cmp    $0x3a,%cl
 805a426:	75 ca                	jne    805a3f2 <geteuid@plt+0x10c1a>
 805a428:	83 c3 01             	add    $0x1,%ebx
 805a42b:	0f b6 33             	movzbl (%ebx),%esi
 805a42e:	eb c2                	jmp    805a3f2 <geteuid@plt+0x10c1a>
 805a430:	8d 4e bf             	lea    -0x41(%esi),%ecx
 805a433:	80 f9 05             	cmp    $0x5,%cl
 805a436:	77 20                	ja     805a458 <geteuid@plt+0x10c80>
 805a438:	83 e8 37             	sub    $0x37,%eax
 805a43b:	eb 87                	jmp    805a3c4 <geteuid@plt+0x10bec>
 805a43d:	8d 76 00             	lea    0x0(%esi),%esi
 805a440:	8d 50 bf             	lea    -0x41(%eax),%edx
 805a443:	80 fa 05             	cmp    $0x5,%dl
 805a446:	77 08                	ja     805a450 <geteuid@plt+0x10c78>
 805a448:	83 e9 37             	sub    $0x37,%ecx
 805a44b:	09 f1                	or     %esi,%ecx
 805a44d:	eb 8f                	jmp    805a3de <geteuid@plt+0x10c06>
 805a44f:	90                   	nop
 805a450:	84 c0                	test   %al,%al
 805a452:	74 1c                	je     805a470 <geteuid@plt+0x10c98>
 805a454:	3c 3a                	cmp    $0x3a,%al
 805a456:	74 18                	je     805a470 <geteuid@plt+0x10c98>
 805a458:	e8 1b ee fe ff       	call   8049278 <__errno_location@plt>
 805a45d:	c7 00 16 00 00 00    	movl   $0x16,(%eax)
 805a463:	83 c4 1c             	add    $0x1c,%esp
 805a466:	b8 ff ff ff ff       	mov    $0xffffffff,%eax
 805a46b:	5b                   	pop    %ebx
 805a46c:	5e                   	pop    %esi
 805a46d:	5f                   	pop    %edi
 805a46e:	5d                   	pop    %ebp
 805a46f:	c3                   	ret    
 805a470:	89 f1                	mov    %esi,%ecx
 805a472:	c1 e9 04             	shr    $0x4,%ecx
 805a475:	e9 64 ff ff ff       	jmp    805a3de <geteuid@plt+0x10c06>
 805a47a:	8d b6 00 00 00 00    	lea    0x0(%esi),%esi
 805a480:	55                   	push   %ebp
 805a481:	89 e5                	mov    %esp,%ebp
 805a483:	83 ec 48             	sub    $0x48,%esp
 805a486:	8b 45 08             	mov    0x8(%ebp),%eax
 805a489:	0f b6 50 07          	movzbl 0x7(%eax),%edx
 805a48d:	89 54 24 30          	mov    %edx,0x30(%esp)
 805a491:	0f b6 50 06          	movzbl 0x6(%eax),%edx
 805a495:	89 54 24 2c          	mov    %edx,0x2c(%esp)
 805a499:	0f b6 50 05          	movzbl 0x5(%eax),%edx
 805a49d:	89 54 24 28          	mov    %edx,0x28(%esp)
 805a4a1:	0f b6 50 04          	movzbl 0x4(%eax),%edx
 805a4a5:	89 54 24 24          	mov    %edx,0x24(%esp)
 805a4a9:	0f b6 50 03          	movzbl 0x3(%eax),%edx
 805a4ad:	89 54 24 20          	mov    %edx,0x20(%esp)
 805a4b1:	0f b6 50 02          	movzbl 0x2(%eax),%edx
 805a4b5:	89 54 24 1c          	mov    %edx,0x1c(%esp)
 805a4b9:	0f b6 50 01          	movzbl 0x1(%eax),%edx
 805a4bd:	89 54 24 18          	mov    %edx,0x18(%esp)
 805a4c1:	0f b6 00             	movzbl (%eax),%eax
 805a4c4:	c7 44 24 10 7c fe 05 	movl   $0x805fe7c,0x10(%esp)
 805a4cb:	08 
 805a4cc:	c7 44 24 0c 40 00 00 	movl   $0x40,0xc(%esp)
 805a4d3:	00 
 805a4d4:	c7 44 24 08 01 00 00 	movl   $0x1,0x8(%esp)
 805a4db:	00 
 805a4dc:	89 44 24 14          	mov    %eax,0x14(%esp)
 805a4e0:	c7 44 24 04 40 00 00 	movl   $0x40,0x4(%esp)
 805a4e7:	00 
 805a4e8:	c7 04 24 60 36 06 08 	movl   $0x8063660,(%esp)
 805a4ef:	e8 54 f2 fe ff       	call   8049748 <__snprintf_chk@plt>
 805a4f4:	b8 60 36 06 08       	mov    $0x8063660,%eax
 805a4f9:	c9                   	leave  
 805a4fa:	c3                   	ret    
 805a4fb:	90                   	nop
 805a4fc:	90                   	nop
 805a4fd:	90                   	nop
 805a4fe:	90                   	nop
 805a4ff:	90                   	nop
 805a500:	55                   	push   %ebp
 805a501:	89 e5                	mov    %esp,%ebp
 805a503:	57                   	push   %edi
 805a504:	56                   	push   %esi
 805a505:	31 f6                	xor    %esi,%esi
 805a507:	53                   	push   %ebx
 805a508:	83 ec 2c             	sub    $0x2c,%esp
 805a50b:	8b 45 0c             	mov    0xc(%ebp),%eax
 805a50e:	8b 15 c8 27 06 08    	mov    0x80627c8,%edx
 805a514:	8b 7d 08             	mov    0x8(%ebp),%edi
 805a517:	66 89 10             	mov    %dx,(%eax)
 805a51a:	83 c0 02             	add    $0x2,%eax
 805a51d:	89 45 e4             	mov    %eax,-0x1c(%ebp)
 805a520:	0f b6 1f             	movzbl (%edi),%ebx
 805a523:	90                   	nop
 805a524:	8d 74 26 00          	lea    0x0(%esi,%eiz,1),%esi
 805a528:	83 fe 05             	cmp    $0x5,%esi
 805a52b:	7e 0b                	jle    805a538 <geteuid@plt+0x10d60>
 805a52d:	83 c4 2c             	add    $0x2c,%esp
 805a530:	31 c0                	xor    %eax,%eax
 805a532:	5b                   	pop    %ebx
 805a533:	5e                   	pop    %esi
 805a534:	5f                   	pop    %edi
 805a535:	5d                   	pop    %ebp
 805a536:	c3                   	ret    
 805a537:	90                   	nop
 805a538:	84 db                	test   %bl,%bl
 805a53a:	74 f1                	je     805a52d <geteuid@plt+0x10d55>
 805a53c:	e8 97 ef fe ff       	call   80494d8 <__ctype_b_loc@plt>
 805a541:	8b 10                	mov    (%eax),%edx
 805a543:	0f be c3             	movsbl %bl,%eax
 805a546:	f6 44 42 01 08       	testb  $0x8,0x1(%edx,%eax,2)
 805a54b:	74 3b                	je     805a588 <geteuid@plt+0x10db0>
 805a54d:	8d 58 d0             	lea    -0x30(%eax),%ebx
 805a550:	c1 e3 04             	shl    $0x4,%ebx
 805a553:	89 5d d4             	mov    %ebx,-0x2c(%ebp)
 805a556:	8d 47 01             	lea    0x1(%edi),%eax
 805a559:	0f b6 7f 01          	movzbl 0x1(%edi),%edi
 805a55d:	89 fb                	mov    %edi,%ebx
 805a55f:	0f be cb             	movsbl %bl,%ecx
 805a562:	f6 44 4a 01 08       	testb  $0x8,0x1(%edx,%ecx,2)
 805a567:	74 2f                	je     805a598 <geteuid@plt+0x10dc0>
 805a569:	83 e9 30             	sub    $0x30,%ecx
 805a56c:	0b 4d d4             	or     -0x2c(%ebp),%ecx
 805a56f:	8b 55 e4             	mov    -0x1c(%ebp),%edx
 805a572:	8d 78 01             	lea    0x1(%eax),%edi
 805a575:	88 0c 32             	mov    %cl,(%edx,%esi,1)
 805a578:	0f b6 58 01          	movzbl 0x1(%eax),%ebx
 805a57c:	80 fb 3a             	cmp    $0x3a,%bl
 805a57f:	74 27                	je     805a5a8 <geteuid@plt+0x10dd0>
 805a581:	83 c6 01             	add    $0x1,%esi
 805a584:	eb a2                	jmp    805a528 <geteuid@plt+0x10d50>
 805a586:	66 90                	xchg   %ax,%ax
 805a588:	8d 4b 9f             	lea    -0x61(%ebx),%ecx
 805a58b:	80 f9 05             	cmp    $0x5,%cl
 805a58e:	77 28                	ja     805a5b8 <geteuid@plt+0x10de0>
 805a590:	8d 58 a9             	lea    -0x57(%eax),%ebx
 805a593:	eb bb                	jmp    805a550 <geteuid@plt+0x10d78>
 805a595:	8d 76 00             	lea    0x0(%esi),%esi
 805a598:	8d 57 9f             	lea    -0x61(%edi),%edx
 805a59b:	80 fa 05             	cmp    $0x5,%dl
 805a59e:	77 28                	ja     805a5c8 <geteuid@plt+0x10df0>
 805a5a0:	83 e9 57             	sub    $0x57,%ecx
 805a5a3:	0b 4d d4             	or     -0x2c(%ebp),%ecx
 805a5a6:	eb c7                	jmp    805a56f <geteuid@plt+0x10d97>
 805a5a8:	8d 78 02             	lea    0x2(%eax),%edi
 805a5ab:	0f b6 58 02          	movzbl 0x2(%eax),%ebx
 805a5af:	eb d0                	jmp    805a581 <geteuid@plt+0x10da9>
 805a5b1:	8d b4 26 00 00 00 00 	lea    0x0(%esi,%eiz,1),%esi
 805a5b8:	83 eb 41             	sub    $0x41,%ebx
 805a5bb:	80 fb 05             	cmp    $0x5,%bl
 805a5be:	77 18                	ja     805a5d8 <geteuid@plt+0x10e00>
 805a5c0:	8d 58 c9             	lea    -0x37(%eax),%ebx
 805a5c3:	eb 8b                	jmp    805a550 <geteuid@plt+0x10d78>
 805a5c5:	8d 76 00             	lea    0x0(%esi),%esi
 805a5c8:	8d 57 bf             	lea    -0x41(%edi),%edx
 805a5cb:	80 fa 05             	cmp    $0x5,%dl
 805a5ce:	77 08                	ja     805a5d8 <geteuid@plt+0x10e00>
 805a5d0:	83 e9 37             	sub    $0x37,%ecx
 805a5d3:	0b 4d d4             	or     -0x2c(%ebp),%ecx
 805a5d6:	eb 97                	jmp    805a56f <geteuid@plt+0x10d97>
 805a5d8:	e8 9b ec fe ff       	call   8049278 <__errno_location@plt>
 805a5dd:	c7 00 16 00 00 00    	movl   $0x16,(%eax)
 805a5e3:	83 c4 2c             	add    $0x2c,%esp
 805a5e6:	b8 ff ff ff ff       	mov    $0xffffffff,%eax
 805a5eb:	5b                   	pop    %ebx
 805a5ec:	5e                   	pop    %esi
 805a5ed:	5f                   	pop    %edi
 805a5ee:	5d                   	pop    %ebp
 805a5ef:	c3                   	ret    
 805a5f0:	55                   	push   %ebp
 805a5f1:	89 e5                	mov    %esp,%ebp
 805a5f3:	83 ec 38             	sub    $0x38,%esp
 805a5f6:	8b 45 08             	mov    0x8(%ebp),%eax
 805a5f9:	0f b6 50 05          	movzbl 0x5(%eax),%edx
 805a5fd:	89 54 24 28          	mov    %edx,0x28(%esp)
 805a601:	0f b6 50 04          	movzbl 0x4(%eax),%edx
 805a605:	89 54 24 24          	mov    %edx,0x24(%esp)
 805a609:	0f b6 50 03          	movzbl 0x3(%eax),%edx
 805a60d:	89 54 24 20          	mov    %edx,0x20(%esp)
 805a611:	0f b6 50 02          	movzbl 0x2(%eax),%edx
 805a615:	89 54 24 1c          	mov    %edx,0x1c(%esp)
 805a619:	0f b6 50 01          	movzbl 0x1(%eax),%edx
 805a61d:	89 54 24 18          	mov    %edx,0x18(%esp)
 805a621:	0f b6 00             	movzbl (%eax),%eax
 805a624:	c7 44 24 10 aa fe 05 	movl   $0x805feaa,0x10(%esp)
 805a62b:	08 
 805a62c:	c7 44 24 0c 40 00 00 	movl   $0x40,0xc(%esp)
 805a633:	00 
 805a634:	c7 44 24 08 01 00 00 	movl   $0x1,0x8(%esp)
 805a63b:	00 
 805a63c:	89 44 24 14          	mov    %eax,0x14(%esp)
 805a640:	c7 44 24 04 40 00 00 	movl   $0x40,0x4(%esp)
 805a647:	00 
 805a648:	c7 04 24 a0 36 06 08 	movl   $0x80636a0,(%esp)
 805a64f:	e8 f4 f0 fe ff       	call   8049748 <__snprintf_chk@plt>
 805a654:	b8 a0 36 06 08       	mov    $0x80636a0,%eax
 805a659:	c9                   	leave  
 805a65a:	c3                   	ret    
 805a65b:	90                   	nop
 805a65c:	90                   	nop
 805a65d:	90                   	nop
 805a65e:	90                   	nop
 805a65f:	90                   	nop
 805a660:	55                   	push   %ebp
 805a661:	89 e5                	mov    %esp,%ebp
 805a663:	83 ec 28             	sub    $0x28,%esp
 805a666:	8b 45 08             	mov    0x8(%ebp),%eax
 805a669:	0f bf 00             	movswl (%eax),%eax
 805a66c:	c7 44 24 10 cd fe 05 	movl   $0x805fecd,0x10(%esp)
 805a673:	08 
 805a674:	c7 44 24 0c 0c 00 00 	movl   $0xc,0xc(%esp)
 805a67b:	00 
 805a67c:	c7 44 24 08 01 00 00 	movl   $0x1,0x8(%esp)
 805a683:	00 
 805a684:	89 44 24 14          	mov    %eax,0x14(%esp)
 805a688:	c7 44 24 04 0c 00 00 	movl   $0xc,0x4(%esp)
 805a68f:	00 
 805a690:	c7 04 24 e0 36 06 08 	movl   $0x80636e0,(%esp)
 805a697:	e8 ac f0 fe ff       	call   8049748 <__snprintf_chk@plt>
 805a69c:	b8 e0 36 06 08       	mov    $0x80636e0,%eax
 805a6a1:	c9                   	leave  
 805a6a2:	c3                   	ret    
 805a6a3:	90                   	nop
 805a6a4:	90                   	nop
 805a6a5:	90                   	nop
 805a6a6:	90                   	nop
 805a6a7:	90                   	nop
 805a6a8:	90                   	nop
 805a6a9:	90                   	nop
 805a6aa:	90                   	nop
 805a6ab:	90                   	nop
 805a6ac:	90                   	nop
 805a6ad:	90                   	nop
 805a6ae:	90                   	nop
 805a6af:	90                   	nop
 805a6b0:	55                   	push   %ebp
 805a6b1:	89 e5                	mov    %esp,%ebp
 805a6b3:	57                   	push   %edi
 805a6b4:	56                   	push   %esi
 805a6b5:	31 f6                	xor    %esi,%esi
 805a6b7:	53                   	push   %ebx
 805a6b8:	83 ec 2c             	sub    $0x2c,%esp
 805a6bb:	8b 45 0c             	mov    0xc(%ebp),%eax
 805a6be:	8b 15 68 28 06 08    	mov    0x8062868,%edx
 805a6c4:	8b 7d 08             	mov    0x8(%ebp),%edi
 805a6c7:	66 89 10             	mov    %dx,(%eax)
 805a6ca:	83 c0 02             	add    $0x2,%eax
 805a6cd:	89 45 e4             	mov    %eax,-0x1c(%ebp)
 805a6d0:	0f b6 1f             	movzbl (%edi),%ebx
 805a6d3:	90                   	nop
 805a6d4:	8d 74 26 00          	lea    0x0(%esi,%eiz,1),%esi
 805a6d8:	83 fe 05             	cmp    $0x5,%esi
 805a6db:	7e 0b                	jle    805a6e8 <geteuid@plt+0x10f10>
 805a6dd:	83 c4 2c             	add    $0x2c,%esp
 805a6e0:	31 c0                	xor    %eax,%eax
 805a6e2:	5b                   	pop    %ebx
 805a6e3:	5e                   	pop    %esi
 805a6e4:	5f                   	pop    %edi
 805a6e5:	5d                   	pop    %ebp
 805a6e6:	c3                   	ret    
 805a6e7:	90                   	nop
 805a6e8:	84 db                	test   %bl,%bl
 805a6ea:	74 f1                	je     805a6dd <geteuid@plt+0x10f05>
 805a6ec:	e8 e7 ed fe ff       	call   80494d8 <__ctype_b_loc@plt>
 805a6f1:	8b 10                	mov    (%eax),%edx
 805a6f3:	0f be c3             	movsbl %bl,%eax
 805a6f6:	f6 44 42 01 08       	testb  $0x8,0x1(%edx,%eax,2)
 805a6fb:	74 3b                	je     805a738 <geteuid@plt+0x10f60>
 805a6fd:	8d 58 d0             	lea    -0x30(%eax),%ebx
 805a700:	c1 e3 04             	shl    $0x4,%ebx
 805a703:	89 5d d4             	mov    %ebx,-0x2c(%ebp)
 805a706:	8d 47 01             	lea    0x1(%edi),%eax
 805a709:	0f b6 7f 01          	movzbl 0x1(%edi),%edi
 805a70d:	89 fb                	mov    %edi,%ebx
 805a70f:	0f be cb             	movsbl %bl,%ecx
 805a712:	f6 44 4a 01 08       	testb  $0x8,0x1(%edx,%ecx,2)
 805a717:	74 2f                	je     805a748 <geteuid@plt+0x10f70>
 805a719:	83 e9 30             	sub    $0x30,%ecx
 805a71c:	0b 4d d4             	or     -0x2c(%ebp),%ecx
 805a71f:	8b 55 e4             	mov    -0x1c(%ebp),%edx
 805a722:	8d 78 01             	lea    0x1(%eax),%edi
 805a725:	88 0c 32             	mov    %cl,(%edx,%esi,1)
 805a728:	0f b6 58 01          	movzbl 0x1(%eax),%ebx
 805a72c:	80 fb 3a             	cmp    $0x3a,%bl
 805a72f:	74 27                	je     805a758 <geteuid@plt+0x10f80>
 805a731:	83 c6 01             	add    $0x1,%esi
 805a734:	eb a2                	jmp    805a6d8 <geteuid@plt+0x10f00>
 805a736:	66 90                	xchg   %ax,%ax
 805a738:	8d 4b 9f             	lea    -0x61(%ebx),%ecx
 805a73b:	80 f9 05             	cmp    $0x5,%cl
 805a73e:	77 28                	ja     805a768 <geteuid@plt+0x10f90>
 805a740:	8d 58 a9             	lea    -0x57(%eax),%ebx
 805a743:	eb bb                	jmp    805a700 <geteuid@plt+0x10f28>
 805a745:	8d 76 00             	lea    0x0(%esi),%esi
 805a748:	8d 57 9f             	lea    -0x61(%edi),%edx
 805a74b:	80 fa 05             	cmp    $0x5,%dl
 805a74e:	77 28                	ja     805a778 <geteuid@plt+0x10fa0>
 805a750:	83 e9 57             	sub    $0x57,%ecx
 805a753:	0b 4d d4             	or     -0x2c(%ebp),%ecx
 805a756:	eb c7                	jmp    805a71f <geteuid@plt+0x10f47>
 805a758:	8d 78 02             	lea    0x2(%eax),%edi
 805a75b:	0f b6 58 02          	movzbl 0x2(%eax),%ebx
 805a75f:	eb d0                	jmp    805a731 <geteuid@plt+0x10f59>
 805a761:	8d b4 26 00 00 00 00 	lea    0x0(%esi,%eiz,1),%esi
 805a768:	83 eb 41             	sub    $0x41,%ebx
 805a76b:	80 fb 05             	cmp    $0x5,%bl
 805a76e:	77 18                	ja     805a788 <geteuid@plt+0x10fb0>
 805a770:	8d 58 c9             	lea    -0x37(%eax),%ebx
 805a773:	eb 8b                	jmp    805a700 <geteuid@plt+0x10f28>
 805a775:	8d 76 00             	lea    0x0(%esi),%esi
 805a778:	8d 57 bf             	lea    -0x41(%edi),%edx
 805a77b:	80 fa 05             	cmp    $0x5,%dl
 805a77e:	77 08                	ja     805a788 <geteuid@plt+0x10fb0>
 805a780:	83 e9 37             	sub    $0x37,%ecx
 805a783:	0b 4d d4             	or     -0x2c(%ebp),%ecx
 805a786:	eb 97                	jmp    805a71f <geteuid@plt+0x10f47>
 805a788:	e8 eb ea fe ff       	call   8049278 <__errno_location@plt>
 805a78d:	c7 00 16 00 00 00    	movl   $0x16,(%eax)
 805a793:	83 c4 2c             	add    $0x2c,%esp
 805a796:	b8 ff ff ff ff       	mov    $0xffffffff,%eax
 805a79b:	5b                   	pop    %ebx
 805a79c:	5e                   	pop    %esi
 805a79d:	5f                   	pop    %edi
 805a79e:	5d                   	pop    %ebp
 805a79f:	c3                   	ret    
 805a7a0:	55                   	push   %ebp
 805a7a1:	89 e5                	mov    %esp,%ebp
 805a7a3:	83 ec 38             	sub    $0x38,%esp
 805a7a6:	8b 45 08             	mov    0x8(%ebp),%eax
 805a7a9:	0f b6 50 05          	movzbl 0x5(%eax),%edx
 805a7ad:	89 54 24 24          	mov    %edx,0x24(%esp)
 805a7b1:	0f b6 50 04          	movzbl 0x4(%eax),%edx
 805a7b5:	89 54 24 20          	mov    %edx,0x20(%esp)
 805a7b9:	0f b6 50 03          	movzbl 0x3(%eax),%edx
 805a7bd:	89 54 24 1c          	mov    %edx,0x1c(%esp)
 805a7c1:	0f b6 50 02          	movzbl 0x2(%eax),%edx
 805a7c5:	89 54 24 18          	mov    %edx,0x18(%esp)
 805a7c9:	0f b6 50 01          	movzbl 0x1(%eax),%edx
 805a7cd:	89 54 24 14          	mov    %edx,0x14(%esp)
 805a7d1:	0f b6 00             	movzbl (%eax),%eax
 805a7d4:	c7 44 24 0c 29 fe 05 	movl   $0x805fe29,0xc(%esp)
 805a7db:	08 
 805a7dc:	c7 44 24 08 40 00 00 	movl   $0x40,0x8(%esp)
 805a7e3:	00 
 805a7e4:	c7 44 24 04 01 00 00 	movl   $0x1,0x4(%esp)
 805a7eb:	00 
 805a7ec:	89 44 24 10          	mov    %eax,0x10(%esp)
 805a7f0:	c7 04 24 00 37 06 08 	movl   $0x8063700,(%esp)
 805a7f7:	e8 1c ef fe ff       	call   8049718 <__sprintf_chk@plt>
 805a7fc:	b8 00 37 06 08       	mov    $0x8063700,%eax
 805a801:	c9                   	leave  
 805a802:	c3                   	ret    
 805a803:	90                   	nop
 805a804:	90                   	nop
 805a805:	90                   	nop
 805a806:	90                   	nop
 805a807:	90                   	nop
 805a808:	90                   	nop
 805a809:	90                   	nop
 805a80a:	90                   	nop
 805a80b:	90                   	nop
 805a80c:	90                   	nop
 805a80d:	90                   	nop
 805a80e:	90                   	nop
 805a80f:	90                   	nop
 805a810:	55                   	push   %ebp
 805a811:	89 e5                	mov    %esp,%ebp
 805a813:	57                   	push   %edi
 805a814:	56                   	push   %esi
 805a815:	83 ec 10             	sub    $0x10,%esp
 805a818:	8b 45 14             	mov    0x14(%ebp),%eax
 805a81b:	8b 55 08             	mov    0x8(%ebp),%edx
 805a81e:	8b 75 10             	mov    0x10(%ebp),%esi
 805a821:	8b 7d 0c             	mov    0xc(%ebp),%edi
 805a824:	85 c0                	test   %eax,%eax
 805a826:	89 55 f0             	mov    %edx,-0x10(%ebp)
 805a829:	75 35                	jne    805a860 <geteuid@plt+0x11088>
 805a82b:	39 fe                	cmp    %edi,%esi
 805a82d:	77 61                	ja     805a890 <geteuid@plt+0x110b8>
 805a82f:	85 f6                	test   %esi,%esi
 805a831:	75 0b                	jne    805a83e <geteuid@plt+0x11066>
 805a833:	b8 01 00 00 00       	mov    $0x1,%eax
 805a838:	31 d2                	xor    %edx,%edx
 805a83a:	f7 f6                	div    %esi
 805a83c:	89 c6                	mov    %eax,%esi
 805a83e:	8b 4d f0             	mov    -0x10(%ebp),%ecx
 805a841:	31 d2                	xor    %edx,%edx
 805a843:	89 f8                	mov    %edi,%eax
 805a845:	f7 f6                	div    %esi
 805a847:	89 c7                	mov    %eax,%edi
 805a849:	89 c8                	mov    %ecx,%eax
 805a84b:	f7 f6                	div    %esi
 805a84d:	89 c1                	mov    %eax,%ecx
 805a84f:	89 fa                	mov    %edi,%edx
 805a851:	89 c8                	mov    %ecx,%eax
 805a853:	83 c4 10             	add    $0x10,%esp
 805a856:	5e                   	pop    %esi
 805a857:	5f                   	pop    %edi
 805a858:	5d                   	pop    %ebp
 805a859:	c3                   	ret    
 805a85a:	8d b6 00 00 00 00    	lea    0x0(%esi),%esi
 805a860:	39 f8                	cmp    %edi,%eax
 805a862:	77 1c                	ja     805a880 <geteuid@plt+0x110a8>
 805a864:	0f bd d0             	bsr    %eax,%edx
 805a867:	83 f2 1f             	xor    $0x1f,%edx
 805a86a:	89 55 f4             	mov    %edx,-0xc(%ebp)
 805a86d:	75 39                	jne    805a8a8 <geteuid@plt+0x110d0>
 805a86f:	3b 75 f0             	cmp    -0x10(%ebp),%esi
 805a872:	0f 86 a0 00 00 00    	jbe    805a918 <geteuid@plt+0x11140>
 805a878:	39 f8                	cmp    %edi,%eax
 805a87a:	0f 82 98 00 00 00    	jb     805a918 <geteuid@plt+0x11140>
 805a880:	31 ff                	xor    %edi,%edi
 805a882:	31 c9                	xor    %ecx,%ecx
 805a884:	89 c8                	mov    %ecx,%eax
 805a886:	89 fa                	mov    %edi,%edx
 805a888:	83 c4 10             	add    $0x10,%esp
 805a88b:	5e                   	pop    %esi
 805a88c:	5f                   	pop    %edi
 805a88d:	5d                   	pop    %ebp
 805a88e:	c3                   	ret    
 805a88f:	90                   	nop
 805a890:	89 d1                	mov    %edx,%ecx
 805a892:	89 fa                	mov    %edi,%edx
 805a894:	89 c8                	mov    %ecx,%eax
 805a896:	31 ff                	xor    %edi,%edi
 805a898:	f7 f6                	div    %esi
 805a89a:	89 c1                	mov    %eax,%ecx
 805a89c:	89 fa                	mov    %edi,%edx
 805a89e:	89 c8                	mov    %ecx,%eax
 805a8a0:	83 c4 10             	add    $0x10,%esp
 805a8a3:	5e                   	pop    %esi
 805a8a4:	5f                   	pop    %edi
 805a8a5:	5d                   	pop    %ebp
 805a8a6:	c3                   	ret    
 805a8a7:	90                   	nop
 805a8a8:	0f b6 4d f4          	movzbl -0xc(%ebp),%ecx
 805a8ac:	89 f2                	mov    %esi,%edx
 805a8ae:	d3 e0                	shl    %cl,%eax
 805a8b0:	89 45 ec             	mov    %eax,-0x14(%ebp)
 805a8b3:	b8 20 00 00 00       	mov    $0x20,%eax
 805a8b8:	2b 45 f4             	sub    -0xc(%ebp),%eax
 805a8bb:	89 c1                	mov    %eax,%ecx
 805a8bd:	d3 ea                	shr    %cl,%edx
 805a8bf:	0f b6 4d f4          	movzbl -0xc(%ebp),%ecx
 805a8c3:	0b 55 ec             	or     -0x14(%ebp),%edx
 805a8c6:	d3 e6                	shl    %cl,%esi
 805a8c8:	89 c1                	mov    %eax,%ecx
 805a8ca:	89 75 e8             	mov    %esi,-0x18(%ebp)
 805a8cd:	89 fe                	mov    %edi,%esi
 805a8cf:	d3 ee                	shr    %cl,%esi
 805a8d1:	0f b6 4d f4          	movzbl -0xc(%ebp),%ecx
 805a8d5:	89 55 ec             	mov    %edx,-0x14(%ebp)
 805a8d8:	8b 55 f0             	mov    -0x10(%ebp),%edx
 805a8db:	d3 e7                	shl    %cl,%edi
 805a8dd:	89 c1                	mov    %eax,%ecx
 805a8df:	d3 ea                	shr    %cl,%edx
 805a8e1:	09 d7                	or     %edx,%edi
 805a8e3:	89 f2                	mov    %esi,%edx
 805a8e5:	89 f8                	mov    %edi,%eax
 805a8e7:	f7 75 ec             	divl   -0x14(%ebp)
 805a8ea:	89 d6                	mov    %edx,%esi
 805a8ec:	89 c7                	mov    %eax,%edi
 805a8ee:	f7 65 e8             	mull   -0x18(%ebp)
 805a8f1:	39 d6                	cmp    %edx,%esi
 805a8f3:	89 55 ec             	mov    %edx,-0x14(%ebp)
 805a8f6:	72 30                	jb     805a928 <geteuid@plt+0x11150>
 805a8f8:	8b 55 f0             	mov    -0x10(%ebp),%edx
 805a8fb:	0f b6 4d f4          	movzbl -0xc(%ebp),%ecx
 805a8ff:	d3 e2                	shl    %cl,%edx
 805a901:	39 c2                	cmp    %eax,%edx
 805a903:	73 05                	jae    805a90a <geteuid@plt+0x11132>
 805a905:	3b 75 ec             	cmp    -0x14(%ebp),%esi
 805a908:	74 1e                	je     805a928 <geteuid@plt+0x11150>
 805a90a:	89 f9                	mov    %edi,%ecx
 805a90c:	31 ff                	xor    %edi,%edi
 805a90e:	e9 71 ff ff ff       	jmp    805a884 <geteuid@plt+0x110ac>
 805a913:	90                   	nop
 805a914:	8d 74 26 00          	lea    0x0(%esi,%eiz,1),%esi
 805a918:	31 ff                	xor    %edi,%edi
 805a91a:	b9 01 00 00 00       	mov    $0x1,%ecx
 805a91f:	e9 60 ff ff ff       	jmp    805a884 <geteuid@plt+0x110ac>
 805a924:	8d 74 26 00          	lea    0x0(%esi,%eiz,1),%esi
 805a928:	8d 4f ff             	lea    -0x1(%edi),%ecx
 805a92b:	31 ff                	xor    %edi,%edi
 805a92d:	89 c8                	mov    %ecx,%eax
 805a92f:	89 fa                	mov    %edi,%edx
 805a931:	83 c4 10             	add    $0x10,%esp
 805a934:	5e                   	pop    %esi
 805a935:	5f                   	pop    %edi
 805a936:	5d                   	pop    %ebp
 805a937:	c3                   	ret    
 805a938:	90                   	nop
 805a939:	90                   	nop
 805a93a:	90                   	nop
 805a93b:	90                   	nop
 805a93c:	90                   	nop
 805a93d:	90                   	nop
 805a93e:	90                   	nop
 805a93f:	90                   	nop
 805a940:	55                   	push   %ebp
 805a941:	89 e5                	mov    %esp,%ebp
 805a943:	57                   	push   %edi
 805a944:	56                   	push   %esi
 805a945:	83 ec 20             	sub    $0x20,%esp
 805a948:	8b 55 14             	mov    0x14(%ebp),%edx
 805a94b:	8b 4d 08             	mov    0x8(%ebp),%ecx
 805a94e:	8b 7d 10             	mov    0x10(%ebp),%edi
 805a951:	8b 75 0c             	mov    0xc(%ebp),%esi
 805a954:	85 d2                	test   %edx,%edx
 805a956:	89 c8                	mov    %ecx,%eax
 805a958:	89 4d f4             	mov    %ecx,-0xc(%ebp)
 805a95b:	75 13                	jne    805a970 <geteuid@plt+0x11198>
 805a95d:	39 f7                	cmp    %esi,%edi
 805a95f:	76 3f                	jbe    805a9a0 <geteuid@plt+0x111c8>
 805a961:	89 f2                	mov    %esi,%edx
 805a963:	f7 f7                	div    %edi
 805a965:	89 d0                	mov    %edx,%eax
 805a967:	31 d2                	xor    %edx,%edx
 805a969:	83 c4 20             	add    $0x20,%esp
 805a96c:	5e                   	pop    %esi
 805a96d:	5f                   	pop    %edi
 805a96e:	5d                   	pop    %ebp
 805a96f:	c3                   	ret    
 805a970:	39 f2                	cmp    %esi,%edx
 805a972:	77 4c                	ja     805a9c0 <geteuid@plt+0x111e8>
 805a974:	0f bd ca             	bsr    %edx,%ecx
 805a977:	83 f1 1f             	xor    $0x1f,%ecx
 805a97a:	89 4d f0             	mov    %ecx,-0x10(%ebp)
 805a97d:	75 51                	jne    805a9d0 <geteuid@plt+0x111f8>
 805a97f:	3b 7d f4             	cmp    -0xc(%ebp),%edi
 805a982:	0f 86 d0 00 00 00    	jbe    805aa58 <geteuid@plt+0x11280>
 805a988:	39 f2                	cmp    %esi,%edx
 805a98a:	0f 82 c8 00 00 00    	jb     805aa58 <geteuid@plt+0x11280>
 805a990:	8b 45 f4             	mov    -0xc(%ebp),%eax
 805a993:	89 f2                	mov    %esi,%edx
 805a995:	83 c4 20             	add    $0x20,%esp
 805a998:	5e                   	pop    %esi
 805a999:	5f                   	pop    %edi
 805a99a:	5d                   	pop    %ebp
 805a99b:	c3                   	ret    
 805a99c:	8d 74 26 00          	lea    0x0(%esi,%eiz,1),%esi
 805a9a0:	85 ff                	test   %edi,%edi
 805a9a2:	75 0b                	jne    805a9af <geteuid@plt+0x111d7>
 805a9a4:	b8 01 00 00 00       	mov    $0x1,%eax
 805a9a9:	31 d2                	xor    %edx,%edx
 805a9ab:	f7 f7                	div    %edi
 805a9ad:	89 c7                	mov    %eax,%edi
 805a9af:	89 f0                	mov    %esi,%eax
 805a9b1:	31 d2                	xor    %edx,%edx
 805a9b3:	f7 f7                	div    %edi
 805a9b5:	8b 45 f4             	mov    -0xc(%ebp),%eax
 805a9b8:	f7 f7                	div    %edi
 805a9ba:	eb a9                	jmp    805a965 <geteuid@plt+0x1118d>
 805a9bc:	8d 74 26 00          	lea    0x0(%esi,%eiz,1),%esi
 805a9c0:	89 c8                	mov    %ecx,%eax
 805a9c2:	89 f2                	mov    %esi,%edx
 805a9c4:	83 c4 20             	add    $0x20,%esp
 805a9c7:	5e                   	pop    %esi
 805a9c8:	5f                   	pop    %edi
 805a9c9:	5d                   	pop    %ebp
 805a9ca:	c3                   	ret    
 805a9cb:	90                   	nop
 805a9cc:	8d 74 26 00          	lea    0x0(%esi,%eiz,1),%esi
 805a9d0:	0f b6 4d f0          	movzbl -0x10(%ebp),%ecx
 805a9d4:	d3 e2                	shl    %cl,%edx
 805a9d6:	89 55 f4             	mov    %edx,-0xc(%ebp)
 805a9d9:	ba 20 00 00 00       	mov    $0x20,%edx
 805a9de:	2b 55 f0             	sub    -0x10(%ebp),%edx
 805a9e1:	89 55 ec             	mov    %edx,-0x14(%ebp)
 805a9e4:	0f b6 4d ec          	movzbl -0x14(%ebp),%ecx
 805a9e8:	89 fa                	mov    %edi,%edx
 805a9ea:	d3 ea                	shr    %cl,%edx
 805a9ec:	0f b6 4d f0          	movzbl -0x10(%ebp),%ecx
 805a9f0:	0b 55 f4             	or     -0xc(%ebp),%edx
 805a9f3:	d3 e7                	shl    %cl,%edi
 805a9f5:	0f b6 4d ec          	movzbl -0x14(%ebp),%ecx
 805a9f9:	89 55 f4             	mov    %edx,-0xc(%ebp)
 805a9fc:	89 f2                	mov    %esi,%edx
 805a9fe:	89 7d e8             	mov    %edi,-0x18(%ebp)
 805aa01:	89 c7                	mov    %eax,%edi
 805aa03:	d3 ea                	shr    %cl,%edx
 805aa05:	0f b6 4d f0          	movzbl -0x10(%ebp),%ecx
 805aa09:	89 55 e4             	mov    %edx,-0x1c(%ebp)
 805aa0c:	89 c2                	mov    %eax,%edx
 805aa0e:	d3 e6                	shl    %cl,%esi
 805aa10:	0f b6 4d ec          	movzbl -0x14(%ebp),%ecx
 805aa14:	d3 ea                	shr    %cl,%edx
 805aa16:	0f b6 4d f0          	movzbl -0x10(%ebp),%ecx
 805aa1a:	09 d6                	or     %edx,%esi
 805aa1c:	89 f0                	mov    %esi,%eax
 805aa1e:	8b 75 e4             	mov    -0x1c(%ebp),%esi
 805aa21:	d3 e7                	shl    %cl,%edi
 805aa23:	89 f2                	mov    %esi,%edx
 805aa25:	f7 75 f4             	divl   -0xc(%ebp)
 805aa28:	89 d6                	mov    %edx,%esi
 805aa2a:	f7 65 e8             	mull   -0x18(%ebp)
 805aa2d:	39 d6                	cmp    %edx,%esi
 805aa2f:	72 3f                	jb     805aa70 <geteuid@plt+0x11298>
 805aa31:	39 c7                	cmp    %eax,%edi
 805aa33:	72 33                	jb     805aa68 <geteuid@plt+0x11290>
 805aa35:	0f b6 4d f0          	movzbl -0x10(%ebp),%ecx
 805aa39:	29 c7                	sub    %eax,%edi
 805aa3b:	19 d6                	sbb    %edx,%esi
 805aa3d:	89 f0                	mov    %esi,%eax
 805aa3f:	89 f2                	mov    %esi,%edx
 805aa41:	d3 ef                	shr    %cl,%edi
 805aa43:	0f b6 4d ec          	movzbl -0x14(%ebp),%ecx
 805aa47:	d3 e0                	shl    %cl,%eax
 805aa49:	0f b6 4d f0          	movzbl -0x10(%ebp),%ecx
 805aa4d:	09 f8                	or     %edi,%eax
 805aa4f:	d3 ea                	shr    %cl,%edx
 805aa51:	83 c4 20             	add    $0x20,%esp
 805aa54:	5e                   	pop    %esi
 805aa55:	5f                   	pop    %edi
 805aa56:	5d                   	pop    %ebp
 805aa57:	c3                   	ret    
 805aa58:	8b 45 f4             	mov    -0xc(%ebp),%eax
 805aa5b:	29 f8                	sub    %edi,%eax
 805aa5d:	19 d6                	sbb    %edx,%esi
 805aa5f:	89 45 f4             	mov    %eax,-0xc(%ebp)
 805aa62:	e9 29 ff ff ff       	jmp    805a990 <geteuid@plt+0x111b8>
 805aa67:	90                   	nop
 805aa68:	39 d6                	cmp    %edx,%esi
 805aa6a:	75 c9                	jne    805aa35 <geteuid@plt+0x1125d>
 805aa6c:	8d 74 26 00          	lea    0x0(%esi,%eiz,1),%esi
 805aa70:	2b 45 e8             	sub    -0x18(%ebp),%eax
 805aa73:	1b 55 f4             	sbb    -0xc(%ebp),%edx
 805aa76:	eb bd                	jmp    805aa35 <geteuid@plt+0x1125d>
 805aa78:	90                   	nop
 805aa79:	90                   	nop
 805aa7a:	90                   	nop
 805aa7b:	90                   	nop
 805aa7c:	90                   	nop
 805aa7d:	90                   	nop
 805aa7e:	90                   	nop
 805aa7f:	90                   	nop
 805aa80:	55                   	push   %ebp
 805aa81:	89 e5                	mov    %esp,%ebp
 805aa83:	5d                   	pop    %ebp
 805aa84:	c3                   	ret    
 805aa85:	8d 74 26 00          	lea    0x0(%esi,%eiz,1),%esi
 805aa89:	8d bc 27 00 00 00 00 	lea    0x0(%edi,%eiz,1),%edi
 805aa90:	55                   	push   %ebp
 805aa91:	89 e5                	mov    %esp,%ebp
 805aa93:	57                   	push   %edi
 805aa94:	56                   	push   %esi
 805aa95:	53                   	push   %ebx
 805aa96:	e8 4f 00 00 00       	call   805aaea <geteuid@plt+0x11312>
 805aa9b:	81 c3 59 65 00 00    	add    $0x6559,%ebx
 805aaa1:	83 ec 1c             	sub    $0x1c,%esp
 805aaa4:	e8 5f e7 fe ff       	call   8049208 <fileno@plt-0x40>
 805aaa9:	8d bb 18 ff ff ff    	lea    -0xe8(%ebx),%edi
 805aaaf:	8d 83 18 ff ff ff    	lea    -0xe8(%ebx),%eax
 805aab5:	29 c7                	sub    %eax,%edi
 805aab7:	c1 ff 02             	sar    $0x2,%edi
 805aaba:	85 ff                	test   %edi,%edi
 805aabc:	74 24                	je     805aae2 <geteuid@plt+0x1130a>
 805aabe:	31 f6                	xor    %esi,%esi
 805aac0:	8b 45 10             	mov    0x10(%ebp),%eax
 805aac3:	89 44 24 08          	mov    %eax,0x8(%esp)
 805aac7:	8b 45 0c             	mov    0xc(%ebp),%eax
 805aaca:	89 44 24 04          	mov    %eax,0x4(%esp)
 805aace:	8b 45 08             	mov    0x8(%ebp),%eax
 805aad1:	89 04 24             	mov    %eax,(%esp)
 805aad4:	ff 94 b3 18 ff ff ff 	call   *-0xe8(%ebx,%esi,4)
 805aadb:	83 c6 01             	add    $0x1,%esi
 805aade:	39 fe                	cmp    %edi,%esi
 805aae0:	72 de                	jb     805aac0 <geteuid@plt+0x112e8>
 805aae2:	83 c4 1c             	add    $0x1c,%esp
 805aae5:	5b                   	pop    %ebx
 805aae6:	5e                   	pop    %esi
 805aae7:	5f                   	pop    %edi
 805aae8:	5d                   	pop    %ebp
 805aae9:	c3                   	ret    
 805aaea:	8b 1c 24             	mov    (%esp),%ebx
 805aaed:	c3                   	ret    
 805aaee:	90                   	nop
 805aaef:	90                   	nop
 805aaf0:	55                   	push   %ebp
 805aaf1:	89 e5                	mov    %esp,%ebp
 805aaf3:	53                   	push   %ebx
 805aaf4:	83 ec 04             	sub    $0x4,%esp
 805aaf7:	a1 0c 0f 06 08       	mov    0x8060f0c,%eax
 805aafc:	83 f8 ff             	cmp    $0xffffffff,%eax
 805aaff:	74 13                	je     805ab14 <geteuid@plt+0x1133c>
 805ab01:	bb 0c 0f 06 08       	mov    $0x8060f0c,%ebx
 805ab06:	66 90                	xchg   %ax,%ax
 805ab08:	83 eb 04             	sub    $0x4,%ebx
 805ab0b:	ff d0                	call   *%eax
 805ab0d:	8b 03                	mov    (%ebx),%eax
 805ab0f:	83 f8 ff             	cmp    $0xffffffff,%eax
 805ab12:	75 f4                	jne    805ab08 <geteuid@plt+0x11330>
 805ab14:	83 c4 04             	add    $0x4,%esp
 805ab17:	5b                   	pop    %ebx
 805ab18:	5d                   	pop    %ebp
 805ab19:	c3                   	ret    
 805ab1a:	90                   	nop
 805ab1b:	90                   	nop

Disassembly of section .fini:

0805ab1c <.fini>:
 805ab1c:	55                   	push   %ebp
 805ab1d:	89 e5                	mov    %esp,%ebp
 805ab1f:	53                   	push   %ebx
 805ab20:	83 ec 04             	sub    $0x4,%esp
 805ab23:	e8 00 00 00 00       	call   805ab28 <geteuid@plt+0x11350>
 805ab28:	5b                   	pop    %ebx
 805ab29:	81 c3 cc 64 00 00    	add    $0x64cc,%ebx
 805ab2f:	e8 ec ec fe ff       	call   8049820 <geteuid@plt+0x48>
 805ab34:	59                   	pop    %ecx
 805ab35:	5b                   	pop    %ebx
 805ab36:	c9                   	leave  
 805ab37:	c3                   	ret    
